(dp1
S'output'
p2
S"<type 'exceptions.IndentationError'> expected an indented block (default.py, line 92)"
p3
sS'layer'
p4
S'/Users/ianaboneva/Dropbox/DePaul/CSC 438 - Web Applications/web2py/applications/Book_Shelf_copy/controllers/default.py'
p5
sS'code'
p6
S'# -*- coding: utf-8 -*-\n# this file is released under public domain and you can use without limitations\n\n#########################################################################\n## This is a samples controller\n## - index is the default action of any application\n## - user is required for authentication and authorization\n## - download is for downloading files uploaded in the db (does streaming)\n## - call exposes all registered services (none by default)\n#########################################################################\n\ndef index():\n    shelves = db(db.Book_Shelf.created_by==auth.user.id).select()\n    return locals()\n\n@auth.requires_login()\ndef create_user_profile():\n    form = SQLFORM(db.User_Profile)\n    if form.process().accepted:\n        session.flash = "Form Accepted"\n        redirect(URL(\'user_profile\'))\n    else:\n        response.flash= "This is completely wrong you weiner..TRY AGAIN!"\n    return locals()\n\n@auth.requires_login() \ndef update_user_profile():\n    record = db.User_Profile(request.args(0)) or redirect (URL(\'index\'))\n    if (auth.user.id!=record.created_by):\n        session.flash = \'access denied\'\n        redirect(URL(\'index\'))\n    form = SQLFORM(db.User_Profile, record)\n    if form.process().accepted:\n        session.flash = "Form Accepted"\n        redirect(URL(\'user_profile\'))\n    else:\n        response.flash= "This is completely wrong you weiner..TRY AGAIN!"\n    return locals()\n      \n@auth.requires_login() \ndef user_profile():\n    profiles = db(db.User_Profile.created_by==auth.user.id).select()\n    return locals()\n\n@auth.requires_login() \ndef create_book_profile():\n    form = SQLFORM(db.Book_Profile)\n    if form.process().accepted:\n        session.flash = "Form Accepted"\n        redirect(URL(\'book_profile\'))\n    else:\n        response.flash= "This is completely wrong you weiner..TRY AGAIN!"\n    return locals()\n  \n@auth.requires_login() \ndef update_book_profile():\n    record = db.Book_Profile(request.args(0)) or redirect (URL(\'index\'))\n    form = SQLFORM(db.Book_Profile, record)\n    if form.process().accepted:\n        session.flash = "Form Accepted"\n        redirect(URL(\'book_profile\'))\n    else:\n        response.flash= "This is completely wrong you weiner..TRY AGAIN!"\n    return locals()\n      \ndef book_profile():\n    book = db.Book_Profile(request.args(0)) or redirect (URL(\'index\'))\n    return locals()\n\n@auth.requires_login() \ndef create_book_shelf():\n    form = SQLFORM(db.Book_Shelf)\n    if form.process().accepted:\n        session.flash = "Form Accepted"\n    else:\n        response.flash = "WRONG!"\n    return locals()\n\n@auth.requires_login() \ndef update_book_shelf():\n    record = db.Book_Shelf(request.args(0)) or redirect (URL(\'index\'))\n    form = SQLFORM(db.Book_Shelf, record)\n    if form.process().accepted:\n        session.flash = "Form Accepted"\n        redirect(URL(\'book_shelf\'))\n    else:\n        response.flash= "This is completely wrong you weiner..TRY AGAIN!"\n    return locals()\n    \n@auth.requires_login()      \ndef book_shelf():\n<<<<<<< HEAD\n    shelves = db(db.Book_Shelf.created_by==auth.user.id).select()\n=======\n    shelf = db.Book_Shelf(request.args(0)) or redirect (URL(\'index\'))\n    books = db(db.Book_Shelf_Items.Book_Shelf_id==request.args(0)).select()\n    form = SQLFORM(db.Book_Shelf_Items)\n    if form.process().accepted:\n        session.flash = "Form Accepted"\n    else:\n        response.flash = "WRONG!"\n>>>>>>> Book profile\n    return locals()\n \n@auth.requires_login()    \ndef comments():\n    return locals()\n \n@auth.requires_login()    \ndef reviews():\n    return locals()\n\n\ndef user():\n    """\n    exposes:\n    http://..../[app]/default/user/login\n    http://..../[app]/default/user/logout\n    http://..../[app]/default/user/register\n    http://..../[app]/default/user/profile\n    http://..../[app]/default/user/retrieve_password\n    http://..../[app]/default/user/change_password\n    use @auth.requires_login()\n        @auth.requires_membership(\'group name\')\n        @auth.requires_permission(\'read\',\'table name\',record_id)\n    to decorate functions that need access control\n    """\n    return dict(form=auth())\n\ndef download():\n    """\n    allows downloading of uploaded files\n    http://..../[app]/default/download/[filename]\n    """\n    return response.download(request,db)\n\n\ndef call():\n    """\n    exposes services. for example:\n    http://..../[app]/default/call/jsonrpc\n    decorate with @services.jsonrpc the functions to expose\n    supports xml, json, xmlrpc, jsonrpc, amfrpc, rss, csv\n    """\n    return service()\n\n\n@auth.requires_signature()\ndef data():\n    """\n    http://..../[app]/default/data/tables\n    http://..../[app]/default/data/create/[table]\n    http://..../[app]/default/data/read/[table]/[id]\n    http://..../[app]/default/data/update/[table]/[id]\n    http://..../[app]/default/data/delete/[table]/[id]\n    http://..../[app]/default/data/select/[table]\n    http://..../[app]/default/data/search/[table]\n    but URLs must be signed, i.e. linked with\n      A(\'table\',_href=URL(\'data/tables\',user_signature=True))\n    or with the signed load operator\n      LOAD(\'default\',\'data.load\',args=\'tables\',ajax=True,user_signature=True)\n    """\n    return dict(form=crud())\n\nresponse._vars=response._caller(create_user_profile)\n'
p7
sS'snapshot'
p8
(dp9
S'exception'
p10
(dp11
S'__getslice__'
p12
S"<method-wrapper '__getslice__' of exceptions.IndentationError object>"
p13
sS'text'
p14
S"'<<<<<<< HEAD\\n'"
p15
sS'__str__'
p16
S"<method-wrapper '__str__' of exceptions.IndentationError object>"
p17
sS'__reduce__'
p18
S'<built-in method __reduce__ of exceptions.IndentationError object>'
p19
sS'__dict__'
p20
S'{}'
p21
sS'__sizeof__'
p22
S'<built-in method __sizeof__ of exceptions.IndentationError object>'
p23
sS'__init__'
p24
S"<method-wrapper '__init__' of exceptions.IndentationError object>"
p25
sS'__setattr__'
p26
S"<method-wrapper '__setattr__' of exceptions.IndentationError object>"
p27
sS'__reduce_ex__'
p28
S'<built-in method __reduce_ex__ of exceptions.IndentationError object>'
p29
sS'__new__'
p30
S'<built-in method __new__ of type object>'
p31
sS'__format__'
p32
S'<built-in method __format__ of exceptions.IndentationError object>'
p33
sS'__class__'
p34
S"<type 'exceptions.IndentationError'>"
p35
sS'filename'
p36
S"'/Users/ianaboneva/Dropbox/DePaul/CSC 438 - Web A...plications/Book_Shelf_copy/controllers/default.py'"
p37
sS'lineno'
p38
S'92'
p39
sS'msg'
p40
S"'expected an indented block'"
p41
sS'__doc__'
p42
S"'Improper indentation.'"
p43
sS'__getitem__'
p44
S"<method-wrapper '__getitem__' of exceptions.IndentationError object>"
p45
sS'__setstate__'
p46
S'<built-in method __setstate__ of exceptions.IndentationError object>'
p47
sS'__getattribute__'
p48
S"<method-wrapper '__getattribute__' of exceptions.IndentationError object>"
p49
sS'print_file_and_line'
p50
S'None'
p51
sS'args'
p52
S"('expected an indented block', ('/Users/ianaboneva/Dropbox/DePaul/CSC 438 - Web A...plications/Book_Shelf_copy/controllers/default.py', 92, 2, '<<<<<<< HEAD\\n'))"
p53
sS'__subclasshook__'
p54
S'<built-in method __subclasshook__ of type object>'
p55
sS'offset'
p56
S'2'
sS'__unicode__'
p57
S'<built-in method __unicode__ of exceptions.IndentationError object>'
p58
sS'__delattr__'
p59
S"<method-wrapper '__delattr__' of exceptions.IndentationError object>"
p60
sS'__repr__'
p61
S"<method-wrapper '__repr__' of exceptions.IndentationError object>"
p62
sS'__hash__'
p63
S"<method-wrapper '__hash__' of exceptions.IndentationError object>"
p64
ssS'evalue'
p65
S'expected an indented block (default.py, line 92)'
p66
sS'request'
p67
ccopy_reg
_reconstructor
p68
(cgluon.html
BEAUTIFY
p69
c__builtin__
object
p70
NtRp71
(dp72
S'attributes'
p73
(dp74
sS'components'
p75
(lp76
g68
(cgluon.html
TABLE
p77
g70
NtRp78
(dp79
g73
(dp80
S'level'
p81
I5
ssS'parent'
p82
Nsg75
(lp83
g68
(cgluon.html
TR
p84
g70
NtRp85
(dp86
g73
(dp87
sg82
g78
sg75
(lp88
g68
(cgluon.html
TD
p89
g70
NtRp90
(dp91
g73
(dp92
S'_style'
p93
S'font-weight:bold;vertical-align:top'
p94
ssg82
g85
sg75
(lp95
S'ajax'
p96
asbag68
(g89
g70
NtRp97
(dp98
g73
(dp99
S'_valign'
p100
S'top'
p101
ssg82
g85
sg75
(lp102
S':'
asbag68
(g89
g70
NtRp103
(dp104
g73
(dp105
sg82
g85
sg75
(lp106
g68
(g69
g70
NtRp107
(dp108
g73
(dp109
g81
I5
ssg82
g103
sg75
(lp110
S'False'
p111
asbasbasbag68
(g84
g70
NtRp112
(dp113
g73
(dp114
sg82
g78
sg75
(lp115
g68
(g89
g70
NtRp116
(dp117
g73
(dp118
g93
g94
ssg82
g112
sg75
(lp119
S'application'
p120
asbag68
(g89
g70
NtRp121
(dp122
g73
(dp123
g100
g101
ssg82
g112
sg75
(lp124
S':'
asbag68
(g89
g70
NtRp125
(dp126
g73
(dp127
sg82
g112
sg75
(lp128
g68
(g69
g70
NtRp129
(dp130
g73
(dp131
g81
I5
ssg82
g125
sg75
(lp132
S'Book_Shelf_copy'
p133
asbasbasbag68
(g84
g70
NtRp134
(dp135
g73
(dp136
sg82
g78
sg75
(lp137
g68
(g89
g70
NtRp138
(dp139
g73
(dp140
g93
g94
ssg82
g134
sg75
(lp141
g52
asbag68
(g89
g70
NtRp142
(dp143
g73
(dp144
g100
g101
ssg82
g134
sg75
(lp145
S':'
asbag68
(g89
g70
NtRp146
(dp147
g73
(dp148
sg82
g134
sg75
(lp149
g68
(g69
g70
NtRp150
(dp151
g73
(dp152
g81
I5
ssg82
g146
sg75
(lp153
g68
(g77
g70
NtRp154
(dp155
g73
(dp156
g81
I4
ssg82
Nsg75
(lp157
sbasbasbasbag68
(g84
g70
NtRp158
(dp159
g73
(dp160
sg82
g78
sg75
(lp161
g68
(g89
g70
NtRp162
(dp163
g73
(dp164
g93
g94
ssg82
g158
sg75
(lp165
S'body'
p166
asbag68
(g89
g70
NtRp167
(dp168
g73
(dp169
g100
g101
ssg82
g158
sg75
(lp170
S':'
asbag68
(g89
g70
NtRp171
(dp172
g73
(dp173
sg82
g158
sg75
(lp174
g68
(g69
g70
NtRp175
(dp176
g73
(dp177
g81
I5
ssg82
g171
sg75
(lp178
S'<cStringIO.StringO object at 0x1098f0f48>'
p179
asbasbasbag68
(g84
g70
NtRp180
(dp181
g73
(dp182
sg82
g78
sg75
(lp183
g68
(g89
g70
NtRp184
(dp185
g73
(dp186
g93
g94
ssg82
g180
sg75
(lp187
S'client'
p188
asbag68
(g89
g70
NtRp189
(dp190
g73
(dp191
g100
g101
ssg82
g180
sg75
(lp192
S':'
asbag68
(g89
g70
NtRp193
(dp194
g73
(dp195
sg82
g180
sg75
(lp196
g68
(g69
g70
NtRp197
(dp198
g73
(dp199
g81
I5
ssg82
g193
sg75
(lp200
S'127.0.0.1'
p201
asbasbasbag68
(g84
g70
NtRp202
(dp203
g73
(dp204
sg82
g78
sg75
(lp205
g68
(g89
g70
NtRp206
(dp207
g73
(dp208
g93
g94
ssg82
g202
sg75
(lp209
S'controller'
p210
asbag68
(g89
g70
NtRp211
(dp212
g73
(dp213
g100
g101
ssg82
g202
sg75
(lp214
S':'
asbag68
(g89
g70
NtRp215
(dp216
g73
(dp217
sg82
g202
sg75
(lp218
g68
(g69
g70
NtRp219
(dp220
g73
(dp221
g81
I5
ssg82
g215
sg75
(lp222
S'default'
p223
asbasbasbag68
(g84
g70
NtRp224
(dp225
g73
(dp226
sg82
g78
sg75
(lp227
g68
(g89
g70
NtRp228
(dp229
g73
(dp230
g93
g94
ssg82
g224
sg75
(lp231
S'cookies'
p232
asbag68
(g89
g70
NtRp233
(dp234
g73
(dp235
g100
g101
ssg82
g224
sg75
(lp236
S':'
asbag68
(g89
g70
NtRp237
(dp238
g73
(dp239
sg82
g224
sg75
(lp240
g68
(g69
g70
NtRp241
(dp242
g73
(dp243
g81
I5
ssg82
g237
sg75
(lp244
g68
(g77
g70
NtRp245
(dp246
g73
(dp247
g81
I4
ssg82
Nsg75
(lp248
g68
(g84
g70
NtRp249
(dp250
g73
(dp251
sg82
g245
sg75
(lp252
g68
(g89
g70
NtRp253
(dp254
g73
(dp255
g93
g94
ssg82
g249
sg75
(lp256
S'session_id_admin'
p257
asbag68
(g89
g70
NtRp258
(dp259
g73
(dp260
g100
g101
ssg82
g249
sg75
(lp261
S':'
asbag68
(g89
g70
NtRp262
(dp263
g73
(dp264
sg82
g249
sg75
(lp265
g68
(g69
g70
NtRp266
(dp267
g73
(dp268
g81
I4
ssg82
g262
sg75
(lp269
g68
(g77
g70
NtRp270
(dp271
g73
(dp272
g81
I3
ssg82
Nsg75
(lp273
g68
(g84
g70
NtRp274
(dp275
g73
(dp276
sg82
g270
sg75
(lp277
g68
(g89
g70
NtRp278
(dp279
g73
(dp280
g93
g94
ssg82
g274
sg75
(lp281
S'comment'
p282
asbag68
(g89
g70
NtRp283
(dp284
g73
(dp285
g100
g101
ssg82
g274
sg75
(lp286
S':'
asbag68
(g89
g70
NtRp287
(dp288
g73
(dp289
sg82
g274
sg75
(lp290
g68
(g69
g70
NtRp291
(dp292
g73
(dp293
g81
I3
ssg82
g287
sg75
(lp294
S''
asbasbasbag68
(g84
g70
NtRp295
(dp296
g73
(dp297
sg82
g270
sg75
(lp298
g68
(g89
g70
NtRp299
(dp300
g73
(dp301
g93
g94
ssg82
g295
sg75
(lp302
S'domain'
p303
asbag68
(g89
g70
NtRp304
(dp305
g73
(dp306
g100
g101
ssg82
g295
sg75
(lp307
S':'
asbag68
(g89
g70
NtRp308
(dp309
g73
(dp310
sg82
g295
sg75
(lp311
g68
(g69
g70
NtRp312
(dp313
g73
(dp314
g81
I3
ssg82
g308
sg75
(lp315
S''
asbasbasbag68
(g84
g70
NtRp316
(dp317
g73
(dp318
sg82
g270
sg75
(lp319
g68
(g89
g70
NtRp320
(dp321
g73
(dp322
g93
g94
ssg82
g316
sg75
(lp323
S'expires'
p324
asbag68
(g89
g70
NtRp325
(dp326
g73
(dp327
g100
g101
ssg82
g316
sg75
(lp328
S':'
asbag68
(g89
g70
NtRp329
(dp330
g73
(dp331
sg82
g316
sg75
(lp332
g68
(g69
g70
NtRp333
(dp334
g73
(dp335
g81
I3
ssg82
g329
sg75
(lp336
S''
asbasbasbag68
(g84
g70
NtRp337
(dp338
g73
(dp339
sg82
g270
sg75
(lp340
g68
(g89
g70
NtRp341
(dp342
g73
(dp343
g93
g94
ssg82
g337
sg75
(lp344
S'httponly'
p345
asbag68
(g89
g70
NtRp346
(dp347
g73
(dp348
g100
g101
ssg82
g337
sg75
(lp349
S':'
asbag68
(g89
g70
NtRp350
(dp351
g73
(dp352
sg82
g337
sg75
(lp353
g68
(g69
g70
NtRp354
(dp355
g73
(dp356
g81
I3
ssg82
g350
sg75
(lp357
S''
asbasbasbag68
(g84
g70
NtRp358
(dp359
g73
(dp360
sg82
g270
sg75
(lp361
g68
(g89
g70
NtRp362
(dp363
g73
(dp364
g93
g94
ssg82
g358
sg75
(lp365
S'max-age'
p366
asbag68
(g89
g70
NtRp367
(dp368
g73
(dp369
g100
g101
ssg82
g358
sg75
(lp370
S':'
asbag68
(g89
g70
NtRp371
(dp372
g73
(dp373
sg82
g358
sg75
(lp374
g68
(g69
g70
NtRp375
(dp376
g73
(dp377
g81
I3
ssg82
g371
sg75
(lp378
S''
asbasbasbag68
(g84
g70
NtRp379
(dp380
g73
(dp381
sg82
g270
sg75
(lp382
g68
(g89
g70
NtRp383
(dp384
g73
(dp385
g93
g94
ssg82
g379
sg75
(lp386
S'path'
p387
asbag68
(g89
g70
NtRp388
(dp389
g73
(dp390
g100
g101
ssg82
g379
sg75
(lp391
S':'
asbag68
(g89
g70
NtRp392
(dp393
g73
(dp394
sg82
g379
sg75
(lp395
g68
(g69
g70
NtRp396
(dp397
g73
(dp398
g81
I3
ssg82
g392
sg75
(lp399
S''
asbasbasbag68
(g84
g70
NtRp400
(dp401
g73
(dp402
sg82
g270
sg75
(lp403
g68
(g89
g70
NtRp404
(dp405
g73
(dp406
g93
g94
ssg82
g400
sg75
(lp407
S'secure'
p408
asbag68
(g89
g70
NtRp409
(dp410
g73
(dp411
g100
g101
ssg82
g400
sg75
(lp412
S':'
asbag68
(g89
g70
NtRp413
(dp414
g73
(dp415
sg82
g400
sg75
(lp416
g68
(g69
g70
NtRp417
(dp418
g73
(dp419
g81
I3
ssg82
g413
sg75
(lp420
S''
asbasbasbag68
(g84
g70
NtRp421
(dp422
g73
(dp423
sg82
g270
sg75
(lp424
g68
(g89
g70
NtRp425
(dp426
g73
(dp427
g93
g94
ssg82
g421
sg75
(lp428
S'version'
p429
asbag68
(g89
g70
NtRp430
(dp431
g73
(dp432
g100
g101
ssg82
g421
sg75
(lp433
S':'
asbag68
(g89
g70
NtRp434
(dp435
g73
(dp436
sg82
g421
sg75
(lp437
g68
(g69
g70
NtRp438
(dp439
g73
(dp440
g81
I3
ssg82
g434
sg75
(lp441
S''
asbasbasbasbasbasbasbag68
(g84
g70
NtRp442
(dp443
g73
(dp444
sg82
g245
sg75
(lp445
g68
(g89
g70
NtRp446
(dp447
g73
(dp448
g93
g94
ssg82
g442
sg75
(lp449
S'session_id_book_shelf_copy'
p450
asbag68
(g89
g70
NtRp451
(dp452
g73
(dp453
g100
g101
ssg82
g442
sg75
(lp454
S':'
asbag68
(g89
g70
NtRp455
(dp456
g73
(dp457
sg82
g442
sg75
(lp458
g68
(g69
g70
NtRp459
(dp460
g73
(dp461
g81
I4
ssg82
g455
sg75
(lp462
g68
(g77
g70
NtRp463
(dp464
g73
(dp465
g81
I3
ssg82
Nsg75
(lp466
g68
(g84
g70
NtRp467
(dp468
g73
(dp469
sg82
g463
sg75
(lp470
g68
(g89
g70
NtRp471
(dp472
g73
(dp473
g93
g94
ssg82
g467
sg75
(lp474
g282
asbag68
(g89
g70
NtRp475
(dp476
g73
(dp477
g100
g101
ssg82
g467
sg75
(lp478
S':'
asbag68
(g89
g70
NtRp479
(dp480
g73
(dp481
sg82
g467
sg75
(lp482
g68
(g69
g70
NtRp483
(dp484
g73
(dp485
g81
I3
ssg82
g479
sg75
(lp486
S''
asbasbasbag68
(g84
g70
NtRp487
(dp488
g73
(dp489
sg82
g463
sg75
(lp490
g68
(g89
g70
NtRp491
(dp492
g73
(dp493
g93
g94
ssg82
g487
sg75
(lp494
g303
asbag68
(g89
g70
NtRp495
(dp496
g73
(dp497
g100
g101
ssg82
g487
sg75
(lp498
S':'
asbag68
(g89
g70
NtRp499
(dp500
g73
(dp501
sg82
g487
sg75
(lp502
g68
(g69
g70
NtRp503
(dp504
g73
(dp505
g81
I3
ssg82
g499
sg75
(lp506
S''
asbasbasbag68
(g84
g70
NtRp507
(dp508
g73
(dp509
sg82
g463
sg75
(lp510
g68
(g89
g70
NtRp511
(dp512
g73
(dp513
g93
g94
ssg82
g507
sg75
(lp514
g324
asbag68
(g89
g70
NtRp515
(dp516
g73
(dp517
g100
g101
ssg82
g507
sg75
(lp518
S':'
asbag68
(g89
g70
NtRp519
(dp520
g73
(dp521
sg82
g507
sg75
(lp522
g68
(g69
g70
NtRp523
(dp524
g73
(dp525
g81
I3
ssg82
g519
sg75
(lp526
S''
asbasbasbag68
(g84
g70
NtRp527
(dp528
g73
(dp529
sg82
g463
sg75
(lp530
g68
(g89
g70
NtRp531
(dp532
g73
(dp533
g93
g94
ssg82
g527
sg75
(lp534
g345
asbag68
(g89
g70
NtRp535
(dp536
g73
(dp537
g100
g101
ssg82
g527
sg75
(lp538
S':'
asbag68
(g89
g70
NtRp539
(dp540
g73
(dp541
sg82
g527
sg75
(lp542
g68
(g69
g70
NtRp543
(dp544
g73
(dp545
g81
I3
ssg82
g539
sg75
(lp546
S''
asbasbasbag68
(g84
g70
NtRp547
(dp548
g73
(dp549
sg82
g463
sg75
(lp550
g68
(g89
g70
NtRp551
(dp552
g73
(dp553
g93
g94
ssg82
g547
sg75
(lp554
g366
asbag68
(g89
g70
NtRp555
(dp556
g73
(dp557
g100
g101
ssg82
g547
sg75
(lp558
S':'
asbag68
(g89
g70
NtRp559
(dp560
g73
(dp561
sg82
g547
sg75
(lp562
g68
(g69
g70
NtRp563
(dp564
g73
(dp565
g81
I3
ssg82
g559
sg75
(lp566
S''
asbasbasbag68
(g84
g70
NtRp567
(dp568
g73
(dp569
sg82
g463
sg75
(lp570
g68
(g89
g70
NtRp571
(dp572
g73
(dp573
g93
g94
ssg82
g567
sg75
(lp574
g387
asbag68
(g89
g70
NtRp575
(dp576
g73
(dp577
g100
g101
ssg82
g567
sg75
(lp578
S':'
asbag68
(g89
g70
NtRp579
(dp580
g73
(dp581
sg82
g567
sg75
(lp582
g68
(g69
g70
NtRp583
(dp584
g73
(dp585
g81
I3
ssg82
g579
sg75
(lp586
S''
asbasbasbag68
(g84
g70
NtRp587
(dp588
g73
(dp589
sg82
g463
sg75
(lp590
g68
(g89
g70
NtRp591
(dp592
g73
(dp593
g93
g94
ssg82
g587
sg75
(lp594
g408
asbag68
(g89
g70
NtRp595
(dp596
g73
(dp597
g100
g101
ssg82
g587
sg75
(lp598
S':'
asbag68
(g89
g70
NtRp599
(dp600
g73
(dp601
sg82
g587
sg75
(lp602
g68
(g69
g70
NtRp603
(dp604
g73
(dp605
g81
I3
ssg82
g599
sg75
(lp606
S''
asbasbasbag68
(g84
g70
NtRp607
(dp608
g73
(dp609
sg82
g463
sg75
(lp610
g68
(g89
g70
NtRp611
(dp612
g73
(dp613
g93
g94
ssg82
g607
sg75
(lp614
g429
asbag68
(g89
g70
NtRp615
(dp616
g73
(dp617
g100
g101
ssg82
g607
sg75
(lp618
S':'
asbag68
(g89
g70
NtRp619
(dp620
g73
(dp621
sg82
g607
sg75
(lp622
g68
(g69
g70
NtRp623
(dp624
g73
(dp625
g81
I3
ssg82
g619
sg75
(lp626
S''
asbasbasbasbasbasbasbag68
(g84
g70
NtRp627
(dp628
g73
(dp629
sg82
g245
sg75
(lp630
g68
(g89
g70
NtRp631
(dp632
g73
(dp633
g93
g94
ssg82
g627
sg75
(lp634
S'session_id_todolist2'
p635
asbag68
(g89
g70
NtRp636
(dp637
g73
(dp638
g100
g101
ssg82
g627
sg75
(lp639
S':'
asbag68
(g89
g70
NtRp640
(dp641
g73
(dp642
sg82
g627
sg75
(lp643
g68
(g69
g70
NtRp644
(dp645
g73
(dp646
g81
I4
ssg82
g640
sg75
(lp647
g68
(g77
g70
NtRp648
(dp649
g73
(dp650
g81
I3
ssg82
Nsg75
(lp651
g68
(g84
g70
NtRp652
(dp653
g73
(dp654
sg82
g648
sg75
(lp655
g68
(g89
g70
NtRp656
(dp657
g73
(dp658
g93
g94
ssg82
g652
sg75
(lp659
g282
asbag68
(g89
g70
NtRp660
(dp661
g73
(dp662
g100
g101
ssg82
g652
sg75
(lp663
S':'
asbag68
(g89
g70
NtRp664
(dp665
g73
(dp666
sg82
g652
sg75
(lp667
g68
(g69
g70
NtRp668
(dp669
g73
(dp670
g81
I3
ssg82
g664
sg75
(lp671
S''
asbasbasbag68
(g84
g70
NtRp672
(dp673
g73
(dp674
sg82
g648
sg75
(lp675
g68
(g89
g70
NtRp676
(dp677
g73
(dp678
g93
g94
ssg82
g672
sg75
(lp679
g303
asbag68
(g89
g70
NtRp680
(dp681
g73
(dp682
g100
g101
ssg82
g672
sg75
(lp683
S':'
asbag68
(g89
g70
NtRp684
(dp685
g73
(dp686
sg82
g672
sg75
(lp687
g68
(g69
g70
NtRp688
(dp689
g73
(dp690
g81
I3
ssg82
g684
sg75
(lp691
S''
asbasbasbag68
(g84
g70
NtRp692
(dp693
g73
(dp694
sg82
g648
sg75
(lp695
g68
(g89
g70
NtRp696
(dp697
g73
(dp698
g93
g94
ssg82
g692
sg75
(lp699
g324
asbag68
(g89
g70
NtRp700
(dp701
g73
(dp702
g100
g101
ssg82
g692
sg75
(lp703
S':'
asbag68
(g89
g70
NtRp704
(dp705
g73
(dp706
sg82
g692
sg75
(lp707
g68
(g69
g70
NtRp708
(dp709
g73
(dp710
g81
I3
ssg82
g704
sg75
(lp711
S''
asbasbasbag68
(g84
g70
NtRp712
(dp713
g73
(dp714
sg82
g648
sg75
(lp715
g68
(g89
g70
NtRp716
(dp717
g73
(dp718
g93
g94
ssg82
g712
sg75
(lp719
g345
asbag68
(g89
g70
NtRp720
(dp721
g73
(dp722
g100
g101
ssg82
g712
sg75
(lp723
S':'
asbag68
(g89
g70
NtRp724
(dp725
g73
(dp726
sg82
g712
sg75
(lp727
g68
(g69
g70
NtRp728
(dp729
g73
(dp730
g81
I3
ssg82
g724
sg75
(lp731
S''
asbasbasbag68
(g84
g70
NtRp732
(dp733
g73
(dp734
sg82
g648
sg75
(lp735
g68
(g89
g70
NtRp736
(dp737
g73
(dp738
g93
g94
ssg82
g732
sg75
(lp739
g366
asbag68
(g89
g70
NtRp740
(dp741
g73
(dp742
g100
g101
ssg82
g732
sg75
(lp743
S':'
asbag68
(g89
g70
NtRp744
(dp745
g73
(dp746
sg82
g732
sg75
(lp747
g68
(g69
g70
NtRp748
(dp749
g73
(dp750
g81
I3
ssg82
g744
sg75
(lp751
S''
asbasbasbag68
(g84
g70
NtRp752
(dp753
g73
(dp754
sg82
g648
sg75
(lp755
g68
(g89
g70
NtRp756
(dp757
g73
(dp758
g93
g94
ssg82
g752
sg75
(lp759
g387
asbag68
(g89
g70
NtRp760
(dp761
g73
(dp762
g100
g101
ssg82
g752
sg75
(lp763
S':'
asbag68
(g89
g70
NtRp764
(dp765
g73
(dp766
sg82
g752
sg75
(lp767
g68
(g69
g70
NtRp768
(dp769
g73
(dp770
g81
I3
ssg82
g764
sg75
(lp771
S''
asbasbasbag68
(g84
g70
NtRp772
(dp773
g73
(dp774
sg82
g648
sg75
(lp775
g68
(g89
g70
NtRp776
(dp777
g73
(dp778
g93
g94
ssg82
g772
sg75
(lp779
g408
asbag68
(g89
g70
NtRp780
(dp781
g73
(dp782
g100
g101
ssg82
g772
sg75
(lp783
S':'
asbag68
(g89
g70
NtRp784
(dp785
g73
(dp786
sg82
g772
sg75
(lp787
g68
(g69
g70
NtRp788
(dp789
g73
(dp790
g81
I3
ssg82
g784
sg75
(lp791
S''
asbasbasbag68
(g84
g70
NtRp792
(dp793
g73
(dp794
sg82
g648
sg75
(lp795
g68
(g89
g70
NtRp796
(dp797
g73
(dp798
g93
g94
ssg82
g792
sg75
(lp799
g429
asbag68
(g89
g70
NtRp800
(dp801
g73
(dp802
g100
g101
ssg82
g792
sg75
(lp803
S':'
asbag68
(g89
g70
NtRp804
(dp805
g73
(dp806
sg82
g792
sg75
(lp807
g68
(g69
g70
NtRp808
(dp809
g73
(dp810
g81
I3
ssg82
g804
sg75
(lp811
S''
asbasbasbasbasbasbasbag68
(g84
g70
NtRp812
(dp813
g73
(dp814
sg82
g245
sg75
(lp815
g68
(g89
g70
NtRp816
(dp817
g73
(dp818
g93
g94
ssg82
g812
sg75
(lp819
S'session_id_welcome'
p820
asbag68
(g89
g70
NtRp821
(dp822
g73
(dp823
g100
g101
ssg82
g812
sg75
(lp824
S':'
asbag68
(g89
g70
NtRp825
(dp826
g73
(dp827
sg82
g812
sg75
(lp828
g68
(g69
g70
NtRp829
(dp830
g73
(dp831
g81
I4
ssg82
g825
sg75
(lp832
g68
(g77
g70
NtRp833
(dp834
g73
(dp835
g81
I3
ssg82
Nsg75
(lp836
g68
(g84
g70
NtRp837
(dp838
g73
(dp839
sg82
g833
sg75
(lp840
g68
(g89
g70
NtRp841
(dp842
g73
(dp843
g93
g94
ssg82
g837
sg75
(lp844
g282
asbag68
(g89
g70
NtRp845
(dp846
g73
(dp847
g100
g101
ssg82
g837
sg75
(lp848
S':'
asbag68
(g89
g70
NtRp849
(dp850
g73
(dp851
sg82
g837
sg75
(lp852
g68
(g69
g70
NtRp853
(dp854
g73
(dp855
g81
I3
ssg82
g849
sg75
(lp856
S''
asbasbasbag68
(g84
g70
NtRp857
(dp858
g73
(dp859
sg82
g833
sg75
(lp860
g68
(g89
g70
NtRp861
(dp862
g73
(dp863
g93
g94
ssg82
g857
sg75
(lp864
g303
asbag68
(g89
g70
NtRp865
(dp866
g73
(dp867
g100
g101
ssg82
g857
sg75
(lp868
S':'
asbag68
(g89
g70
NtRp869
(dp870
g73
(dp871
sg82
g857
sg75
(lp872
g68
(g69
g70
NtRp873
(dp874
g73
(dp875
g81
I3
ssg82
g869
sg75
(lp876
S''
asbasbasbag68
(g84
g70
NtRp877
(dp878
g73
(dp879
sg82
g833
sg75
(lp880
g68
(g89
g70
NtRp881
(dp882
g73
(dp883
g93
g94
ssg82
g877
sg75
(lp884
g324
asbag68
(g89
g70
NtRp885
(dp886
g73
(dp887
g100
g101
ssg82
g877
sg75
(lp888
S':'
asbag68
(g89
g70
NtRp889
(dp890
g73
(dp891
sg82
g877
sg75
(lp892
g68
(g69
g70
NtRp893
(dp894
g73
(dp895
g81
I3
ssg82
g889
sg75
(lp896
S''
asbasbasbag68
(g84
g70
NtRp897
(dp898
g73
(dp899
sg82
g833
sg75
(lp900
g68
(g89
g70
NtRp901
(dp902
g73
(dp903
g93
g94
ssg82
g897
sg75
(lp904
g345
asbag68
(g89
g70
NtRp905
(dp906
g73
(dp907
g100
g101
ssg82
g897
sg75
(lp908
S':'
asbag68
(g89
g70
NtRp909
(dp910
g73
(dp911
sg82
g897
sg75
(lp912
g68
(g69
g70
NtRp913
(dp914
g73
(dp915
g81
I3
ssg82
g909
sg75
(lp916
S''
asbasbasbag68
(g84
g70
NtRp917
(dp918
g73
(dp919
sg82
g833
sg75
(lp920
g68
(g89
g70
NtRp921
(dp922
g73
(dp923
g93
g94
ssg82
g917
sg75
(lp924
g366
asbag68
(g89
g70
NtRp925
(dp926
g73
(dp927
g100
g101
ssg82
g917
sg75
(lp928
S':'
asbag68
(g89
g70
NtRp929
(dp930
g73
(dp931
sg82
g917
sg75
(lp932
g68
(g69
g70
NtRp933
(dp934
g73
(dp935
g81
I3
ssg82
g929
sg75
(lp936
S''
asbasbasbag68
(g84
g70
NtRp937
(dp938
g73
(dp939
sg82
g833
sg75
(lp940
g68
(g89
g70
NtRp941
(dp942
g73
(dp943
g93
g94
ssg82
g937
sg75
(lp944
g387
asbag68
(g89
g70
NtRp945
(dp946
g73
(dp947
g100
g101
ssg82
g937
sg75
(lp948
S':'
asbag68
(g89
g70
NtRp949
(dp950
g73
(dp951
sg82
g937
sg75
(lp952
g68
(g69
g70
NtRp953
(dp954
g73
(dp955
g81
I3
ssg82
g949
sg75
(lp956
S''
asbasbasbag68
(g84
g70
NtRp957
(dp958
g73
(dp959
sg82
g833
sg75
(lp960
g68
(g89
g70
NtRp961
(dp962
g73
(dp963
g93
g94
ssg82
g957
sg75
(lp964
g408
asbag68
(g89
g70
NtRp965
(dp966
g73
(dp967
g100
g101
ssg82
g957
sg75
(lp968
S':'
asbag68
(g89
g70
NtRp969
(dp970
g73
(dp971
sg82
g957
sg75
(lp972
g68
(g69
g70
NtRp973
(dp974
g73
(dp975
g81
I3
ssg82
g969
sg75
(lp976
S''
asbasbasbag68
(g84
g70
NtRp977
(dp978
g73
(dp979
sg82
g833
sg75
(lp980
g68
(g89
g70
NtRp981
(dp982
g73
(dp983
g93
g94
ssg82
g977
sg75
(lp984
g429
asbag68
(g89
g70
NtRp985
(dp986
g73
(dp987
g100
g101
ssg82
g977
sg75
(lp988
S':'
asbag68
(g89
g70
NtRp989
(dp990
g73
(dp991
sg82
g977
sg75
(lp992
g68
(g69
g70
NtRp993
(dp994
g73
(dp995
g81
I3
ssg82
g989
sg75
(lp996
S''
asbasbasbasbasbasbasbasbasbasbasbag68
(g84
g70
NtRp997
(dp998
g73
(dp999
sg82
g78
sg75
(lp1000
g68
(g89
g70
NtRp1001
(dp1002
g73
(dp1003
g93
g94
ssg82
g997
sg75
(lp1004
S'env'
p1005
asbag68
(g89
g70
NtRp1006
(dp1007
g73
(dp1008
g100
g101
ssg82
g997
sg75
(lp1009
S':'
asbag68
(g89
g70
NtRp1010
(dp1011
g73
(dp1012
sg82
g997
sg75
(lp1013
g68
(g69
g70
NtRp1014
(dp1015
g73
(dp1016
g81
I5
ssg82
g1010
sg75
(lp1017
g68
(g77
g70
NtRp1018
(dp1019
g73
(dp1020
g81
I4
ssg82
Nsg75
(lp1021
g68
(g84
g70
NtRp1022
(dp1023
g73
(dp1024
sg82
g1018
sg75
(lp1025
g68
(g89
g70
NtRp1026
(dp1027
g73
(dp1028
g93
g94
ssg82
g1022
sg75
(lp1029
S'app_folders'
p1030
asbag68
(g89
g70
NtRp1031
(dp1032
g73
(dp1033
g100
g101
ssg82
g1022
sg75
(lp1034
S':'
asbag68
(g89
g70
NtRp1035
(dp1036
g73
(dp1037
sg82
g1022
sg75
(lp1038
g68
(g69
g70
NtRp1039
(dp1040
g73
(dp1041
g81
I4
ssg82
g1035
sg75
(lp1042
S"set(['/Users/ianaboneva/Dropbox/DePaul/CSC 438 - Web Applications/web2py/applications/ToDoList2/', '/Users/ianaboneva/Dropbox/DePaul/CSC 438 - Web Applications/web2py/applications/welcome/', '/Users/ianaboneva/Dropbox/DePaul/CSC 438 - Web Applications/web2py/applications/admin/', '/Users/ianaboneva/Dropbox/DePaul/CSC 438 - Web Applications/web2py/applications/Book_Shelf_copy/'])"
p1043
asbasbasbag68
(g84
g70
NtRp1044
(dp1045
g73
(dp1046
sg82
g1018
sg75
(lp1047
g68
(g89
g70
NtRp1048
(dp1049
g73
(dp1050
g93
g94
ssg82
g1044
sg75
(lp1051
S'applications_parent'
p1052
asbag68
(g89
g70
NtRp1053
(dp1054
g73
(dp1055
g100
g101
ssg82
g1044
sg75
(lp1056
S':'
asbag68
(g89
g70
NtRp1057
(dp1058
g73
(dp1059
sg82
g1044
sg75
(lp1060
g68
(g69
g70
NtRp1061
(dp1062
g73
(dp1063
g81
I4
ssg82
g1057
sg75
(lp1064
S'/Users/ianaboneva/Dropbox/DePaul/CSC 438 - Web Applications/web2py'
p1065
asbasbasbag68
(g84
g70
NtRp1066
(dp1067
g73
(dp1068
sg82
g1018
sg75
(lp1069
g68
(g89
g70
NtRp1070
(dp1071
g73
(dp1072
g93
g94
ssg82
g1066
sg75
(lp1073
S'cmd_args'
p1074
asbag68
(g89
g70
NtRp1075
(dp1076
g73
(dp1077
g100
g101
ssg82
g1066
sg75
(lp1078
S':'
asbag68
(g89
g70
NtRp1079
(dp1080
g73
(dp1081
sg82
g1066
sg75
(lp1082
g68
(g69
g70
NtRp1083
(dp1084
g73
(dp1085
g81
I4
ssg82
g1079
sg75
(lp1086
g68
(g77
g70
NtRp1087
(dp1088
g73
(dp1089
g81
I3
ssg82
Nsg75
(lp1090
sbasbasbasbag68
(g84
g70
NtRp1091
(dp1092
g73
(dp1093
sg82
g1018
sg75
(lp1094
g68
(g89
g70
NtRp1095
(dp1096
g73
(dp1097
g93
g94
ssg82
g1091
sg75
(lp1098
S'cmd_options'
p1099
asbag68
(g89
g70
NtRp1100
(dp1101
g73
(dp1102
g100
g101
ssg82
g1091
sg75
(lp1103
S':'
asbag68
(g89
g70
NtRp1104
(dp1105
g73
(dp1106
sg82
g1091
sg75
(lp1107
g68
(g69
g70
NtRp1108
(dp1109
g73
(dp1110
g81
I4
ssg82
g1104
sg75
(lp1111
S"<Values at 0x104fc1b00: {'verbose': False, 'ip': '127.0.0.1', 'shutdown_timeout': 5, 'taskbar': False, 'nocron': False, 'pid_filename': 'httpserver.pid', 'maxthreads': None, 'softcron': False, 'server_name': 'Iana-Bonevas-MacBook-Pro.local', 'bpython': False, 'nogui': False, 'port': 8000, 'extcron': False, 'debuglevel': 30, 'test': None, 'folder': '/Users/ianaboneva/Dropbox/DePaul/CSC 438 - Web Applications/web2py', 'config': '', 'import_models': False, 'winservice': '', 'shell': None, 'run': '', 'log_filename': 'httpserver.log', 'args': [''], 'socket_timeout': 5, 'ssl_ca_certificate': None, 'scheduler': None, 'profiler_filename': None, 'ssl_private_key': '', 'password': '<ask>', 'request_queue_size': 5, 'ssl_certificate': '', 'cronjob': False, 'numthreads': None, 'quiet': False, 'interfaces': None, 'minthreads': None, 'timeout': 10, 'plain': False, 'nobanner': False}>"
p1112
asbasbasbag68
(g84
g70
NtRp1113
(dp1114
g73
(dp1115
sg82
g1018
sg75
(lp1116
g68
(g89
g70
NtRp1117
(dp1118
g73
(dp1119
g93
g94
ssg82
g1113
sg75
(lp1120
S'db_sessions'
p1121
asbag68
(g89
g70
NtRp1122
(dp1123
g73
(dp1124
g100
g101
ssg82
g1113
sg75
(lp1125
S':'
asbag68
(g89
g70
NtRp1126
(dp1127
g73
(dp1128
sg82
g1113
sg75
(lp1129
g68
(g69
g70
NtRp1130
(dp1131
g73
(dp1132
g81
I4
ssg82
g1126
sg75
(lp1133
S'set([])'
p1134
asbasbasbag68
(g84
g70
NtRp1135
(dp1136
g73
(dp1137
sg82
g1018
sg75
(lp1138
g68
(g89
g70
NtRp1139
(dp1140
g73
(dp1141
g93
g94
ssg82
g1135
sg75
(lp1142
S'debugging'
p1143
asbag68
(g89
g70
NtRp1144
(dp1145
g73
(dp1146
g100
g101
ssg82
g1135
sg75
(lp1147
S':'
asbag68
(g89
g70
NtRp1148
(dp1149
g73
(dp1150
sg82
g1135
sg75
(lp1151
g68
(g69
g70
NtRp1152
(dp1153
g73
(dp1154
g81
I4
ssg82
g1148
sg75
(lp1155
g111
asbasbasbag68
(g84
g70
NtRp1156
(dp1157
g73
(dp1158
sg82
g1018
sg75
(lp1159
g68
(g89
g70
NtRp1160
(dp1161
g73
(dp1162
g93
g94
ssg82
g1156
sg75
(lp1163
S'gluon_parent'
p1164
asbag68
(g89
g70
NtRp1165
(dp1166
g73
(dp1167
g100
g101
ssg82
g1156
sg75
(lp1168
S':'
asbag68
(g89
g70
NtRp1169
(dp1170
g73
(dp1171
sg82
g1156
sg75
(lp1172
g68
(g69
g70
NtRp1173
(dp1174
g73
(dp1175
g81
I4
ssg82
g1169
sg75
(lp1176
S'/Users/ianaboneva/Dropbox/DePaul/CSC 438 - Web Applications/web2py'
p1177
asbasbasbag68
(g84
g70
NtRp1178
(dp1179
g73
(dp1180
sg82
g1018
sg75
(lp1181
g68
(g89
g70
NtRp1182
(dp1183
g73
(dp1184
g93
g94
ssg82
g1178
sg75
(lp1185
S'http_accept'
p1186
asbag68
(g89
g70
NtRp1187
(dp1188
g73
(dp1189
g100
g101
ssg82
g1178
sg75
(lp1190
S':'
asbag68
(g89
g70
NtRp1191
(dp1192
g73
(dp1193
sg82
g1178
sg75
(lp1194
g68
(g69
g70
NtRp1195
(dp1196
g73
(dp1197
g81
I4
ssg82
g1191
sg75
(lp1198
S'text/html,application/xhtml+xml,application/xml;q=0.9,*/*;q=0.8'
p1199
asbasbasbag68
(g84
g70
NtRp1200
(dp1201
g73
(dp1202
sg82
g1018
sg75
(lp1203
g68
(g89
g70
NtRp1204
(dp1205
g73
(dp1206
g93
g94
ssg82
g1200
sg75
(lp1207
S'http_accept_charset'
p1208
asbag68
(g89
g70
NtRp1209
(dp1210
g73
(dp1211
g100
g101
ssg82
g1200
sg75
(lp1212
S':'
asbag68
(g89
g70
NtRp1213
(dp1214
g73
(dp1215
sg82
g1200
sg75
(lp1216
g68
(g69
g70
NtRp1217
(dp1218
g73
(dp1219
g81
I4
ssg82
g1213
sg75
(lp1220
S'ISO-8859-1,utf-8;q=0.7,*;q=0.3'
p1221
asbasbasbag68
(g84
g70
NtRp1222
(dp1223
g73
(dp1224
sg82
g1018
sg75
(lp1225
g68
(g89
g70
NtRp1226
(dp1227
g73
(dp1228
g93
g94
ssg82
g1222
sg75
(lp1229
S'http_accept_encoding'
p1230
asbag68
(g89
g70
NtRp1231
(dp1232
g73
(dp1233
g100
g101
ssg82
g1222
sg75
(lp1234
S':'
asbag68
(g89
g70
NtRp1235
(dp1236
g73
(dp1237
sg82
g1222
sg75
(lp1238
g68
(g69
g70
NtRp1239
(dp1240
g73
(dp1241
g81
I4
ssg82
g1235
sg75
(lp1242
S'gzip,deflate,sdch'
p1243
asbasbasbag68
(g84
g70
NtRp1244
(dp1245
g73
(dp1246
sg82
g1018
sg75
(lp1247
g68
(g89
g70
NtRp1248
(dp1249
g73
(dp1250
g93
g94
ssg82
g1244
sg75
(lp1251
S'http_accept_language'
p1252
asbag68
(g89
g70
NtRp1253
(dp1254
g73
(dp1255
g100
g101
ssg82
g1244
sg75
(lp1256
S':'
asbag68
(g89
g70
NtRp1257
(dp1258
g73
(dp1259
sg82
g1244
sg75
(lp1260
g68
(g69
g70
NtRp1261
(dp1262
g73
(dp1263
g81
I4
ssg82
g1257
sg75
(lp1264
S'en-US,en;q=0.8'
p1265
asbasbasbag68
(g84
g70
NtRp1266
(dp1267
g73
(dp1268
sg82
g1018
sg75
(lp1269
g68
(g89
g70
NtRp1270
(dp1271
g73
(dp1272
g93
g94
ssg82
g1266
sg75
(lp1273
S'http_connection'
p1274
asbag68
(g89
g70
NtRp1275
(dp1276
g73
(dp1277
g100
g101
ssg82
g1266
sg75
(lp1278
S':'
asbag68
(g89
g70
NtRp1279
(dp1280
g73
(dp1281
sg82
g1266
sg75
(lp1282
g68
(g69
g70
NtRp1283
(dp1284
g73
(dp1285
g81
I4
ssg82
g1279
sg75
(lp1286
S'keep-alive'
p1287
asbasbasbag68
(g84
g70
NtRp1288
(dp1289
g73
(dp1290
sg82
g1018
sg75
(lp1291
g68
(g89
g70
NtRp1292
(dp1293
g73
(dp1294
g93
g94
ssg82
g1288
sg75
(lp1295
S'http_cookie'
p1296
asbag68
(g89
g70
NtRp1297
(dp1298
g73
(dp1299
g100
g101
ssg82
g1288
sg75
(lp1300
S':'
asbag68
(g89
g70
NtRp1301
(dp1302
g73
(dp1303
sg82
g1288
sg75
(lp1304
g68
(g69
g70
NtRp1305
(dp1306
g73
(dp1307
g81
I4
ssg82
g1301
sg75
(lp1308
S'session_id_welcome=127.0.0.1-bffe8a2c-7cac-4fda-8379-2a112ae00c58; session_id_todolist2=127.0.0.1-477221c7-510b-4aa7-b5d2-77bae14bca92; session_id_book_shelf_copy=127.0.0.1-eeba29a1-713d-4626-a1ad-4627ea1d2e7a; session_id_admin=127.0.0.1-4c04cc91-8b55-4bcd-8835-a51019000e30'
p1309
asbasbasbag68
(g84
g70
NtRp1310
(dp1311
g73
(dp1312
sg82
g1018
sg75
(lp1313
g68
(g89
g70
NtRp1314
(dp1315
g73
(dp1316
g93
g94
ssg82
g1310
sg75
(lp1317
S'http_host'
p1318
asbag68
(g89
g70
NtRp1319
(dp1320
g73
(dp1321
g100
g101
ssg82
g1310
sg75
(lp1322
S':'
asbag68
(g89
g70
NtRp1323
(dp1324
g73
(dp1325
sg82
g1310
sg75
(lp1326
g68
(g69
g70
NtRp1327
(dp1328
g73
(dp1329
g81
I4
ssg82
g1323
sg75
(lp1330
S'127.0.0.1:8000'
p1331
asbasbasbag68
(g84
g70
NtRp1332
(dp1333
g73
(dp1334
sg82
g1018
sg75
(lp1335
g68
(g89
g70
NtRp1336
(dp1337
g73
(dp1338
g93
g94
ssg82
g1332
sg75
(lp1339
S'http_user_agent'
p1340
asbag68
(g89
g70
NtRp1341
(dp1342
g73
(dp1343
g100
g101
ssg82
g1332
sg75
(lp1344
S':'
asbag68
(g89
g70
NtRp1345
(dp1346
g73
(dp1347
sg82
g1332
sg75
(lp1348
g68
(g69
g70
NtRp1349
(dp1350
g73
(dp1351
g81
I4
ssg82
g1345
sg75
(lp1352
S'Mozilla/5.0 (Macintosh; Intel Mac OS X 10_7_4) AppleWebKit/536.5 (KHTML, like Gecko) Chrome/19.0.1084.53 Safari/536.5'
p1353
asbasbasbag68
(g84
g70
NtRp1354
(dp1355
g73
(dp1356
sg82
g1018
sg75
(lp1357
g68
(g89
g70
NtRp1358
(dp1359
g73
(dp1360
g93
g94
ssg82
g1354
sg75
(lp1361
S'is_jython'
p1362
asbag68
(g89
g70
NtRp1363
(dp1364
g73
(dp1365
g100
g101
ssg82
g1354
sg75
(lp1366
S':'
asbag68
(g89
g70
NtRp1367
(dp1368
g73
(dp1369
sg82
g1354
sg75
(lp1370
g68
(g69
g70
NtRp1371
(dp1372
g73
(dp1373
g81
I4
ssg82
g1367
sg75
(lp1374
g111
asbasbasbag68
(g84
g70
NtRp1375
(dp1376
g73
(dp1377
sg82
g1018
sg75
(lp1378
g68
(g89
g70
NtRp1379
(dp1380
g73
(dp1381
g93
g94
ssg82
g1375
sg75
(lp1382
S'is_pypy'
p1383
asbag68
(g89
g70
NtRp1384
(dp1385
g73
(dp1386
g100
g101
ssg82
g1375
sg75
(lp1387
S':'
asbag68
(g89
g70
NtRp1388
(dp1389
g73
(dp1390
sg82
g1375
sg75
(lp1391
g68
(g69
g70
NtRp1392
(dp1393
g73
(dp1394
g81
I4
ssg82
g1388
sg75
(lp1395
g111
asbasbasbag68
(g84
g70
NtRp1396
(dp1397
g73
(dp1398
sg82
g1018
sg75
(lp1399
g68
(g89
g70
NtRp1400
(dp1401
g73
(dp1402
g93
g94
ssg82
g1396
sg75
(lp1403
S'path_info'
p1404
asbag68
(g89
g70
NtRp1405
(dp1406
g73
(dp1407
g100
g101
ssg82
g1396
sg75
(lp1408
S':'
asbag68
(g89
g70
NtRp1409
(dp1410
g73
(dp1411
sg82
g1396
sg75
(lp1412
g68
(g69
g70
NtRp1413
(dp1414
g73
(dp1415
g81
I4
ssg82
g1409
sg75
(lp1416
S'/Book_Shelf_copy/default/create_user_profile'
p1417
asbasbasbag68
(g84
g70
NtRp1418
(dp1419
g73
(dp1420
sg82
g1018
sg75
(lp1421
g68
(g89
g70
NtRp1422
(dp1423
g73
(dp1424
g93
g94
ssg82
g1418
sg75
(lp1425
S'query_string'
p1426
asbag68
(g89
g70
NtRp1427
(dp1428
g73
(dp1429
g100
g101
ssg82
g1418
sg75
(lp1430
S':'
asbag68
(g89
g70
NtRp1431
(dp1432
g73
(dp1433
sg82
g1418
sg75
(lp1434
g68
(g69
g70
NtRp1435
(dp1436
g73
(dp1437
g81
I4
ssg82
g1431
sg75
(lp1438
S''
asbasbasbag68
(g84
g70
NtRp1439
(dp1440
g73
(dp1441
sg82
g1018
sg75
(lp1442
g68
(g89
g70
NtRp1443
(dp1444
g73
(dp1445
g93
g94
ssg82
g1439
sg75
(lp1446
S'remote_addr'
p1447
asbag68
(g89
g70
NtRp1448
(dp1449
g73
(dp1450
g100
g101
ssg82
g1439
sg75
(lp1451
S':'
asbag68
(g89
g70
NtRp1452
(dp1453
g73
(dp1454
sg82
g1439
sg75
(lp1455
g68
(g69
g70
NtRp1456
(dp1457
g73
(dp1458
g81
I4
ssg82
g1452
sg75
(lp1459
g201
asbasbasbag68
(g84
g70
NtRp1460
(dp1461
g73
(dp1462
sg82
g1018
sg75
(lp1463
g68
(g89
g70
NtRp1464
(dp1465
g73
(dp1466
g93
g94
ssg82
g1460
sg75
(lp1467
S'remote_port'
p1468
asbag68
(g89
g70
NtRp1469
(dp1470
g73
(dp1471
g100
g101
ssg82
g1460
sg75
(lp1472
S':'
asbag68
(g89
g70
NtRp1473
(dp1474
g73
(dp1475
sg82
g1460
sg75
(lp1476
g68
(g69
g70
NtRp1477
(dp1478
g73
(dp1479
g81
I4
ssg82
g1473
sg75
(lp1480
S'54431'
p1481
asbasbasbag68
(g84
g70
NtRp1482
(dp1483
g73
(dp1484
sg82
g1018
sg75
(lp1485
g68
(g89
g70
NtRp1486
(dp1487
g73
(dp1488
g93
g94
ssg82
g1482
sg75
(lp1489
S'request_method'
p1490
asbag68
(g89
g70
NtRp1491
(dp1492
g73
(dp1493
g100
g101
ssg82
g1482
sg75
(lp1494
S':'
asbag68
(g89
g70
NtRp1495
(dp1496
g73
(dp1497
sg82
g1482
sg75
(lp1498
g68
(g69
g70
NtRp1499
(dp1500
g73
(dp1501
g81
I4
ssg82
g1495
sg75
(lp1502
S'GET'
p1503
asbasbasbag68
(g84
g70
NtRp1504
(dp1505
g73
(dp1506
sg82
g1018
sg75
(lp1507
g68
(g89
g70
NtRp1508
(dp1509
g73
(dp1510
g93
g94
ssg82
g1504
sg75
(lp1511
S'script_name'
p1512
asbag68
(g89
g70
NtRp1513
(dp1514
g73
(dp1515
g100
g101
ssg82
g1504
sg75
(lp1516
S':'
asbag68
(g89
g70
NtRp1517
(dp1518
g73
(dp1519
sg82
g1504
sg75
(lp1520
g68
(g69
g70
NtRp1521
(dp1522
g73
(dp1523
g81
I4
ssg82
g1517
sg75
(lp1524
S''
asbasbasbag68
(g84
g70
NtRp1525
(dp1526
g73
(dp1527
sg82
g1018
sg75
(lp1528
g68
(g89
g70
NtRp1529
(dp1530
g73
(dp1531
g93
g94
ssg82
g1525
sg75
(lp1532
S'server_name'
p1533
asbag68
(g89
g70
NtRp1534
(dp1535
g73
(dp1536
g100
g101
ssg82
g1525
sg75
(lp1537
S':'
asbag68
(g89
g70
NtRp1538
(dp1539
g73
(dp1540
sg82
g1525
sg75
(lp1541
g68
(g69
g70
NtRp1542
(dp1543
g73
(dp1544
g81
I4
ssg82
g1538
sg75
(lp1545
S'Iana-Bonevas-MacBook-Pro.local'
p1546
asbasbasbag68
(g84
g70
NtRp1547
(dp1548
g73
(dp1549
sg82
g1018
sg75
(lp1550
g68
(g89
g70
NtRp1551
(dp1552
g73
(dp1553
g93
g94
ssg82
g1547
sg75
(lp1554
S'server_port'
p1555
asbag68
(g89
g70
NtRp1556
(dp1557
g73
(dp1558
g100
g101
ssg82
g1547
sg75
(lp1559
S':'
asbag68
(g89
g70
NtRp1560
(dp1561
g73
(dp1562
sg82
g1547
sg75
(lp1563
g68
(g69
g70
NtRp1564
(dp1565
g73
(dp1566
g81
I4
ssg82
g1560
sg75
(lp1567
S'8000'
p1568
asbasbasbag68
(g84
g70
NtRp1569
(dp1570
g73
(dp1571
sg82
g1018
sg75
(lp1572
g68
(g89
g70
NtRp1573
(dp1574
g73
(dp1575
g93
g94
ssg82
g1569
sg75
(lp1576
S'server_protocol'
p1577
asbag68
(g89
g70
NtRp1578
(dp1579
g73
(dp1580
g100
g101
ssg82
g1569
sg75
(lp1581
S':'
asbag68
(g89
g70
NtRp1582
(dp1583
g73
(dp1584
sg82
g1569
sg75
(lp1585
g68
(g69
g70
NtRp1586
(dp1587
g73
(dp1588
g81
I4
ssg82
g1582
sg75
(lp1589
S'HTTP/1.1'
p1590
asbasbasbag68
(g84
g70
NtRp1591
(dp1592
g73
(dp1593
sg82
g1018
sg75
(lp1594
g68
(g89
g70
NtRp1595
(dp1596
g73
(dp1597
g93
g94
ssg82
g1591
sg75
(lp1598
S'server_software'
p1599
asbag68
(g89
g70
NtRp1600
(dp1601
g73
(dp1602
g100
g101
ssg82
g1591
sg75
(lp1603
S':'
asbag68
(g89
g70
NtRp1604
(dp1605
g73
(dp1606
sg82
g1591
sg75
(lp1607
g68
(g69
g70
NtRp1608
(dp1609
g73
(dp1610
g81
I4
ssg82
g1604
sg75
(lp1611
S'Rocket 1.2.4'
p1612
asbasbasbag68
(g84
g70
NtRp1613
(dp1614
g73
(dp1615
sg82
g1018
sg75
(lp1616
g68
(g89
g70
NtRp1617
(dp1618
g73
(dp1619
g93
g94
ssg82
g1613
sg75
(lp1620
S'web2py_crontype'
p1621
asbag68
(g89
g70
NtRp1622
(dp1623
g73
(dp1624
g100
g101
ssg82
g1613
sg75
(lp1625
S':'
asbag68
(g89
g70
NtRp1626
(dp1627
g73
(dp1628
sg82
g1613
sg75
(lp1629
g68
(g69
g70
NtRp1630
(dp1631
g73
(dp1632
g81
I4
ssg82
g1626
sg75
(lp1633
S'hard'
p1634
asbasbasbag68
(g84
g70
NtRp1635
(dp1636
g73
(dp1637
sg82
g1018
sg75
(lp1638
g68
(g89
g70
NtRp1639
(dp1640
g73
(dp1641
g93
g94
ssg82
g1635
sg75
(lp1642
S'web2py_path'
p1643
asbag68
(g89
g70
NtRp1644
(dp1645
g73
(dp1646
g100
g101
ssg82
g1635
sg75
(lp1647
S':'
asbag68
(g89
g70
NtRp1648
(dp1649
g73
(dp1650
sg82
g1635
sg75
(lp1651
g68
(g69
g70
NtRp1652
(dp1653
g73
(dp1654
g81
I4
ssg82
g1648
sg75
(lp1655
g1065
asbasbasbag68
(g84
g70
NtRp1656
(dp1657
g73
(dp1658
sg82
g1018
sg75
(lp1659
g68
(g89
g70
NtRp1660
(dp1661
g73
(dp1662
g93
g94
ssg82
g1656
sg75
(lp1663
S'web2py_version'
p1664
asbag68
(g89
g70
NtRp1665
(dp1666
g73
(dp1667
g100
g101
ssg82
g1656
sg75
(lp1668
S':'
asbag68
(g89
g70
NtRp1669
(dp1670
g73
(dp1671
sg82
g1656
sg75
(lp1672
g68
(g69
g70
NtRp1673
(dp1674
g73
(dp1675
g81
I4
ssg82
g1669
sg75
(lp1676
g68
(g77
g70
NtRp1677
(dp1678
g73
(dp1679
g81
I3
ssg82
Nsg75
(lp1680
g68
(g84
g70
NtRp1681
(dp1682
g73
(dp1683
sg82
g1677
sg75
(lp1684
g68
(g89
g70
NtRp1685
(dp1686
g73
(dp1687
sg82
g1681
sg75
(lp1688
g68
(g69
g70
NtRp1689
(dp1690
g73
(dp1691
g81
I3
ssg82
g1685
sg75
(lp1692
S'1'
asbasbasbag68
(g84
g70
NtRp1693
(dp1694
g73
(dp1695
sg82
g1677
sg75
(lp1696
g68
(g89
g70
NtRp1697
(dp1698
g73
(dp1699
sg82
g1693
sg75
(lp1700
g68
(g69
g70
NtRp1701
(dp1702
g73
(dp1703
g81
I3
ssg82
g1697
sg75
(lp1704
S'99'
p1705
asbasbasbag68
(g84
g70
NtRp1706
(dp1707
g73
(dp1708
sg82
g1677
sg75
(lp1709
g68
(g89
g70
NtRp1710
(dp1711
g73
(dp1712
sg82
g1706
sg75
(lp1713
g68
(g69
g70
NtRp1714
(dp1715
g73
(dp1716
g81
I3
ssg82
g1710
sg75
(lp1717
S'7'
asbasbasbag68
(g84
g70
NtRp1718
(dp1719
g73
(dp1720
sg82
g1677
sg75
(lp1721
g68
(g89
g70
NtRp1722
(dp1723
g73
(dp1724
sg82
g1718
sg75
(lp1725
g68
(g69
g70
NtRp1726
(dp1727
g73
(dp1728
g81
I3
ssg82
g1722
sg75
(lp1729
S'datetime.datetime(2012, 3, 4, 22, 12, 8)'
p1730
asbasbasbag68
(g84
g70
NtRp1731
(dp1732
g73
(dp1733
sg82
g1677
sg75
(lp1734
g68
(g89
g70
NtRp1735
(dp1736
g73
(dp1737
sg82
g1731
sg75
(lp1738
g68
(g69
g70
NtRp1739
(dp1740
g73
(dp1741
g81
I3
ssg82
g1735
sg75
(lp1742
S'stable'
p1743
asbasbasbasbasbasbasbag68
(g84
g70
NtRp1744
(dp1745
g73
(dp1746
sg82
g1018
sg75
(lp1747
g68
(g89
g70
NtRp1748
(dp1749
g73
(dp1750
g93
g94
ssg82
g1744
sg75
(lp1751
S'wsgi_errors'
p1752
asbag68
(g89
g70
NtRp1753
(dp1754
g73
(dp1755
g100
g101
ssg82
g1744
sg75
(lp1756
S':'
asbag68
(g89
g70
NtRp1757
(dp1758
g73
(dp1759
sg82
g1744
sg75
(lp1760
g68
(g69
g70
NtRp1761
(dp1762
g73
(dp1763
g81
I4
ssg82
g1757
sg75
(lp1764
S"<open file '<stderr>', mode 'w' at 0x104484270>"
p1765
asbasbasbag68
(g84
g70
NtRp1766
(dp1767
g73
(dp1768
sg82
g1018
sg75
(lp1769
g68
(g89
g70
NtRp1770
(dp1771
g73
(dp1772
g93
g94
ssg82
g1766
sg75
(lp1773
S'wsgi_file_wrapper'
p1774
asbag68
(g89
g70
NtRp1775
(dp1776
g73
(dp1777
g100
g101
ssg82
g1766
sg75
(lp1778
S':'
asbag68
(g89
g70
NtRp1779
(dp1780
g73
(dp1781
sg82
g1766
sg75
(lp1782
g68
(g69
g70
NtRp1783
(dp1784
g73
(dp1785
g81
I4
ssg82
g1779
sg75
(lp1786
S'<class wsgiref.util.FileWrapper at 0x104ebdf58>'
p1787
asbasbasbag68
(g84
g70
NtRp1788
(dp1789
g73
(dp1790
sg82
g1018
sg75
(lp1791
g68
(g89
g70
NtRp1792
(dp1793
g73
(dp1794
g93
g94
ssg82
g1788
sg75
(lp1795
S'wsgi_input'
p1796
asbag68
(g89
g70
NtRp1797
(dp1798
g73
(dp1799
g100
g101
ssg82
g1788
sg75
(lp1800
S':'
asbag68
(g89
g70
NtRp1801
(dp1802
g73
(dp1803
sg82
g1788
sg75
(lp1804
g68
(g69
g70
NtRp1805
(dp1806
g73
(dp1807
g81
I4
ssg82
g1801
sg75
(lp1808
S'<socket._fileobject object at 0x10543ae50>'
p1809
asbasbasbag68
(g84
g70
NtRp1810
(dp1811
g73
(dp1812
sg82
g1018
sg75
(lp1813
g68
(g89
g70
NtRp1814
(dp1815
g73
(dp1816
g93
g94
ssg82
g1810
sg75
(lp1817
S'wsgi_multiprocess'
p1818
asbag68
(g89
g70
NtRp1819
(dp1820
g73
(dp1821
g100
g101
ssg82
g1810
sg75
(lp1822
S':'
asbag68
(g89
g70
NtRp1823
(dp1824
g73
(dp1825
sg82
g1810
sg75
(lp1826
g68
(g69
g70
NtRp1827
(dp1828
g73
(dp1829
g81
I4
ssg82
g1823
sg75
(lp1830
g111
asbasbasbag68
(g84
g70
NtRp1831
(dp1832
g73
(dp1833
sg82
g1018
sg75
(lp1834
g68
(g89
g70
NtRp1835
(dp1836
g73
(dp1837
g93
g94
ssg82
g1831
sg75
(lp1838
S'wsgi_multithread'
p1839
asbag68
(g89
g70
NtRp1840
(dp1841
g73
(dp1842
g100
g101
ssg82
g1831
sg75
(lp1843
S':'
asbag68
(g89
g70
NtRp1844
(dp1845
g73
(dp1846
sg82
g1831
sg75
(lp1847
g68
(g69
g70
NtRp1848
(dp1849
g73
(dp1850
g81
I4
ssg82
g1844
sg75
(lp1851
S'True'
p1852
asbasbasbag68
(g84
g70
NtRp1853
(dp1854
g73
(dp1855
sg82
g1018
sg75
(lp1856
g68
(g89
g70
NtRp1857
(dp1858
g73
(dp1859
g93
g94
ssg82
g1853
sg75
(lp1860
S'wsgi_run_once'
p1861
asbag68
(g89
g70
NtRp1862
(dp1863
g73
(dp1864
g100
g101
ssg82
g1853
sg75
(lp1865
S':'
asbag68
(g89
g70
NtRp1866
(dp1867
g73
(dp1868
sg82
g1853
sg75
(lp1869
g68
(g69
g70
NtRp1870
(dp1871
g73
(dp1872
g81
I4
ssg82
g1866
sg75
(lp1873
g111
asbasbasbag68
(g84
g70
NtRp1874
(dp1875
g73
(dp1876
sg82
g1018
sg75
(lp1877
g68
(g89
g70
NtRp1878
(dp1879
g73
(dp1880
g93
g94
ssg82
g1874
sg75
(lp1881
S'wsgi_url_scheme'
p1882
asbag68
(g89
g70
NtRp1883
(dp1884
g73
(dp1885
g100
g101
ssg82
g1874
sg75
(lp1886
S':'
asbag68
(g89
g70
NtRp1887
(dp1888
g73
(dp1889
sg82
g1874
sg75
(lp1890
g68
(g69
g70
NtRp1891
(dp1892
g73
(dp1893
g81
I4
ssg82
g1887
sg75
(lp1894
S'http'
p1895
asbasbasbag68
(g84
g70
NtRp1896
(dp1897
g73
(dp1898
sg82
g1018
sg75
(lp1899
g68
(g89
g70
NtRp1900
(dp1901
g73
(dp1902
g93
g94
ssg82
g1896
sg75
(lp1903
S'wsgi_version'
p1904
asbag68
(g89
g70
NtRp1905
(dp1906
g73
(dp1907
g100
g101
ssg82
g1896
sg75
(lp1908
S':'
asbag68
(g89
g70
NtRp1909
(dp1910
g73
(dp1911
sg82
g1896
sg75
(lp1912
g68
(g69
g70
NtRp1913
(dp1914
g73
(dp1915
g81
I4
ssg82
g1909
sg75
(lp1916
g68
(g77
g70
NtRp1917
(dp1918
g73
(dp1919
g81
I3
ssg82
Nsg75
(lp1920
g68
(g84
g70
NtRp1921
(dp1922
g73
(dp1923
sg82
g1917
sg75
(lp1924
g68
(g89
g70
NtRp1925
(dp1926
g73
(dp1927
sg82
g1921
sg75
(lp1928
g68
(g69
g70
NtRp1929
(dp1930
g73
(dp1931
g81
I3
ssg82
g1925
sg75
(lp1932
S'1'
asbasbasbag68
(g84
g70
NtRp1933
(dp1934
g73
(dp1935
sg82
g1917
sg75
(lp1936
g68
(g89
g70
NtRp1937
(dp1938
g73
(dp1939
sg82
g1933
sg75
(lp1940
g68
(g69
g70
NtRp1941
(dp1942
g73
(dp1943
g81
I3
ssg82
g1937
sg75
(lp1944
S'0'
asbasbasbasbasbasbasbasbasbasbasbag68
(g84
g70
NtRp1945
(dp1946
g73
(dp1947
sg82
g78
sg75
(lp1948
g68
(g89
g70
NtRp1949
(dp1950
g73
(dp1951
g93
g94
ssg82
g1945
sg75
(lp1952
S'extension'
p1953
asbag68
(g89
g70
NtRp1954
(dp1955
g73
(dp1956
g100
g101
ssg82
g1945
sg75
(lp1957
S':'
asbag68
(g89
g70
NtRp1958
(dp1959
g73
(dp1960
sg82
g1945
sg75
(lp1961
g68
(g69
g70
NtRp1962
(dp1963
g73
(dp1964
g81
I5
ssg82
g1958
sg75
(lp1965
S'html'
p1966
asbasbasbag68
(g84
g70
NtRp1967
(dp1968
g73
(dp1969
sg82
g78
sg75
(lp1970
g68
(g89
g70
NtRp1971
(dp1972
g73
(dp1973
g93
g94
ssg82
g1967
sg75
(lp1974
S'folder'
p1975
asbag68
(g89
g70
NtRp1976
(dp1977
g73
(dp1978
g100
g101
ssg82
g1967
sg75
(lp1979
S':'
asbag68
(g89
g70
NtRp1980
(dp1981
g73
(dp1982
sg82
g1967
sg75
(lp1983
g68
(g69
g70
NtRp1984
(dp1985
g73
(dp1986
g81
I5
ssg82
g1980
sg75
(lp1987
S'/Users/ianaboneva/Dropbox/DePaul/CSC 438 - Web Applications/web2py/applications/Book_Shelf_copy/'
p1988
asbasbasbag68
(g84
g70
NtRp1989
(dp1990
g73
(dp1991
sg82
g78
sg75
(lp1992
g68
(g89
g70
NtRp1993
(dp1994
g73
(dp1995
g93
g94
ssg82
g1989
sg75
(lp1996
S'function'
p1997
asbag68
(g89
g70
NtRp1998
(dp1999
g73
(dp2000
g100
g101
ssg82
g1989
sg75
(lp2001
S':'
asbag68
(g89
g70
NtRp2002
(dp2003
g73
(dp2004
sg82
g1989
sg75
(lp2005
g68
(g69
g70
NtRp2006
(dp2007
g73
(dp2008
g81
I5
ssg82
g2002
sg75
(lp2009
S'create_user_profile'
p2010
asbasbasbag68
(g84
g70
NtRp2011
(dp2012
g73
(dp2013
sg82
g78
sg75
(lp2014
g68
(g89
g70
NtRp2015
(dp2016
g73
(dp2017
g93
g94
ssg82
g2011
sg75
(lp2018
S'get_vars'
p2019
asbag68
(g89
g70
NtRp2020
(dp2021
g73
(dp2022
g100
g101
ssg82
g2011
sg75
(lp2023
S':'
asbag68
(g89
g70
NtRp2024
(dp2025
g73
(dp2026
sg82
g2011
sg75
(lp2027
g68
(g69
g70
NtRp2028
(dp2029
g73
(dp2030
g81
I5
ssg82
g2024
sg75
(lp2031
g68
(g77
g70
NtRp2032
(dp2033
g73
(dp2034
g81
I4
ssg82
Nsg75
(lp2035
sbasbasbasbag68
(g84
g70
NtRp2036
(dp2037
g73
(dp2038
sg82
g78
sg75
(lp2039
g68
(g89
g70
NtRp2040
(dp2041
g73
(dp2042
g93
g94
ssg82
g2036
sg75
(lp2043
S'global_settings'
p2044
asbag68
(g89
g70
NtRp2045
(dp2046
g73
(dp2047
g100
g101
ssg82
g2036
sg75
(lp2048
S':'
asbag68
(g89
g70
NtRp2049
(dp2050
g73
(dp2051
sg82
g2036
sg75
(lp2052
g68
(g69
g70
NtRp2053
(dp2054
g73
(dp2055
g81
I5
ssg82
g2049
sg75
(lp2056
g68
(g77
g70
NtRp2057
(dp2058
g73
(dp2059
g81
I4
ssg82
Nsg75
(lp2060
g68
(g84
g70
NtRp2061
(dp2062
g73
(dp2063
sg82
g2057
sg75
(lp2064
g68
(g89
g70
NtRp2065
(dp2066
g73
(dp2067
g93
g94
ssg82
g2061
sg75
(lp2068
g1030
asbag68
(g89
g70
NtRp2069
(dp2070
g73
(dp2071
g100
g101
ssg82
g2061
sg75
(lp2072
S':'
asbag68
(g89
g70
NtRp2073
(dp2074
g73
(dp2075
sg82
g2061
sg75
(lp2076
g68
(g69
g70
NtRp2077
(dp2078
g73
(dp2079
g81
I4
ssg82
g2073
sg75
(lp2080
S"set(['/Users/ianaboneva/Dropbox/DePaul/CSC 438 - Web Applications/web2py/applications/ToDoList2/', '/Users/ianaboneva/Dropbox/DePaul/CSC 438 - Web Applications/web2py/applications/welcome/', '/Users/ianaboneva/Dropbox/DePaul/CSC 438 - Web Applications/web2py/applications/admin/', '/Users/ianaboneva/Dropbox/DePaul/CSC 438 - Web Applications/web2py/applications/Book_Shelf_copy/'])"
p2081
asbasbasbag68
(g84
g70
NtRp2082
(dp2083
g73
(dp2084
sg82
g2057
sg75
(lp2085
g68
(g89
g70
NtRp2086
(dp2087
g73
(dp2088
g93
g94
ssg82
g2082
sg75
(lp2089
g1052
asbag68
(g89
g70
NtRp2090
(dp2091
g73
(dp2092
g100
g101
ssg82
g2082
sg75
(lp2093
S':'
asbag68
(g89
g70
NtRp2094
(dp2095
g73
(dp2096
sg82
g2082
sg75
(lp2097
g68
(g69
g70
NtRp2098
(dp2099
g73
(dp2100
g81
I4
ssg82
g2094
sg75
(lp2101
g1065
asbasbasbag68
(g84
g70
NtRp2102
(dp2103
g73
(dp2104
sg82
g2057
sg75
(lp2105
g68
(g89
g70
NtRp2106
(dp2107
g73
(dp2108
g93
g94
ssg82
g2102
sg75
(lp2109
g1074
asbag68
(g89
g70
NtRp2110
(dp2111
g73
(dp2112
g100
g101
ssg82
g2102
sg75
(lp2113
S':'
asbag68
(g89
g70
NtRp2114
(dp2115
g73
(dp2116
sg82
g2102
sg75
(lp2117
g68
(g69
g70
NtRp2118
(dp2119
g73
(dp2120
g81
I4
ssg82
g2114
sg75
(lp2121
g68
(g77
g70
NtRp2122
(dp2123
g73
(dp2124
g81
I3
ssg82
Nsg75
(lp2125
sbasbasbasbag68
(g84
g70
NtRp2126
(dp2127
g73
(dp2128
sg82
g2057
sg75
(lp2129
g68
(g89
g70
NtRp2130
(dp2131
g73
(dp2132
g93
g94
ssg82
g2126
sg75
(lp2133
g1099
asbag68
(g89
g70
NtRp2134
(dp2135
g73
(dp2136
g100
g101
ssg82
g2126
sg75
(lp2137
S':'
asbag68
(g89
g70
NtRp2138
(dp2139
g73
(dp2140
sg82
g2126
sg75
(lp2141
g68
(g69
g70
NtRp2142
(dp2143
g73
(dp2144
g81
I4
ssg82
g2138
sg75
(lp2145
S"<Values at 0x104fc1b00: {'verbose': False, 'ip': '127.0.0.1', 'shutdown_timeout': 5, 'taskbar': False, 'nocron': False, 'pid_filename': 'httpserver.pid', 'maxthreads': None, 'softcron': False, 'server_name': 'Iana-Bonevas-MacBook-Pro.local', 'bpython': False, 'nogui': False, 'port': 8000, 'extcron': False, 'debuglevel': 30, 'test': None, 'folder': '/Users/ianaboneva/Dropbox/DePaul/CSC 438 - Web Applications/web2py', 'config': '', 'import_models': False, 'winservice': '', 'shell': None, 'run': '', 'log_filename': 'httpserver.log', 'args': [''], 'socket_timeout': 5, 'ssl_ca_certificate': None, 'scheduler': None, 'profiler_filename': None, 'ssl_private_key': '', 'password': '<ask>', 'request_queue_size': 5, 'ssl_certificate': '', 'cronjob': False, 'numthreads': None, 'quiet': False, 'interfaces': None, 'minthreads': None, 'timeout': 10, 'plain': False, 'nobanner': False}>"
p2146
asbasbasbag68
(g84
g70
NtRp2147
(dp2148
g73
(dp2149
sg82
g2057
sg75
(lp2150
g68
(g89
g70
NtRp2151
(dp2152
g73
(dp2153
g93
g94
ssg82
g2147
sg75
(lp2154
g1121
asbag68
(g89
g70
NtRp2155
(dp2156
g73
(dp2157
g100
g101
ssg82
g2147
sg75
(lp2158
S':'
asbag68
(g89
g70
NtRp2159
(dp2160
g73
(dp2161
sg82
g2147
sg75
(lp2162
g68
(g69
g70
NtRp2163
(dp2164
g73
(dp2165
g81
I4
ssg82
g2159
sg75
(lp2166
S'set([])'
p2167
asbasbasbag68
(g84
g70
NtRp2168
(dp2169
g73
(dp2170
sg82
g2057
sg75
(lp2171
g68
(g89
g70
NtRp2172
(dp2173
g73
(dp2174
g93
g94
ssg82
g2168
sg75
(lp2175
g1143
asbag68
(g89
g70
NtRp2176
(dp2177
g73
(dp2178
g100
g101
ssg82
g2168
sg75
(lp2179
S':'
asbag68
(g89
g70
NtRp2180
(dp2181
g73
(dp2182
sg82
g2168
sg75
(lp2183
g68
(g69
g70
NtRp2184
(dp2185
g73
(dp2186
g81
I4
ssg82
g2180
sg75
(lp2187
g111
asbasbasbag68
(g84
g70
NtRp2188
(dp2189
g73
(dp2190
sg82
g2057
sg75
(lp2191
g68
(g89
g70
NtRp2192
(dp2193
g73
(dp2194
g93
g94
ssg82
g2188
sg75
(lp2195
g1164
asbag68
(g89
g70
NtRp2196
(dp2197
g73
(dp2198
g100
g101
ssg82
g2188
sg75
(lp2199
S':'
asbag68
(g89
g70
NtRp2200
(dp2201
g73
(dp2202
sg82
g2188
sg75
(lp2203
g68
(g69
g70
NtRp2204
(dp2205
g73
(dp2206
g81
I4
ssg82
g2200
sg75
(lp2207
g1177
asbasbasbag68
(g84
g70
NtRp2208
(dp2209
g73
(dp2210
sg82
g2057
sg75
(lp2211
g68
(g89
g70
NtRp2212
(dp2213
g73
(dp2214
g93
g94
ssg82
g2208
sg75
(lp2215
g1362
asbag68
(g89
g70
NtRp2216
(dp2217
g73
(dp2218
g100
g101
ssg82
g2208
sg75
(lp2219
S':'
asbag68
(g89
g70
NtRp2220
(dp2221
g73
(dp2222
sg82
g2208
sg75
(lp2223
g68
(g69
g70
NtRp2224
(dp2225
g73
(dp2226
g81
I4
ssg82
g2220
sg75
(lp2227
g111
asbasbasbag68
(g84
g70
NtRp2228
(dp2229
g73
(dp2230
sg82
g2057
sg75
(lp2231
g68
(g89
g70
NtRp2232
(dp2233
g73
(dp2234
g93
g94
ssg82
g2228
sg75
(lp2235
g1383
asbag68
(g89
g70
NtRp2236
(dp2237
g73
(dp2238
g100
g101
ssg82
g2228
sg75
(lp2239
S':'
asbag68
(g89
g70
NtRp2240
(dp2241
g73
(dp2242
sg82
g2228
sg75
(lp2243
g68
(g69
g70
NtRp2244
(dp2245
g73
(dp2246
g81
I4
ssg82
g2240
sg75
(lp2247
g111
asbasbasbag68
(g84
g70
NtRp2248
(dp2249
g73
(dp2250
sg82
g2057
sg75
(lp2251
g68
(g89
g70
NtRp2252
(dp2253
g73
(dp2254
g93
g94
ssg82
g2248
sg75
(lp2255
g1621
asbag68
(g89
g70
NtRp2256
(dp2257
g73
(dp2258
g100
g101
ssg82
g2248
sg75
(lp2259
S':'
asbag68
(g89
g70
NtRp2260
(dp2261
g73
(dp2262
sg82
g2248
sg75
(lp2263
g68
(g69
g70
NtRp2264
(dp2265
g73
(dp2266
g81
I4
ssg82
g2260
sg75
(lp2267
g1634
asbasbasbag68
(g84
g70
NtRp2268
(dp2269
g73
(dp2270
sg82
g2057
sg75
(lp2271
g68
(g89
g70
NtRp2272
(dp2273
g73
(dp2274
g93
g94
ssg82
g2268
sg75
(lp2275
g1664
asbag68
(g89
g70
NtRp2276
(dp2277
g73
(dp2278
g100
g101
ssg82
g2268
sg75
(lp2279
S':'
asbag68
(g89
g70
NtRp2280
(dp2281
g73
(dp2282
sg82
g2268
sg75
(lp2283
g68
(g69
g70
NtRp2284
(dp2285
g73
(dp2286
g81
I4
ssg82
g2280
sg75
(lp2287
g68
(g77
g70
NtRp2288
(dp2289
g73
(dp2290
g81
I3
ssg82
Nsg75
(lp2291
g68
(g84
g70
NtRp2292
(dp2293
g73
(dp2294
sg82
g2288
sg75
(lp2295
g68
(g89
g70
NtRp2296
(dp2297
g73
(dp2298
sg82
g2292
sg75
(lp2299
g68
(g69
g70
NtRp2300
(dp2301
g73
(dp2302
g81
I3
ssg82
g2296
sg75
(lp2303
S'1'
asbasbasbag68
(g84
g70
NtRp2304
(dp2305
g73
(dp2306
sg82
g2288
sg75
(lp2307
g68
(g89
g70
NtRp2308
(dp2309
g73
(dp2310
sg82
g2304
sg75
(lp2311
g68
(g69
g70
NtRp2312
(dp2313
g73
(dp2314
g81
I3
ssg82
g2308
sg75
(lp2315
S'99'
p2316
asbasbasbag68
(g84
g70
NtRp2317
(dp2318
g73
(dp2319
sg82
g2288
sg75
(lp2320
g68
(g89
g70
NtRp2321
(dp2322
g73
(dp2323
sg82
g2317
sg75
(lp2324
g68
(g69
g70
NtRp2325
(dp2326
g73
(dp2327
g81
I3
ssg82
g2321
sg75
(lp2328
S'7'
asbasbasbag68
(g84
g70
NtRp2329
(dp2330
g73
(dp2331
sg82
g2288
sg75
(lp2332
g68
(g89
g70
NtRp2333
(dp2334
g73
(dp2335
sg82
g2329
sg75
(lp2336
g68
(g69
g70
NtRp2337
(dp2338
g73
(dp2339
g81
I3
ssg82
g2333
sg75
(lp2340
S'datetime.datetime(2012, 3, 4, 22, 12, 8)'
p2341
asbasbasbag68
(g84
g70
NtRp2342
(dp2343
g73
(dp2344
sg82
g2288
sg75
(lp2345
g68
(g89
g70
NtRp2346
(dp2347
g73
(dp2348
sg82
g2342
sg75
(lp2349
g68
(g69
g70
NtRp2350
(dp2351
g73
(dp2352
g81
I3
ssg82
g2346
sg75
(lp2353
g1743
asbasbasbasbasbasbasbasbasbasbasbag68
(g84
g70
NtRp2354
(dp2355
g73
(dp2356
sg82
g78
sg75
(lp2357
g68
(g89
g70
NtRp2358
(dp2359
g73
(dp2360
g93
g94
ssg82
g2354
sg75
(lp2361
S'is_https'
p2362
asbag68
(g89
g70
NtRp2363
(dp2364
g73
(dp2365
g100
g101
ssg82
g2354
sg75
(lp2366
S':'
asbag68
(g89
g70
NtRp2367
(dp2368
g73
(dp2369
sg82
g2354
sg75
(lp2370
g68
(g69
g70
NtRp2371
(dp2372
g73
(dp2373
g81
I5
ssg82
g2367
sg75
(lp2374
g111
asbasbasbag68
(g84
g70
NtRp2375
(dp2376
g73
(dp2377
sg82
g78
sg75
(lp2378
g68
(g89
g70
NtRp2379
(dp2380
g73
(dp2381
g93
g94
ssg82
g2375
sg75
(lp2382
S'is_local'
p2383
asbag68
(g89
g70
NtRp2384
(dp2385
g73
(dp2386
g100
g101
ssg82
g2375
sg75
(lp2387
S':'
asbag68
(g89
g70
NtRp2388
(dp2389
g73
(dp2390
sg82
g2375
sg75
(lp2391
g68
(g69
g70
NtRp2392
(dp2393
g73
(dp2394
g81
I5
ssg82
g2388
sg75
(lp2395
g1852
asbasbasbag68
(g84
g70
NtRp2396
(dp2397
g73
(dp2398
sg82
g78
sg75
(lp2399
g68
(g89
g70
NtRp2400
(dp2401
g73
(dp2402
g93
g94
ssg82
g2396
sg75
(lp2403
S'is_restful'
p2404
asbag68
(g89
g70
NtRp2405
(dp2406
g73
(dp2407
g100
g101
ssg82
g2396
sg75
(lp2408
S':'
asbag68
(g89
g70
NtRp2409
(dp2410
g73
(dp2411
sg82
g2396
sg75
(lp2412
g68
(g69
g70
NtRp2413
(dp2414
g73
(dp2415
g81
I5
ssg82
g2409
sg75
(lp2416
g111
asbasbasbag68
(g84
g70
NtRp2417
(dp2418
g73
(dp2419
sg82
g78
sg75
(lp2420
g68
(g89
g70
NtRp2421
(dp2422
g73
(dp2423
g93
g94
ssg82
g2417
sg75
(lp2424
S'now'
p2425
asbag68
(g89
g70
NtRp2426
(dp2427
g73
(dp2428
g100
g101
ssg82
g2417
sg75
(lp2429
S':'
asbag68
(g89
g70
NtRp2430
(dp2431
g73
(dp2432
sg82
g2417
sg75
(lp2433
g68
(g69
g70
NtRp2434
(dp2435
g73
(dp2436
g81
I5
ssg82
g2430
sg75
(lp2437
S'datetime.datetime(2012, 6, 3, 18, 27, 4, 46220)'
p2438
asbasbasbag68
(g84
g70
NtRp2439
(dp2440
g73
(dp2441
sg82
g78
sg75
(lp2442
g68
(g89
g70
NtRp2443
(dp2444
g73
(dp2445
g93
g94
ssg82
g2439
sg75
(lp2446
S'post_vars'
p2447
asbag68
(g89
g70
NtRp2448
(dp2449
g73
(dp2450
g100
g101
ssg82
g2439
sg75
(lp2451
S':'
asbag68
(g89
g70
NtRp2452
(dp2453
g73
(dp2454
sg82
g2439
sg75
(lp2455
g68
(g69
g70
NtRp2456
(dp2457
g73
(dp2458
g81
I5
ssg82
g2452
sg75
(lp2459
g68
(g77
g70
NtRp2460
(dp2461
g73
(dp2462
g81
I4
ssg82
Nsg75
(lp2463
sbasbasbasbag68
(g84
g70
NtRp2464
(dp2465
g73
(dp2466
sg82
g78
sg75
(lp2467
g68
(g89
g70
NtRp2468
(dp2469
g73
(dp2470
g93
g94
ssg82
g2464
sg75
(lp2471
S'url'
p2472
asbag68
(g89
g70
NtRp2473
(dp2474
g73
(dp2475
g100
g101
ssg82
g2464
sg75
(lp2476
S':'
asbag68
(g89
g70
NtRp2477
(dp2478
g73
(dp2479
sg82
g2464
sg75
(lp2480
g68
(g69
g70
NtRp2481
(dp2482
g73
(dp2483
g81
I5
ssg82
g2477
sg75
(lp2484
S'/Book_Shelf_copy/default/create_user_profile'
p2485
asbasbasbag68
(g84
g70
NtRp2486
(dp2487
g73
(dp2488
sg82
g78
sg75
(lp2489
g68
(g89
g70
NtRp2490
(dp2491
g73
(dp2492
g93
g94
ssg82
g2486
sg75
(lp2493
S'utcnow'
p2494
asbag68
(g89
g70
NtRp2495
(dp2496
g73
(dp2497
g100
g101
ssg82
g2486
sg75
(lp2498
S':'
asbag68
(g89
g70
NtRp2499
(dp2500
g73
(dp2501
sg82
g2486
sg75
(lp2502
g68
(g69
g70
NtRp2503
(dp2504
g73
(dp2505
g81
I5
ssg82
g2499
sg75
(lp2506
S'datetime.datetime(2012, 6, 3, 23, 27, 4, 46238)'
p2507
asbasbasbag68
(g84
g70
NtRp2508
(dp2509
g73
(dp2510
sg82
g78
sg75
(lp2511
g68
(g89
g70
NtRp2512
(dp2513
g73
(dp2514
g93
g94
ssg82
g2508
sg75
(lp2515
S'uuid'
p2516
asbag68
(g89
g70
NtRp2517
(dp2518
g73
(dp2519
g100
g101
ssg82
g2508
sg75
(lp2520
S':'
asbag68
(g89
g70
NtRp2521
(dp2522
g73
(dp2523
sg82
g2508
sg75
(lp2524
g68
(g69
g70
NtRp2525
(dp2526
g73
(dp2527
g81
I5
ssg82
g2521
sg75
(lp2528
S'Book_Shelf_copy/127.0.0.1.2012-06-03.18-27-04.c8f20c1a-7dd8-4906-8b4d-1ee33d284099'
p2529
asbasbasbag68
(g84
g70
NtRp2530
(dp2531
g73
(dp2532
sg82
g78
sg75
(lp2533
g68
(g89
g70
NtRp2534
(dp2535
g73
(dp2536
g93
g94
ssg82
g2530
sg75
(lp2537
S'vars'
p2538
asbag68
(g89
g70
NtRp2539
(dp2540
g73
(dp2541
g100
g101
ssg82
g2530
sg75
(lp2542
S':'
asbag68
(g89
g70
NtRp2543
(dp2544
g73
(dp2545
sg82
g2530
sg75
(lp2546
g68
(g69
g70
NtRp2547
(dp2548
g73
(dp2549
g81
I5
ssg82
g2543
sg75
(lp2550
g68
(g77
g70
NtRp2551
(dp2552
g73
(dp2553
g81
I4
ssg82
Nsg75
(lp2554
sbasbasbasbag68
(g84
g70
NtRp2555
(dp2556
g73
(dp2557
sg82
g78
sg75
(lp2558
g68
(g89
g70
NtRp2559
(dp2560
g73
(dp2561
g93
g94
ssg82
g2555
sg75
(lp2562
S'wsgi'
p2563
asbag68
(g89
g70
NtRp2564
(dp2565
g73
(dp2566
g100
g101
ssg82
g2555
sg75
(lp2567
S':'
asbag68
(g89
g70
NtRp2568
(dp2569
g73
(dp2570
sg82
g2555
sg75
(lp2571
g68
(g69
g70
NtRp2572
(dp2573
g73
(dp2574
g81
I5
ssg82
g2568
sg75
(lp2575
g68
(g77
g70
NtRp2576
(dp2577
g73
(dp2578
g81
I4
ssg82
Nsg75
(lp2579
g68
(g84
g70
NtRp2580
(dp2581
g73
(dp2582
sg82
g2576
sg75
(lp2583
g68
(g89
g70
NtRp2584
(dp2585
g73
(dp2586
g93
g94
ssg82
g2580
sg75
(lp2587
S'environ'
p2588
asbag68
(g89
g70
NtRp2589
(dp2590
g73
(dp2591
g100
g101
ssg82
g2580
sg75
(lp2592
S':'
asbag68
(g89
g70
NtRp2593
(dp2594
g73
(dp2595
sg82
g2580
sg75
(lp2596
g68
(g69
g70
NtRp2597
(dp2598
g73
(dp2599
g81
I4
ssg82
g2593
sg75
(lp2600
g68
(g77
g70
NtRp2601
(dp2602
g73
(dp2603
g81
I3
ssg82
Nsg75
(lp2604
g68
(g84
g70
NtRp2605
(dp2606
g73
(dp2607
sg82
g2601
sg75
(lp2608
g68
(g89
g70
NtRp2609
(dp2610
g73
(dp2611
g93
g94
ssg82
g2605
sg75
(lp2612
S'HTTP_ACCEPT'
p2613
asbag68
(g89
g70
NtRp2614
(dp2615
g73
(dp2616
g100
g101
ssg82
g2605
sg75
(lp2617
S':'
asbag68
(g89
g70
NtRp2618
(dp2619
g73
(dp2620
sg82
g2605
sg75
(lp2621
g68
(g69
g70
NtRp2622
(dp2623
g73
(dp2624
g81
I3
ssg82
g2618
sg75
(lp2625
g1199
asbasbasbag68
(g84
g70
NtRp2626
(dp2627
g73
(dp2628
sg82
g2601
sg75
(lp2629
g68
(g89
g70
NtRp2630
(dp2631
g73
(dp2632
g93
g94
ssg82
g2626
sg75
(lp2633
S'HTTP_ACCEPT_CHARSET'
p2634
asbag68
(g89
g70
NtRp2635
(dp2636
g73
(dp2637
g100
g101
ssg82
g2626
sg75
(lp2638
S':'
asbag68
(g89
g70
NtRp2639
(dp2640
g73
(dp2641
sg82
g2626
sg75
(lp2642
g68
(g69
g70
NtRp2643
(dp2644
g73
(dp2645
g81
I3
ssg82
g2639
sg75
(lp2646
g1221
asbasbasbag68
(g84
g70
NtRp2647
(dp2648
g73
(dp2649
sg82
g2601
sg75
(lp2650
g68
(g89
g70
NtRp2651
(dp2652
g73
(dp2653
g93
g94
ssg82
g2647
sg75
(lp2654
S'HTTP_ACCEPT_ENCODING'
p2655
asbag68
(g89
g70
NtRp2656
(dp2657
g73
(dp2658
g100
g101
ssg82
g2647
sg75
(lp2659
S':'
asbag68
(g89
g70
NtRp2660
(dp2661
g73
(dp2662
sg82
g2647
sg75
(lp2663
g68
(g69
g70
NtRp2664
(dp2665
g73
(dp2666
g81
I3
ssg82
g2660
sg75
(lp2667
g1243
asbasbasbag68
(g84
g70
NtRp2668
(dp2669
g73
(dp2670
sg82
g2601
sg75
(lp2671
g68
(g89
g70
NtRp2672
(dp2673
g73
(dp2674
g93
g94
ssg82
g2668
sg75
(lp2675
S'HTTP_ACCEPT_LANGUAGE'
p2676
asbag68
(g89
g70
NtRp2677
(dp2678
g73
(dp2679
g100
g101
ssg82
g2668
sg75
(lp2680
S':'
asbag68
(g89
g70
NtRp2681
(dp2682
g73
(dp2683
sg82
g2668
sg75
(lp2684
g68
(g69
g70
NtRp2685
(dp2686
g73
(dp2687
g81
I3
ssg82
g2681
sg75
(lp2688
g1265
asbasbasbag68
(g84
g70
NtRp2689
(dp2690
g73
(dp2691
sg82
g2601
sg75
(lp2692
g68
(g89
g70
NtRp2693
(dp2694
g73
(dp2695
g93
g94
ssg82
g2689
sg75
(lp2696
S'HTTP_CONNECTION'
p2697
asbag68
(g89
g70
NtRp2698
(dp2699
g73
(dp2700
g100
g101
ssg82
g2689
sg75
(lp2701
S':'
asbag68
(g89
g70
NtRp2702
(dp2703
g73
(dp2704
sg82
g2689
sg75
(lp2705
g68
(g69
g70
NtRp2706
(dp2707
g73
(dp2708
g81
I3
ssg82
g2702
sg75
(lp2709
g1287
asbasbasbag68
(g84
g70
NtRp2710
(dp2711
g73
(dp2712
sg82
g2601
sg75
(lp2713
g68
(g89
g70
NtRp2714
(dp2715
g73
(dp2716
g93
g94
ssg82
g2710
sg75
(lp2717
S'HTTP_COOKIE'
p2718
asbag68
(g89
g70
NtRp2719
(dp2720
g73
(dp2721
g100
g101
ssg82
g2710
sg75
(lp2722
S':'
asbag68
(g89
g70
NtRp2723
(dp2724
g73
(dp2725
sg82
g2710
sg75
(lp2726
g68
(g69
g70
NtRp2727
(dp2728
g73
(dp2729
g81
I3
ssg82
g2723
sg75
(lp2730
g1309
asbasbasbag68
(g84
g70
NtRp2731
(dp2732
g73
(dp2733
sg82
g2601
sg75
(lp2734
g68
(g89
g70
NtRp2735
(dp2736
g73
(dp2737
g93
g94
ssg82
g2731
sg75
(lp2738
S'HTTP_HOST'
p2739
asbag68
(g89
g70
NtRp2740
(dp2741
g73
(dp2742
g100
g101
ssg82
g2731
sg75
(lp2743
S':'
asbag68
(g89
g70
NtRp2744
(dp2745
g73
(dp2746
sg82
g2731
sg75
(lp2747
g68
(g69
g70
NtRp2748
(dp2749
g73
(dp2750
g81
I3
ssg82
g2744
sg75
(lp2751
g1331
asbasbasbag68
(g84
g70
NtRp2752
(dp2753
g73
(dp2754
sg82
g2601
sg75
(lp2755
g68
(g89
g70
NtRp2756
(dp2757
g73
(dp2758
g93
g94
ssg82
g2752
sg75
(lp2759
S'HTTP_USER_AGENT'
p2760
asbag68
(g89
g70
NtRp2761
(dp2762
g73
(dp2763
g100
g101
ssg82
g2752
sg75
(lp2764
S':'
asbag68
(g89
g70
NtRp2765
(dp2766
g73
(dp2767
sg82
g2752
sg75
(lp2768
g68
(g69
g70
NtRp2769
(dp2770
g73
(dp2771
g81
I3
ssg82
g2765
sg75
(lp2772
g1353
asbasbasbag68
(g84
g70
NtRp2773
(dp2774
g73
(dp2775
sg82
g2601
sg75
(lp2776
g68
(g89
g70
NtRp2777
(dp2778
g73
(dp2779
g93
g94
ssg82
g2773
sg75
(lp2780
S'PATH_INFO'
p2781
asbag68
(g89
g70
NtRp2782
(dp2783
g73
(dp2784
g100
g101
ssg82
g2773
sg75
(lp2785
S':'
asbag68
(g89
g70
NtRp2786
(dp2787
g73
(dp2788
sg82
g2773
sg75
(lp2789
g68
(g69
g70
NtRp2790
(dp2791
g73
(dp2792
g81
I3
ssg82
g2786
sg75
(lp2793
g1417
asbasbasbag68
(g84
g70
NtRp2794
(dp2795
g73
(dp2796
sg82
g2601
sg75
(lp2797
g68
(g89
g70
NtRp2798
(dp2799
g73
(dp2800
g93
g94
ssg82
g2794
sg75
(lp2801
S'QUERY_STRING'
p2802
asbag68
(g89
g70
NtRp2803
(dp2804
g73
(dp2805
g100
g101
ssg82
g2794
sg75
(lp2806
S':'
asbag68
(g89
g70
NtRp2807
(dp2808
g73
(dp2809
sg82
g2794
sg75
(lp2810
g68
(g69
g70
NtRp2811
(dp2812
g73
(dp2813
g81
I3
ssg82
g2807
sg75
(lp2814
S''
asbasbasbag68
(g84
g70
NtRp2815
(dp2816
g73
(dp2817
sg82
g2601
sg75
(lp2818
g68
(g89
g70
NtRp2819
(dp2820
g73
(dp2821
g93
g94
ssg82
g2815
sg75
(lp2822
S'REMOTE_ADDR'
p2823
asbag68
(g89
g70
NtRp2824
(dp2825
g73
(dp2826
g100
g101
ssg82
g2815
sg75
(lp2827
S':'
asbag68
(g89
g70
NtRp2828
(dp2829
g73
(dp2830
sg82
g2815
sg75
(lp2831
g68
(g69
g70
NtRp2832
(dp2833
g73
(dp2834
g81
I3
ssg82
g2828
sg75
(lp2835
g201
asbasbasbag68
(g84
g70
NtRp2836
(dp2837
g73
(dp2838
sg82
g2601
sg75
(lp2839
g68
(g89
g70
NtRp2840
(dp2841
g73
(dp2842
g93
g94
ssg82
g2836
sg75
(lp2843
S'REMOTE_PORT'
p2844
asbag68
(g89
g70
NtRp2845
(dp2846
g73
(dp2847
g100
g101
ssg82
g2836
sg75
(lp2848
S':'
asbag68
(g89
g70
NtRp2849
(dp2850
g73
(dp2851
sg82
g2836
sg75
(lp2852
g68
(g69
g70
NtRp2853
(dp2854
g73
(dp2855
g81
I3
ssg82
g2849
sg75
(lp2856
g1481
asbasbasbag68
(g84
g70
NtRp2857
(dp2858
g73
(dp2859
sg82
g2601
sg75
(lp2860
g68
(g89
g70
NtRp2861
(dp2862
g73
(dp2863
g93
g94
ssg82
g2857
sg75
(lp2864
S'REQUEST_METHOD'
p2865
asbag68
(g89
g70
NtRp2866
(dp2867
g73
(dp2868
g100
g101
ssg82
g2857
sg75
(lp2869
S':'
asbag68
(g89
g70
NtRp2870
(dp2871
g73
(dp2872
sg82
g2857
sg75
(lp2873
g68
(g69
g70
NtRp2874
(dp2875
g73
(dp2876
g81
I3
ssg82
g2870
sg75
(lp2877
g1503
asbasbasbag68
(g84
g70
NtRp2878
(dp2879
g73
(dp2880
sg82
g2601
sg75
(lp2881
g68
(g89
g70
NtRp2882
(dp2883
g73
(dp2884
g93
g94
ssg82
g2878
sg75
(lp2885
S'SCRIPT_NAME'
p2886
asbag68
(g89
g70
NtRp2887
(dp2888
g73
(dp2889
g100
g101
ssg82
g2878
sg75
(lp2890
S':'
asbag68
(g89
g70
NtRp2891
(dp2892
g73
(dp2893
sg82
g2878
sg75
(lp2894
g68
(g69
g70
NtRp2895
(dp2896
g73
(dp2897
g81
I3
ssg82
g2891
sg75
(lp2898
S''
asbasbasbag68
(g84
g70
NtRp2899
(dp2900
g73
(dp2901
sg82
g2601
sg75
(lp2902
g68
(g89
g70
NtRp2903
(dp2904
g73
(dp2905
g93
g94
ssg82
g2899
sg75
(lp2906
S'SERVER_NAME'
p2907
asbag68
(g89
g70
NtRp2908
(dp2909
g73
(dp2910
g100
g101
ssg82
g2899
sg75
(lp2911
S':'
asbag68
(g89
g70
NtRp2912
(dp2913
g73
(dp2914
sg82
g2899
sg75
(lp2915
g68
(g69
g70
NtRp2916
(dp2917
g73
(dp2918
g81
I3
ssg82
g2912
sg75
(lp2919
g1546
asbasbasbag68
(g84
g70
NtRp2920
(dp2921
g73
(dp2922
sg82
g2601
sg75
(lp2923
g68
(g89
g70
NtRp2924
(dp2925
g73
(dp2926
g93
g94
ssg82
g2920
sg75
(lp2927
S'SERVER_PORT'
p2928
asbag68
(g89
g70
NtRp2929
(dp2930
g73
(dp2931
g100
g101
ssg82
g2920
sg75
(lp2932
S':'
asbag68
(g89
g70
NtRp2933
(dp2934
g73
(dp2935
sg82
g2920
sg75
(lp2936
g68
(g69
g70
NtRp2937
(dp2938
g73
(dp2939
g81
I3
ssg82
g2933
sg75
(lp2940
g1568
asbasbasbag68
(g84
g70
NtRp2941
(dp2942
g73
(dp2943
sg82
g2601
sg75
(lp2944
g68
(g89
g70
NtRp2945
(dp2946
g73
(dp2947
g93
g94
ssg82
g2941
sg75
(lp2948
S'SERVER_PROTOCOL'
p2949
asbag68
(g89
g70
NtRp2950
(dp2951
g73
(dp2952
g100
g101
ssg82
g2941
sg75
(lp2953
S':'
asbag68
(g89
g70
NtRp2954
(dp2955
g73
(dp2956
sg82
g2941
sg75
(lp2957
g68
(g69
g70
NtRp2958
(dp2959
g73
(dp2960
g81
I3
ssg82
g2954
sg75
(lp2961
g1590
asbasbasbag68
(g84
g70
NtRp2962
(dp2963
g73
(dp2964
sg82
g2601
sg75
(lp2965
g68
(g89
g70
NtRp2966
(dp2967
g73
(dp2968
g93
g94
ssg82
g2962
sg75
(lp2969
S'SERVER_SOFTWARE'
p2970
asbag68
(g89
g70
NtRp2971
(dp2972
g73
(dp2973
g100
g101
ssg82
g2962
sg75
(lp2974
S':'
asbag68
(g89
g70
NtRp2975
(dp2976
g73
(dp2977
sg82
g2962
sg75
(lp2978
g68
(g69
g70
NtRp2979
(dp2980
g73
(dp2981
g81
I3
ssg82
g2975
sg75
(lp2982
g1612
asbasbasbag68
(g84
g70
NtRp2983
(dp2984
g73
(dp2985
sg82
g2601
sg75
(lp2986
g68
(g89
g70
NtRp2987
(dp2988
g73
(dp2989
g93
g94
ssg82
g2983
sg75
(lp2990
S'wsgi.errors'
p2991
asbag68
(g89
g70
NtRp2992
(dp2993
g73
(dp2994
g100
g101
ssg82
g2983
sg75
(lp2995
S':'
asbag68
(g89
g70
NtRp2996
(dp2997
g73
(dp2998
sg82
g2983
sg75
(lp2999
g68
(g69
g70
NtRp3000
(dp3001
g73
(dp3002
g81
I3
ssg82
g2996
sg75
(lp3003
S"<open file '<stderr>', mode 'w' at 0x104484270>"
p3004
asbasbasbag68
(g84
g70
NtRp3005
(dp3006
g73
(dp3007
sg82
g2601
sg75
(lp3008
g68
(g89
g70
NtRp3009
(dp3010
g73
(dp3011
g93
g94
ssg82
g3005
sg75
(lp3012
S'wsgi.file_wrapper'
p3013
asbag68
(g89
g70
NtRp3014
(dp3015
g73
(dp3016
g100
g101
ssg82
g3005
sg75
(lp3017
S':'
asbag68
(g89
g70
NtRp3018
(dp3019
g73
(dp3020
sg82
g3005
sg75
(lp3021
g68
(g69
g70
NtRp3022
(dp3023
g73
(dp3024
g81
I3
ssg82
g3018
sg75
(lp3025
S'<class wsgiref.util.FileWrapper at 0x104ebdf58>'
p3026
asbasbasbag68
(g84
g70
NtRp3027
(dp3028
g73
(dp3029
sg82
g2601
sg75
(lp3030
g68
(g89
g70
NtRp3031
(dp3032
g73
(dp3033
g93
g94
ssg82
g3027
sg75
(lp3034
S'wsgi.input'
p3035
asbag68
(g89
g70
NtRp3036
(dp3037
g73
(dp3038
g100
g101
ssg82
g3027
sg75
(lp3039
S':'
asbag68
(g89
g70
NtRp3040
(dp3041
g73
(dp3042
sg82
g3027
sg75
(lp3043
g68
(g69
g70
NtRp3044
(dp3045
g73
(dp3046
g81
I3
ssg82
g3040
sg75
(lp3047
S'<cStringIO.StringO object at 0x1098f0f48>'
p3048
asbasbasbag68
(g84
g70
NtRp3049
(dp3050
g73
(dp3051
sg82
g2601
sg75
(lp3052
g68
(g89
g70
NtRp3053
(dp3054
g73
(dp3055
g93
g94
ssg82
g3049
sg75
(lp3056
S'wsgi.multiprocess'
p3057
asbag68
(g89
g70
NtRp3058
(dp3059
g73
(dp3060
g100
g101
ssg82
g3049
sg75
(lp3061
S':'
asbag68
(g89
g70
NtRp3062
(dp3063
g73
(dp3064
sg82
g3049
sg75
(lp3065
g68
(g69
g70
NtRp3066
(dp3067
g73
(dp3068
g81
I3
ssg82
g3062
sg75
(lp3069
g111
asbasbasbag68
(g84
g70
NtRp3070
(dp3071
g73
(dp3072
sg82
g2601
sg75
(lp3073
g68
(g89
g70
NtRp3074
(dp3075
g73
(dp3076
g93
g94
ssg82
g3070
sg75
(lp3077
S'wsgi.multithread'
p3078
asbag68
(g89
g70
NtRp3079
(dp3080
g73
(dp3081
g100
g101
ssg82
g3070
sg75
(lp3082
S':'
asbag68
(g89
g70
NtRp3083
(dp3084
g73
(dp3085
sg82
g3070
sg75
(lp3086
g68
(g69
g70
NtRp3087
(dp3088
g73
(dp3089
g81
I3
ssg82
g3083
sg75
(lp3090
g1852
asbasbasbag68
(g84
g70
NtRp3091
(dp3092
g73
(dp3093
sg82
g2601
sg75
(lp3094
g68
(g89
g70
NtRp3095
(dp3096
g73
(dp3097
g93
g94
ssg82
g3091
sg75
(lp3098
S'wsgi.run_once'
p3099
asbag68
(g89
g70
NtRp3100
(dp3101
g73
(dp3102
g100
g101
ssg82
g3091
sg75
(lp3103
S':'
asbag68
(g89
g70
NtRp3104
(dp3105
g73
(dp3106
sg82
g3091
sg75
(lp3107
g68
(g69
g70
NtRp3108
(dp3109
g73
(dp3110
g81
I3
ssg82
g3104
sg75
(lp3111
g111
asbasbasbag68
(g84
g70
NtRp3112
(dp3113
g73
(dp3114
sg82
g2601
sg75
(lp3115
g68
(g89
g70
NtRp3116
(dp3117
g73
(dp3118
g93
g94
ssg82
g3112
sg75
(lp3119
S'wsgi.url_scheme'
p3120
asbag68
(g89
g70
NtRp3121
(dp3122
g73
(dp3123
g100
g101
ssg82
g3112
sg75
(lp3124
S':'
asbag68
(g89
g70
NtRp3125
(dp3126
g73
(dp3127
sg82
g3112
sg75
(lp3128
g68
(g69
g70
NtRp3129
(dp3130
g73
(dp3131
g81
I3
ssg82
g3125
sg75
(lp3132
g1895
asbasbasbag68
(g84
g70
NtRp3133
(dp3134
g73
(dp3135
sg82
g2601
sg75
(lp3136
g68
(g89
g70
NtRp3137
(dp3138
g73
(dp3139
g93
g94
ssg82
g3133
sg75
(lp3140
S'wsgi.version'
p3141
asbag68
(g89
g70
NtRp3142
(dp3143
g73
(dp3144
g100
g101
ssg82
g3133
sg75
(lp3145
S':'
asbag68
(g89
g70
NtRp3146
(dp3147
g73
(dp3148
sg82
g3133
sg75
(lp3149
g68
(g69
g70
NtRp3150
(dp3151
g73
(dp3152
g81
I3
ssg82
g3146
sg75
(lp3153
S'1'
asbasbasbasbasbasbasbasbasbasbasbasbasbsS'frames'
p3154
(lp3155
(dp3156
S'file'
p3157
S'/Users/ianaboneva/Dropbox/DePaul/CSC 438 - Web Applications/web2py/gluon/restricted.py'
p3158
sS'dump'
p3159
(dp3160
S'code'
p3161
S"'# -*- coding: utf-8 -*-\\n# this file is released ...onse._vars=response._caller(create_user_profile)\\n'"
p3162
sS'layer'
p3163
S"'/Users/ianaboneva/Dropbox/DePaul/CSC 438 - Web A...plications/Book_Shelf_copy/controllers/default.py'"
p3164
sS'global compile2'
p3165
S'<function compile2>'
p3166
sS'ccode'
p3167
S'undefined'
p3168
ssS'lnum'
p3169
I204
sS'lines'
p3170
(dp3171
I199
S"    environment['__name__'] = '__restricted__'"
p3172
sI200
S'    try:'
p3173
sI201
S'        if type(code) == types.CodeType:'
p3174
sI202
S'            ccode = code'
p3175
sI203
S'        else:'
p3176
sI204
S'            ccode = compile2(code,layer)'
p3177
sI205
S'        exec ccode in environment'
p3178
sI206
S'    except HTTP:'
p3179
sI207
S'        raise'
p3180
sI208
S'    except RestrictedError:'
p3181
ssS'call'
p3182
S"(code='# -*- coding: utf-8 -*-\\n# this file is released ...onse._vars=response._caller(create_user_profile)\\n', environment={'A': <class 'gluon.html.A'>, 'Auth': <class 'gluon.tools.Auth'>, 'B': <class 'gluon.html.B'>, 'BEAUTIFY': <class 'gluon.html.BEAUTIFY'>, 'BODY': <class 'gluon.html.BODY'>, 'BR': <class 'gluon.html.BR'>, 'BUTTON': <class 'gluon.html.BUTTON'>, 'CAT': <class 'gluon.html.CAT'>, 'CENTER': <class 'gluon.html.CENTER'>, 'CLEANUP': <class 'gluon.validators.CLEANUP'>, ...}, layer='/Users/ianaboneva/Dropbox/DePaul/CSC 438 - Web A...plications/Book_Shelf_copy/controllers/default.py')"
p3183
sS'func'
p3184
S'restricted'
p3185
sa(dp3186
g3157
S'/Users/ianaboneva/Dropbox/DePaul/CSC 438 - Web Applications/web2py/gluon/restricted.py'
p3187
sg3159
(dp3188
S'builtincompile'
p3189
S'<built-in function compile>'
p3190
sS'code'
p3191
S"'# -*- coding: utf-8 -*-\\n# this file is released ...onse._vars=response._caller(create_user_profile)\\n'"
p3192
sS'code.rstrip'
p3193
S'<built-in method rstrip of str object>'
p3194
sS').replace'
p3195
g3168
sS'layer'
p3196
S"'/Users/ianaboneva/Dropbox/DePaul/CSC 438 - Web A...plications/Book_Shelf_copy/controllers/default.py'"
p3197
ssg3169
I189
sg3170
(dp3198
I192
S'    """'
p3199
sI193
S'    runs code in environment and returns the output. if an exception occurs'
p3200
sI184
S''
sI185
S'def compile2(code,layer):'
p3201
sI186
S'    """'
p3202
sI187
S"    The +'\\n' is necessary else compile fails when code ends in a comment."
p3203
sI188
S'    """'
p3204
sI189
S"    return compile(code.rstrip().replace('\\r\\n','\\n')+'\\n', layer, 'exec')"
p3205
sI190
S''
sI191
S"def restricted(code, environment=None, layer='Unknown'):"
p3206
ssg3182
S"(code='# -*- coding: utf-8 -*-\\n# this file is released ...onse._vars=response._caller(create_user_profile)\\n', layer='/Users/ianaboneva/Dropbox/DePaul/CSC 438 - Web A...plications/Book_Shelf_copy/controllers/default.py')"
p3207
sg3184
S'compile2'
p3208
sasS'pyver'
p3209
S'Python 2.7.1: /usr/bin/python'
p3210
sS'session'
p3211
g68
(g69
g70
NtRp3212
(dp3213
g73
(dp3214
sg75
(lp3215
g68
(g77
g70
NtRp3216
(dp3217
g73
(dp3218
g81
I5
ssg82
Nsg75
(lp3219
g68
(g84
g70
NtRp3220
(dp3221
g73
(dp3222
sg82
g3216
sg75
(lp3223
g68
(g89
g70
NtRp3224
(dp3225
g73
(dp3226
g93
g94
ssg82
g3220
sg75
(lp3227
S'auth'
p3228
asbag68
(g89
g70
NtRp3229
(dp3230
g73
(dp3231
g100
g101
ssg82
g3220
sg75
(lp3232
S':'
asbag68
(g89
g70
NtRp3233
(dp3234
g73
(dp3235
sg82
g3220
sg75
(lp3236
g68
(g69
g70
NtRp3237
(dp3238
g73
(dp3239
g81
I5
ssg82
g3233
sg75
(lp3240
g68
(g77
g70
NtRp3241
(dp3242
g73
(dp3243
g81
I4
ssg82
Nsg75
(lp3244
g68
(g84
g70
NtRp3245
(dp3246
g73
(dp3247
sg82
g3241
sg75
(lp3248
g68
(g89
g70
NtRp3249
(dp3250
g73
(dp3251
g93
g94
ssg82
g3245
sg75
(lp3252
S'expiration'
p3253
asbag68
(g89
g70
NtRp3254
(dp3255
g73
(dp3256
g100
g101
ssg82
g3245
sg75
(lp3257
S':'
asbag68
(g89
g70
NtRp3258
(dp3259
g73
(dp3260
sg82
g3245
sg75
(lp3261
g68
(g69
g70
NtRp3262
(dp3263
g73
(dp3264
g81
I4
ssg82
g3258
sg75
(lp3265
S'3600'
p3266
asbasbasbag68
(g84
g70
NtRp3267
(dp3268
g73
(dp3269
sg82
g3241
sg75
(lp3270
g68
(g89
g70
NtRp3271
(dp3272
g73
(dp3273
g93
g94
ssg82
g3267
sg75
(lp3274
S'hmac_key'
p3275
asbag68
(g89
g70
NtRp3276
(dp3277
g73
(dp3278
g100
g101
ssg82
g3267
sg75
(lp3279
S':'
asbag68
(g89
g70
NtRp3280
(dp3281
g73
(dp3282
sg82
g3267
sg75
(lp3283
g68
(g69
g70
NtRp3284
(dp3285
g73
(dp3286
g81
I4
ssg82
g3280
sg75
(lp3287
S'6d65ccff-e9f9-4a04-a10d-f39c9767a83a'
p3288
asbasbasbag68
(g84
g70
NtRp3289
(dp3290
g73
(dp3291
sg82
g3241
sg75
(lp3292
g68
(g89
g70
NtRp3293
(dp3294
g73
(dp3295
g93
g94
ssg82
g3289
sg75
(lp3296
S'last_visit'
p3297
asbag68
(g89
g70
NtRp3298
(dp3299
g73
(dp3300
g100
g101
ssg82
g3289
sg75
(lp3301
S':'
asbag68
(g89
g70
NtRp3302
(dp3303
g73
(dp3304
sg82
g3289
sg75
(lp3305
g68
(g69
g70
NtRp3306
(dp3307
g73
(dp3308
g81
I4
ssg82
g3302
sg75
(lp3309
S'datetime.datetime(2012, 6, 3, 18, 22, 52, 19625)'
p3310
asbasbasbag68
(g84
g70
NtRp3311
(dp3312
g73
(dp3313
sg82
g3241
sg75
(lp3314
g68
(g89
g70
NtRp3315
(dp3316
g73
(dp3317
g93
g94
ssg82
g3311
sg75
(lp3318
S'remember'
p3319
asbag68
(g89
g70
NtRp3320
(dp3321
g73
(dp3322
g100
g101
ssg82
g3311
sg75
(lp3323
S':'
asbag68
(g89
g70
NtRp3324
(dp3325
g73
(dp3326
sg82
g3311
sg75
(lp3327
g68
(g69
g70
NtRp3328
(dp3329
g73
(dp3330
g81
I4
ssg82
g3324
sg75
(lp3331
g111
asbasbasbag68
(g84
g70
NtRp3332
(dp3333
g73
(dp3334
sg82
g3241
sg75
(lp3335
g68
(g89
g70
NtRp3336
(dp3337
g73
(dp3338
g93
g94
ssg82
g3332
sg75
(lp3339
S'user'
p3340
asbag68
(g89
g70
NtRp3341
(dp3342
g73
(dp3343
g100
g101
ssg82
g3332
sg75
(lp3344
S':'
asbag68
(g89
g70
NtRp3345
(dp3346
g73
(dp3347
sg82
g3332
sg75
(lp3348
g68
(g69
g70
NtRp3349
(dp3350
g73
(dp3351
g81
I4
ssg82
g3345
sg75
(lp3352
g68
(g77
g70
NtRp3353
(dp3354
g73
(dp3355
g81
I3
ssg82
Nsg75
(lp3356
g68
(g84
g70
NtRp3357
(dp3358
g73
(dp3359
sg82
g3353
sg75
(lp3360
g68
(g89
g70
NtRp3361
(dp3362
g73
(dp3363
g93
g94
ssg82
g3357
sg75
(lp3364
S'email'
p3365
asbag68
(g89
g70
NtRp3366
(dp3367
g73
(dp3368
g100
g101
ssg82
g3357
sg75
(lp3369
S':'
asbag68
(g89
g70
NtRp3370
(dp3371
g73
(dp3372
sg82
g3357
sg75
(lp3373
g68
(g69
g70
NtRp3374
(dp3375
g73
(dp3376
g81
I3
ssg82
g3370
sg75
(lp3377
S'haha@haha.com'
p3378
asbasbasbag68
(g84
g70
NtRp3379
(dp3380
g73
(dp3381
sg82
g3353
sg75
(lp3382
g68
(g89
g70
NtRp3383
(dp3384
g73
(dp3385
g93
g94
ssg82
g3379
sg75
(lp3386
S'first_name'
p3387
asbag68
(g89
g70
NtRp3388
(dp3389
g73
(dp3390
g100
g101
ssg82
g3379
sg75
(lp3391
S':'
asbag68
(g89
g70
NtRp3392
(dp3393
g73
(dp3394
sg82
g3379
sg75
(lp3395
g68
(g69
g70
NtRp3396
(dp3397
g73
(dp3398
g81
I3
ssg82
g3392
sg75
(lp3399
S'Iana'
p3400
asbasbasbag68
(g84
g70
NtRp3401
(dp3402
g73
(dp3403
sg82
g3353
sg75
(lp3404
g68
(g89
g70
NtRp3405
(dp3406
g73
(dp3407
g93
g94
ssg82
g3401
sg75
(lp3408
S'id'
p3409
asbag68
(g89
g70
NtRp3410
(dp3411
g73
(dp3412
g100
g101
ssg82
g3401
sg75
(lp3413
S':'
asbag68
(g89
g70
NtRp3414
(dp3415
g73
(dp3416
sg82
g3401
sg75
(lp3417
g68
(g69
g70
NtRp3418
(dp3419
g73
(dp3420
g81
I3
ssg82
g3414
sg75
(lp3421
S'2'
asbasbasbag68
(g84
g70
NtRp3422
(dp3423
g73
(dp3424
sg82
g3353
sg75
(lp3425
g68
(g89
g70
NtRp3426
(dp3427
g73
(dp3428
g93
g94
ssg82
g3422
sg75
(lp3429
S'last_name'
p3430
asbag68
(g89
g70
NtRp3431
(dp3432
g73
(dp3433
g100
g101
ssg82
g3422
sg75
(lp3434
S':'
asbag68
(g89
g70
NtRp3435
(dp3436
g73
(dp3437
sg82
g3422
sg75
(lp3438
g68
(g69
g70
NtRp3439
(dp3440
g73
(dp3441
g81
I3
ssg82
g3435
sg75
(lp3442
S'Boneva'
p3443
asbasbasbag68
(g84
g70
NtRp3444
(dp3445
g73
(dp3446
sg82
g3353
sg75
(lp3447
g68
(g89
g70
NtRp3448
(dp3449
g73
(dp3450
g93
g94
ssg82
g3444
sg75
(lp3451
S'password'
p3452
asbag68
(g89
g70
NtRp3453
(dp3454
g73
(dp3455
g100
g101
ssg82
g3444
sg75
(lp3456
S':'
asbag68
(g89
g70
NtRp3457
(dp3458
g73
(dp3459
sg82
g3444
sg75
(lp3460
g68
(g69
g70
NtRp3461
(dp3462
g73
(dp3463
g81
I3
ssg82
g3457
sg75
(lp3464
S'be570e8e7b9bbc17c5aecccf653fd3d3'
p3465
asbasbasbag68
(g84
g70
NtRp3466
(dp3467
g73
(dp3468
sg82
g3353
sg75
(lp3469
g68
(g89
g70
NtRp3470
(dp3471
g73
(dp3472
g93
g94
ssg82
g3466
sg75
(lp3473
S'registration_id'
p3474
asbag68
(g89
g70
NtRp3475
(dp3476
g73
(dp3477
g100
g101
ssg82
g3466
sg75
(lp3478
S':'
asbag68
(g89
g70
NtRp3479
(dp3480
g73
(dp3481
sg82
g3466
sg75
(lp3482
g68
(g69
g70
NtRp3483
(dp3484
g73
(dp3485
g81
I3
ssg82
g3479
sg75
(lp3486
S''
asbasbasbag68
(g84
g70
NtRp3487
(dp3488
g73
(dp3489
sg82
g3353
sg75
(lp3490
g68
(g89
g70
NtRp3491
(dp3492
g73
(dp3493
g93
g94
ssg82
g3487
sg75
(lp3494
S'registration_key'
p3495
asbag68
(g89
g70
NtRp3496
(dp3497
g73
(dp3498
g100
g101
ssg82
g3487
sg75
(lp3499
S':'
asbag68
(g89
g70
NtRp3500
(dp3501
g73
(dp3502
sg82
g3487
sg75
(lp3503
g68
(g69
g70
NtRp3504
(dp3505
g73
(dp3506
g81
I3
ssg82
g3500
sg75
(lp3507
S''
asbasbasbag68
(g84
g70
NtRp3508
(dp3509
g73
(dp3510
sg82
g3353
sg75
(lp3511
g68
(g89
g70
NtRp3512
(dp3513
g73
(dp3514
g93
g94
ssg82
g3508
sg75
(lp3515
S'reset_password_key'
p3516
asbag68
(g89
g70
NtRp3517
(dp3518
g73
(dp3519
g100
g101
ssg82
g3508
sg75
(lp3520
S':'
asbag68
(g89
g70
NtRp3521
(dp3522
g73
(dp3523
sg82
g3508
sg75
(lp3524
g68
(g69
g70
NtRp3525
(dp3526
g73
(dp3527
g81
I3
ssg82
g3521
sg75
(lp3528
S''
asbasbasbasbasbasbasbag68
(g84
g70
NtRp3529
(dp3530
g73
(dp3531
sg82
g3241
sg75
(lp3532
g68
(g89
g70
NtRp3533
(dp3534
g73
(dp3535
g93
g94
ssg82
g3529
sg75
(lp3536
S'user_groups'
p3537
asbag68
(g89
g70
NtRp3538
(dp3539
g73
(dp3540
g100
g101
ssg82
g3529
sg75
(lp3541
S':'
asbag68
(g89
g70
NtRp3542
(dp3543
g73
(dp3544
sg82
g3529
sg75
(lp3545
g68
(g69
g70
NtRp3546
(dp3547
g73
(dp3548
g81
I4
ssg82
g3542
sg75
(lp3549
g68
(g77
g70
NtRp3550
(dp3551
g73
(dp3552
g81
I3
ssg82
Nsg75
(lp3553
g68
(g84
g70
NtRp3554
(dp3555
g73
(dp3556
sg82
g3550
sg75
(lp3557
g68
(g89
g70
NtRp3558
(dp3559
g73
(dp3560
g93
g94
ssg82
g3554
sg75
(lp3561
S'2'
asbag68
(g89
g70
NtRp3562
(dp3563
g73
(dp3564
g100
g101
ssg82
g3554
sg75
(lp3565
S':'
asbag68
(g89
g70
NtRp3566
(dp3567
g73
(dp3568
sg82
g3554
sg75
(lp3569
g68
(g69
g70
NtRp3570
(dp3571
g73
(dp3572
g81
I3
ssg82
g3566
sg75
(lp3573
S'user_2'
p3574
asbasbasbasbasbasbasbasbasbasbasbag68
(g84
g70
NtRp3575
(dp3576
g73
(dp3577
sg82
g3216
sg75
(lp3578
g68
(g89
g70
NtRp3579
(dp3580
g73
(dp3581
g93
g94
ssg82
g3575
sg75
(lp3582
S'last_query'
p3583
asbag68
(g89
g70
NtRp3584
(dp3585
g73
(dp3586
g100
g101
ssg82
g3575
sg75
(lp3587
S':'
asbag68
(g89
g70
NtRp3588
(dp3589
g73
(dp3590
sg82
g3575
sg75
(lp3591
g68
(g69
g70
NtRp3592
(dp3593
g73
(dp3594
g81
I5
ssg82
g3588
sg75
(lp3595
S'db.Book_Shelf_Items.id>0'
p3596
asbasbasbasbasbsS'etype'
p3597
S"<type 'exceptions.IndentationError'>"
p3598
sS'date'
p3599
S'Sun Jun  3 18:27:04 2012'
p3600
sS'response'
p3601
g68
(g69
g70
NtRp3602
(dp3603
g73
(dp3604
sg75
(lp3605
g68
(g77
g70
NtRp3606
(dp3607
g73
(dp3608
g81
I5
ssg82
Nsg75
(lp3609
g68
(g84
g70
NtRp3610
(dp3611
g73
(dp3612
sg82
g3606
sg75
(lp3613
g68
(g89
g70
NtRp3614
(dp3615
g73
(dp3616
g93
g94
ssg82
g3610
sg75
(lp3617
g166
asbag68
(g89
g70
NtRp3618
(dp3619
g73
(dp3620
g100
g101
ssg82
g3610
sg75
(lp3621
S':'
asbag68
(g89
g70
NtRp3622
(dp3623
g73
(dp3624
sg82
g3610
sg75
(lp3625
g68
(g69
g70
NtRp3626
(dp3627
g73
(dp3628
g81
I5
ssg82
g3622
sg75
(lp3629
S'<cStringIO.StringO object at 0x1099b21f0>'
p3630
asbasbasbag68
(g84
g70
NtRp3631
(dp3632
g73
(dp3633
sg82
g3606
sg75
(lp3634
g68
(g89
g70
NtRp3635
(dp3636
g73
(dp3637
g93
g94
ssg82
g3631
sg75
(lp3638
g232
asbag68
(g89
g70
NtRp3639
(dp3640
g73
(dp3641
g100
g101
ssg82
g3631
sg75
(lp3642
S':'
asbag68
(g89
g70
NtRp3643
(dp3644
g73
(dp3645
sg82
g3631
sg75
(lp3646
g68
(g69
g70
NtRp3647
(dp3648
g73
(dp3649
g81
I5
ssg82
g3643
sg75
(lp3650
g68
(g77
g70
NtRp3651
(dp3652
g73
(dp3653
g81
I4
ssg82
Nsg75
(lp3654
g68
(g84
g70
NtRp3655
(dp3656
g73
(dp3657
sg82
g3651
sg75
(lp3658
g68
(g89
g70
NtRp3659
(dp3660
g73
(dp3661
g93
g94
ssg82
g3655
sg75
(lp3662
S'session_id_book_shelf_copy'
p3663
asbag68
(g89
g70
NtRp3664
(dp3665
g73
(dp3666
g100
g101
ssg82
g3655
sg75
(lp3667
S':'
asbag68
(g89
g70
NtRp3668
(dp3669
g73
(dp3670
sg82
g3655
sg75
(lp3671
g68
(g69
g70
NtRp3672
(dp3673
g73
(dp3674
g81
I4
ssg82
g3668
sg75
(lp3675
g68
(g77
g70
NtRp3676
(dp3677
g73
(dp3678
g81
I3
ssg82
Nsg75
(lp3679
g68
(g84
g70
NtRp3680
(dp3681
g73
(dp3682
sg82
g3676
sg75
(lp3683
g68
(g89
g70
NtRp3684
(dp3685
g73
(dp3686
g93
g94
ssg82
g3680
sg75
(lp3687
g282
asbag68
(g89
g70
NtRp3688
(dp3689
g73
(dp3690
g100
g101
ssg82
g3680
sg75
(lp3691
S':'
asbag68
(g89
g70
NtRp3692
(dp3693
g73
(dp3694
sg82
g3680
sg75
(lp3695
g68
(g69
g70
NtRp3696
(dp3697
g73
(dp3698
g81
I3
ssg82
g3692
sg75
(lp3699
S''
asbasbasbag68
(g84
g70
NtRp3700
(dp3701
g73
(dp3702
sg82
g3676
sg75
(lp3703
g68
(g89
g70
NtRp3704
(dp3705
g73
(dp3706
g93
g94
ssg82
g3700
sg75
(lp3707
g303
asbag68
(g89
g70
NtRp3708
(dp3709
g73
(dp3710
g100
g101
ssg82
g3700
sg75
(lp3711
S':'
asbag68
(g89
g70
NtRp3712
(dp3713
g73
(dp3714
sg82
g3700
sg75
(lp3715
g68
(g69
g70
NtRp3716
(dp3717
g73
(dp3718
g81
I3
ssg82
g3712
sg75
(lp3719
S''
asbasbasbag68
(g84
g70
NtRp3720
(dp3721
g73
(dp3722
sg82
g3676
sg75
(lp3723
g68
(g89
g70
NtRp3724
(dp3725
g73
(dp3726
g93
g94
ssg82
g3720
sg75
(lp3727
g324
asbag68
(g89
g70
NtRp3728
(dp3729
g73
(dp3730
g100
g101
ssg82
g3720
sg75
(lp3731
S':'
asbag68
(g89
g70
NtRp3732
(dp3733
g73
(dp3734
sg82
g3720
sg75
(lp3735
g68
(g69
g70
NtRp3736
(dp3737
g73
(dp3738
g81
I3
ssg82
g3732
sg75
(lp3739
S''
asbasbasbag68
(g84
g70
NtRp3740
(dp3741
g73
(dp3742
sg82
g3676
sg75
(lp3743
g68
(g89
g70
NtRp3744
(dp3745
g73
(dp3746
g93
g94
ssg82
g3740
sg75
(lp3747
g345
asbag68
(g89
g70
NtRp3748
(dp3749
g73
(dp3750
g100
g101
ssg82
g3740
sg75
(lp3751
S':'
asbag68
(g89
g70
NtRp3752
(dp3753
g73
(dp3754
sg82
g3740
sg75
(lp3755
g68
(g69
g70
NtRp3756
(dp3757
g73
(dp3758
g81
I3
ssg82
g3752
sg75
(lp3759
S''
asbasbasbag68
(g84
g70
NtRp3760
(dp3761
g73
(dp3762
sg82
g3676
sg75
(lp3763
g68
(g89
g70
NtRp3764
(dp3765
g73
(dp3766
g93
g94
ssg82
g3760
sg75
(lp3767
g366
asbag68
(g89
g70
NtRp3768
(dp3769
g73
(dp3770
g100
g101
ssg82
g3760
sg75
(lp3771
S':'
asbag68
(g89
g70
NtRp3772
(dp3773
g73
(dp3774
sg82
g3760
sg75
(lp3775
g68
(g69
g70
NtRp3776
(dp3777
g73
(dp3778
g81
I3
ssg82
g3772
sg75
(lp3779
S''
asbasbasbag68
(g84
g70
NtRp3780
(dp3781
g73
(dp3782
sg82
g3676
sg75
(lp3783
g68
(g89
g70
NtRp3784
(dp3785
g73
(dp3786
g93
g94
ssg82
g3780
sg75
(lp3787
g387
asbag68
(g89
g70
NtRp3788
(dp3789
g73
(dp3790
g100
g101
ssg82
g3780
sg75
(lp3791
S':'
asbag68
(g89
g70
NtRp3792
(dp3793
g73
(dp3794
sg82
g3780
sg75
(lp3795
g68
(g69
g70
NtRp3796
(dp3797
g73
(dp3798
g81
I3
ssg82
g3792
sg75
(lp3799
S'/'
asbasbasbag68
(g84
g70
NtRp3800
(dp3801
g73
(dp3802
sg82
g3676
sg75
(lp3803
g68
(g89
g70
NtRp3804
(dp3805
g73
(dp3806
g93
g94
ssg82
g3800
sg75
(lp3807
g408
asbag68
(g89
g70
NtRp3808
(dp3809
g73
(dp3810
g100
g101
ssg82
g3800
sg75
(lp3811
S':'
asbag68
(g89
g70
NtRp3812
(dp3813
g73
(dp3814
sg82
g3800
sg75
(lp3815
g68
(g69
g70
NtRp3816
(dp3817
g73
(dp3818
g81
I3
ssg82
g3812
sg75
(lp3819
S''
asbasbasbag68
(g84
g70
NtRp3820
(dp3821
g73
(dp3822
sg82
g3676
sg75
(lp3823
g68
(g89
g70
NtRp3824
(dp3825
g73
(dp3826
g93
g94
ssg82
g3820
sg75
(lp3827
g429
asbag68
(g89
g70
NtRp3828
(dp3829
g73
(dp3830
g100
g101
ssg82
g3820
sg75
(lp3831
S':'
asbag68
(g89
g70
NtRp3832
(dp3833
g73
(dp3834
sg82
g3820
sg75
(lp3835
g68
(g69
g70
NtRp3836
(dp3837
g73
(dp3838
g81
I3
ssg82
g3832
sg75
(lp3839
S''
asbasbasbasbasbasbasbasbasbasbasbag68
(g84
g70
NtRp3840
(dp3841
g73
(dp3842
sg82
g3606
sg75
(lp3843
g68
(g89
g70
NtRp3844
(dp3845
g73
(dp3846
g93
g94
ssg82
g3840
sg75
(lp3847
S'delimiters'
p3848
asbag68
(g89
g70
NtRp3849
(dp3850
g73
(dp3851
g100
g101
ssg82
g3840
sg75
(lp3852
S':'
asbag68
(g89
g70
NtRp3853
(dp3854
g73
(dp3855
sg82
g3840
sg75
(lp3856
g68
(g69
g70
NtRp3857
(dp3858
g73
(dp3859
g81
I5
ssg82
g3853
sg75
(lp3860
g68
(g77
g70
NtRp3861
(dp3862
g73
(dp3863
g81
I4
ssg82
Nsg75
(lp3864
g68
(g84
g70
NtRp3865
(dp3866
g73
(dp3867
sg82
g3861
sg75
(lp3868
g68
(g89
g70
NtRp3869
(dp3870
g73
(dp3871
sg82
g3865
sg75
(lp3872
g68
(g69
g70
NtRp3873
(dp3874
g73
(dp3875
g81
I4
ssg82
g3869
sg75
(lp3876
S'{{'
p3877
asbasbasbag68
(g84
g70
NtRp3878
(dp3879
g73
(dp3880
sg82
g3861
sg75
(lp3881
g68
(g89
g70
NtRp3882
(dp3883
g73
(dp3884
sg82
g3878
sg75
(lp3885
g68
(g69
g70
NtRp3886
(dp3887
g73
(dp3888
g81
I4
ssg82
g3882
sg75
(lp3889
S'}}'
p3890
asbasbasbasbasbasbasbag68
(g84
g70
NtRp3891
(dp3892
g73
(dp3893
sg82
g3606
sg75
(lp3894
g68
(g89
g70
NtRp3895
(dp3896
g73
(dp3897
g93
g94
ssg82
g3891
sg75
(lp3898
S'files'
p3899
asbag68
(g89
g70
NtRp3900
(dp3901
g73
(dp3902
g100
g101
ssg82
g3891
sg75
(lp3903
S':'
asbag68
(g89
g70
NtRp3904
(dp3905
g73
(dp3906
sg82
g3891
sg75
(lp3907
g68
(g69
g70
NtRp3908
(dp3909
g73
(dp3910
g81
I5
ssg82
g3904
sg75
(lp3911
g68
(g77
g70
NtRp3912
(dp3913
g73
(dp3914
g81
I4
ssg82
Nsg75
(lp3915
sbasbasbasbag68
(g84
g70
NtRp3916
(dp3917
g73
(dp3918
sg82
g3606
sg75
(lp3919
g68
(g89
g70
NtRp3920
(dp3921
g73
(dp3922
g93
g94
ssg82
g3916
sg75
(lp3923
S'flash'
p3924
asbag68
(g89
g70
NtRp3925
(dp3926
g73
(dp3927
g100
g101
ssg82
g3916
sg75
(lp3928
S':'
asbag68
(g89
g70
NtRp3929
(dp3930
g73
(dp3931
sg82
g3916
sg75
(lp3932
g68
(g69
g70
NtRp3933
(dp3934
g73
(dp3935
g81
I5
ssg82
g3929
sg75
(lp3936
S''
asbasbasbag68
(g84
g70
NtRp3937
(dp3938
g73
(dp3939
sg82
g3606
sg75
(lp3940
g68
(g89
g70
NtRp3941
(dp3942
g73
(dp3943
g93
g94
ssg82
g3937
sg75
(lp3944
S'generic_patterns'
p3945
asbag68
(g89
g70
NtRp3946
(dp3947
g73
(dp3948
g100
g101
ssg82
g3937
sg75
(lp3949
S':'
asbag68
(g89
g70
NtRp3950
(dp3951
g73
(dp3952
sg82
g3937
sg75
(lp3953
g68
(g69
g70
NtRp3954
(dp3955
g73
(dp3956
g81
I5
ssg82
g3950
sg75
(lp3957
g68
(g77
g70
NtRp3958
(dp3959
g73
(dp3960
g81
I4
ssg82
Nsg75
(lp3961
g68
(g84
g70
NtRp3962
(dp3963
g73
(dp3964
sg82
g3958
sg75
(lp3965
g68
(g89
g70
NtRp3966
(dp3967
g73
(dp3968
sg82
g3962
sg75
(lp3969
g68
(g69
g70
NtRp3970
(dp3971
g73
(dp3972
g81
I4
ssg82
g3966
sg75
(lp3973
S'*'
asbasbasbasbasbasbasbag68
(g84
g70
NtRp3974
(dp3975
g73
(dp3976
sg82
g3606
sg75
(lp3977
g68
(g89
g70
NtRp3978
(dp3979
g73
(dp3980
g93
g94
ssg82
g3974
sg75
(lp3981
S'headers'
p3982
asbag68
(g89
g70
NtRp3983
(dp3984
g73
(dp3985
g100
g101
ssg82
g3974
sg75
(lp3986
S':'
asbag68
(g89
g70
NtRp3987
(dp3988
g73
(dp3989
sg82
g3974
sg75
(lp3990
g68
(g69
g70
NtRp3991
(dp3992
g73
(dp3993
g81
I5
ssg82
g3987
sg75
(lp3994
g68
(g77
g70
NtRp3995
(dp3996
g73
(dp3997
g81
I4
ssg82
Nsg75
(lp3998
g68
(g84
g70
NtRp3999
(dp4000
g73
(dp4001
sg82
g3995
sg75
(lp4002
g68
(g89
g70
NtRp4003
(dp4004
g73
(dp4005
g93
g94
ssg82
g3999
sg75
(lp4006
S'Cache-Control'
p4007
asbag68
(g89
g70
NtRp4008
(dp4009
g73
(dp4010
g100
g101
ssg82
g3999
sg75
(lp4011
S':'
asbag68
(g89
g70
NtRp4012
(dp4013
g73
(dp4014
sg82
g3999
sg75
(lp4015
g68
(g69
g70
NtRp4016
(dp4017
g73
(dp4018
g81
I4
ssg82
g4012
sg75
(lp4019
S'no-store, no-cache, must-revalidate, post-check=0, pre-check=0'
p4020
asbasbasbag68
(g84
g70
NtRp4021
(dp4022
g73
(dp4023
sg82
g3995
sg75
(lp4024
g68
(g89
g70
NtRp4025
(dp4026
g73
(dp4027
g93
g94
ssg82
g4021
sg75
(lp4028
S'Content-Type'
p4029
asbag68
(g89
g70
NtRp4030
(dp4031
g73
(dp4032
g100
g101
ssg82
g4021
sg75
(lp4033
S':'
asbag68
(g89
g70
NtRp4034
(dp4035
g73
(dp4036
sg82
g4021
sg75
(lp4037
g68
(g69
g70
NtRp4038
(dp4039
g73
(dp4040
g81
I4
ssg82
g4034
sg75
(lp4041
S'text/html; charset=utf-8'
p4042
asbasbasbag68
(g84
g70
NtRp4043
(dp4044
g73
(dp4045
sg82
g3995
sg75
(lp4046
g68
(g89
g70
NtRp4047
(dp4048
g73
(dp4049
g93
g94
ssg82
g4043
sg75
(lp4050
S'Expires'
p4051
asbag68
(g89
g70
NtRp4052
(dp4053
g73
(dp4054
g100
g101
ssg82
g4043
sg75
(lp4055
S':'
asbag68
(g89
g70
NtRp4056
(dp4057
g73
(dp4058
sg82
g4043
sg75
(lp4059
g68
(g69
g70
NtRp4060
(dp4061
g73
(dp4062
g81
I4
ssg82
g4056
sg75
(lp4063
S'Sun, 03 Jun 2012 23:27:04 GMT'
p4064
asbasbasbag68
(g84
g70
NtRp4065
(dp4066
g73
(dp4067
sg82
g3995
sg75
(lp4068
g68
(g89
g70
NtRp4069
(dp4070
g73
(dp4071
g93
g94
ssg82
g4065
sg75
(lp4072
S'Pragma'
p4073
asbag68
(g89
g70
NtRp4074
(dp4075
g73
(dp4076
g100
g101
ssg82
g4065
sg75
(lp4077
S':'
asbag68
(g89
g70
NtRp4078
(dp4079
g73
(dp4080
sg82
g4065
sg75
(lp4081
g68
(g69
g70
NtRp4082
(dp4083
g73
(dp4084
g81
I4
ssg82
g4078
sg75
(lp4085
S'no-cache'
p4086
asbasbasbag68
(g84
g70
NtRp4087
(dp4088
g73
(dp4089
sg82
g3995
sg75
(lp4090
g68
(g89
g70
NtRp4091
(dp4092
g73
(dp4093
g93
g94
ssg82
g4087
sg75
(lp4094
S'X-Powered-By'
p4095
asbag68
(g89
g70
NtRp4096
(dp4097
g73
(dp4098
g100
g101
ssg82
g4087
sg75
(lp4099
S':'
asbag68
(g89
g70
NtRp4100
(dp4101
g73
(dp4102
sg82
g4087
sg75
(lp4103
g68
(g69
g70
NtRp4104
(dp4105
g73
(dp4106
g81
I4
ssg82
g4100
sg75
(lp4107
S'web2py'
p4108
asbasbasbasbasbasbasbag68
(g84
g70
NtRp4109
(dp4110
g73
(dp4111
sg82
g3606
sg75
(lp4112
g68
(g89
g70
NtRp4113
(dp4114
g73
(dp4115
g93
g94
ssg82
g4109
sg75
(lp4116
S'menu'
p4117
asbag68
(g89
g70
NtRp4118
(dp4119
g73
(dp4120
g100
g101
ssg82
g4109
sg75
(lp4121
S':'
asbag68
(g89
g70
NtRp4122
(dp4123
g73
(dp4124
sg82
g4109
sg75
(lp4125
g68
(g69
g70
NtRp4126
(dp4127
g73
(dp4128
g81
I5
ssg82
g4122
sg75
(lp4129
g68
(g77
g70
NtRp4130
(dp4131
g73
(dp4132
g81
I4
ssg82
Nsg75
(lp4133
g68
(g84
g70
NtRp4134
(dp4135
g73
(dp4136
sg82
g4130
sg75
(lp4137
g68
(g89
g70
NtRp4138
(dp4139
g73
(dp4140
sg82
g4134
sg75
(lp4141
g68
(g69
g70
NtRp4142
(dp4143
g73
(dp4144
g81
I4
ssg82
g4138
sg75
(lp4145
g68
(g77
g70
NtRp4146
(dp4147
g73
(dp4148
g81
I3
ssg82
Nsg75
(lp4149
g68
(g84
g70
NtRp4150
(dp4151
g73
(dp4152
sg82
g4146
sg75
(lp4153
g68
(g89
g70
NtRp4154
(dp4155
g73
(dp4156
sg82
g4150
sg75
(lp4157
g68
(g69
g70
NtRp4158
(dp4159
g73
(dp4160
g81
I3
ssg82
g4154
sg75
(lp4161
cgluon.languages
lazyT_unpickle
p4162
(S't\x04\x00\x00\x00Home'
tRp4163
asbasbasbag68
(g84
g70
NtRp4164
(dp4165
g73
(dp4166
sg82
g4146
sg75
(lp4167
g68
(g89
g70
NtRp4168
(dp4169
g73
(dp4170
sg82
g4164
sg75
(lp4171
g68
(g69
g70
NtRp4172
(dp4173
g73
(dp4174
g81
I3
ssg82
g4168
sg75
(lp4175
g111
asbasbasbag68
(g84
g70
NtRp4176
(dp4177
g73
(dp4178
sg82
g4146
sg75
(lp4179
g68
(g89
g70
NtRp4180
(dp4181
g73
(dp4182
sg82
g4176
sg75
(lp4183
g68
(g69
g70
NtRp4184
(dp4185
g73
(dp4186
g81
I3
ssg82
g4180
sg75
(lp4187
S'/Book_Shelf_copy/default/index'
p4188
asbasbasbag68
(g84
g70
NtRp4189
(dp4190
g73
(dp4191
sg82
g4146
sg75
(lp4192
g68
(g89
g70
NtRp4193
(dp4194
g73
(dp4195
sg82
g4189
sg75
(lp4196
g68
(g69
g70
NtRp4197
(dp4198
g73
(dp4199
g81
I3
ssg82
g4193
sg75
(lp4200
g68
(g77
g70
NtRp4201
(dp4202
g73
(dp4203
g81
I2
ssg82
Nsg75
(lp4204
sbasbasbasbasbasbasbasbag68
(g84
g70
NtRp4205
(dp4206
g73
(dp4207
sg82
g4130
sg75
(lp4208
g68
(g89
g70
NtRp4209
(dp4210
g73
(dp4211
sg82
g4205
sg75
(lp4212
g68
(g69
g70
NtRp4213
(dp4214
g73
(dp4215
g81
I4
ssg82
g4209
sg75
(lp4216
g68
(g77
g70
NtRp4217
(dp4218
g73
(dp4219
g81
I3
ssg82
Nsg75
(lp4220
g68
(g84
g70
NtRp4221
(dp4222
g73
(dp4223
sg82
g4217
sg75
(lp4224
g68
(g89
g70
NtRp4225
(dp4226
g73
(dp4227
sg82
g4221
sg75
(lp4228
g68
(g69
g70
NtRp4229
(dp4230
g73
(dp4231
g81
I3
ssg82
g4225
sg75
(lp4232
g4162
(S's\x0c\x00\x00\x00User Profile'
tRp4233
asbasbasbag68
(g84
g70
NtRp4234
(dp4235
g73
(dp4236
sg82
g4217
sg75
(lp4237
g68
(g89
g70
NtRp4238
(dp4239
g73
(dp4240
sg82
g4234
sg75
(lp4241
g68
(g69
g70
NtRp4242
(dp4243
g73
(dp4244
g81
I3
ssg82
g4238
sg75
(lp4245
g111
asbasbasbag68
(g84
g70
NtRp4246
(dp4247
g73
(dp4248
sg82
g4217
sg75
(lp4249
g68
(g89
g70
NtRp4250
(dp4251
g73
(dp4252
sg82
g4246
sg75
(lp4253
g68
(g69
g70
NtRp4254
(dp4255
g73
(dp4256
g81
I3
ssg82
g4250
sg75
(lp4257
S'None'
p4258
asbasbasbag68
(g84
g70
NtRp4259
(dp4260
g73
(dp4261
sg82
g4217
sg75
(lp4262
g68
(g89
g70
NtRp4263
(dp4264
g73
(dp4265
sg82
g4259
sg75
(lp4266
g68
(g69
g70
NtRp4267
(dp4268
g73
(dp4269
g81
I3
ssg82
g4263
sg75
(lp4270
g68
(g77
g70
NtRp4271
(dp4272
g73
(dp4273
g81
I2
ssg82
Nsg75
(lp4274
g68
(g84
g70
NtRp4275
(dp4276
g73
(dp4277
sg82
g4271
sg75
(lp4278
g68
(g89
g70
NtRp4279
(dp4280
g73
(dp4281
sg82
g4275
sg75
(lp4282
g68
(g69
g70
NtRp4283
(dp4284
g73
(dp4285
g81
I2
ssg82
g4279
sg75
(lp4286
g68
(g77
g70
NtRp4287
(dp4288
g73
(dp4289
g81
I1
ssg82
Nsg75
(lp4290
g68
(g84
g70
NtRp4291
(dp4292
g73
(dp4293
sg82
g4287
sg75
(lp4294
g68
(g89
g70
NtRp4295
(dp4296
g73
(dp4297
sg82
g4291
sg75
(lp4298
g68
(g69
g70
NtRp4299
(dp4300
g73
(dp4301
g81
I1
ssg82
g4295
sg75
(lp4302
g4162
(S's\x0c\x00\x00\x00User Profile'
tRp4303
asbasbasbag68
(g84
g70
NtRp4304
(dp4305
g73
(dp4306
sg82
g4287
sg75
(lp4307
g68
(g89
g70
NtRp4308
(dp4309
g73
(dp4310
sg82
g4304
sg75
(lp4311
g68
(g69
g70
NtRp4312
(dp4313
g73
(dp4314
g81
I1
ssg82
g4308
sg75
(lp4315
I00
asbasbasbag68
(g84
g70
NtRp4316
(dp4317
g73
(dp4318
sg82
g4287
sg75
(lp4319
g68
(g89
g70
NtRp4320
(dp4321
g73
(dp4322
sg82
g4316
sg75
(lp4323
g68
(g69
g70
NtRp4324
(dp4325
g73
(dp4326
g81
I1
ssg82
g4320
sg75
(lp4327
S'/Book_Shelf_copy/default/user_profile'
p4328
asbasbasbasbasbasbasbag68
(g84
g70
NtRp4329
(dp4330
g73
(dp4331
sg82
g4271
sg75
(lp4332
g68
(g89
g70
NtRp4333
(dp4334
g73
(dp4335
sg82
g4329
sg75
(lp4336
g68
(g69
g70
NtRp4337
(dp4338
g73
(dp4339
g81
I2
ssg82
g4333
sg75
(lp4340
g68
(g77
g70
NtRp4341
(dp4342
g73
(dp4343
g81
I1
ssg82
Nsg75
(lp4344
g68
(g84
g70
NtRp4345
(dp4346
g73
(dp4347
sg82
g4341
sg75
(lp4348
g68
(g89
g70
NtRp4349
(dp4350
g73
(dp4351
sg82
g4345
sg75
(lp4352
g68
(g69
g70
NtRp4353
(dp4354
g73
(dp4355
g81
I1
ssg82
g4349
sg75
(lp4356
g4162
(S's\x13\x00\x00\x00Create User Profile'
tRp4357
asbasbasbag68
(g84
g70
NtRp4358
(dp4359
g73
(dp4360
sg82
g4341
sg75
(lp4361
g68
(g89
g70
NtRp4362
(dp4363
g73
(dp4364
sg82
g4358
sg75
(lp4365
g68
(g69
g70
NtRp4366
(dp4367
g73
(dp4368
g81
I1
ssg82
g4362
sg75
(lp4369
I00
asbasbasbag68
(g84
g70
NtRp4370
(dp4371
g73
(dp4372
sg82
g4341
sg75
(lp4373
g68
(g89
g70
NtRp4374
(dp4375
g73
(dp4376
sg82
g4370
sg75
(lp4377
g68
(g69
g70
NtRp4378
(dp4379
g73
(dp4380
g81
I1
ssg82
g4374
sg75
(lp4381
S'/Book_Shelf_copy/default/create_user_profile'
p4382
asbasbasbasbasbasbasbag68
(g84
g70
NtRp4383
(dp4384
g73
(dp4385
sg82
g4271
sg75
(lp4386
g68
(g89
g70
NtRp4387
(dp4388
g73
(dp4389
sg82
g4383
sg75
(lp4390
g68
(g69
g70
NtRp4391
(dp4392
g73
(dp4393
g81
I2
ssg82
g4387
sg75
(lp4394
g68
(g77
g70
NtRp4395
(dp4396
g73
(dp4397
g81
I1
ssg82
Nsg75
(lp4398
g68
(g84
g70
NtRp4399
(dp4400
g73
(dp4401
sg82
g4395
sg75
(lp4402
g68
(g89
g70
NtRp4403
(dp4404
g73
(dp4405
sg82
g4399
sg75
(lp4406
g68
(g69
g70
NtRp4407
(dp4408
g73
(dp4409
g81
I1
ssg82
g4403
sg75
(lp4410
g4162
(S's\x13\x00\x00\x00Update User Profile'
tRp4411
asbasbasbag68
(g84
g70
NtRp4412
(dp4413
g73
(dp4414
sg82
g4395
sg75
(lp4415
g68
(g89
g70
NtRp4416
(dp4417
g73
(dp4418
sg82
g4412
sg75
(lp4419
g68
(g69
g70
NtRp4420
(dp4421
g73
(dp4422
g81
I1
ssg82
g4416
sg75
(lp4423
I00
asbasbasbag68
(g84
g70
NtRp4424
(dp4425
g73
(dp4426
sg82
g4395
sg75
(lp4427
g68
(g89
g70
NtRp4428
(dp4429
g73
(dp4430
sg82
g4424
sg75
(lp4431
g68
(g69
g70
NtRp4432
(dp4433
g73
(dp4434
g81
I1
ssg82
g4428
sg75
(lp4435
S'/Book_Shelf_copy/default/update_user_profile'
p4436
asbasbasbasbasbasbasbasbasbasbasbasbasbasbasbag68
(g84
g70
NtRp4437
(dp4438
g73
(dp4439
sg82
g4130
sg75
(lp4440
g68
(g89
g70
NtRp4441
(dp4442
g73
(dp4443
sg82
g4437
sg75
(lp4444
g68
(g69
g70
NtRp4445
(dp4446
g73
(dp4447
g81
I4
ssg82
g4441
sg75
(lp4448
g68
(g77
g70
NtRp4449
(dp4450
g73
(dp4451
g81
I3
ssg82
Nsg75
(lp4452
g68
(g84
g70
NtRp4453
(dp4454
g73
(dp4455
sg82
g4449
sg75
(lp4456
g68
(g89
g70
NtRp4457
(dp4458
g73
(dp4459
sg82
g4453
sg75
(lp4460
g68
(g69
g70
NtRp4461
(dp4462
g73
(dp4463
g81
I3
ssg82
g4457
sg75
(lp4464
g4162
(S't\x04\x00\x00\x00Book'
tRp4465
asbasbasbag68
(g84
g70
NtRp4466
(dp4467
g73
(dp4468
sg82
g4449
sg75
(lp4469
g68
(g89
g70
NtRp4470
(dp4471
g73
(dp4472
sg82
g4466
sg75
(lp4473
g68
(g69
g70
NtRp4474
(dp4475
g73
(dp4476
g81
I3
ssg82
g4470
sg75
(lp4477
g111
asbasbasbag68
(g84
g70
NtRp4478
(dp4479
g73
(dp4480
sg82
g4449
sg75
(lp4481
g68
(g89
g70
NtRp4482
(dp4483
g73
(dp4484
sg82
g4478
sg75
(lp4485
g68
(g69
g70
NtRp4486
(dp4487
g73
(dp4488
g81
I3
ssg82
g4482
sg75
(lp4489
S'None'
p4490
asbasbasbag68
(g84
g70
NtRp4491
(dp4492
g73
(dp4493
sg82
g4449
sg75
(lp4494
g68
(g89
g70
NtRp4495
(dp4496
g73
(dp4497
sg82
g4491
sg75
(lp4498
g68
(g69
g70
NtRp4499
(dp4500
g73
(dp4501
g81
I3
ssg82
g4495
sg75
(lp4502
g68
(g77
g70
NtRp4503
(dp4504
g73
(dp4505
g81
I2
ssg82
Nsg75
(lp4506
g68
(g84
g70
NtRp4507
(dp4508
g73
(dp4509
sg82
g4503
sg75
(lp4510
g68
(g89
g70
NtRp4511
(dp4512
g73
(dp4513
sg82
g4507
sg75
(lp4514
g68
(g69
g70
NtRp4515
(dp4516
g73
(dp4517
g81
I2
ssg82
g4511
sg75
(lp4518
g68
(g77
g70
NtRp4519
(dp4520
g73
(dp4521
g81
I1
ssg82
Nsg75
(lp4522
g68
(g84
g70
NtRp4523
(dp4524
g73
(dp4525
sg82
g4519
sg75
(lp4526
g68
(g89
g70
NtRp4527
(dp4528
g73
(dp4529
sg82
g4523
sg75
(lp4530
g68
(g69
g70
NtRp4531
(dp4532
g73
(dp4533
g81
I1
ssg82
g4527
sg75
(lp4534
g4162
(S's\x0c\x00\x00\x00Book Profile'
tRp4535
asbasbasbag68
(g84
g70
NtRp4536
(dp4537
g73
(dp4538
sg82
g4519
sg75
(lp4539
g68
(g89
g70
NtRp4540
(dp4541
g73
(dp4542
sg82
g4536
sg75
(lp4543
g68
(g69
g70
NtRp4544
(dp4545
g73
(dp4546
g81
I1
ssg82
g4540
sg75
(lp4547
I00
asbasbasbag68
(g84
g70
NtRp4548
(dp4549
g73
(dp4550
sg82
g4519
sg75
(lp4551
g68
(g89
g70
NtRp4552
(dp4553
g73
(dp4554
sg82
g4548
sg75
(lp4555
g68
(g69
g70
NtRp4556
(dp4557
g73
(dp4558
g81
I1
ssg82
g4552
sg75
(lp4559
S'/Book_Shelf_copy/default/book_profile'
p4560
asbasbasbasbasbasbasbag68
(g84
g70
NtRp4561
(dp4562
g73
(dp4563
sg82
g4503
sg75
(lp4564
g68
(g89
g70
NtRp4565
(dp4566
g73
(dp4567
sg82
g4561
sg75
(lp4568
g68
(g69
g70
NtRp4569
(dp4570
g73
(dp4571
g81
I2
ssg82
g4565
sg75
(lp4572
g68
(g77
g70
NtRp4573
(dp4574
g73
(dp4575
g81
I1
ssg82
Nsg75
(lp4576
g68
(g84
g70
NtRp4577
(dp4578
g73
(dp4579
sg82
g4573
sg75
(lp4580
g68
(g89
g70
NtRp4581
(dp4582
g73
(dp4583
sg82
g4577
sg75
(lp4584
g68
(g69
g70
NtRp4585
(dp4586
g73
(dp4587
g81
I1
ssg82
g4581
sg75
(lp4588
g4162
(S's\x13\x00\x00\x00Create Book Profile'
tRp4589
asbasbasbag68
(g84
g70
NtRp4590
(dp4591
g73
(dp4592
sg82
g4573
sg75
(lp4593
g68
(g89
g70
NtRp4594
(dp4595
g73
(dp4596
sg82
g4590
sg75
(lp4597
g68
(g69
g70
NtRp4598
(dp4599
g73
(dp4600
g81
I1
ssg82
g4594
sg75
(lp4601
I00
asbasbasbag68
(g84
g70
NtRp4602
(dp4603
g73
(dp4604
sg82
g4573
sg75
(lp4605
g68
(g89
g70
NtRp4606
(dp4607
g73
(dp4608
sg82
g4602
sg75
(lp4609
g68
(g69
g70
NtRp4610
(dp4611
g73
(dp4612
g81
I1
ssg82
g4606
sg75
(lp4613
S'/Book_Shelf_copy/default/create_book_profile'
p4614
asbasbasbasbasbasbasbag68
(g84
g70
NtRp4615
(dp4616
g73
(dp4617
sg82
g4503
sg75
(lp4618
g68
(g89
g70
NtRp4619
(dp4620
g73
(dp4621
sg82
g4615
sg75
(lp4622
g68
(g69
g70
NtRp4623
(dp4624
g73
(dp4625
g81
I2
ssg82
g4619
sg75
(lp4626
g68
(g77
g70
NtRp4627
(dp4628
g73
(dp4629
g81
I1
ssg82
Nsg75
(lp4630
g68
(g84
g70
NtRp4631
(dp4632
g73
(dp4633
sg82
g4627
sg75
(lp4634
g68
(g89
g70
NtRp4635
(dp4636
g73
(dp4637
sg82
g4631
sg75
(lp4638
g68
(g69
g70
NtRp4639
(dp4640
g73
(dp4641
g81
I1
ssg82
g4635
sg75
(lp4642
g4162
(S's\x13\x00\x00\x00Update Book Profile'
tRp4643
asbasbasbag68
(g84
g70
NtRp4644
(dp4645
g73
(dp4646
sg82
g4627
sg75
(lp4647
g68
(g89
g70
NtRp4648
(dp4649
g73
(dp4650
sg82
g4644
sg75
(lp4651
g68
(g69
g70
NtRp4652
(dp4653
g73
(dp4654
g81
I1
ssg82
g4648
sg75
(lp4655
I00
asbasbasbag68
(g84
g70
NtRp4656
(dp4657
g73
(dp4658
sg82
g4627
sg75
(lp4659
g68
(g89
g70
NtRp4660
(dp4661
g73
(dp4662
sg82
g4656
sg75
(lp4663
g68
(g69
g70
NtRp4664
(dp4665
g73
(dp4666
g81
I1
ssg82
g4660
sg75
(lp4667
S'/Book_Shelf_copy/default/update_book_profile'
p4668
asbasbasbasbasbasbasbasbasbasbasbasbasbasbasbag68
(g84
g70
NtRp4669
(dp4670
g73
(dp4671
sg82
g4130
sg75
(lp4672
g68
(g89
g70
NtRp4673
(dp4674
g73
(dp4675
sg82
g4669
sg75
(lp4676
g68
(g69
g70
NtRp4677
(dp4678
g73
(dp4679
g81
I4
ssg82
g4673
sg75
(lp4680
g68
(g77
g70
NtRp4681
(dp4682
g73
(dp4683
g81
I3
ssg82
Nsg75
(lp4684
g68
(g84
g70
NtRp4685
(dp4686
g73
(dp4687
sg82
g4681
sg75
(lp4688
g68
(g89
g70
NtRp4689
(dp4690
g73
(dp4691
sg82
g4685
sg75
(lp4692
g68
(g69
g70
NtRp4693
(dp4694
g73
(dp4695
g81
I3
ssg82
g4689
sg75
(lp4696
g4162
(S's\n\x00\x00\x00Book Shelf'
tRp4697
asbasbasbag68
(g84
g70
NtRp4698
(dp4699
g73
(dp4700
sg82
g4681
sg75
(lp4701
g68
(g89
g70
NtRp4702
(dp4703
g73
(dp4704
sg82
g4698
sg75
(lp4705
g68
(g69
g70
NtRp4706
(dp4707
g73
(dp4708
g81
I3
ssg82
g4702
sg75
(lp4709
g111
asbasbasbag68
(g84
g70
NtRp4710
(dp4711
g73
(dp4712
sg82
g4681
sg75
(lp4713
g68
(g89
g70
NtRp4714
(dp4715
g73
(dp4716
sg82
g4710
sg75
(lp4717
g68
(g69
g70
NtRp4718
(dp4719
g73
(dp4720
g81
I3
ssg82
g4714
sg75
(lp4721
S'None'
p4722
asbasbasbag68
(g84
g70
NtRp4723
(dp4724
g73
(dp4725
sg82
g4681
sg75
(lp4726
g68
(g89
g70
NtRp4727
(dp4728
g73
(dp4729
sg82
g4723
sg75
(lp4730
g68
(g69
g70
NtRp4731
(dp4732
g73
(dp4733
g81
I3
ssg82
g4727
sg75
(lp4734
g68
(g77
g70
NtRp4735
(dp4736
g73
(dp4737
g81
I2
ssg82
Nsg75
(lp4738
g68
(g84
g70
NtRp4739
(dp4740
g73
(dp4741
sg82
g4735
sg75
(lp4742
g68
(g89
g70
NtRp4743
(dp4744
g73
(dp4745
sg82
g4739
sg75
(lp4746
g68
(g69
g70
NtRp4747
(dp4748
g73
(dp4749
g81
I2
ssg82
g4743
sg75
(lp4750
g68
(g77
g70
NtRp4751
(dp4752
g73
(dp4753
g81
I1
ssg82
Nsg75
(lp4754
g68
(g84
g70
NtRp4755
(dp4756
g73
(dp4757
sg82
g4751
sg75
(lp4758
g68
(g89
g70
NtRp4759
(dp4760
g73
(dp4761
sg82
g4755
sg75
(lp4762
g68
(g69
g70
NtRp4763
(dp4764
g73
(dp4765
g81
I1
ssg82
g4759
sg75
(lp4766
g4162
(S's\n\x00\x00\x00Book Shelf'
tRp4767
asbasbasbag68
(g84
g70
NtRp4768
(dp4769
g73
(dp4770
sg82
g4751
sg75
(lp4771
g68
(g89
g70
NtRp4772
(dp4773
g73
(dp4774
sg82
g4768
sg75
(lp4775
g68
(g69
g70
NtRp4776
(dp4777
g73
(dp4778
g81
I1
ssg82
g4772
sg75
(lp4779
I00
asbasbasbag68
(g84
g70
NtRp4780
(dp4781
g73
(dp4782
sg82
g4751
sg75
(lp4783
g68
(g89
g70
NtRp4784
(dp4785
g73
(dp4786
sg82
g4780
sg75
(lp4787
g68
(g69
g70
NtRp4788
(dp4789
g73
(dp4790
g81
I1
ssg82
g4784
sg75
(lp4791
S'/Book_Shelf_copy/default/book_shelf'
p4792
asbasbasbasbasbasbasbag68
(g84
g70
NtRp4793
(dp4794
g73
(dp4795
sg82
g4735
sg75
(lp4796
g68
(g89
g70
NtRp4797
(dp4798
g73
(dp4799
sg82
g4793
sg75
(lp4800
g68
(g69
g70
NtRp4801
(dp4802
g73
(dp4803
g81
I2
ssg82
g4797
sg75
(lp4804
g68
(g77
g70
NtRp4805
(dp4806
g73
(dp4807
g81
I1
ssg82
Nsg75
(lp4808
g68
(g84
g70
NtRp4809
(dp4810
g73
(dp4811
sg82
g4805
sg75
(lp4812
g68
(g89
g70
NtRp4813
(dp4814
g73
(dp4815
sg82
g4809
sg75
(lp4816
g68
(g69
g70
NtRp4817
(dp4818
g73
(dp4819
g81
I1
ssg82
g4813
sg75
(lp4820
g4162
(S's\x11\x00\x00\x00Create Book Shelf'
tRp4821
asbasbasbag68
(g84
g70
NtRp4822
(dp4823
g73
(dp4824
sg82
g4805
sg75
(lp4825
g68
(g89
g70
NtRp4826
(dp4827
g73
(dp4828
sg82
g4822
sg75
(lp4829
g68
(g69
g70
NtRp4830
(dp4831
g73
(dp4832
g81
I1
ssg82
g4826
sg75
(lp4833
I00
asbasbasbag68
(g84
g70
NtRp4834
(dp4835
g73
(dp4836
sg82
g4805
sg75
(lp4837
g68
(g89
g70
NtRp4838
(dp4839
g73
(dp4840
sg82
g4834
sg75
(lp4841
g68
(g69
g70
NtRp4842
(dp4843
g73
(dp4844
g81
I1
ssg82
g4838
sg75
(lp4845
S'/Book_Shelf_copy/default/create_book_shelf'
p4846
asbasbasbasbasbasbasbag68
(g84
g70
NtRp4847
(dp4848
g73
(dp4849
sg82
g4735
sg75
(lp4850
g68
(g89
g70
NtRp4851
(dp4852
g73
(dp4853
sg82
g4847
sg75
(lp4854
g68
(g69
g70
NtRp4855
(dp4856
g73
(dp4857
g81
I2
ssg82
g4851
sg75
(lp4858
g68
(g77
g70
NtRp4859
(dp4860
g73
(dp4861
g81
I1
ssg82
Nsg75
(lp4862
g68
(g84
g70
NtRp4863
(dp4864
g73
(dp4865
sg82
g4859
sg75
(lp4866
g68
(g89
g70
NtRp4867
(dp4868
g73
(dp4869
sg82
g4863
sg75
(lp4870
g68
(g69
g70
NtRp4871
(dp4872
g73
(dp4873
g81
I1
ssg82
g4867
sg75
(lp4874
g4162
(S's\x11\x00\x00\x00Update Book Shelf'
tRp4875
asbasbasbag68
(g84
g70
NtRp4876
(dp4877
g73
(dp4878
sg82
g4859
sg75
(lp4879
g68
(g89
g70
NtRp4880
(dp4881
g73
(dp4882
sg82
g4876
sg75
(lp4883
g68
(g69
g70
NtRp4884
(dp4885
g73
(dp4886
g81
I1
ssg82
g4880
sg75
(lp4887
I00
asbasbasbag68
(g84
g70
NtRp4888
(dp4889
g73
(dp4890
sg82
g4859
sg75
(lp4891
g68
(g89
g70
NtRp4892
(dp4893
g73
(dp4894
sg82
g4888
sg75
(lp4895
g68
(g69
g70
NtRp4896
(dp4897
g73
(dp4898
g81
I1
ssg82
g4892
sg75
(lp4899
S'/Book_Shelf_copy/default/update_book_shelf'
p4900
asbasbasbasbasbasbasbasbasbasbasbasbasbasbasbasbasbasbasbag68
(g84
g70
NtRp4901
(dp4902
g73
(dp4903
sg82
g3606
sg75
(lp4904
g68
(g89
g70
NtRp4905
(dp4906
g73
(dp4907
g93
g94
ssg82
g4901
sg75
(lp4908
S'meta'
p4909
asbag68
(g89
g70
NtRp4910
(dp4911
g73
(dp4912
g100
g101
ssg82
g4901
sg75
(lp4913
S':'
asbag68
(g89
g70
NtRp4914
(dp4915
g73
(dp4916
sg82
g4901
sg75
(lp4917
g68
(g69
g70
NtRp4918
(dp4919
g73
(dp4920
g81
I5
ssg82
g4914
sg75
(lp4921
g68
(g77
g70
NtRp4922
(dp4923
g73
(dp4924
g81
I4
ssg82
Nsg75
(lp4925
g68
(g84
g70
NtRp4926
(dp4927
g73
(dp4928
sg82
g4922
sg75
(lp4929
g68
(g89
g70
NtRp4930
(dp4931
g73
(dp4932
g93
g94
ssg82
g4926
sg75
(lp4933
S'author'
p4934
asbag68
(g89
g70
NtRp4935
(dp4936
g73
(dp4937
g100
g101
ssg82
g4926
sg75
(lp4938
S':'
asbag68
(g89
g70
NtRp4939
(dp4940
g73
(dp4941
sg82
g4926
sg75
(lp4942
g68
(g69
g70
NtRp4943
(dp4944
g73
(dp4945
g81
I4
ssg82
g4939
sg75
(lp4946
S'Your Name <you@example.com>'
p4947
asbasbasbag68
(g84
g70
NtRp4948
(dp4949
g73
(dp4950
sg82
g4922
sg75
(lp4951
g68
(g89
g70
NtRp4952
(dp4953
g73
(dp4954
g93
g94
ssg82
g4948
sg75
(lp4955
S'copyright'
p4956
asbag68
(g89
g70
NtRp4957
(dp4958
g73
(dp4959
g100
g101
ssg82
g4948
sg75
(lp4960
S':'
asbag68
(g89
g70
NtRp4961
(dp4962
g73
(dp4963
sg82
g4948
sg75
(lp4964
g68
(g69
g70
NtRp4965
(dp4966
g73
(dp4967
g81
I4
ssg82
g4961
sg75
(lp4968
S'Copyright 2011'
p4969
asbasbasbag68
(g84
g70
NtRp4970
(dp4971
g73
(dp4972
sg82
g4922
sg75
(lp4973
g68
(g89
g70
NtRp4974
(dp4975
g73
(dp4976
g93
g94
ssg82
g4970
sg75
(lp4977
S'description'
p4978
asbag68
(g89
g70
NtRp4979
(dp4980
g73
(dp4981
g100
g101
ssg82
g4970
sg75
(lp4982
S':'
asbag68
(g89
g70
NtRp4983
(dp4984
g73
(dp4985
sg82
g4970
sg75
(lp4986
g68
(g69
g70
NtRp4987
(dp4988
g73
(dp4989
g81
I4
ssg82
g4983
sg75
(lp4990
S'a cool new app'
p4991
asbasbasbag68
(g84
g70
NtRp4992
(dp4993
g73
(dp4994
sg82
g4922
sg75
(lp4995
g68
(g89
g70
NtRp4996
(dp4997
g73
(dp4998
g93
g94
ssg82
g4992
sg75
(lp4999
S'generator'
p5000
asbag68
(g89
g70
NtRp5001
(dp5002
g73
(dp5003
g100
g101
ssg82
g4992
sg75
(lp5004
S':'
asbag68
(g89
g70
NtRp5005
(dp5006
g73
(dp5007
sg82
g4992
sg75
(lp5008
g68
(g69
g70
NtRp5009
(dp5010
g73
(dp5011
g81
I4
ssg82
g5005
sg75
(lp5012
S'Web2py Web Framework'
p5013
asbasbasbag68
(g84
g70
NtRp5014
(dp5015
g73
(dp5016
sg82
g4922
sg75
(lp5017
g68
(g89
g70
NtRp5018
(dp5019
g73
(dp5020
g93
g94
ssg82
g5014
sg75
(lp5021
S'keywords'
p5022
asbag68
(g89
g70
NtRp5023
(dp5024
g73
(dp5025
g100
g101
ssg82
g5014
sg75
(lp5026
S':'
asbag68
(g89
g70
NtRp5027
(dp5028
g73
(dp5029
sg82
g5014
sg75
(lp5030
g68
(g69
g70
NtRp5031
(dp5032
g73
(dp5033
g81
I4
ssg82
g5027
sg75
(lp5034
S'web2py, python, framework'
p5035
asbasbasbasbasbasbasbag68
(g84
g70
NtRp5036
(dp5037
g73
(dp5038
sg82
g3606
sg75
(lp5039
g68
(g89
g70
NtRp5040
(dp5041
g73
(dp5042
g93
g94
ssg82
g5036
sg75
(lp5043
S'postprocessing'
p5044
asbag68
(g89
g70
NtRp5045
(dp5046
g73
(dp5047
g100
g101
ssg82
g5036
sg75
(lp5048
S':'
asbag68
(g89
g70
NtRp5049
(dp5050
g73
(dp5051
sg82
g5036
sg75
(lp5052
g68
(g69
g70
NtRp5053
(dp5054
g73
(dp5055
g81
I5
ssg82
g5049
sg75
(lp5056
g68
(g77
g70
NtRp5057
(dp5058
g73
(dp5059
g81
I4
ssg82
Nsg75
(lp5060
sbasbasbasbag68
(g84
g70
NtRp5061
(dp5062
g73
(dp5063
sg82
g3606
sg75
(lp5064
g68
(g89
g70
NtRp5065
(dp5066
g73
(dp5067
g93
g94
ssg82
g5061
sg75
(lp5068
S'session_file'
p5069
asbag68
(g89
g70
NtRp5070
(dp5071
g73
(dp5072
g100
g101
ssg82
g5061
sg75
(lp5073
S':'
asbag68
(g89
g70
NtRp5074
(dp5075
g73
(dp5076
sg82
g5061
sg75
(lp5077
g68
(g69
g70
NtRp5078
(dp5079
g73
(dp5080
g81
I5
ssg82
g5074
sg75
(lp5081
S"<open file '/Users/ianaboneva/Dropbox/DePaul/CSC 438 - Web Applications/web2py/applications/Book_Shelf_copy/sessions/127.0.0.1-eeba29a1-713d-4626-a1ad-4627ea1d2e7a', mode 'rb+' at 0x109b37780>"
p5082
asbasbasbag68
(g84
g70
NtRp5083
(dp5084
g73
(dp5085
sg82
g3606
sg75
(lp5086
g68
(g89
g70
NtRp5087
(dp5088
g73
(dp5089
g93
g94
ssg82
g5083
sg75
(lp5090
S'session_filename'
p5091
asbag68
(g89
g70
NtRp5092
(dp5093
g73
(dp5094
g100
g101
ssg82
g5083
sg75
(lp5095
S':'
asbag68
(g89
g70
NtRp5096
(dp5097
g73
(dp5098
sg82
g5083
sg75
(lp5099
g68
(g69
g70
NtRp5100
(dp5101
g73
(dp5102
g81
I5
ssg82
g5096
sg75
(lp5103
S'/Users/ianaboneva/Dropbox/DePaul/CSC 438 - Web Applications/web2py/applications/Book_Shelf_copy/sessions/127.0.0.1-eeba29a1-713d-4626-a1ad-4627ea1d2e7a'
p5104
asbasbasbag68
(g84
g70
NtRp5105
(dp5106
g73
(dp5107
sg82
g3606
sg75
(lp5108
g68
(g89
g70
NtRp5109
(dp5110
g73
(dp5111
g93
g94
ssg82
g5105
sg75
(lp5112
S'session_id'
p5113
asbag68
(g89
g70
NtRp5114
(dp5115
g73
(dp5116
g100
g101
ssg82
g5105
sg75
(lp5117
S':'
asbag68
(g89
g70
NtRp5118
(dp5119
g73
(dp5120
sg82
g5105
sg75
(lp5121
g68
(g69
g70
NtRp5122
(dp5123
g73
(dp5124
g81
I5
ssg82
g5118
sg75
(lp5125
S'127.0.0.1-eeba29a1-713d-4626-a1ad-4627ea1d2e7a'
p5126
asbasbasbag68
(g84
g70
NtRp5127
(dp5128
g73
(dp5129
sg82
g3606
sg75
(lp5130
g68
(g89
g70
NtRp5131
(dp5132
g73
(dp5133
g93
g94
ssg82
g5127
sg75
(lp5134
S'session_id_name'
p5135
asbag68
(g89
g70
NtRp5136
(dp5137
g73
(dp5138
g100
g101
ssg82
g5127
sg75
(lp5139
S':'
asbag68
(g89
g70
NtRp5140
(dp5141
g73
(dp5142
sg82
g5127
sg75
(lp5143
g68
(g69
g70
NtRp5144
(dp5145
g73
(dp5146
g81
I5
ssg82
g5140
sg75
(lp5147
g3663
asbasbasbag68
(g84
g70
NtRp5148
(dp5149
g73
(dp5150
sg82
g3606
sg75
(lp5151
g68
(g89
g70
NtRp5152
(dp5153
g73
(dp5154
g93
g94
ssg82
g5148
sg75
(lp5155
S'session_locked'
p5156
asbag68
(g89
g70
NtRp5157
(dp5158
g73
(dp5159
g100
g101
ssg82
g5148
sg75
(lp5160
S':'
asbag68
(g89
g70
NtRp5161
(dp5162
g73
(dp5163
sg82
g5148
sg75
(lp5164
g68
(g69
g70
NtRp5165
(dp5166
g73
(dp5167
g81
I5
ssg82
g5161
sg75
(lp5168
g1852
asbasbasbag68
(g84
g70
NtRp5169
(dp5170
g73
(dp5171
sg82
g3606
sg75
(lp5172
g68
(g89
g70
NtRp5173
(dp5174
g73
(dp5175
g93
g94
ssg82
g5169
sg75
(lp5176
S'session_new'
p5177
asbag68
(g89
g70
NtRp5178
(dp5179
g73
(dp5180
g100
g101
ssg82
g5169
sg75
(lp5181
S':'
asbag68
(g89
g70
NtRp5182
(dp5183
g73
(dp5184
sg82
g5169
sg75
(lp5185
g68
(g69
g70
NtRp5186
(dp5187
g73
(dp5188
g81
I5
ssg82
g5182
sg75
(lp5189
g111
asbasbasbag68
(g84
g70
NtRp5190
(dp5191
g73
(dp5192
sg82
g3606
sg75
(lp5193
g68
(g89
g70
NtRp5194
(dp5195
g73
(dp5196
g93
g94
ssg82
g5190
sg75
(lp5197
S'status'
p5198
asbag68
(g89
g70
NtRp5199
(dp5200
g73
(dp5201
g100
g101
ssg82
g5190
sg75
(lp5202
S':'
asbag68
(g89
g70
NtRp5203
(dp5204
g73
(dp5205
sg82
g5190
sg75
(lp5206
g68
(g69
g70
NtRp5207
(dp5208
g73
(dp5209
g81
I5
ssg82
g5203
sg75
(lp5210
S'200'
p5211
asbasbasbag68
(g84
g70
NtRp5212
(dp5213
g73
(dp5214
sg82
g3606
sg75
(lp5215
g68
(g89
g70
NtRp5216
(dp5217
g73
(dp5218
g93
g94
ssg82
g5212
sg75
(lp5219
S'title'
p5220
asbag68
(g89
g70
NtRp5221
(dp5222
g73
(dp5223
g100
g101
ssg82
g5212
sg75
(lp5224
S':'
asbag68
(g89
g70
NtRp5225
(dp5226
g73
(dp5227
sg82
g5212
sg75
(lp5228
g68
(g69
g70
NtRp5229
(dp5230
g73
(dp5231
g81
I5
ssg82
g5225
sg75
(lp5232
S'Book Shelf Copy'
p5233
asbasbasbag68
(g84
g70
NtRp5234
(dp5235
g73
(dp5236
sg82
g3606
sg75
(lp5237
g68
(g89
g70
NtRp5238
(dp5239
g73
(dp5240
g93
g94
ssg82
g5234
sg75
(lp5241
g2516
asbag68
(g89
g70
NtRp5242
(dp5243
g73
(dp5244
g100
g101
ssg82
g5234
sg75
(lp5245
S':'
asbag68
(g89
g70
NtRp5246
(dp5247
g73
(dp5248
sg82
g5234
sg75
(lp5249
g68
(g69
g70
NtRp5250
(dp5251
g73
(dp5252
g81
I5
ssg82
g5246
sg75
(lp5253
g2529
asbasbasbag68
(g84
g70
NtRp5254
(dp5255
g73
(dp5256
sg82
g3606
sg75
(lp5257
g68
(g89
g70
NtRp5258
(dp5259
g73
(dp5260
g93
g94
ssg82
g5254
sg75
(lp5261
S'view'
p5262
asbag68
(g89
g70
NtRp5263
(dp5264
g73
(dp5265
g100
g101
ssg82
g5254
sg75
(lp5266
S':'
asbag68
(g89
g70
NtRp5267
(dp5268
g73
(dp5269
sg82
g5254
sg75
(lp5270
g68
(g69
g70
NtRp5271
(dp5272
g73
(dp5273
g81
I5
ssg82
g5267
sg75
(lp5274
S'default/create_user_profile.html'
p5275
asbasbasbasbasbsS'locals'
p5276
(dp5277
g4
S"'/Users/ianaboneva/Dropbox/DePaul/CSC 438 - Web A...plications/Book_Shelf_copy/controllers/default.py'"
p5278
sg6
S"'# -*- coding: utf-8 -*-\\n# this file is released ...onse._vars=response._caller(create_user_profile)\\n'"
p5279
sssS'traceback'
p5280
S'Traceback (most recent call last):\n  File "/Users/ianaboneva/Dropbox/DePaul/CSC 438 - Web Applications/web2py/gluon/restricted.py", line 204, in restricted\n    ccode = compile2(code,layer)\n  File "/Users/ianaboneva/Dropbox/DePaul/CSC 438 - Web Applications/web2py/gluon/restricted.py", line 189, in compile2\n    return compile(code.rstrip().replace(\'\\r\\n\',\'\\n\')+\'\\n\', layer, \'exec\')\n  File "/Users/ianaboneva/Dropbox/DePaul/CSC 438 - Web Applications/web2py/applications/Book_Shelf_copy/controllers/default.py", line 92\n    <<<<<<< HEAD\n     ^\nIndentationError: expected an indented block\n'
p5281
s.