(dp1
S'output'
p2
S"<type 'exceptions.AttributeError'> 'Rows' object has no attribute 'Title'"
p3
sS'layer'
p4
S'/Users/ianaboneva/Dropbox/DePaul/CSC 438 - Web Applications/web2py/applications/Book_Shelf_copy/views/default/book_profile.html'
p5
sS'code'
p6
S'response.write(\'<!DOCTYPE html>\\n<!-- paulirish.com/2008/conditional-stylesheets-vs-css-hacks-answer-neither/ -->\\n<!--[if lt IE 7]><html class="ie ie6 ie-lte9 ie-lte8 ie-lte7 no-js" lang="\', escape=False)\nresponse.write(T.accepted_language or \'en\')\nresponse.write(\'"> <![endif]-->\\n<!--[if IE 7]><html class="ie ie7 ie-lte9 ie-lte8 ie-lte7 no-js" lang="\', escape=False)\nresponse.write(T.accepted_language or \'en\')\nresponse.write(\'"> <![endif]-->\\n<!--[if IE 8]><html class="ie ie8 ie-lte9 ie-lte8 no-js" lang="\', escape=False)\nresponse.write(T.accepted_language or \'en\')\nresponse.write(\'"> <![endif]-->\\n<!--[if IE 9]><html class="ie9 ie-lte9 no-js" lang="\', escape=False)\nresponse.write(T.accepted_language or \'en\')\nresponse.write(\'"> <![endif]-->\\n<!--[if (gt IE 9)|!(IE)]><!--> <html class="no-js" lang="\', escape=False)\nresponse.write(T.accepted_language or \'en\')\nresponse.write(\'"> <!--<![endif]-->\\n<head>\\n  <meta charset="utf-8" />\\n  <!-- www.phpied.com/conditional-comments-block-downloads/ -->\\n  <!-- Always force latest IE rendering engine\\n\\t   (even in intranet) & Chrome Frame\\n\\t   Remove this if you use the .htaccess -->\\n  <!--[if IE]>\\n    <meta http-equiv="X-UA-Compatible" content="IE=edge\', escape=False)\nresponse.write(not request.is_local and \',chrome=1\' or \'\')\nresponse.write(\'">\\n  <![endif]-->\\n  \\n  <title>\', escape=False)\nresponse.write(response.title or request.application)\nresponse.write(\'</title>\\n  \\n  <!-- http://dev.w3.org/html5/markup/meta.name.html -->\\n  <meta name="application-name" content="\', escape=False)\nresponse.write(request.application)\nresponse.write(\'" />\\n  \\n  <!-- Speaking of Google, don\\\'t forget to set your site up:\\n\\t   http://google.com/webmasters -->\\n  <meta name="google-site-verification" content="" />\\n\\n  <!--  Mobile Viewport Fix\\n\\t  j.mp/mobileviewport & davidbcalhoun.com/2010/viewport-metatag\\n\\t  device-width: Occupy full width of the screen in its current orientation\\n\\t  initial-scale = 1.0 retains dimensions instead of zooming out if page height > device height\\n\\t  user-scalable = yes allows the user to zoom in -->\\n  <meta name="viewport" content="width=device-width, initial-scale=1.0, user-scalable=yes">\\n  \\n  <!-- Place favicon.ico and apple-touch-icon.png in the root of your domain and delete these references -->\\n  <link rel="shortcut icon" href="\', escape=False)\nresponse.write(URL(\'static\',\'favicon.ico\'))\nresponse.write(\'" type="image/x-icon">\\n  <link rel="apple-touch-icon" href="\', escape=False)\nresponse.write(URL(\'static\',\'favicon.png\'))\nresponse.write(\'">\\n\\n  <!-- All JavaScript at the bottom, except for Modernizr which enables \\n\\t   HTML5 elements & feature detects -->\\n  <script src="\', escape=False)\nresponse.write(URL(\'static\',\'js/modernizr.custom.js\'))\nresponse.write(\'"></script>  \\n\\n  <!-- include stylesheets -->\\n  \', escape=False)\nresponse.files.append(URL(\'static\',\'css/skeleton.css\'))\nresponse.files.append(URL(\'static\',\'css/web2py.css\'))\nif response.menu:\n    response.files.append(URL(\'static\',\'css/superfish.css\'))\n    response.files.append(URL(\'static\',\'js/superfish.js\'))\n    pass\nresponse.write(\'\\n\\n  \', escape=False)\nresponse.write(\'<script type="text/javascript"><!--\\n    // These variables are used by the web2py_ajax_init function in web2py_ajax.js (which is loaded below).\\n    var w2p_ajax_confirm_message = "\', escape=False)\nresponse.write(T(\'Are you sure you want to delete this object?\'))\nresponse.write(\'";\\n    var w2p_ajax_date_format = "\', escape=False)\nresponse.write(T(\'%Y-%m-%d\'))\nresponse.write(\'";\\n    var w2p_ajax_datetime_format = "\', escape=False)\nresponse.write(T(\'%Y-%m-%d %H:%M:%S\'))\nresponse.write(\'";\\n    //--></script>\\n\', escape=False)\nresponse.files.insert(0,URL(\'static\',\'js/jquery.js\'))\nresponse.files.insert(1,URL(\'static\',\'css/calendar.css\'))\nresponse.files.insert(2,URL(\'static\',\'js/calendar.js\'))\nresponse.files.insert(3,URL(\'static\',\'js/web2py.js\'))\nresponse.include_meta()\nresponse.include_files()\nresponse.write(\'\\n\', escape=False)\nresponse.write(\'\\n\\n  \', escape=False)\nif response.menu:\n    response.write(\'\\n  <script type="text/javascript">\\n    jQuery(function(){ jQuery(\\\'ul.sf-menu\\\').supersubs({minWidth:12,maxWidth:30,extraWidth:3}).superfish(); });\\n  </script>\\n  \', escape=False)\n    pass\nresponse.write(\'\\n\\n  \', escape=False)\n# using sidebars need to know what sidebar you want to use\nleft_sidebar_enabled = globals().get(\'left_sidebar_enabled\',False)\nright_sidebar_enabled = globals().get(\'right_sidebar_enabled\',False)\nmiddle_columns = {0:\'sixteen\',1:\'twelve\',2:\'eight\'}[\n(left_sidebar_enabled and 1 or 0)+(right_sidebar_enabled and 1 or 0)]\nresponse.write(\'\\n\\n  <!-- uncomment here to load jquery-ui\\n  <link rel="stylesheet" href="http://ajax.googleapis.com/ajax/libs/jqueryui/1.8.16/themes/base/jquery-ui.css" type="text/css" media="all" />\\n  <script src="http://ajax.googleapis.com/ajax/libs/jqueryui/1.8.16/jquery-ui.min.js" type="text/javascript"></script>\\n  uncomment to load jquery-ui //-->\\n</head>\\n<body>\\n  <div class="wrapper"><!-- for sticky footer -->\\n  \\n    <div class="topbar">\\n      <div class="container">    \\n        <div class="sixteen columns">\\n          <div id="navbar">\', escape=False)\nresponse.write(\'auth\' in globals() and auth.navbar(separators=(\' \',\' | \',\'\')))\nresponse.write(\'</div>\\n          \', escape=False)\nis_mobile=request.user_agent().is_mobile\nresponse.write(\'\\n\\t  \', escape=False)\nif response.menu:\n    response.write(\'\\n          <div id="menu">\\n             \', escape=False)\n    response.write(MENU(response.menu, _class=\'mobile-menu\' if is_mobile else \'sf-menu\',mobile=is_mobile))\n    response.write(\'\\n          </div>\\n          \', escape=False)\n    pass\nresponse.write(\'\\n        </div>\\n      </div>\\n    </div><!-- topbar -->\\n    \\n    <div class="flash">\', escape=False)\nresponse.write(response.flash or \'\')\nresponse.write(\'</div>\\n    \\n    <div class="header">\\n      <div class="container">         \\n        <div class="sixteen columns">\\n          <h1 class="remove-bottom" style="margin-top: .5em;">\\n          \', escape=False)\nresponse.write(response.title or request.application)\nresponse.write(\'\\n          </h1>\\n          <h5>\', escape=False)\nresponse.write(response.subtitle or \'\')\nresponse.write(\'</h5>\\n        </div>\\n        <div class="sixteen columns">\\n          <div class="statusbar clearfix">\\n            \', escape=False)\nresponse.write(\'\\n            <div class="breadcrumbs">\', escape=False)\nresponse.write(request.function.replace(\'_\', \' \').title())\nresponse.write(\'</div>\\n            \', escape=False)\nresponse.write(\'\\n            <!-- AddToAny BEGIN -->\\n            <div style="float:right; padding-top: .25em;" class="a2a_kit a2a_default_style">\\n            <a class="a2a_dd" href="http://www.addtoany.com/share_save">Share</a></div>\\n            <script type="text/javascript" src="http://static.addtoany.com/menu/page.js"></script>\\n            <!-- AddToAny END -->\\n          </div>\\n        </div>\\n      </div>\\n    </div>\\n\\n    <div class="main">\\n      <div class="container">                 \\n        \', escape=False)\nif left_sidebar_enabled:\n    response.write(\'\\n        <div class="four columns left-sidebar">\\n          \', escape=False)\n    response.write(\'\\n          <h3>Left Sidebar</h3>\\n          <p></p>\\n          \', escape=False)\n    response.write(\'\\n        </div>\\n        \', escape=False)\n    pass\nresponse.write(\'\\n        \\n        <div class="\', escape=False)\nresponse.write(middle_columns)\nresponse.write(\' columns center">\\n          \', escape=False)\nresponse.write(\'\\n          \', escape=False)\nresponse.write(\'\\n\', escape=False)\nif len(book_profiles):\n    response.write(\'\\n    \', escape=False)\n    for book_profile in book_profiles:\n        response.write(\'\\n    \\t<table>\\n    \\t<tr>\\n    \\t<td>Title: </td>\\n        <td>\', escape=False)\n        response.write(book_profile.Title)\n        response.write(\'</td>\\n        </tr>\\n    \\t<tr>\\n    \\t<td>Author: </td>\\n        <td>\', escape=False)\n        response.write(book_profile.Author)\n        response.write(\'</td>\\n        </tr>\\n        <tr>\\n    \\t<td>Genre: </td>\\n        <td>\', escape=False)\n        response.write(book_profile.Genre)\n        response.write(\'</td>\\n        </tr>\\n    </table>\\n    \', escape=False)\n        pass\n    response.write(\'\\n\', escape=False)\nelse:\n    response.write(\'\\n    <p>no profiles that match</p>\\n\', escape=False)\n    pass\nresponse.write(\'\\n\\n\', escape=False)\nif len(book):\n    response.write(\'\\n    \\t<table>\\n    \\t<tr>\\n    \\t<td>Title: </td>\\n        <td>\', escape=False)\n    response.write(book.Title)\n    response.write(\'</td>\\n        </tr>\\n    \\t<tr>\\n    \\t<td>Author: </td>\\n        <td>\', escape=False)\n    response.write(book.Author)\n    response.write(\'</td>\\n        </tr>\\n        <tr>\\n    \\t<td>Genre: </td>\\n        <td>\', escape=False)\n    response.write(book.Genre)\n    response.write(\'</td>\\n        </tr>\\n    </table>\\n\', escape=False)\nelse:\n    response.write(\'\\n    <p>no profiles that match</p>\\n\', escape=False)\n    pass\nresponse.write(\'\\n\\n\', escape=False)\nresponse.write(\'\\n          \', escape=False)\nresponse.write(\'\\n        </div>\\n        \\n        \', escape=False)\nif right_sidebar_enabled:\n    response.write(\'\\n        <div class="four columns">\\n          \', escape=False)\n    response.write(\'\\n          <h3>Right Sidebar</h3>\\n          <p></p>\\n          \', escape=False)\n    response.write(\'\\n        </div>    \\n        \', escape=False)\n    pass\nresponse.write(\'\\n        \\n      </div><!-- container -->\\n    </div><!-- main -->\\n    \\n    <div class="push"></div>\\n  </div><!-- wrapper -->\\n\\n  <div class="footer">\\n    <div class="container">    \\n      <div class="sixteen columns">\\n        \', escape=False)\nresponse.write(\' <!-- this is default footer -->\\n        <div class="footer-content clearfix">\\n          <div class="copyright">\', escape=False)\nresponse.write(T(\'Copyright\'))\nresponse.write(\' &#169; 2011</div>\\n          <div style="float: right;">\\n            <a href="http://www.web2py.com/">\\n            <img style="padding-bottom: 0;" src="\', escape=False)\nresponse.write(URL(\'static\',\'images/poweredby.png\'))\nresponse.write(\'"/>\\n            </a>\\n          </div>\\n        </div>\\n        \', escape=False)\nresponse.write(\'\\t\\n      </div>\\n    </div><!-- container -->\\n  </div><!-- footer -->\\n  \\n  <!--[if lt IE 7 ]>\\n\\t<script src="\', escape=False)\nresponse.write(URL(\'static\',\'js/dd_belatedpng.js\'))\nresponse.write(\'"></script>\\n\\t<script> DD_belatedPNG.fix(\\\'img, .png_bg\\\'); //fix any <img> or .png_bg background-images </script>\\n\\t<![endif]-->\\n  \', escape=False)\nif response.google_analytics_id:\n    response.write(\'<script type="text/javascript"> var _gaq = _gaq || []; _gaq.push([\\\'_setAccount\\\', \\\'\', escape=False)\n    response.write(response.google_analytics_id)\n    response.write("\']); _gaq.push([\'_trackPageview\']); (function() { var ga = document.createElement(\'script\'); ga.type = \'text/javascript\'; ga.async = true; ga.src = (\'https:\' == document.location.protocol ? \'https://ssl\' : \'http://www\') + \'.google-analytics.com/ga.js\'; var s = document.getElementsByTagName(\'script\')[0]; s.parentNode.insertBefore(ga, s); })(); </script> ", escape=False)\n    pass\nresponse.write(\'\\n</body>\\n</html>\\n\', escape=False)'
p7
sS'snapshot'
p8
(dp9
S'exception'
p10
(dp11
S'__hash__'
p12
S"<method-wrapper '__hash__' of exceptions.AttributeError object>"
p13
sS'__setattr__'
p14
S"<method-wrapper '__setattr__' of exceptions.AttributeError object>"
p15
sS'__reduce_ex__'
p16
S'<built-in method __reduce_ex__ of exceptions.AttributeError object>'
p17
sS'__getslice__'
p18
S"<method-wrapper '__getslice__' of exceptions.AttributeError object>"
p19
sS'__getitem__'
p20
S"<method-wrapper '__getitem__' of exceptions.AttributeError object>"
p21
sS'__setstate__'
p22
S'<built-in method __setstate__ of exceptions.AttributeError object>'
p23
sS'args'
p24
S'("\'Rows\' object has no attribute \'Title\'",)'
p25
sS'__reduce__'
p26
S'<built-in method __reduce__ of exceptions.AttributeError object>'
p27
sS'__str__'
p28
S"<method-wrapper '__str__' of exceptions.AttributeError object>"
p29
sS'__format__'
p30
S'<built-in method __format__ of exceptions.AttributeError object>'
p31
sS'__getattribute__'
p32
S"<method-wrapper '__getattribute__' of exceptions.AttributeError object>"
p33
sS'__class__'
p34
S"<type 'exceptions.AttributeError'>"
p35
sS'__unicode__'
p36
S'<built-in method __unicode__ of exceptions.AttributeError object>'
p37
sS'__delattr__'
p38
S"<method-wrapper '__delattr__' of exceptions.AttributeError object>"
p39
sS'__subclasshook__'
p40
S'<built-in method __subclasshook__ of type object>'
p41
sS'__repr__'
p42
S"<method-wrapper '__repr__' of exceptions.AttributeError object>"
p43
sS'__dict__'
p44
S'{}'
p45
sS'__sizeof__'
p46
S'<built-in method __sizeof__ of exceptions.AttributeError object>'
p47
sS'__doc__'
p48
S"'Attribute not found.'"
p49
sS'__init__'
p50
S"<method-wrapper '__init__' of exceptions.AttributeError object>"
p51
sS'__new__'
p52
S'<built-in method __new__ of type object>'
p53
ssS'evalue'
p54
S"'Rows' object has no attribute 'Title'"
p55
sS'request'
p56
ccopy_reg
_reconstructor
p57
(cgluon.html
BEAUTIFY
p58
c__builtin__
object
p59
NtRp60
(dp61
S'attributes'
p62
(dp63
sS'components'
p64
(lp65
g57
(cgluon.html
TABLE
p66
g59
NtRp67
(dp68
g62
(dp69
S'level'
p70
I5
ssS'parent'
p71
Nsg64
(lp72
g57
(cgluon.html
TR
p73
g59
NtRp74
(dp75
g62
(dp76
sg71
g67
sg64
(lp77
g57
(cgluon.html
TD
p78
g59
NtRp79
(dp80
g62
(dp81
S'_style'
p82
S'font-weight:bold;vertical-align:top'
p83
ssg71
g74
sg64
(lp84
S'ajax'
p85
asbag57
(g78
g59
NtRp86
(dp87
g62
(dp88
S'_valign'
p89
S'top'
p90
ssg71
g74
sg64
(lp91
S':'
asbag57
(g78
g59
NtRp92
(dp93
g62
(dp94
sg71
g74
sg64
(lp95
g57
(g58
g59
NtRp96
(dp97
g62
(dp98
g70
I5
ssg71
g92
sg64
(lp99
S'False'
p100
asbasbasbag57
(g73
g59
NtRp101
(dp102
g62
(dp103
sg71
g67
sg64
(lp104
g57
(g78
g59
NtRp105
(dp106
g62
(dp107
g82
g83
ssg71
g101
sg64
(lp108
S'application'
p109
asbag57
(g78
g59
NtRp110
(dp111
g62
(dp112
g89
g90
ssg71
g101
sg64
(lp113
S':'
asbag57
(g78
g59
NtRp114
(dp115
g62
(dp116
sg71
g101
sg64
(lp117
g57
(g58
g59
NtRp118
(dp119
g62
(dp120
g70
I5
ssg71
g114
sg64
(lp121
S'Book_Shelf_copy'
p122
asbasbasbag57
(g73
g59
NtRp123
(dp124
g62
(dp125
sg71
g67
sg64
(lp126
g57
(g78
g59
NtRp127
(dp128
g62
(dp129
g82
g83
ssg71
g123
sg64
(lp130
g24
asbag57
(g78
g59
NtRp131
(dp132
g62
(dp133
g89
g90
ssg71
g123
sg64
(lp134
S':'
asbag57
(g78
g59
NtRp135
(dp136
g62
(dp137
sg71
g123
sg64
(lp138
g57
(g58
g59
NtRp139
(dp140
g62
(dp141
g70
I5
ssg71
g135
sg64
(lp142
g57
(g66
g59
NtRp143
(dp144
g62
(dp145
g70
I4
ssg71
Nsg64
(lp146
g57
(g73
g59
NtRp147
(dp148
g62
(dp149
sg71
g143
sg64
(lp150
g57
(g78
g59
NtRp151
(dp152
g62
(dp153
sg71
g147
sg64
(lp154
g57
(g58
g59
NtRp155
(dp156
g62
(dp157
g70
I4
ssg71
g151
sg64
(lp158
S'1'
asbasbasbasbasbasbasbag57
(g73
g59
NtRp159
(dp160
g62
(dp161
sg71
g67
sg64
(lp162
g57
(g78
g59
NtRp163
(dp164
g62
(dp165
g82
g83
ssg71
g159
sg64
(lp166
S'body'
p167
asbag57
(g78
g59
NtRp168
(dp169
g62
(dp170
g89
g90
ssg71
g159
sg64
(lp171
S':'
asbag57
(g78
g59
NtRp172
(dp173
g62
(dp174
sg71
g159
sg64
(lp175
g57
(g58
g59
NtRp176
(dp177
g62
(dp178
g70
I5
ssg71
g172
sg64
(lp179
S'<cStringIO.StringO object at 0x109e13378>'
p180
asbasbasbag57
(g73
g59
NtRp181
(dp182
g62
(dp183
sg71
g67
sg64
(lp184
g57
(g78
g59
NtRp185
(dp186
g62
(dp187
g82
g83
ssg71
g181
sg64
(lp188
S'client'
p189
asbag57
(g78
g59
NtRp190
(dp191
g62
(dp192
g89
g90
ssg71
g181
sg64
(lp193
S':'
asbag57
(g78
g59
NtRp194
(dp195
g62
(dp196
sg71
g181
sg64
(lp197
g57
(g58
g59
NtRp198
(dp199
g62
(dp200
g70
I5
ssg71
g194
sg64
(lp201
S'127.0.0.1'
p202
asbasbasbag57
(g73
g59
NtRp203
(dp204
g62
(dp205
sg71
g67
sg64
(lp206
g57
(g78
g59
NtRp207
(dp208
g62
(dp209
g82
g83
ssg71
g203
sg64
(lp210
S'controller'
p211
asbag57
(g78
g59
NtRp212
(dp213
g62
(dp214
g89
g90
ssg71
g203
sg64
(lp215
S':'
asbag57
(g78
g59
NtRp216
(dp217
g62
(dp218
sg71
g203
sg64
(lp219
g57
(g58
g59
NtRp220
(dp221
g62
(dp222
g70
I5
ssg71
g216
sg64
(lp223
S'default'
p224
asbasbasbag57
(g73
g59
NtRp225
(dp226
g62
(dp227
sg71
g67
sg64
(lp228
g57
(g78
g59
NtRp229
(dp230
g62
(dp231
g82
g83
ssg71
g225
sg64
(lp232
S'cookies'
p233
asbag57
(g78
g59
NtRp234
(dp235
g62
(dp236
g89
g90
ssg71
g225
sg64
(lp237
S':'
asbag57
(g78
g59
NtRp238
(dp239
g62
(dp240
sg71
g225
sg64
(lp241
g57
(g58
g59
NtRp242
(dp243
g62
(dp244
g70
I5
ssg71
g238
sg64
(lp245
g57
(g66
g59
NtRp246
(dp247
g62
(dp248
g70
I4
ssg71
Nsg64
(lp249
g57
(g73
g59
NtRp250
(dp251
g62
(dp252
sg71
g246
sg64
(lp253
g57
(g78
g59
NtRp254
(dp255
g62
(dp256
g82
g83
ssg71
g250
sg64
(lp257
S'session_id_admin'
p258
asbag57
(g78
g59
NtRp259
(dp260
g62
(dp261
g89
g90
ssg71
g250
sg64
(lp262
S':'
asbag57
(g78
g59
NtRp263
(dp264
g62
(dp265
sg71
g250
sg64
(lp266
g57
(g58
g59
NtRp267
(dp268
g62
(dp269
g70
I4
ssg71
g263
sg64
(lp270
g57
(g66
g59
NtRp271
(dp272
g62
(dp273
g70
I3
ssg71
Nsg64
(lp274
g57
(g73
g59
NtRp275
(dp276
g62
(dp277
sg71
g271
sg64
(lp278
g57
(g78
g59
NtRp279
(dp280
g62
(dp281
g82
g83
ssg71
g275
sg64
(lp282
S'comment'
p283
asbag57
(g78
g59
NtRp284
(dp285
g62
(dp286
g89
g90
ssg71
g275
sg64
(lp287
S':'
asbag57
(g78
g59
NtRp288
(dp289
g62
(dp290
sg71
g275
sg64
(lp291
g57
(g58
g59
NtRp292
(dp293
g62
(dp294
g70
I3
ssg71
g288
sg64
(lp295
S''
asbasbasbag57
(g73
g59
NtRp296
(dp297
g62
(dp298
sg71
g271
sg64
(lp299
g57
(g78
g59
NtRp300
(dp301
g62
(dp302
g82
g83
ssg71
g296
sg64
(lp303
S'domain'
p304
asbag57
(g78
g59
NtRp305
(dp306
g62
(dp307
g89
g90
ssg71
g296
sg64
(lp308
S':'
asbag57
(g78
g59
NtRp309
(dp310
g62
(dp311
sg71
g296
sg64
(lp312
g57
(g58
g59
NtRp313
(dp314
g62
(dp315
g70
I3
ssg71
g309
sg64
(lp316
S''
asbasbasbag57
(g73
g59
NtRp317
(dp318
g62
(dp319
sg71
g271
sg64
(lp320
g57
(g78
g59
NtRp321
(dp322
g62
(dp323
g82
g83
ssg71
g317
sg64
(lp324
S'expires'
p325
asbag57
(g78
g59
NtRp326
(dp327
g62
(dp328
g89
g90
ssg71
g317
sg64
(lp329
S':'
asbag57
(g78
g59
NtRp330
(dp331
g62
(dp332
sg71
g317
sg64
(lp333
g57
(g58
g59
NtRp334
(dp335
g62
(dp336
g70
I3
ssg71
g330
sg64
(lp337
S''
asbasbasbag57
(g73
g59
NtRp338
(dp339
g62
(dp340
sg71
g271
sg64
(lp341
g57
(g78
g59
NtRp342
(dp343
g62
(dp344
g82
g83
ssg71
g338
sg64
(lp345
S'httponly'
p346
asbag57
(g78
g59
NtRp347
(dp348
g62
(dp349
g89
g90
ssg71
g338
sg64
(lp350
S':'
asbag57
(g78
g59
NtRp351
(dp352
g62
(dp353
sg71
g338
sg64
(lp354
g57
(g58
g59
NtRp355
(dp356
g62
(dp357
g70
I3
ssg71
g351
sg64
(lp358
S''
asbasbasbag57
(g73
g59
NtRp359
(dp360
g62
(dp361
sg71
g271
sg64
(lp362
g57
(g78
g59
NtRp363
(dp364
g62
(dp365
g82
g83
ssg71
g359
sg64
(lp366
S'max-age'
p367
asbag57
(g78
g59
NtRp368
(dp369
g62
(dp370
g89
g90
ssg71
g359
sg64
(lp371
S':'
asbag57
(g78
g59
NtRp372
(dp373
g62
(dp374
sg71
g359
sg64
(lp375
g57
(g58
g59
NtRp376
(dp377
g62
(dp378
g70
I3
ssg71
g372
sg64
(lp379
S''
asbasbasbag57
(g73
g59
NtRp380
(dp381
g62
(dp382
sg71
g271
sg64
(lp383
g57
(g78
g59
NtRp384
(dp385
g62
(dp386
g82
g83
ssg71
g380
sg64
(lp387
S'path'
p388
asbag57
(g78
g59
NtRp389
(dp390
g62
(dp391
g89
g90
ssg71
g380
sg64
(lp392
S':'
asbag57
(g78
g59
NtRp393
(dp394
g62
(dp395
sg71
g380
sg64
(lp396
g57
(g58
g59
NtRp397
(dp398
g62
(dp399
g70
I3
ssg71
g393
sg64
(lp400
S''
asbasbasbag57
(g73
g59
NtRp401
(dp402
g62
(dp403
sg71
g271
sg64
(lp404
g57
(g78
g59
NtRp405
(dp406
g62
(dp407
g82
g83
ssg71
g401
sg64
(lp408
S'secure'
p409
asbag57
(g78
g59
NtRp410
(dp411
g62
(dp412
g89
g90
ssg71
g401
sg64
(lp413
S':'
asbag57
(g78
g59
NtRp414
(dp415
g62
(dp416
sg71
g401
sg64
(lp417
g57
(g58
g59
NtRp418
(dp419
g62
(dp420
g70
I3
ssg71
g414
sg64
(lp421
S''
asbasbasbag57
(g73
g59
NtRp422
(dp423
g62
(dp424
sg71
g271
sg64
(lp425
g57
(g78
g59
NtRp426
(dp427
g62
(dp428
g82
g83
ssg71
g422
sg64
(lp429
S'version'
p430
asbag57
(g78
g59
NtRp431
(dp432
g62
(dp433
g89
g90
ssg71
g422
sg64
(lp434
S':'
asbag57
(g78
g59
NtRp435
(dp436
g62
(dp437
sg71
g422
sg64
(lp438
g57
(g58
g59
NtRp439
(dp440
g62
(dp441
g70
I3
ssg71
g435
sg64
(lp442
S''
asbasbasbasbasbasbasbag57
(g73
g59
NtRp443
(dp444
g62
(dp445
sg71
g246
sg64
(lp446
g57
(g78
g59
NtRp447
(dp448
g62
(dp449
g82
g83
ssg71
g443
sg64
(lp450
S'session_id_book_shelf_copy'
p451
asbag57
(g78
g59
NtRp452
(dp453
g62
(dp454
g89
g90
ssg71
g443
sg64
(lp455
S':'
asbag57
(g78
g59
NtRp456
(dp457
g62
(dp458
sg71
g443
sg64
(lp459
g57
(g58
g59
NtRp460
(dp461
g62
(dp462
g70
I4
ssg71
g456
sg64
(lp463
g57
(g66
g59
NtRp464
(dp465
g62
(dp466
g70
I3
ssg71
Nsg64
(lp467
g57
(g73
g59
NtRp468
(dp469
g62
(dp470
sg71
g464
sg64
(lp471
g57
(g78
g59
NtRp472
(dp473
g62
(dp474
g82
g83
ssg71
g468
sg64
(lp475
g283
asbag57
(g78
g59
NtRp476
(dp477
g62
(dp478
g89
g90
ssg71
g468
sg64
(lp479
S':'
asbag57
(g78
g59
NtRp480
(dp481
g62
(dp482
sg71
g468
sg64
(lp483
g57
(g58
g59
NtRp484
(dp485
g62
(dp486
g70
I3
ssg71
g480
sg64
(lp487
S''
asbasbasbag57
(g73
g59
NtRp488
(dp489
g62
(dp490
sg71
g464
sg64
(lp491
g57
(g78
g59
NtRp492
(dp493
g62
(dp494
g82
g83
ssg71
g488
sg64
(lp495
g304
asbag57
(g78
g59
NtRp496
(dp497
g62
(dp498
g89
g90
ssg71
g488
sg64
(lp499
S':'
asbag57
(g78
g59
NtRp500
(dp501
g62
(dp502
sg71
g488
sg64
(lp503
g57
(g58
g59
NtRp504
(dp505
g62
(dp506
g70
I3
ssg71
g500
sg64
(lp507
S''
asbasbasbag57
(g73
g59
NtRp508
(dp509
g62
(dp510
sg71
g464
sg64
(lp511
g57
(g78
g59
NtRp512
(dp513
g62
(dp514
g82
g83
ssg71
g508
sg64
(lp515
g325
asbag57
(g78
g59
NtRp516
(dp517
g62
(dp518
g89
g90
ssg71
g508
sg64
(lp519
S':'
asbag57
(g78
g59
NtRp520
(dp521
g62
(dp522
sg71
g508
sg64
(lp523
g57
(g58
g59
NtRp524
(dp525
g62
(dp526
g70
I3
ssg71
g520
sg64
(lp527
S''
asbasbasbag57
(g73
g59
NtRp528
(dp529
g62
(dp530
sg71
g464
sg64
(lp531
g57
(g78
g59
NtRp532
(dp533
g62
(dp534
g82
g83
ssg71
g528
sg64
(lp535
g346
asbag57
(g78
g59
NtRp536
(dp537
g62
(dp538
g89
g90
ssg71
g528
sg64
(lp539
S':'
asbag57
(g78
g59
NtRp540
(dp541
g62
(dp542
sg71
g528
sg64
(lp543
g57
(g58
g59
NtRp544
(dp545
g62
(dp546
g70
I3
ssg71
g540
sg64
(lp547
S''
asbasbasbag57
(g73
g59
NtRp548
(dp549
g62
(dp550
sg71
g464
sg64
(lp551
g57
(g78
g59
NtRp552
(dp553
g62
(dp554
g82
g83
ssg71
g548
sg64
(lp555
g367
asbag57
(g78
g59
NtRp556
(dp557
g62
(dp558
g89
g90
ssg71
g548
sg64
(lp559
S':'
asbag57
(g78
g59
NtRp560
(dp561
g62
(dp562
sg71
g548
sg64
(lp563
g57
(g58
g59
NtRp564
(dp565
g62
(dp566
g70
I3
ssg71
g560
sg64
(lp567
S''
asbasbasbag57
(g73
g59
NtRp568
(dp569
g62
(dp570
sg71
g464
sg64
(lp571
g57
(g78
g59
NtRp572
(dp573
g62
(dp574
g82
g83
ssg71
g568
sg64
(lp575
g388
asbag57
(g78
g59
NtRp576
(dp577
g62
(dp578
g89
g90
ssg71
g568
sg64
(lp579
S':'
asbag57
(g78
g59
NtRp580
(dp581
g62
(dp582
sg71
g568
sg64
(lp583
g57
(g58
g59
NtRp584
(dp585
g62
(dp586
g70
I3
ssg71
g580
sg64
(lp587
S''
asbasbasbag57
(g73
g59
NtRp588
(dp589
g62
(dp590
sg71
g464
sg64
(lp591
g57
(g78
g59
NtRp592
(dp593
g62
(dp594
g82
g83
ssg71
g588
sg64
(lp595
g409
asbag57
(g78
g59
NtRp596
(dp597
g62
(dp598
g89
g90
ssg71
g588
sg64
(lp599
S':'
asbag57
(g78
g59
NtRp600
(dp601
g62
(dp602
sg71
g588
sg64
(lp603
g57
(g58
g59
NtRp604
(dp605
g62
(dp606
g70
I3
ssg71
g600
sg64
(lp607
S''
asbasbasbag57
(g73
g59
NtRp608
(dp609
g62
(dp610
sg71
g464
sg64
(lp611
g57
(g78
g59
NtRp612
(dp613
g62
(dp614
g82
g83
ssg71
g608
sg64
(lp615
g430
asbag57
(g78
g59
NtRp616
(dp617
g62
(dp618
g89
g90
ssg71
g608
sg64
(lp619
S':'
asbag57
(g78
g59
NtRp620
(dp621
g62
(dp622
sg71
g608
sg64
(lp623
g57
(g58
g59
NtRp624
(dp625
g62
(dp626
g70
I3
ssg71
g620
sg64
(lp627
S''
asbasbasbasbasbasbasbag57
(g73
g59
NtRp628
(dp629
g62
(dp630
sg71
g246
sg64
(lp631
g57
(g78
g59
NtRp632
(dp633
g62
(dp634
g82
g83
ssg71
g628
sg64
(lp635
S'session_id_welcome'
p636
asbag57
(g78
g59
NtRp637
(dp638
g62
(dp639
g89
g90
ssg71
g628
sg64
(lp640
S':'
asbag57
(g78
g59
NtRp641
(dp642
g62
(dp643
sg71
g628
sg64
(lp644
g57
(g58
g59
NtRp645
(dp646
g62
(dp647
g70
I4
ssg71
g641
sg64
(lp648
g57
(g66
g59
NtRp649
(dp650
g62
(dp651
g70
I3
ssg71
Nsg64
(lp652
g57
(g73
g59
NtRp653
(dp654
g62
(dp655
sg71
g649
sg64
(lp656
g57
(g78
g59
NtRp657
(dp658
g62
(dp659
g82
g83
ssg71
g653
sg64
(lp660
g283
asbag57
(g78
g59
NtRp661
(dp662
g62
(dp663
g89
g90
ssg71
g653
sg64
(lp664
S':'
asbag57
(g78
g59
NtRp665
(dp666
g62
(dp667
sg71
g653
sg64
(lp668
g57
(g58
g59
NtRp669
(dp670
g62
(dp671
g70
I3
ssg71
g665
sg64
(lp672
S''
asbasbasbag57
(g73
g59
NtRp673
(dp674
g62
(dp675
sg71
g649
sg64
(lp676
g57
(g78
g59
NtRp677
(dp678
g62
(dp679
g82
g83
ssg71
g673
sg64
(lp680
g304
asbag57
(g78
g59
NtRp681
(dp682
g62
(dp683
g89
g90
ssg71
g673
sg64
(lp684
S':'
asbag57
(g78
g59
NtRp685
(dp686
g62
(dp687
sg71
g673
sg64
(lp688
g57
(g58
g59
NtRp689
(dp690
g62
(dp691
g70
I3
ssg71
g685
sg64
(lp692
S''
asbasbasbag57
(g73
g59
NtRp693
(dp694
g62
(dp695
sg71
g649
sg64
(lp696
g57
(g78
g59
NtRp697
(dp698
g62
(dp699
g82
g83
ssg71
g693
sg64
(lp700
g325
asbag57
(g78
g59
NtRp701
(dp702
g62
(dp703
g89
g90
ssg71
g693
sg64
(lp704
S':'
asbag57
(g78
g59
NtRp705
(dp706
g62
(dp707
sg71
g693
sg64
(lp708
g57
(g58
g59
NtRp709
(dp710
g62
(dp711
g70
I3
ssg71
g705
sg64
(lp712
S''
asbasbasbag57
(g73
g59
NtRp713
(dp714
g62
(dp715
sg71
g649
sg64
(lp716
g57
(g78
g59
NtRp717
(dp718
g62
(dp719
g82
g83
ssg71
g713
sg64
(lp720
g346
asbag57
(g78
g59
NtRp721
(dp722
g62
(dp723
g89
g90
ssg71
g713
sg64
(lp724
S':'
asbag57
(g78
g59
NtRp725
(dp726
g62
(dp727
sg71
g713
sg64
(lp728
g57
(g58
g59
NtRp729
(dp730
g62
(dp731
g70
I3
ssg71
g725
sg64
(lp732
S''
asbasbasbag57
(g73
g59
NtRp733
(dp734
g62
(dp735
sg71
g649
sg64
(lp736
g57
(g78
g59
NtRp737
(dp738
g62
(dp739
g82
g83
ssg71
g733
sg64
(lp740
g367
asbag57
(g78
g59
NtRp741
(dp742
g62
(dp743
g89
g90
ssg71
g733
sg64
(lp744
S':'
asbag57
(g78
g59
NtRp745
(dp746
g62
(dp747
sg71
g733
sg64
(lp748
g57
(g58
g59
NtRp749
(dp750
g62
(dp751
g70
I3
ssg71
g745
sg64
(lp752
S''
asbasbasbag57
(g73
g59
NtRp753
(dp754
g62
(dp755
sg71
g649
sg64
(lp756
g57
(g78
g59
NtRp757
(dp758
g62
(dp759
g82
g83
ssg71
g753
sg64
(lp760
g388
asbag57
(g78
g59
NtRp761
(dp762
g62
(dp763
g89
g90
ssg71
g753
sg64
(lp764
S':'
asbag57
(g78
g59
NtRp765
(dp766
g62
(dp767
sg71
g753
sg64
(lp768
g57
(g58
g59
NtRp769
(dp770
g62
(dp771
g70
I3
ssg71
g765
sg64
(lp772
S''
asbasbasbag57
(g73
g59
NtRp773
(dp774
g62
(dp775
sg71
g649
sg64
(lp776
g57
(g78
g59
NtRp777
(dp778
g62
(dp779
g82
g83
ssg71
g773
sg64
(lp780
g409
asbag57
(g78
g59
NtRp781
(dp782
g62
(dp783
g89
g90
ssg71
g773
sg64
(lp784
S':'
asbag57
(g78
g59
NtRp785
(dp786
g62
(dp787
sg71
g773
sg64
(lp788
g57
(g58
g59
NtRp789
(dp790
g62
(dp791
g70
I3
ssg71
g785
sg64
(lp792
S''
asbasbasbag57
(g73
g59
NtRp793
(dp794
g62
(dp795
sg71
g649
sg64
(lp796
g57
(g78
g59
NtRp797
(dp798
g62
(dp799
g82
g83
ssg71
g793
sg64
(lp800
g430
asbag57
(g78
g59
NtRp801
(dp802
g62
(dp803
g89
g90
ssg71
g793
sg64
(lp804
S':'
asbag57
(g78
g59
NtRp805
(dp806
g62
(dp807
sg71
g793
sg64
(lp808
g57
(g58
g59
NtRp809
(dp810
g62
(dp811
g70
I3
ssg71
g805
sg64
(lp812
S''
asbasbasbasbasbasbasbasbasbasbasbag57
(g73
g59
NtRp813
(dp814
g62
(dp815
sg71
g67
sg64
(lp816
g57
(g78
g59
NtRp817
(dp818
g62
(dp819
g82
g83
ssg71
g813
sg64
(lp820
S'env'
p821
asbag57
(g78
g59
NtRp822
(dp823
g62
(dp824
g89
g90
ssg71
g813
sg64
(lp825
S':'
asbag57
(g78
g59
NtRp826
(dp827
g62
(dp828
sg71
g813
sg64
(lp829
g57
(g58
g59
NtRp830
(dp831
g62
(dp832
g70
I5
ssg71
g826
sg64
(lp833
g57
(g66
g59
NtRp834
(dp835
g62
(dp836
g70
I4
ssg71
Nsg64
(lp837
g57
(g73
g59
NtRp838
(dp839
g62
(dp840
sg71
g834
sg64
(lp841
g57
(g78
g59
NtRp842
(dp843
g62
(dp844
g82
g83
ssg71
g838
sg64
(lp845
S'app_folders'
p846
asbag57
(g78
g59
NtRp847
(dp848
g62
(dp849
g89
g90
ssg71
g838
sg64
(lp850
S':'
asbag57
(g78
g59
NtRp851
(dp852
g62
(dp853
sg71
g838
sg64
(lp854
g57
(g58
g59
NtRp855
(dp856
g62
(dp857
g70
I4
ssg71
g851
sg64
(lp858
S"set(['/Users/ianaboneva/Dropbox/DePaul/CSC 438 - Web Applications/web2py/applications/welcome/', '/Users/ianaboneva/Dropbox/DePaul/CSC 438 - Web Applications/web2py/applications/admin/', '/Users/ianaboneva/Dropbox/DePaul/CSC 438 - Web Applications/web2py/applications/Book_Shelf_copy/'])"
p859
asbasbasbag57
(g73
g59
NtRp860
(dp861
g62
(dp862
sg71
g834
sg64
(lp863
g57
(g78
g59
NtRp864
(dp865
g62
(dp866
g82
g83
ssg71
g860
sg64
(lp867
S'applications_parent'
p868
asbag57
(g78
g59
NtRp869
(dp870
g62
(dp871
g89
g90
ssg71
g860
sg64
(lp872
S':'
asbag57
(g78
g59
NtRp873
(dp874
g62
(dp875
sg71
g860
sg64
(lp876
g57
(g58
g59
NtRp877
(dp878
g62
(dp879
g70
I4
ssg71
g873
sg64
(lp880
S'/Users/ianaboneva/Dropbox/DePaul/CSC 438 - Web Applications/web2py'
p881
asbasbasbag57
(g73
g59
NtRp882
(dp883
g62
(dp884
sg71
g834
sg64
(lp885
g57
(g78
g59
NtRp886
(dp887
g62
(dp888
g82
g83
ssg71
g882
sg64
(lp889
S'cmd_args'
p890
asbag57
(g78
g59
NtRp891
(dp892
g62
(dp893
g89
g90
ssg71
g882
sg64
(lp894
S':'
asbag57
(g78
g59
NtRp895
(dp896
g62
(dp897
sg71
g882
sg64
(lp898
g57
(g58
g59
NtRp899
(dp900
g62
(dp901
g70
I4
ssg71
g895
sg64
(lp902
g57
(g66
g59
NtRp903
(dp904
g62
(dp905
g70
I3
ssg71
Nsg64
(lp906
sbasbasbasbag57
(g73
g59
NtRp907
(dp908
g62
(dp909
sg71
g834
sg64
(lp910
g57
(g78
g59
NtRp911
(dp912
g62
(dp913
g82
g83
ssg71
g907
sg64
(lp914
S'cmd_options'
p915
asbag57
(g78
g59
NtRp916
(dp917
g62
(dp918
g89
g90
ssg71
g907
sg64
(lp919
S':'
asbag57
(g78
g59
NtRp920
(dp921
g62
(dp922
sg71
g907
sg64
(lp923
g57
(g58
g59
NtRp924
(dp925
g62
(dp926
g70
I4
ssg71
g920
sg64
(lp927
S"<Values at 0x104fc1b00: {'verbose': False, 'ip': '127.0.0.1', 'shutdown_timeout': 5, 'taskbar': False, 'nocron': False, 'pid_filename': 'httpserver.pid', 'maxthreads': None, 'softcron': False, 'server_name': 'Iana-Bonevas-MacBook-Pro.local', 'bpython': False, 'nogui': False, 'port': 8000, 'extcron': False, 'debuglevel': 30, 'test': None, 'folder': '/Users/ianaboneva/Dropbox/DePaul/CSC 438 - Web Applications/web2py', 'config': '', 'import_models': False, 'winservice': '', 'shell': None, 'run': '', 'log_filename': 'httpserver.log', 'args': [''], 'socket_timeout': 5, 'ssl_ca_certificate': None, 'scheduler': None, 'profiler_filename': None, 'ssl_private_key': '', 'password': '<ask>', 'request_queue_size': 5, 'ssl_certificate': '', 'cronjob': False, 'numthreads': None, 'quiet': False, 'interfaces': None, 'minthreads': None, 'timeout': 10, 'plain': False, 'nobanner': False}>"
p928
asbasbasbag57
(g73
g59
NtRp929
(dp930
g62
(dp931
sg71
g834
sg64
(lp932
g57
(g78
g59
NtRp933
(dp934
g62
(dp935
g82
g83
ssg71
g929
sg64
(lp936
S'db_sessions'
p937
asbag57
(g78
g59
NtRp938
(dp939
g62
(dp940
g89
g90
ssg71
g929
sg64
(lp941
S':'
asbag57
(g78
g59
NtRp942
(dp943
g62
(dp944
sg71
g929
sg64
(lp945
g57
(g58
g59
NtRp946
(dp947
g62
(dp948
g70
I4
ssg71
g942
sg64
(lp949
S'set([])'
p950
asbasbasbag57
(g73
g59
NtRp951
(dp952
g62
(dp953
sg71
g834
sg64
(lp954
g57
(g78
g59
NtRp955
(dp956
g62
(dp957
g82
g83
ssg71
g951
sg64
(lp958
S'debugging'
p959
asbag57
(g78
g59
NtRp960
(dp961
g62
(dp962
g89
g90
ssg71
g951
sg64
(lp963
S':'
asbag57
(g78
g59
NtRp964
(dp965
g62
(dp966
sg71
g951
sg64
(lp967
g57
(g58
g59
NtRp968
(dp969
g62
(dp970
g70
I4
ssg71
g964
sg64
(lp971
g100
asbasbasbag57
(g73
g59
NtRp972
(dp973
g62
(dp974
sg71
g834
sg64
(lp975
g57
(g78
g59
NtRp976
(dp977
g62
(dp978
g82
g83
ssg71
g972
sg64
(lp979
S'gluon_parent'
p980
asbag57
(g78
g59
NtRp981
(dp982
g62
(dp983
g89
g90
ssg71
g972
sg64
(lp984
S':'
asbag57
(g78
g59
NtRp985
(dp986
g62
(dp987
sg71
g972
sg64
(lp988
g57
(g58
g59
NtRp989
(dp990
g62
(dp991
g70
I4
ssg71
g985
sg64
(lp992
S'/Users/ianaboneva/Dropbox/DePaul/CSC 438 - Web Applications/web2py'
p993
asbasbasbag57
(g73
g59
NtRp994
(dp995
g62
(dp996
sg71
g834
sg64
(lp997
g57
(g78
g59
NtRp998
(dp999
g62
(dp1000
g82
g83
ssg71
g994
sg64
(lp1001
S'http_accept'
p1002
asbag57
(g78
g59
NtRp1003
(dp1004
g62
(dp1005
g89
g90
ssg71
g994
sg64
(lp1006
S':'
asbag57
(g78
g59
NtRp1007
(dp1008
g62
(dp1009
sg71
g994
sg64
(lp1010
g57
(g58
g59
NtRp1011
(dp1012
g62
(dp1013
g70
I4
ssg71
g1007
sg64
(lp1014
S'text/html,application/xhtml+xml,application/xml;q=0.9,*/*;q=0.8'
p1015
asbasbasbag57
(g73
g59
NtRp1016
(dp1017
g62
(dp1018
sg71
g834
sg64
(lp1019
g57
(g78
g59
NtRp1020
(dp1021
g62
(dp1022
g82
g83
ssg71
g1016
sg64
(lp1023
S'http_accept_charset'
p1024
asbag57
(g78
g59
NtRp1025
(dp1026
g62
(dp1027
g89
g90
ssg71
g1016
sg64
(lp1028
S':'
asbag57
(g78
g59
NtRp1029
(dp1030
g62
(dp1031
sg71
g1016
sg64
(lp1032
g57
(g58
g59
NtRp1033
(dp1034
g62
(dp1035
g70
I4
ssg71
g1029
sg64
(lp1036
S'ISO-8859-1,utf-8;q=0.7,*;q=0.3'
p1037
asbasbasbag57
(g73
g59
NtRp1038
(dp1039
g62
(dp1040
sg71
g834
sg64
(lp1041
g57
(g78
g59
NtRp1042
(dp1043
g62
(dp1044
g82
g83
ssg71
g1038
sg64
(lp1045
S'http_accept_encoding'
p1046
asbag57
(g78
g59
NtRp1047
(dp1048
g62
(dp1049
g89
g90
ssg71
g1038
sg64
(lp1050
S':'
asbag57
(g78
g59
NtRp1051
(dp1052
g62
(dp1053
sg71
g1038
sg64
(lp1054
g57
(g58
g59
NtRp1055
(dp1056
g62
(dp1057
g70
I4
ssg71
g1051
sg64
(lp1058
S'gzip,deflate,sdch'
p1059
asbasbasbag57
(g73
g59
NtRp1060
(dp1061
g62
(dp1062
sg71
g834
sg64
(lp1063
g57
(g78
g59
NtRp1064
(dp1065
g62
(dp1066
g82
g83
ssg71
g1060
sg64
(lp1067
S'http_accept_language'
p1068
asbag57
(g78
g59
NtRp1069
(dp1070
g62
(dp1071
g89
g90
ssg71
g1060
sg64
(lp1072
S':'
asbag57
(g78
g59
NtRp1073
(dp1074
g62
(dp1075
sg71
g1060
sg64
(lp1076
g57
(g58
g59
NtRp1077
(dp1078
g62
(dp1079
g70
I4
ssg71
g1073
sg64
(lp1080
S'en-US,en;q=0.8'
p1081
asbasbasbag57
(g73
g59
NtRp1082
(dp1083
g62
(dp1084
sg71
g834
sg64
(lp1085
g57
(g78
g59
NtRp1086
(dp1087
g62
(dp1088
g82
g83
ssg71
g1082
sg64
(lp1089
S'http_cache_control'
p1090
asbag57
(g78
g59
NtRp1091
(dp1092
g62
(dp1093
g89
g90
ssg71
g1082
sg64
(lp1094
S':'
asbag57
(g78
g59
NtRp1095
(dp1096
g62
(dp1097
sg71
g1082
sg64
(lp1098
g57
(g58
g59
NtRp1099
(dp1100
g62
(dp1101
g70
I4
ssg71
g1095
sg64
(lp1102
S'max-age=0'
p1103
asbasbasbag57
(g73
g59
NtRp1104
(dp1105
g62
(dp1106
sg71
g834
sg64
(lp1107
g57
(g78
g59
NtRp1108
(dp1109
g62
(dp1110
g82
g83
ssg71
g1104
sg64
(lp1111
S'http_connection'
p1112
asbag57
(g78
g59
NtRp1113
(dp1114
g62
(dp1115
g89
g90
ssg71
g1104
sg64
(lp1116
S':'
asbag57
(g78
g59
NtRp1117
(dp1118
g62
(dp1119
sg71
g1104
sg64
(lp1120
g57
(g58
g59
NtRp1121
(dp1122
g62
(dp1123
g70
I4
ssg71
g1117
sg64
(lp1124
S'keep-alive'
p1125
asbasbasbag57
(g73
g59
NtRp1126
(dp1127
g62
(dp1128
sg71
g834
sg64
(lp1129
g57
(g78
g59
NtRp1130
(dp1131
g62
(dp1132
g82
g83
ssg71
g1126
sg64
(lp1133
S'http_cookie'
p1134
asbag57
(g78
g59
NtRp1135
(dp1136
g62
(dp1137
g89
g90
ssg71
g1126
sg64
(lp1138
S':'
asbag57
(g78
g59
NtRp1139
(dp1140
g62
(dp1141
sg71
g1126
sg64
(lp1142
g57
(g58
g59
NtRp1143
(dp1144
g62
(dp1145
g70
I4
ssg71
g1139
sg64
(lp1146
S'session_id_welcome=127.0.0.1-bffe8a2c-7cac-4fda-8379-2a112ae00c58; session_id_book_shelf_copy=127.0.0.1-eeba29a1-713d-4626-a1ad-4627ea1d2e7a; session_id_admin=127.0.0.1-4c04cc91-8b55-4bcd-8835-a51019000e30'
p1147
asbasbasbag57
(g73
g59
NtRp1148
(dp1149
g62
(dp1150
sg71
g834
sg64
(lp1151
g57
(g78
g59
NtRp1152
(dp1153
g62
(dp1154
g82
g83
ssg71
g1148
sg64
(lp1155
S'http_host'
p1156
asbag57
(g78
g59
NtRp1157
(dp1158
g62
(dp1159
g89
g90
ssg71
g1148
sg64
(lp1160
S':'
asbag57
(g78
g59
NtRp1161
(dp1162
g62
(dp1163
sg71
g1148
sg64
(lp1164
g57
(g58
g59
NtRp1165
(dp1166
g62
(dp1167
g70
I4
ssg71
g1161
sg64
(lp1168
S'127.0.0.1:8000'
p1169
asbasbasbag57
(g73
g59
NtRp1170
(dp1171
g62
(dp1172
sg71
g834
sg64
(lp1173
g57
(g78
g59
NtRp1174
(dp1175
g62
(dp1176
g82
g83
ssg71
g1170
sg64
(lp1177
S'http_user_agent'
p1178
asbag57
(g78
g59
NtRp1179
(dp1180
g62
(dp1181
g89
g90
ssg71
g1170
sg64
(lp1182
S':'
asbag57
(g78
g59
NtRp1183
(dp1184
g62
(dp1185
sg71
g1170
sg64
(lp1186
g57
(g58
g59
NtRp1187
(dp1188
g62
(dp1189
g70
I4
ssg71
g1183
sg64
(lp1190
S'Mozilla/5.0 (Macintosh; Intel Mac OS X 10_7_4) AppleWebKit/536.5 (KHTML, like Gecko) Chrome/19.0.1084.53 Safari/536.5'
p1191
asbasbasbag57
(g73
g59
NtRp1192
(dp1193
g62
(dp1194
sg71
g834
sg64
(lp1195
g57
(g78
g59
NtRp1196
(dp1197
g62
(dp1198
g82
g83
ssg71
g1192
sg64
(lp1199
S'is_jython'
p1200
asbag57
(g78
g59
NtRp1201
(dp1202
g62
(dp1203
g89
g90
ssg71
g1192
sg64
(lp1204
S':'
asbag57
(g78
g59
NtRp1205
(dp1206
g62
(dp1207
sg71
g1192
sg64
(lp1208
g57
(g58
g59
NtRp1209
(dp1210
g62
(dp1211
g70
I4
ssg71
g1205
sg64
(lp1212
g100
asbasbasbag57
(g73
g59
NtRp1213
(dp1214
g62
(dp1215
sg71
g834
sg64
(lp1216
g57
(g78
g59
NtRp1217
(dp1218
g62
(dp1219
g82
g83
ssg71
g1213
sg64
(lp1220
S'is_pypy'
p1221
asbag57
(g78
g59
NtRp1222
(dp1223
g62
(dp1224
g89
g90
ssg71
g1213
sg64
(lp1225
S':'
asbag57
(g78
g59
NtRp1226
(dp1227
g62
(dp1228
sg71
g1213
sg64
(lp1229
g57
(g58
g59
NtRp1230
(dp1231
g62
(dp1232
g70
I4
ssg71
g1226
sg64
(lp1233
g100
asbasbasbag57
(g73
g59
NtRp1234
(dp1235
g62
(dp1236
sg71
g834
sg64
(lp1237
g57
(g78
g59
NtRp1238
(dp1239
g62
(dp1240
g82
g83
ssg71
g1234
sg64
(lp1241
S'path_info'
p1242
asbag57
(g78
g59
NtRp1243
(dp1244
g62
(dp1245
g89
g90
ssg71
g1234
sg64
(lp1246
S':'
asbag57
(g78
g59
NtRp1247
(dp1248
g62
(dp1249
sg71
g1234
sg64
(lp1250
g57
(g58
g59
NtRp1251
(dp1252
g62
(dp1253
g70
I4
ssg71
g1247
sg64
(lp1254
S'/Book_Shelf_copy/default/book_profile/1'
p1255
asbasbasbag57
(g73
g59
NtRp1256
(dp1257
g62
(dp1258
sg71
g834
sg64
(lp1259
g57
(g78
g59
NtRp1260
(dp1261
g62
(dp1262
g82
g83
ssg71
g1256
sg64
(lp1263
S'query_string'
p1264
asbag57
(g78
g59
NtRp1265
(dp1266
g62
(dp1267
g89
g90
ssg71
g1256
sg64
(lp1268
S':'
asbag57
(g78
g59
NtRp1269
(dp1270
g62
(dp1271
sg71
g1256
sg64
(lp1272
g57
(g58
g59
NtRp1273
(dp1274
g62
(dp1275
g70
I4
ssg71
g1269
sg64
(lp1276
S''
asbasbasbag57
(g73
g59
NtRp1277
(dp1278
g62
(dp1279
sg71
g834
sg64
(lp1280
g57
(g78
g59
NtRp1281
(dp1282
g62
(dp1283
g82
g83
ssg71
g1277
sg64
(lp1284
S'remote_addr'
p1285
asbag57
(g78
g59
NtRp1286
(dp1287
g62
(dp1288
g89
g90
ssg71
g1277
sg64
(lp1289
S':'
asbag57
(g78
g59
NtRp1290
(dp1291
g62
(dp1292
sg71
g1277
sg64
(lp1293
g57
(g58
g59
NtRp1294
(dp1295
g62
(dp1296
g70
I4
ssg71
g1290
sg64
(lp1297
g202
asbasbasbag57
(g73
g59
NtRp1298
(dp1299
g62
(dp1300
sg71
g834
sg64
(lp1301
g57
(g78
g59
NtRp1302
(dp1303
g62
(dp1304
g82
g83
ssg71
g1298
sg64
(lp1305
S'remote_port'
p1306
asbag57
(g78
g59
NtRp1307
(dp1308
g62
(dp1309
g89
g90
ssg71
g1298
sg64
(lp1310
S':'
asbag57
(g78
g59
NtRp1311
(dp1312
g62
(dp1313
sg71
g1298
sg64
(lp1314
g57
(g58
g59
NtRp1315
(dp1316
g62
(dp1317
g70
I4
ssg71
g1311
sg64
(lp1318
S'53520'
p1319
asbasbasbag57
(g73
g59
NtRp1320
(dp1321
g62
(dp1322
sg71
g834
sg64
(lp1323
g57
(g78
g59
NtRp1324
(dp1325
g62
(dp1326
g82
g83
ssg71
g1320
sg64
(lp1327
S'request_method'
p1328
asbag57
(g78
g59
NtRp1329
(dp1330
g62
(dp1331
g89
g90
ssg71
g1320
sg64
(lp1332
S':'
asbag57
(g78
g59
NtRp1333
(dp1334
g62
(dp1335
sg71
g1320
sg64
(lp1336
g57
(g58
g59
NtRp1337
(dp1338
g62
(dp1339
g70
I4
ssg71
g1333
sg64
(lp1340
S'GET'
p1341
asbasbasbag57
(g73
g59
NtRp1342
(dp1343
g62
(dp1344
sg71
g834
sg64
(lp1345
g57
(g78
g59
NtRp1346
(dp1347
g62
(dp1348
g82
g83
ssg71
g1342
sg64
(lp1349
S'script_name'
p1350
asbag57
(g78
g59
NtRp1351
(dp1352
g62
(dp1353
g89
g90
ssg71
g1342
sg64
(lp1354
S':'
asbag57
(g78
g59
NtRp1355
(dp1356
g62
(dp1357
sg71
g1342
sg64
(lp1358
g57
(g58
g59
NtRp1359
(dp1360
g62
(dp1361
g70
I4
ssg71
g1355
sg64
(lp1362
S''
asbasbasbag57
(g73
g59
NtRp1363
(dp1364
g62
(dp1365
sg71
g834
sg64
(lp1366
g57
(g78
g59
NtRp1367
(dp1368
g62
(dp1369
g82
g83
ssg71
g1363
sg64
(lp1370
S'server_name'
p1371
asbag57
(g78
g59
NtRp1372
(dp1373
g62
(dp1374
g89
g90
ssg71
g1363
sg64
(lp1375
S':'
asbag57
(g78
g59
NtRp1376
(dp1377
g62
(dp1378
sg71
g1363
sg64
(lp1379
g57
(g58
g59
NtRp1380
(dp1381
g62
(dp1382
g70
I4
ssg71
g1376
sg64
(lp1383
S'Iana-Bonevas-MacBook-Pro.local'
p1384
asbasbasbag57
(g73
g59
NtRp1385
(dp1386
g62
(dp1387
sg71
g834
sg64
(lp1388
g57
(g78
g59
NtRp1389
(dp1390
g62
(dp1391
g82
g83
ssg71
g1385
sg64
(lp1392
S'server_port'
p1393
asbag57
(g78
g59
NtRp1394
(dp1395
g62
(dp1396
g89
g90
ssg71
g1385
sg64
(lp1397
S':'
asbag57
(g78
g59
NtRp1398
(dp1399
g62
(dp1400
sg71
g1385
sg64
(lp1401
g57
(g58
g59
NtRp1402
(dp1403
g62
(dp1404
g70
I4
ssg71
g1398
sg64
(lp1405
S'8000'
p1406
asbasbasbag57
(g73
g59
NtRp1407
(dp1408
g62
(dp1409
sg71
g834
sg64
(lp1410
g57
(g78
g59
NtRp1411
(dp1412
g62
(dp1413
g82
g83
ssg71
g1407
sg64
(lp1414
S'server_protocol'
p1415
asbag57
(g78
g59
NtRp1416
(dp1417
g62
(dp1418
g89
g90
ssg71
g1407
sg64
(lp1419
S':'
asbag57
(g78
g59
NtRp1420
(dp1421
g62
(dp1422
sg71
g1407
sg64
(lp1423
g57
(g58
g59
NtRp1424
(dp1425
g62
(dp1426
g70
I4
ssg71
g1420
sg64
(lp1427
S'HTTP/1.1'
p1428
asbasbasbag57
(g73
g59
NtRp1429
(dp1430
g62
(dp1431
sg71
g834
sg64
(lp1432
g57
(g78
g59
NtRp1433
(dp1434
g62
(dp1435
g82
g83
ssg71
g1429
sg64
(lp1436
S'server_software'
p1437
asbag57
(g78
g59
NtRp1438
(dp1439
g62
(dp1440
g89
g90
ssg71
g1429
sg64
(lp1441
S':'
asbag57
(g78
g59
NtRp1442
(dp1443
g62
(dp1444
sg71
g1429
sg64
(lp1445
g57
(g58
g59
NtRp1446
(dp1447
g62
(dp1448
g70
I4
ssg71
g1442
sg64
(lp1449
S'Rocket 1.2.4'
p1450
asbasbasbag57
(g73
g59
NtRp1451
(dp1452
g62
(dp1453
sg71
g834
sg64
(lp1454
g57
(g78
g59
NtRp1455
(dp1456
g62
(dp1457
g82
g83
ssg71
g1451
sg64
(lp1458
S'web2py_crontype'
p1459
asbag57
(g78
g59
NtRp1460
(dp1461
g62
(dp1462
g89
g90
ssg71
g1451
sg64
(lp1463
S':'
asbag57
(g78
g59
NtRp1464
(dp1465
g62
(dp1466
sg71
g1451
sg64
(lp1467
g57
(g58
g59
NtRp1468
(dp1469
g62
(dp1470
g70
I4
ssg71
g1464
sg64
(lp1471
S'hard'
p1472
asbasbasbag57
(g73
g59
NtRp1473
(dp1474
g62
(dp1475
sg71
g834
sg64
(lp1476
g57
(g78
g59
NtRp1477
(dp1478
g62
(dp1479
g82
g83
ssg71
g1473
sg64
(lp1480
S'web2py_path'
p1481
asbag57
(g78
g59
NtRp1482
(dp1483
g62
(dp1484
g89
g90
ssg71
g1473
sg64
(lp1485
S':'
asbag57
(g78
g59
NtRp1486
(dp1487
g62
(dp1488
sg71
g1473
sg64
(lp1489
g57
(g58
g59
NtRp1490
(dp1491
g62
(dp1492
g70
I4
ssg71
g1486
sg64
(lp1493
g881
asbasbasbag57
(g73
g59
NtRp1494
(dp1495
g62
(dp1496
sg71
g834
sg64
(lp1497
g57
(g78
g59
NtRp1498
(dp1499
g62
(dp1500
g82
g83
ssg71
g1494
sg64
(lp1501
S'web2py_version'
p1502
asbag57
(g78
g59
NtRp1503
(dp1504
g62
(dp1505
g89
g90
ssg71
g1494
sg64
(lp1506
S':'
asbag57
(g78
g59
NtRp1507
(dp1508
g62
(dp1509
sg71
g1494
sg64
(lp1510
g57
(g58
g59
NtRp1511
(dp1512
g62
(dp1513
g70
I4
ssg71
g1507
sg64
(lp1514
g57
(g66
g59
NtRp1515
(dp1516
g62
(dp1517
g70
I3
ssg71
Nsg64
(lp1518
g57
(g73
g59
NtRp1519
(dp1520
g62
(dp1521
sg71
g1515
sg64
(lp1522
g57
(g78
g59
NtRp1523
(dp1524
g62
(dp1525
sg71
g1519
sg64
(lp1526
g57
(g58
g59
NtRp1527
(dp1528
g62
(dp1529
g70
I3
ssg71
g1523
sg64
(lp1530
S'1'
asbasbasbag57
(g73
g59
NtRp1531
(dp1532
g62
(dp1533
sg71
g1515
sg64
(lp1534
g57
(g78
g59
NtRp1535
(dp1536
g62
(dp1537
sg71
g1531
sg64
(lp1538
g57
(g58
g59
NtRp1539
(dp1540
g62
(dp1541
g70
I3
ssg71
g1535
sg64
(lp1542
S'99'
p1543
asbasbasbag57
(g73
g59
NtRp1544
(dp1545
g62
(dp1546
sg71
g1515
sg64
(lp1547
g57
(g78
g59
NtRp1548
(dp1549
g62
(dp1550
sg71
g1544
sg64
(lp1551
g57
(g58
g59
NtRp1552
(dp1553
g62
(dp1554
g70
I3
ssg71
g1548
sg64
(lp1555
S'7'
asbasbasbag57
(g73
g59
NtRp1556
(dp1557
g62
(dp1558
sg71
g1515
sg64
(lp1559
g57
(g78
g59
NtRp1560
(dp1561
g62
(dp1562
sg71
g1556
sg64
(lp1563
g57
(g58
g59
NtRp1564
(dp1565
g62
(dp1566
g70
I3
ssg71
g1560
sg64
(lp1567
S'datetime.datetime(2012, 3, 4, 22, 12, 8)'
p1568
asbasbasbag57
(g73
g59
NtRp1569
(dp1570
g62
(dp1571
sg71
g1515
sg64
(lp1572
g57
(g78
g59
NtRp1573
(dp1574
g62
(dp1575
sg71
g1569
sg64
(lp1576
g57
(g58
g59
NtRp1577
(dp1578
g62
(dp1579
g70
I3
ssg71
g1573
sg64
(lp1580
S'stable'
p1581
asbasbasbasbasbasbasbag57
(g73
g59
NtRp1582
(dp1583
g62
(dp1584
sg71
g834
sg64
(lp1585
g57
(g78
g59
NtRp1586
(dp1587
g62
(dp1588
g82
g83
ssg71
g1582
sg64
(lp1589
S'wsgi_errors'
p1590
asbag57
(g78
g59
NtRp1591
(dp1592
g62
(dp1593
g89
g90
ssg71
g1582
sg64
(lp1594
S':'
asbag57
(g78
g59
NtRp1595
(dp1596
g62
(dp1597
sg71
g1582
sg64
(lp1598
g57
(g58
g59
NtRp1599
(dp1600
g62
(dp1601
g70
I4
ssg71
g1595
sg64
(lp1602
S"<open file '<stderr>', mode 'w' at 0x104484270>"
p1603
asbasbasbag57
(g73
g59
NtRp1604
(dp1605
g62
(dp1606
sg71
g834
sg64
(lp1607
g57
(g78
g59
NtRp1608
(dp1609
g62
(dp1610
g82
g83
ssg71
g1604
sg64
(lp1611
S'wsgi_file_wrapper'
p1612
asbag57
(g78
g59
NtRp1613
(dp1614
g62
(dp1615
g89
g90
ssg71
g1604
sg64
(lp1616
S':'
asbag57
(g78
g59
NtRp1617
(dp1618
g62
(dp1619
sg71
g1604
sg64
(lp1620
g57
(g58
g59
NtRp1621
(dp1622
g62
(dp1623
g70
I4
ssg71
g1617
sg64
(lp1624
S'<class wsgiref.util.FileWrapper at 0x104ebdf58>'
p1625
asbasbasbag57
(g73
g59
NtRp1626
(dp1627
g62
(dp1628
sg71
g834
sg64
(lp1629
g57
(g78
g59
NtRp1630
(dp1631
g62
(dp1632
g82
g83
ssg71
g1626
sg64
(lp1633
S'wsgi_input'
p1634
asbag57
(g78
g59
NtRp1635
(dp1636
g62
(dp1637
g89
g90
ssg71
g1626
sg64
(lp1638
S':'
asbag57
(g78
g59
NtRp1639
(dp1640
g62
(dp1641
sg71
g1626
sg64
(lp1642
g57
(g58
g59
NtRp1643
(dp1644
g62
(dp1645
g70
I4
ssg71
g1639
sg64
(lp1646
S'<socket._fileobject object at 0x10919aed0>'
p1647
asbasbasbag57
(g73
g59
NtRp1648
(dp1649
g62
(dp1650
sg71
g834
sg64
(lp1651
g57
(g78
g59
NtRp1652
(dp1653
g62
(dp1654
g82
g83
ssg71
g1648
sg64
(lp1655
S'wsgi_multiprocess'
p1656
asbag57
(g78
g59
NtRp1657
(dp1658
g62
(dp1659
g89
g90
ssg71
g1648
sg64
(lp1660
S':'
asbag57
(g78
g59
NtRp1661
(dp1662
g62
(dp1663
sg71
g1648
sg64
(lp1664
g57
(g58
g59
NtRp1665
(dp1666
g62
(dp1667
g70
I4
ssg71
g1661
sg64
(lp1668
g100
asbasbasbag57
(g73
g59
NtRp1669
(dp1670
g62
(dp1671
sg71
g834
sg64
(lp1672
g57
(g78
g59
NtRp1673
(dp1674
g62
(dp1675
g82
g83
ssg71
g1669
sg64
(lp1676
S'wsgi_multithread'
p1677
asbag57
(g78
g59
NtRp1678
(dp1679
g62
(dp1680
g89
g90
ssg71
g1669
sg64
(lp1681
S':'
asbag57
(g78
g59
NtRp1682
(dp1683
g62
(dp1684
sg71
g1669
sg64
(lp1685
g57
(g58
g59
NtRp1686
(dp1687
g62
(dp1688
g70
I4
ssg71
g1682
sg64
(lp1689
S'True'
p1690
asbasbasbag57
(g73
g59
NtRp1691
(dp1692
g62
(dp1693
sg71
g834
sg64
(lp1694
g57
(g78
g59
NtRp1695
(dp1696
g62
(dp1697
g82
g83
ssg71
g1691
sg64
(lp1698
S'wsgi_run_once'
p1699
asbag57
(g78
g59
NtRp1700
(dp1701
g62
(dp1702
g89
g90
ssg71
g1691
sg64
(lp1703
S':'
asbag57
(g78
g59
NtRp1704
(dp1705
g62
(dp1706
sg71
g1691
sg64
(lp1707
g57
(g58
g59
NtRp1708
(dp1709
g62
(dp1710
g70
I4
ssg71
g1704
sg64
(lp1711
g100
asbasbasbag57
(g73
g59
NtRp1712
(dp1713
g62
(dp1714
sg71
g834
sg64
(lp1715
g57
(g78
g59
NtRp1716
(dp1717
g62
(dp1718
g82
g83
ssg71
g1712
sg64
(lp1719
S'wsgi_url_scheme'
p1720
asbag57
(g78
g59
NtRp1721
(dp1722
g62
(dp1723
g89
g90
ssg71
g1712
sg64
(lp1724
S':'
asbag57
(g78
g59
NtRp1725
(dp1726
g62
(dp1727
sg71
g1712
sg64
(lp1728
g57
(g58
g59
NtRp1729
(dp1730
g62
(dp1731
g70
I4
ssg71
g1725
sg64
(lp1732
S'http'
p1733
asbasbasbag57
(g73
g59
NtRp1734
(dp1735
g62
(dp1736
sg71
g834
sg64
(lp1737
g57
(g78
g59
NtRp1738
(dp1739
g62
(dp1740
g82
g83
ssg71
g1734
sg64
(lp1741
S'wsgi_version'
p1742
asbag57
(g78
g59
NtRp1743
(dp1744
g62
(dp1745
g89
g90
ssg71
g1734
sg64
(lp1746
S':'
asbag57
(g78
g59
NtRp1747
(dp1748
g62
(dp1749
sg71
g1734
sg64
(lp1750
g57
(g58
g59
NtRp1751
(dp1752
g62
(dp1753
g70
I4
ssg71
g1747
sg64
(lp1754
g57
(g66
g59
NtRp1755
(dp1756
g62
(dp1757
g70
I3
ssg71
Nsg64
(lp1758
g57
(g73
g59
NtRp1759
(dp1760
g62
(dp1761
sg71
g1755
sg64
(lp1762
g57
(g78
g59
NtRp1763
(dp1764
g62
(dp1765
sg71
g1759
sg64
(lp1766
g57
(g58
g59
NtRp1767
(dp1768
g62
(dp1769
g70
I3
ssg71
g1763
sg64
(lp1770
S'1'
asbasbasbag57
(g73
g59
NtRp1771
(dp1772
g62
(dp1773
sg71
g1755
sg64
(lp1774
g57
(g78
g59
NtRp1775
(dp1776
g62
(dp1777
sg71
g1771
sg64
(lp1778
g57
(g58
g59
NtRp1779
(dp1780
g62
(dp1781
g70
I3
ssg71
g1775
sg64
(lp1782
S'0'
asbasbasbasbasbasbasbasbasbasbasbag57
(g73
g59
NtRp1783
(dp1784
g62
(dp1785
sg71
g67
sg64
(lp1786
g57
(g78
g59
NtRp1787
(dp1788
g62
(dp1789
g82
g83
ssg71
g1783
sg64
(lp1790
S'extension'
p1791
asbag57
(g78
g59
NtRp1792
(dp1793
g62
(dp1794
g89
g90
ssg71
g1783
sg64
(lp1795
S':'
asbag57
(g78
g59
NtRp1796
(dp1797
g62
(dp1798
sg71
g1783
sg64
(lp1799
g57
(g58
g59
NtRp1800
(dp1801
g62
(dp1802
g70
I5
ssg71
g1796
sg64
(lp1803
S'html'
p1804
asbasbasbag57
(g73
g59
NtRp1805
(dp1806
g62
(dp1807
sg71
g67
sg64
(lp1808
g57
(g78
g59
NtRp1809
(dp1810
g62
(dp1811
g82
g83
ssg71
g1805
sg64
(lp1812
S'folder'
p1813
asbag57
(g78
g59
NtRp1814
(dp1815
g62
(dp1816
g89
g90
ssg71
g1805
sg64
(lp1817
S':'
asbag57
(g78
g59
NtRp1818
(dp1819
g62
(dp1820
sg71
g1805
sg64
(lp1821
g57
(g58
g59
NtRp1822
(dp1823
g62
(dp1824
g70
I5
ssg71
g1818
sg64
(lp1825
S'/Users/ianaboneva/Dropbox/DePaul/CSC 438 - Web Applications/web2py/applications/Book_Shelf_copy/'
p1826
asbasbasbag57
(g73
g59
NtRp1827
(dp1828
g62
(dp1829
sg71
g67
sg64
(lp1830
g57
(g78
g59
NtRp1831
(dp1832
g62
(dp1833
g82
g83
ssg71
g1827
sg64
(lp1834
S'function'
p1835
asbag57
(g78
g59
NtRp1836
(dp1837
g62
(dp1838
g89
g90
ssg71
g1827
sg64
(lp1839
S':'
asbag57
(g78
g59
NtRp1840
(dp1841
g62
(dp1842
sg71
g1827
sg64
(lp1843
g57
(g58
g59
NtRp1844
(dp1845
g62
(dp1846
g70
I5
ssg71
g1840
sg64
(lp1847
S'book_profile'
p1848
asbasbasbag57
(g73
g59
NtRp1849
(dp1850
g62
(dp1851
sg71
g67
sg64
(lp1852
g57
(g78
g59
NtRp1853
(dp1854
g62
(dp1855
g82
g83
ssg71
g1849
sg64
(lp1856
S'get_vars'
p1857
asbag57
(g78
g59
NtRp1858
(dp1859
g62
(dp1860
g89
g90
ssg71
g1849
sg64
(lp1861
S':'
asbag57
(g78
g59
NtRp1862
(dp1863
g62
(dp1864
sg71
g1849
sg64
(lp1865
g57
(g58
g59
NtRp1866
(dp1867
g62
(dp1868
g70
I5
ssg71
g1862
sg64
(lp1869
g57
(g66
g59
NtRp1870
(dp1871
g62
(dp1872
g70
I4
ssg71
Nsg64
(lp1873
sbasbasbasbag57
(g73
g59
NtRp1874
(dp1875
g62
(dp1876
sg71
g67
sg64
(lp1877
g57
(g78
g59
NtRp1878
(dp1879
g62
(dp1880
g82
g83
ssg71
g1874
sg64
(lp1881
S'global_settings'
p1882
asbag57
(g78
g59
NtRp1883
(dp1884
g62
(dp1885
g89
g90
ssg71
g1874
sg64
(lp1886
S':'
asbag57
(g78
g59
NtRp1887
(dp1888
g62
(dp1889
sg71
g1874
sg64
(lp1890
g57
(g58
g59
NtRp1891
(dp1892
g62
(dp1893
g70
I5
ssg71
g1887
sg64
(lp1894
g57
(g66
g59
NtRp1895
(dp1896
g62
(dp1897
g70
I4
ssg71
Nsg64
(lp1898
g57
(g73
g59
NtRp1899
(dp1900
g62
(dp1901
sg71
g1895
sg64
(lp1902
g57
(g78
g59
NtRp1903
(dp1904
g62
(dp1905
g82
g83
ssg71
g1899
sg64
(lp1906
g846
asbag57
(g78
g59
NtRp1907
(dp1908
g62
(dp1909
g89
g90
ssg71
g1899
sg64
(lp1910
S':'
asbag57
(g78
g59
NtRp1911
(dp1912
g62
(dp1913
sg71
g1899
sg64
(lp1914
g57
(g58
g59
NtRp1915
(dp1916
g62
(dp1917
g70
I4
ssg71
g1911
sg64
(lp1918
S"set(['/Users/ianaboneva/Dropbox/DePaul/CSC 438 - Web Applications/web2py/applications/welcome/', '/Users/ianaboneva/Dropbox/DePaul/CSC 438 - Web Applications/web2py/applications/admin/', '/Users/ianaboneva/Dropbox/DePaul/CSC 438 - Web Applications/web2py/applications/Book_Shelf_copy/'])"
p1919
asbasbasbag57
(g73
g59
NtRp1920
(dp1921
g62
(dp1922
sg71
g1895
sg64
(lp1923
g57
(g78
g59
NtRp1924
(dp1925
g62
(dp1926
g82
g83
ssg71
g1920
sg64
(lp1927
g868
asbag57
(g78
g59
NtRp1928
(dp1929
g62
(dp1930
g89
g90
ssg71
g1920
sg64
(lp1931
S':'
asbag57
(g78
g59
NtRp1932
(dp1933
g62
(dp1934
sg71
g1920
sg64
(lp1935
g57
(g58
g59
NtRp1936
(dp1937
g62
(dp1938
g70
I4
ssg71
g1932
sg64
(lp1939
g881
asbasbasbag57
(g73
g59
NtRp1940
(dp1941
g62
(dp1942
sg71
g1895
sg64
(lp1943
g57
(g78
g59
NtRp1944
(dp1945
g62
(dp1946
g82
g83
ssg71
g1940
sg64
(lp1947
g890
asbag57
(g78
g59
NtRp1948
(dp1949
g62
(dp1950
g89
g90
ssg71
g1940
sg64
(lp1951
S':'
asbag57
(g78
g59
NtRp1952
(dp1953
g62
(dp1954
sg71
g1940
sg64
(lp1955
g57
(g58
g59
NtRp1956
(dp1957
g62
(dp1958
g70
I4
ssg71
g1952
sg64
(lp1959
g57
(g66
g59
NtRp1960
(dp1961
g62
(dp1962
g70
I3
ssg71
Nsg64
(lp1963
sbasbasbasbag57
(g73
g59
NtRp1964
(dp1965
g62
(dp1966
sg71
g1895
sg64
(lp1967
g57
(g78
g59
NtRp1968
(dp1969
g62
(dp1970
g82
g83
ssg71
g1964
sg64
(lp1971
g915
asbag57
(g78
g59
NtRp1972
(dp1973
g62
(dp1974
g89
g90
ssg71
g1964
sg64
(lp1975
S':'
asbag57
(g78
g59
NtRp1976
(dp1977
g62
(dp1978
sg71
g1964
sg64
(lp1979
g57
(g58
g59
NtRp1980
(dp1981
g62
(dp1982
g70
I4
ssg71
g1976
sg64
(lp1983
S"<Values at 0x104fc1b00: {'verbose': False, 'ip': '127.0.0.1', 'shutdown_timeout': 5, 'taskbar': False, 'nocron': False, 'pid_filename': 'httpserver.pid', 'maxthreads': None, 'softcron': False, 'server_name': 'Iana-Bonevas-MacBook-Pro.local', 'bpython': False, 'nogui': False, 'port': 8000, 'extcron': False, 'debuglevel': 30, 'test': None, 'folder': '/Users/ianaboneva/Dropbox/DePaul/CSC 438 - Web Applications/web2py', 'config': '', 'import_models': False, 'winservice': '', 'shell': None, 'run': '', 'log_filename': 'httpserver.log', 'args': [''], 'socket_timeout': 5, 'ssl_ca_certificate': None, 'scheduler': None, 'profiler_filename': None, 'ssl_private_key': '', 'password': '<ask>', 'request_queue_size': 5, 'ssl_certificate': '', 'cronjob': False, 'numthreads': None, 'quiet': False, 'interfaces': None, 'minthreads': None, 'timeout': 10, 'plain': False, 'nobanner': False}>"
p1984
asbasbasbag57
(g73
g59
NtRp1985
(dp1986
g62
(dp1987
sg71
g1895
sg64
(lp1988
g57
(g78
g59
NtRp1989
(dp1990
g62
(dp1991
g82
g83
ssg71
g1985
sg64
(lp1992
g937
asbag57
(g78
g59
NtRp1993
(dp1994
g62
(dp1995
g89
g90
ssg71
g1985
sg64
(lp1996
S':'
asbag57
(g78
g59
NtRp1997
(dp1998
g62
(dp1999
sg71
g1985
sg64
(lp2000
g57
(g58
g59
NtRp2001
(dp2002
g62
(dp2003
g70
I4
ssg71
g1997
sg64
(lp2004
S'set([])'
p2005
asbasbasbag57
(g73
g59
NtRp2006
(dp2007
g62
(dp2008
sg71
g1895
sg64
(lp2009
g57
(g78
g59
NtRp2010
(dp2011
g62
(dp2012
g82
g83
ssg71
g2006
sg64
(lp2013
g959
asbag57
(g78
g59
NtRp2014
(dp2015
g62
(dp2016
g89
g90
ssg71
g2006
sg64
(lp2017
S':'
asbag57
(g78
g59
NtRp2018
(dp2019
g62
(dp2020
sg71
g2006
sg64
(lp2021
g57
(g58
g59
NtRp2022
(dp2023
g62
(dp2024
g70
I4
ssg71
g2018
sg64
(lp2025
g100
asbasbasbag57
(g73
g59
NtRp2026
(dp2027
g62
(dp2028
sg71
g1895
sg64
(lp2029
g57
(g78
g59
NtRp2030
(dp2031
g62
(dp2032
g82
g83
ssg71
g2026
sg64
(lp2033
g980
asbag57
(g78
g59
NtRp2034
(dp2035
g62
(dp2036
g89
g90
ssg71
g2026
sg64
(lp2037
S':'
asbag57
(g78
g59
NtRp2038
(dp2039
g62
(dp2040
sg71
g2026
sg64
(lp2041
g57
(g58
g59
NtRp2042
(dp2043
g62
(dp2044
g70
I4
ssg71
g2038
sg64
(lp2045
g993
asbasbasbag57
(g73
g59
NtRp2046
(dp2047
g62
(dp2048
sg71
g1895
sg64
(lp2049
g57
(g78
g59
NtRp2050
(dp2051
g62
(dp2052
g82
g83
ssg71
g2046
sg64
(lp2053
g1200
asbag57
(g78
g59
NtRp2054
(dp2055
g62
(dp2056
g89
g90
ssg71
g2046
sg64
(lp2057
S':'
asbag57
(g78
g59
NtRp2058
(dp2059
g62
(dp2060
sg71
g2046
sg64
(lp2061
g57
(g58
g59
NtRp2062
(dp2063
g62
(dp2064
g70
I4
ssg71
g2058
sg64
(lp2065
g100
asbasbasbag57
(g73
g59
NtRp2066
(dp2067
g62
(dp2068
sg71
g1895
sg64
(lp2069
g57
(g78
g59
NtRp2070
(dp2071
g62
(dp2072
g82
g83
ssg71
g2066
sg64
(lp2073
g1221
asbag57
(g78
g59
NtRp2074
(dp2075
g62
(dp2076
g89
g90
ssg71
g2066
sg64
(lp2077
S':'
asbag57
(g78
g59
NtRp2078
(dp2079
g62
(dp2080
sg71
g2066
sg64
(lp2081
g57
(g58
g59
NtRp2082
(dp2083
g62
(dp2084
g70
I4
ssg71
g2078
sg64
(lp2085
g100
asbasbasbag57
(g73
g59
NtRp2086
(dp2087
g62
(dp2088
sg71
g1895
sg64
(lp2089
g57
(g78
g59
NtRp2090
(dp2091
g62
(dp2092
g82
g83
ssg71
g2086
sg64
(lp2093
g1459
asbag57
(g78
g59
NtRp2094
(dp2095
g62
(dp2096
g89
g90
ssg71
g2086
sg64
(lp2097
S':'
asbag57
(g78
g59
NtRp2098
(dp2099
g62
(dp2100
sg71
g2086
sg64
(lp2101
g57
(g58
g59
NtRp2102
(dp2103
g62
(dp2104
g70
I4
ssg71
g2098
sg64
(lp2105
g1472
asbasbasbag57
(g73
g59
NtRp2106
(dp2107
g62
(dp2108
sg71
g1895
sg64
(lp2109
g57
(g78
g59
NtRp2110
(dp2111
g62
(dp2112
g82
g83
ssg71
g2106
sg64
(lp2113
g1502
asbag57
(g78
g59
NtRp2114
(dp2115
g62
(dp2116
g89
g90
ssg71
g2106
sg64
(lp2117
S':'
asbag57
(g78
g59
NtRp2118
(dp2119
g62
(dp2120
sg71
g2106
sg64
(lp2121
g57
(g58
g59
NtRp2122
(dp2123
g62
(dp2124
g70
I4
ssg71
g2118
sg64
(lp2125
g57
(g66
g59
NtRp2126
(dp2127
g62
(dp2128
g70
I3
ssg71
Nsg64
(lp2129
g57
(g73
g59
NtRp2130
(dp2131
g62
(dp2132
sg71
g2126
sg64
(lp2133
g57
(g78
g59
NtRp2134
(dp2135
g62
(dp2136
sg71
g2130
sg64
(lp2137
g57
(g58
g59
NtRp2138
(dp2139
g62
(dp2140
g70
I3
ssg71
g2134
sg64
(lp2141
S'1'
asbasbasbag57
(g73
g59
NtRp2142
(dp2143
g62
(dp2144
sg71
g2126
sg64
(lp2145
g57
(g78
g59
NtRp2146
(dp2147
g62
(dp2148
sg71
g2142
sg64
(lp2149
g57
(g58
g59
NtRp2150
(dp2151
g62
(dp2152
g70
I3
ssg71
g2146
sg64
(lp2153
S'99'
p2154
asbasbasbag57
(g73
g59
NtRp2155
(dp2156
g62
(dp2157
sg71
g2126
sg64
(lp2158
g57
(g78
g59
NtRp2159
(dp2160
g62
(dp2161
sg71
g2155
sg64
(lp2162
g57
(g58
g59
NtRp2163
(dp2164
g62
(dp2165
g70
I3
ssg71
g2159
sg64
(lp2166
S'7'
asbasbasbag57
(g73
g59
NtRp2167
(dp2168
g62
(dp2169
sg71
g2126
sg64
(lp2170
g57
(g78
g59
NtRp2171
(dp2172
g62
(dp2173
sg71
g2167
sg64
(lp2174
g57
(g58
g59
NtRp2175
(dp2176
g62
(dp2177
g70
I3
ssg71
g2171
sg64
(lp2178
S'datetime.datetime(2012, 3, 4, 22, 12, 8)'
p2179
asbasbasbag57
(g73
g59
NtRp2180
(dp2181
g62
(dp2182
sg71
g2126
sg64
(lp2183
g57
(g78
g59
NtRp2184
(dp2185
g62
(dp2186
sg71
g2180
sg64
(lp2187
g57
(g58
g59
NtRp2188
(dp2189
g62
(dp2190
g70
I3
ssg71
g2184
sg64
(lp2191
g1581
asbasbasbasbasbasbasbasbasbasbasbag57
(g73
g59
NtRp2192
(dp2193
g62
(dp2194
sg71
g67
sg64
(lp2195
g57
(g78
g59
NtRp2196
(dp2197
g62
(dp2198
g82
g83
ssg71
g2192
sg64
(lp2199
S'is_https'
p2200
asbag57
(g78
g59
NtRp2201
(dp2202
g62
(dp2203
g89
g90
ssg71
g2192
sg64
(lp2204
S':'
asbag57
(g78
g59
NtRp2205
(dp2206
g62
(dp2207
sg71
g2192
sg64
(lp2208
g57
(g58
g59
NtRp2209
(dp2210
g62
(dp2211
g70
I5
ssg71
g2205
sg64
(lp2212
g100
asbasbasbag57
(g73
g59
NtRp2213
(dp2214
g62
(dp2215
sg71
g67
sg64
(lp2216
g57
(g78
g59
NtRp2217
(dp2218
g62
(dp2219
g82
g83
ssg71
g2213
sg64
(lp2220
S'is_local'
p2221
asbag57
(g78
g59
NtRp2222
(dp2223
g62
(dp2224
g89
g90
ssg71
g2213
sg64
(lp2225
S':'
asbag57
(g78
g59
NtRp2226
(dp2227
g62
(dp2228
sg71
g2213
sg64
(lp2229
g57
(g58
g59
NtRp2230
(dp2231
g62
(dp2232
g70
I5
ssg71
g2226
sg64
(lp2233
g1690
asbasbasbag57
(g73
g59
NtRp2234
(dp2235
g62
(dp2236
sg71
g67
sg64
(lp2237
g57
(g78
g59
NtRp2238
(dp2239
g62
(dp2240
g82
g83
ssg71
g2234
sg64
(lp2241
S'is_restful'
p2242
asbag57
(g78
g59
NtRp2243
(dp2244
g62
(dp2245
g89
g90
ssg71
g2234
sg64
(lp2246
S':'
asbag57
(g78
g59
NtRp2247
(dp2248
g62
(dp2249
sg71
g2234
sg64
(lp2250
g57
(g58
g59
NtRp2251
(dp2252
g62
(dp2253
g70
I5
ssg71
g2247
sg64
(lp2254
g100
asbasbasbag57
(g73
g59
NtRp2255
(dp2256
g62
(dp2257
sg71
g67
sg64
(lp2258
g57
(g78
g59
NtRp2259
(dp2260
g62
(dp2261
g82
g83
ssg71
g2255
sg64
(lp2262
S'now'
p2263
asbag57
(g78
g59
NtRp2264
(dp2265
g62
(dp2266
g89
g90
ssg71
g2255
sg64
(lp2267
S':'
asbag57
(g78
g59
NtRp2268
(dp2269
g62
(dp2270
sg71
g2255
sg64
(lp2271
g57
(g58
g59
NtRp2272
(dp2273
g62
(dp2274
g70
I5
ssg71
g2268
sg64
(lp2275
S'datetime.datetime(2012, 6, 3, 17, 43, 25, 916407)'
p2276
asbasbasbag57
(g73
g59
NtRp2277
(dp2278
g62
(dp2279
sg71
g67
sg64
(lp2280
g57
(g78
g59
NtRp2281
(dp2282
g62
(dp2283
g82
g83
ssg71
g2277
sg64
(lp2284
S'post_vars'
p2285
asbag57
(g78
g59
NtRp2286
(dp2287
g62
(dp2288
g89
g90
ssg71
g2277
sg64
(lp2289
S':'
asbag57
(g78
g59
NtRp2290
(dp2291
g62
(dp2292
sg71
g2277
sg64
(lp2293
g57
(g58
g59
NtRp2294
(dp2295
g62
(dp2296
g70
I5
ssg71
g2290
sg64
(lp2297
g57
(g66
g59
NtRp2298
(dp2299
g62
(dp2300
g70
I4
ssg71
Nsg64
(lp2301
sbasbasbasbag57
(g73
g59
NtRp2302
(dp2303
g62
(dp2304
sg71
g67
sg64
(lp2305
g57
(g78
g59
NtRp2306
(dp2307
g62
(dp2308
g82
g83
ssg71
g2302
sg64
(lp2309
S'raw_args'
p2310
asbag57
(g78
g59
NtRp2311
(dp2312
g62
(dp2313
g89
g90
ssg71
g2302
sg64
(lp2314
S':'
asbag57
(g78
g59
NtRp2315
(dp2316
g62
(dp2317
sg71
g2302
sg64
(lp2318
g57
(g58
g59
NtRp2319
(dp2320
g62
(dp2321
g70
I5
ssg71
g2315
sg64
(lp2322
S'1'
asbasbasbag57
(g73
g59
NtRp2323
(dp2324
g62
(dp2325
sg71
g67
sg64
(lp2326
g57
(g78
g59
NtRp2327
(dp2328
g62
(dp2329
g82
g83
ssg71
g2323
sg64
(lp2330
S'url'
p2331
asbag57
(g78
g59
NtRp2332
(dp2333
g62
(dp2334
g89
g90
ssg71
g2323
sg64
(lp2335
S':'
asbag57
(g78
g59
NtRp2336
(dp2337
g62
(dp2338
sg71
g2323
sg64
(lp2339
g57
(g58
g59
NtRp2340
(dp2341
g62
(dp2342
g70
I5
ssg71
g2336
sg64
(lp2343
S'/Book_Shelf_copy/default/book_profile/1'
p2344
asbasbasbag57
(g73
g59
NtRp2345
(dp2346
g62
(dp2347
sg71
g67
sg64
(lp2348
g57
(g78
g59
NtRp2349
(dp2350
g62
(dp2351
g82
g83
ssg71
g2345
sg64
(lp2352
S'utcnow'
p2353
asbag57
(g78
g59
NtRp2354
(dp2355
g62
(dp2356
g89
g90
ssg71
g2345
sg64
(lp2357
S':'
asbag57
(g78
g59
NtRp2358
(dp2359
g62
(dp2360
sg71
g2345
sg64
(lp2361
g57
(g58
g59
NtRp2362
(dp2363
g62
(dp2364
g70
I5
ssg71
g2358
sg64
(lp2365
S'datetime.datetime(2012, 6, 3, 22, 43, 25, 916424)'
p2366
asbasbasbag57
(g73
g59
NtRp2367
(dp2368
g62
(dp2369
sg71
g67
sg64
(lp2370
g57
(g78
g59
NtRp2371
(dp2372
g62
(dp2373
g82
g83
ssg71
g2367
sg64
(lp2374
S'uuid'
p2375
asbag57
(g78
g59
NtRp2376
(dp2377
g62
(dp2378
g89
g90
ssg71
g2367
sg64
(lp2379
S':'
asbag57
(g78
g59
NtRp2380
(dp2381
g62
(dp2382
sg71
g2367
sg64
(lp2383
g57
(g58
g59
NtRp2384
(dp2385
g62
(dp2386
g70
I5
ssg71
g2380
sg64
(lp2387
S'Book_Shelf_copy/127.0.0.1.2012-06-03.17-43-25.8acf38b3-0b47-40d8-8441-d7c79667b99e'
p2388
asbasbasbag57
(g73
g59
NtRp2389
(dp2390
g62
(dp2391
sg71
g67
sg64
(lp2392
g57
(g78
g59
NtRp2393
(dp2394
g62
(dp2395
g82
g83
ssg71
g2389
sg64
(lp2396
S'vars'
p2397
asbag57
(g78
g59
NtRp2398
(dp2399
g62
(dp2400
g89
g90
ssg71
g2389
sg64
(lp2401
S':'
asbag57
(g78
g59
NtRp2402
(dp2403
g62
(dp2404
sg71
g2389
sg64
(lp2405
g57
(g58
g59
NtRp2406
(dp2407
g62
(dp2408
g70
I5
ssg71
g2402
sg64
(lp2409
g57
(g66
g59
NtRp2410
(dp2411
g62
(dp2412
g70
I4
ssg71
Nsg64
(lp2413
sbasbasbasbag57
(g73
g59
NtRp2414
(dp2415
g62
(dp2416
sg71
g67
sg64
(lp2417
g57
(g78
g59
NtRp2418
(dp2419
g62
(dp2420
g82
g83
ssg71
g2414
sg64
(lp2421
S'wsgi'
p2422
asbag57
(g78
g59
NtRp2423
(dp2424
g62
(dp2425
g89
g90
ssg71
g2414
sg64
(lp2426
S':'
asbag57
(g78
g59
NtRp2427
(dp2428
g62
(dp2429
sg71
g2414
sg64
(lp2430
g57
(g58
g59
NtRp2431
(dp2432
g62
(dp2433
g70
I5
ssg71
g2427
sg64
(lp2434
g57
(g66
g59
NtRp2435
(dp2436
g62
(dp2437
g70
I4
ssg71
Nsg64
(lp2438
g57
(g73
g59
NtRp2439
(dp2440
g62
(dp2441
sg71
g2435
sg64
(lp2442
g57
(g78
g59
NtRp2443
(dp2444
g62
(dp2445
g82
g83
ssg71
g2439
sg64
(lp2446
S'environ'
p2447
asbag57
(g78
g59
NtRp2448
(dp2449
g62
(dp2450
g89
g90
ssg71
g2439
sg64
(lp2451
S':'
asbag57
(g78
g59
NtRp2452
(dp2453
g62
(dp2454
sg71
g2439
sg64
(lp2455
g57
(g58
g59
NtRp2456
(dp2457
g62
(dp2458
g70
I4
ssg71
g2452
sg64
(lp2459
g57
(g66
g59
NtRp2460
(dp2461
g62
(dp2462
g70
I3
ssg71
Nsg64
(lp2463
g57
(g73
g59
NtRp2464
(dp2465
g62
(dp2466
sg71
g2460
sg64
(lp2467
g57
(g78
g59
NtRp2468
(dp2469
g62
(dp2470
g82
g83
ssg71
g2464
sg64
(lp2471
S'HTTP_ACCEPT'
p2472
asbag57
(g78
g59
NtRp2473
(dp2474
g62
(dp2475
g89
g90
ssg71
g2464
sg64
(lp2476
S':'
asbag57
(g78
g59
NtRp2477
(dp2478
g62
(dp2479
sg71
g2464
sg64
(lp2480
g57
(g58
g59
NtRp2481
(dp2482
g62
(dp2483
g70
I3
ssg71
g2477
sg64
(lp2484
g1015
asbasbasbag57
(g73
g59
NtRp2485
(dp2486
g62
(dp2487
sg71
g2460
sg64
(lp2488
g57
(g78
g59
NtRp2489
(dp2490
g62
(dp2491
g82
g83
ssg71
g2485
sg64
(lp2492
S'HTTP_ACCEPT_CHARSET'
p2493
asbag57
(g78
g59
NtRp2494
(dp2495
g62
(dp2496
g89
g90
ssg71
g2485
sg64
(lp2497
S':'
asbag57
(g78
g59
NtRp2498
(dp2499
g62
(dp2500
sg71
g2485
sg64
(lp2501
g57
(g58
g59
NtRp2502
(dp2503
g62
(dp2504
g70
I3
ssg71
g2498
sg64
(lp2505
g1037
asbasbasbag57
(g73
g59
NtRp2506
(dp2507
g62
(dp2508
sg71
g2460
sg64
(lp2509
g57
(g78
g59
NtRp2510
(dp2511
g62
(dp2512
g82
g83
ssg71
g2506
sg64
(lp2513
S'HTTP_ACCEPT_ENCODING'
p2514
asbag57
(g78
g59
NtRp2515
(dp2516
g62
(dp2517
g89
g90
ssg71
g2506
sg64
(lp2518
S':'
asbag57
(g78
g59
NtRp2519
(dp2520
g62
(dp2521
sg71
g2506
sg64
(lp2522
g57
(g58
g59
NtRp2523
(dp2524
g62
(dp2525
g70
I3
ssg71
g2519
sg64
(lp2526
g1059
asbasbasbag57
(g73
g59
NtRp2527
(dp2528
g62
(dp2529
sg71
g2460
sg64
(lp2530
g57
(g78
g59
NtRp2531
(dp2532
g62
(dp2533
g82
g83
ssg71
g2527
sg64
(lp2534
S'HTTP_ACCEPT_LANGUAGE'
p2535
asbag57
(g78
g59
NtRp2536
(dp2537
g62
(dp2538
g89
g90
ssg71
g2527
sg64
(lp2539
S':'
asbag57
(g78
g59
NtRp2540
(dp2541
g62
(dp2542
sg71
g2527
sg64
(lp2543
g57
(g58
g59
NtRp2544
(dp2545
g62
(dp2546
g70
I3
ssg71
g2540
sg64
(lp2547
g1081
asbasbasbag57
(g73
g59
NtRp2548
(dp2549
g62
(dp2550
sg71
g2460
sg64
(lp2551
g57
(g78
g59
NtRp2552
(dp2553
g62
(dp2554
g82
g83
ssg71
g2548
sg64
(lp2555
S'HTTP_CACHE_CONTROL'
p2556
asbag57
(g78
g59
NtRp2557
(dp2558
g62
(dp2559
g89
g90
ssg71
g2548
sg64
(lp2560
S':'
asbag57
(g78
g59
NtRp2561
(dp2562
g62
(dp2563
sg71
g2548
sg64
(lp2564
g57
(g58
g59
NtRp2565
(dp2566
g62
(dp2567
g70
I3
ssg71
g2561
sg64
(lp2568
g1103
asbasbasbag57
(g73
g59
NtRp2569
(dp2570
g62
(dp2571
sg71
g2460
sg64
(lp2572
g57
(g78
g59
NtRp2573
(dp2574
g62
(dp2575
g82
g83
ssg71
g2569
sg64
(lp2576
S'HTTP_CONNECTION'
p2577
asbag57
(g78
g59
NtRp2578
(dp2579
g62
(dp2580
g89
g90
ssg71
g2569
sg64
(lp2581
S':'
asbag57
(g78
g59
NtRp2582
(dp2583
g62
(dp2584
sg71
g2569
sg64
(lp2585
g57
(g58
g59
NtRp2586
(dp2587
g62
(dp2588
g70
I3
ssg71
g2582
sg64
(lp2589
g1125
asbasbasbag57
(g73
g59
NtRp2590
(dp2591
g62
(dp2592
sg71
g2460
sg64
(lp2593
g57
(g78
g59
NtRp2594
(dp2595
g62
(dp2596
g82
g83
ssg71
g2590
sg64
(lp2597
S'HTTP_COOKIE'
p2598
asbag57
(g78
g59
NtRp2599
(dp2600
g62
(dp2601
g89
g90
ssg71
g2590
sg64
(lp2602
S':'
asbag57
(g78
g59
NtRp2603
(dp2604
g62
(dp2605
sg71
g2590
sg64
(lp2606
g57
(g58
g59
NtRp2607
(dp2608
g62
(dp2609
g70
I3
ssg71
g2603
sg64
(lp2610
g1147
asbasbasbag57
(g73
g59
NtRp2611
(dp2612
g62
(dp2613
sg71
g2460
sg64
(lp2614
g57
(g78
g59
NtRp2615
(dp2616
g62
(dp2617
g82
g83
ssg71
g2611
sg64
(lp2618
S'HTTP_HOST'
p2619
asbag57
(g78
g59
NtRp2620
(dp2621
g62
(dp2622
g89
g90
ssg71
g2611
sg64
(lp2623
S':'
asbag57
(g78
g59
NtRp2624
(dp2625
g62
(dp2626
sg71
g2611
sg64
(lp2627
g57
(g58
g59
NtRp2628
(dp2629
g62
(dp2630
g70
I3
ssg71
g2624
sg64
(lp2631
g1169
asbasbasbag57
(g73
g59
NtRp2632
(dp2633
g62
(dp2634
sg71
g2460
sg64
(lp2635
g57
(g78
g59
NtRp2636
(dp2637
g62
(dp2638
g82
g83
ssg71
g2632
sg64
(lp2639
S'HTTP_USER_AGENT'
p2640
asbag57
(g78
g59
NtRp2641
(dp2642
g62
(dp2643
g89
g90
ssg71
g2632
sg64
(lp2644
S':'
asbag57
(g78
g59
NtRp2645
(dp2646
g62
(dp2647
sg71
g2632
sg64
(lp2648
g57
(g58
g59
NtRp2649
(dp2650
g62
(dp2651
g70
I3
ssg71
g2645
sg64
(lp2652
g1191
asbasbasbag57
(g73
g59
NtRp2653
(dp2654
g62
(dp2655
sg71
g2460
sg64
(lp2656
g57
(g78
g59
NtRp2657
(dp2658
g62
(dp2659
g82
g83
ssg71
g2653
sg64
(lp2660
S'PATH_INFO'
p2661
asbag57
(g78
g59
NtRp2662
(dp2663
g62
(dp2664
g89
g90
ssg71
g2653
sg64
(lp2665
S':'
asbag57
(g78
g59
NtRp2666
(dp2667
g62
(dp2668
sg71
g2653
sg64
(lp2669
g57
(g58
g59
NtRp2670
(dp2671
g62
(dp2672
g70
I3
ssg71
g2666
sg64
(lp2673
g1255
asbasbasbag57
(g73
g59
NtRp2674
(dp2675
g62
(dp2676
sg71
g2460
sg64
(lp2677
g57
(g78
g59
NtRp2678
(dp2679
g62
(dp2680
g82
g83
ssg71
g2674
sg64
(lp2681
S'QUERY_STRING'
p2682
asbag57
(g78
g59
NtRp2683
(dp2684
g62
(dp2685
g89
g90
ssg71
g2674
sg64
(lp2686
S':'
asbag57
(g78
g59
NtRp2687
(dp2688
g62
(dp2689
sg71
g2674
sg64
(lp2690
g57
(g58
g59
NtRp2691
(dp2692
g62
(dp2693
g70
I3
ssg71
g2687
sg64
(lp2694
S''
asbasbasbag57
(g73
g59
NtRp2695
(dp2696
g62
(dp2697
sg71
g2460
sg64
(lp2698
g57
(g78
g59
NtRp2699
(dp2700
g62
(dp2701
g82
g83
ssg71
g2695
sg64
(lp2702
S'REMOTE_ADDR'
p2703
asbag57
(g78
g59
NtRp2704
(dp2705
g62
(dp2706
g89
g90
ssg71
g2695
sg64
(lp2707
S':'
asbag57
(g78
g59
NtRp2708
(dp2709
g62
(dp2710
sg71
g2695
sg64
(lp2711
g57
(g58
g59
NtRp2712
(dp2713
g62
(dp2714
g70
I3
ssg71
g2708
sg64
(lp2715
g202
asbasbasbag57
(g73
g59
NtRp2716
(dp2717
g62
(dp2718
sg71
g2460
sg64
(lp2719
g57
(g78
g59
NtRp2720
(dp2721
g62
(dp2722
g82
g83
ssg71
g2716
sg64
(lp2723
S'REMOTE_PORT'
p2724
asbag57
(g78
g59
NtRp2725
(dp2726
g62
(dp2727
g89
g90
ssg71
g2716
sg64
(lp2728
S':'
asbag57
(g78
g59
NtRp2729
(dp2730
g62
(dp2731
sg71
g2716
sg64
(lp2732
g57
(g58
g59
NtRp2733
(dp2734
g62
(dp2735
g70
I3
ssg71
g2729
sg64
(lp2736
g1319
asbasbasbag57
(g73
g59
NtRp2737
(dp2738
g62
(dp2739
sg71
g2460
sg64
(lp2740
g57
(g78
g59
NtRp2741
(dp2742
g62
(dp2743
g82
g83
ssg71
g2737
sg64
(lp2744
S'REQUEST_METHOD'
p2745
asbag57
(g78
g59
NtRp2746
(dp2747
g62
(dp2748
g89
g90
ssg71
g2737
sg64
(lp2749
S':'
asbag57
(g78
g59
NtRp2750
(dp2751
g62
(dp2752
sg71
g2737
sg64
(lp2753
g57
(g58
g59
NtRp2754
(dp2755
g62
(dp2756
g70
I3
ssg71
g2750
sg64
(lp2757
g1341
asbasbasbag57
(g73
g59
NtRp2758
(dp2759
g62
(dp2760
sg71
g2460
sg64
(lp2761
g57
(g78
g59
NtRp2762
(dp2763
g62
(dp2764
g82
g83
ssg71
g2758
sg64
(lp2765
S'SCRIPT_NAME'
p2766
asbag57
(g78
g59
NtRp2767
(dp2768
g62
(dp2769
g89
g90
ssg71
g2758
sg64
(lp2770
S':'
asbag57
(g78
g59
NtRp2771
(dp2772
g62
(dp2773
sg71
g2758
sg64
(lp2774
g57
(g58
g59
NtRp2775
(dp2776
g62
(dp2777
g70
I3
ssg71
g2771
sg64
(lp2778
S''
asbasbasbag57
(g73
g59
NtRp2779
(dp2780
g62
(dp2781
sg71
g2460
sg64
(lp2782
g57
(g78
g59
NtRp2783
(dp2784
g62
(dp2785
g82
g83
ssg71
g2779
sg64
(lp2786
S'SERVER_NAME'
p2787
asbag57
(g78
g59
NtRp2788
(dp2789
g62
(dp2790
g89
g90
ssg71
g2779
sg64
(lp2791
S':'
asbag57
(g78
g59
NtRp2792
(dp2793
g62
(dp2794
sg71
g2779
sg64
(lp2795
g57
(g58
g59
NtRp2796
(dp2797
g62
(dp2798
g70
I3
ssg71
g2792
sg64
(lp2799
g1384
asbasbasbag57
(g73
g59
NtRp2800
(dp2801
g62
(dp2802
sg71
g2460
sg64
(lp2803
g57
(g78
g59
NtRp2804
(dp2805
g62
(dp2806
g82
g83
ssg71
g2800
sg64
(lp2807
S'SERVER_PORT'
p2808
asbag57
(g78
g59
NtRp2809
(dp2810
g62
(dp2811
g89
g90
ssg71
g2800
sg64
(lp2812
S':'
asbag57
(g78
g59
NtRp2813
(dp2814
g62
(dp2815
sg71
g2800
sg64
(lp2816
g57
(g58
g59
NtRp2817
(dp2818
g62
(dp2819
g70
I3
ssg71
g2813
sg64
(lp2820
g1406
asbasbasbag57
(g73
g59
NtRp2821
(dp2822
g62
(dp2823
sg71
g2460
sg64
(lp2824
g57
(g78
g59
NtRp2825
(dp2826
g62
(dp2827
g82
g83
ssg71
g2821
sg64
(lp2828
S'SERVER_PROTOCOL'
p2829
asbag57
(g78
g59
NtRp2830
(dp2831
g62
(dp2832
g89
g90
ssg71
g2821
sg64
(lp2833
S':'
asbag57
(g78
g59
NtRp2834
(dp2835
g62
(dp2836
sg71
g2821
sg64
(lp2837
g57
(g58
g59
NtRp2838
(dp2839
g62
(dp2840
g70
I3
ssg71
g2834
sg64
(lp2841
g1428
asbasbasbag57
(g73
g59
NtRp2842
(dp2843
g62
(dp2844
sg71
g2460
sg64
(lp2845
g57
(g78
g59
NtRp2846
(dp2847
g62
(dp2848
g82
g83
ssg71
g2842
sg64
(lp2849
S'SERVER_SOFTWARE'
p2850
asbag57
(g78
g59
NtRp2851
(dp2852
g62
(dp2853
g89
g90
ssg71
g2842
sg64
(lp2854
S':'
asbag57
(g78
g59
NtRp2855
(dp2856
g62
(dp2857
sg71
g2842
sg64
(lp2858
g57
(g58
g59
NtRp2859
(dp2860
g62
(dp2861
g70
I3
ssg71
g2855
sg64
(lp2862
g1450
asbasbasbag57
(g73
g59
NtRp2863
(dp2864
g62
(dp2865
sg71
g2460
sg64
(lp2866
g57
(g78
g59
NtRp2867
(dp2868
g62
(dp2869
g82
g83
ssg71
g2863
sg64
(lp2870
S'wsgi.errors'
p2871
asbag57
(g78
g59
NtRp2872
(dp2873
g62
(dp2874
g89
g90
ssg71
g2863
sg64
(lp2875
S':'
asbag57
(g78
g59
NtRp2876
(dp2877
g62
(dp2878
sg71
g2863
sg64
(lp2879
g57
(g58
g59
NtRp2880
(dp2881
g62
(dp2882
g70
I3
ssg71
g2876
sg64
(lp2883
S"<open file '<stderr>', mode 'w' at 0x104484270>"
p2884
asbasbasbag57
(g73
g59
NtRp2885
(dp2886
g62
(dp2887
sg71
g2460
sg64
(lp2888
g57
(g78
g59
NtRp2889
(dp2890
g62
(dp2891
g82
g83
ssg71
g2885
sg64
(lp2892
S'wsgi.file_wrapper'
p2893
asbag57
(g78
g59
NtRp2894
(dp2895
g62
(dp2896
g89
g90
ssg71
g2885
sg64
(lp2897
S':'
asbag57
(g78
g59
NtRp2898
(dp2899
g62
(dp2900
sg71
g2885
sg64
(lp2901
g57
(g58
g59
NtRp2902
(dp2903
g62
(dp2904
g70
I3
ssg71
g2898
sg64
(lp2905
S'<class wsgiref.util.FileWrapper at 0x104ebdf58>'
p2906
asbasbasbag57
(g73
g59
NtRp2907
(dp2908
g62
(dp2909
sg71
g2460
sg64
(lp2910
g57
(g78
g59
NtRp2911
(dp2912
g62
(dp2913
g82
g83
ssg71
g2907
sg64
(lp2914
S'wsgi.input'
p2915
asbag57
(g78
g59
NtRp2916
(dp2917
g62
(dp2918
g89
g90
ssg71
g2907
sg64
(lp2919
S':'
asbag57
(g78
g59
NtRp2920
(dp2921
g62
(dp2922
sg71
g2907
sg64
(lp2923
g57
(g58
g59
NtRp2924
(dp2925
g62
(dp2926
g70
I3
ssg71
g2920
sg64
(lp2927
S'<cStringIO.StringO object at 0x109e13378>'
p2928
asbasbasbag57
(g73
g59
NtRp2929
(dp2930
g62
(dp2931
sg71
g2460
sg64
(lp2932
g57
(g78
g59
NtRp2933
(dp2934
g62
(dp2935
g82
g83
ssg71
g2929
sg64
(lp2936
S'wsgi.multiprocess'
p2937
asbag57
(g78
g59
NtRp2938
(dp2939
g62
(dp2940
g89
g90
ssg71
g2929
sg64
(lp2941
S':'
asbag57
(g78
g59
NtRp2942
(dp2943
g62
(dp2944
sg71
g2929
sg64
(lp2945
g57
(g58
g59
NtRp2946
(dp2947
g62
(dp2948
g70
I3
ssg71
g2942
sg64
(lp2949
g100
asbasbasbag57
(g73
g59
NtRp2950
(dp2951
g62
(dp2952
sg71
g2460
sg64
(lp2953
g57
(g78
g59
NtRp2954
(dp2955
g62
(dp2956
g82
g83
ssg71
g2950
sg64
(lp2957
S'wsgi.multithread'
p2958
asbag57
(g78
g59
NtRp2959
(dp2960
g62
(dp2961
g89
g90
ssg71
g2950
sg64
(lp2962
S':'
asbag57
(g78
g59
NtRp2963
(dp2964
g62
(dp2965
sg71
g2950
sg64
(lp2966
g57
(g58
g59
NtRp2967
(dp2968
g62
(dp2969
g70
I3
ssg71
g2963
sg64
(lp2970
g1690
asbasbasbag57
(g73
g59
NtRp2971
(dp2972
g62
(dp2973
sg71
g2460
sg64
(lp2974
g57
(g78
g59
NtRp2975
(dp2976
g62
(dp2977
g82
g83
ssg71
g2971
sg64
(lp2978
S'wsgi.run_once'
p2979
asbag57
(g78
g59
NtRp2980
(dp2981
g62
(dp2982
g89
g90
ssg71
g2971
sg64
(lp2983
S':'
asbag57
(g78
g59
NtRp2984
(dp2985
g62
(dp2986
sg71
g2971
sg64
(lp2987
g57
(g58
g59
NtRp2988
(dp2989
g62
(dp2990
g70
I3
ssg71
g2984
sg64
(lp2991
g100
asbasbasbag57
(g73
g59
NtRp2992
(dp2993
g62
(dp2994
sg71
g2460
sg64
(lp2995
g57
(g78
g59
NtRp2996
(dp2997
g62
(dp2998
g82
g83
ssg71
g2992
sg64
(lp2999
S'wsgi.url_scheme'
p3000
asbag57
(g78
g59
NtRp3001
(dp3002
g62
(dp3003
g89
g90
ssg71
g2992
sg64
(lp3004
S':'
asbag57
(g78
g59
NtRp3005
(dp3006
g62
(dp3007
sg71
g2992
sg64
(lp3008
g57
(g58
g59
NtRp3009
(dp3010
g62
(dp3011
g70
I3
ssg71
g3005
sg64
(lp3012
g1733
asbasbasbag57
(g73
g59
NtRp3013
(dp3014
g62
(dp3015
sg71
g2460
sg64
(lp3016
g57
(g78
g59
NtRp3017
(dp3018
g62
(dp3019
g82
g83
ssg71
g3013
sg64
(lp3020
S'wsgi.version'
p3021
asbag57
(g78
g59
NtRp3022
(dp3023
g62
(dp3024
g89
g90
ssg71
g3013
sg64
(lp3025
S':'
asbag57
(g78
g59
NtRp3026
(dp3027
g62
(dp3028
sg71
g3013
sg64
(lp3029
g57
(g58
g59
NtRp3030
(dp3031
g62
(dp3032
g70
I3
ssg71
g3026
sg64
(lp3033
S'1'
asbasbasbasbasbasbasbasbasbasbasbasbasbsS'frames'
p3034
(lp3035
(dp3036
S'file'
p3037
S'/Users/ianaboneva/Dropbox/DePaul/CSC 438 - Web Applications/web2py/gluon/restricted.py'
p3038
sS'dump'
p3039
(dp3040
S'environment'
p3041
S"{'A': <class 'gluon.html.A'>, 'Auth': <class 'gluon.tools.Auth'>, 'B': <class 'gluon.html.B'>, 'BEAUTIFY': <class 'gluon.html.BEAUTIFY'>, 'BODY': <class 'gluon.html.BODY'>, 'BR': <class 'gluon.html.BR'>, 'BUTTON': <class 'gluon.html.BUTTON'>, 'CAT': <class 'gluon.html.CAT'>, 'CENTER': <class 'gluon.html.CENTER'>, 'CLEANUP': <class 'gluon.validators.CLEANUP'>, ...}"
p3042
sS'ccode'
p3043
S'<code object <module> at 0x109f6b6b0, file "/Use...lf_copy/views/default/book_profile.html", line 1>'
p3044
ssS'lnum'
p3045
I205
sS'lines'
p3046
(dp3047
I200
S'    try:'
p3048
sI201
S'        if type(code) == types.CodeType:'
p3049
sI202
S'            ccode = code'
p3050
sI203
S'        else:'
p3051
sI204
S'            ccode = compile2(code,layer)'
p3052
sI205
S'        exec ccode in environment'
p3053
sI206
S'    except HTTP:'
p3054
sI207
S'        raise'
p3055
sI208
S'    except RestrictedError:'
p3056
sI209
S'        # do not encapsulate (obfuscate) the original RestrictedError'
p3057
ssS'call'
p3058
S'(code=r"response.write(\'<!DOCTYPE html>\\n<!-- paulirish....ponse.write(\'\\n</body>\\n</html>\\n\', escape=False)", environment={\'A\': <class \'gluon.html.A\'>, \'Auth\': <class \'gluon.tools.Auth\'>, \'B\': <class \'gluon.html.B\'>, \'BEAUTIFY\': <class \'gluon.html.BEAUTIFY\'>, \'BODY\': <class \'gluon.html.BODY\'>, \'BR\': <class \'gluon.html.BR\'>, \'BUTTON\': <class \'gluon.html.BUTTON\'>, \'CAT\': <class \'gluon.html.CAT\'>, \'CENTER\': <class \'gluon.html.CENTER\'>, \'CLEANUP\': <class \'gluon.validators.CLEANUP\'>, ...}, layer=\'/Users/ianaboneva/Dropbox/DePaul/CSC 438 - Web A...s/Book_Shelf_copy/views/default/book_profile.html\')'
p3059
sS'func'
p3060
S'restricted'
p3061
sa(dp3062
g3037
S'/Users/ianaboneva/Dropbox/DePaul/CSC 438 - Web Applications/web2py/applications/Book_Shelf_copy/views/default/book_profile.html'
p3063
sg3039
(dp3064
sg3045
I104
sg3046
(dp3065
I96
S'        pass'
p3066
sI97
S"    response.write('\\n', escape=False)"
p3067
sI98
S'else:'
p3068
sI99
S"    response.write('\\n    <p>no profiles that match</p>\\n', escape=False)"
p3069
sI100
S'    pass'
p3070
sI101
S"response.write('\\n\\n', escape=False)"
p3071
sI102
S'if len(book):'
p3072
sI103
S"    response.write('\\n    \\t<table>\\n    \\t<tr>\\n    \\t<td>Title: </td>\\n        <td>', escape=False)"
p3073
sI104
S'    response.write(book.Title)'
p3074
sI105
S"    response.write('</td>\\n        </tr>\\n    \\t<tr>\\n    \\t<td>Author: </td>\\n        <td>', escape=False)"
p3075
sI106
S'    response.write(book.Author)'
p3076
sI107
S"    response.write('</td>\\n        </tr>\\n        <tr>\\n    \\t<td>Genre: </td>\\n        <td>', escape=False)"
p3077
sI108
S'    response.write(book.Genre)'
p3078
sI109
S"    response.write('</td>\\n        </tr>\\n    </table>\\n', escape=False)"
p3079
sI110
S'else:'
p3080
sI111
S"    response.write('\\n    <p>no profiles that match</p>\\n', escape=False)"
p3081
sI112
S'    pass'
p3082
sI113
S"response.write('\\n\\n', escape=False)"
p3083
sI114
S"response.write('\\n          ', escape=False)"
p3084
sI95
S"        response.write('</td>\\n        </tr>\\n    </table>\\n    ', escape=False)"
p3085
ssg3058
S'()'
p3086
sg3060
S'<module>'
p3087
sasS'pyver'
p3088
S'Python 2.7.1: /usr/bin/python'
p3089
sS'session'
p3090
g57
(g58
g59
NtRp3091
(dp3092
g62
(dp3093
sg64
(lp3094
g57
(g66
g59
NtRp3095
(dp3096
g62
(dp3097
g70
I5
ssg71
Nsg64
(lp3098
g57
(g73
g59
NtRp3099
(dp3100
g62
(dp3101
sg71
g3095
sg64
(lp3102
g57
(g78
g59
NtRp3103
(dp3104
g62
(dp3105
g82
g83
ssg71
g3099
sg64
(lp3106
S'auth'
p3107
asbag57
(g78
g59
NtRp3108
(dp3109
g62
(dp3110
g89
g90
ssg71
g3099
sg64
(lp3111
S':'
asbag57
(g78
g59
NtRp3112
(dp3113
g62
(dp3114
sg71
g3099
sg64
(lp3115
g57
(g58
g59
NtRp3116
(dp3117
g62
(dp3118
g70
I5
ssg71
g3112
sg64
(lp3119
g57
(g66
g59
NtRp3120
(dp3121
g62
(dp3122
g70
I4
ssg71
Nsg64
(lp3123
g57
(g73
g59
NtRp3124
(dp3125
g62
(dp3126
sg71
g3120
sg64
(lp3127
g57
(g78
g59
NtRp3128
(dp3129
g62
(dp3130
g82
g83
ssg71
g3124
sg64
(lp3131
S'expiration'
p3132
asbag57
(g78
g59
NtRp3133
(dp3134
g62
(dp3135
g89
g90
ssg71
g3124
sg64
(lp3136
S':'
asbag57
(g78
g59
NtRp3137
(dp3138
g62
(dp3139
sg71
g3124
sg64
(lp3140
g57
(g58
g59
NtRp3141
(dp3142
g62
(dp3143
g70
I4
ssg71
g3137
sg64
(lp3144
S'3600'
p3145
asbasbasbag57
(g73
g59
NtRp3146
(dp3147
g62
(dp3148
sg71
g3120
sg64
(lp3149
g57
(g78
g59
NtRp3150
(dp3151
g62
(dp3152
g82
g83
ssg71
g3146
sg64
(lp3153
S'hmac_key'
p3154
asbag57
(g78
g59
NtRp3155
(dp3156
g62
(dp3157
g89
g90
ssg71
g3146
sg64
(lp3158
S':'
asbag57
(g78
g59
NtRp3159
(dp3160
g62
(dp3161
sg71
g3146
sg64
(lp3162
g57
(g58
g59
NtRp3163
(dp3164
g62
(dp3165
g70
I4
ssg71
g3159
sg64
(lp3166
S'6d65ccff-e9f9-4a04-a10d-f39c9767a83a'
p3167
asbasbasbag57
(g73
g59
NtRp3168
(dp3169
g62
(dp3170
sg71
g3120
sg64
(lp3171
g57
(g78
g59
NtRp3172
(dp3173
g62
(dp3174
g82
g83
ssg71
g3168
sg64
(lp3175
S'last_visit'
p3176
asbag57
(g78
g59
NtRp3177
(dp3178
g62
(dp3179
g89
g90
ssg71
g3168
sg64
(lp3180
S':'
asbag57
(g78
g59
NtRp3181
(dp3182
g62
(dp3183
sg71
g3168
sg64
(lp3184
g57
(g58
g59
NtRp3185
(dp3186
g62
(dp3187
g70
I4
ssg71
g3181
sg64
(lp3188
S'datetime.datetime(2012, 6, 3, 17, 43, 25, 916407)'
p3189
asbasbasbag57
(g73
g59
NtRp3190
(dp3191
g62
(dp3192
sg71
g3120
sg64
(lp3193
g57
(g78
g59
NtRp3194
(dp3195
g62
(dp3196
g82
g83
ssg71
g3190
sg64
(lp3197
S'remember'
p3198
asbag57
(g78
g59
NtRp3199
(dp3200
g62
(dp3201
g89
g90
ssg71
g3190
sg64
(lp3202
S':'
asbag57
(g78
g59
NtRp3203
(dp3204
g62
(dp3205
sg71
g3190
sg64
(lp3206
g57
(g58
g59
NtRp3207
(dp3208
g62
(dp3209
g70
I4
ssg71
g3203
sg64
(lp3210
g100
asbasbasbag57
(g73
g59
NtRp3211
(dp3212
g62
(dp3213
sg71
g3120
sg64
(lp3214
g57
(g78
g59
NtRp3215
(dp3216
g62
(dp3217
g82
g83
ssg71
g3211
sg64
(lp3218
S'user'
p3219
asbag57
(g78
g59
NtRp3220
(dp3221
g62
(dp3222
g89
g90
ssg71
g3211
sg64
(lp3223
S':'
asbag57
(g78
g59
NtRp3224
(dp3225
g62
(dp3226
sg71
g3211
sg64
(lp3227
g57
(g58
g59
NtRp3228
(dp3229
g62
(dp3230
g70
I4
ssg71
g3224
sg64
(lp3231
g57
(g66
g59
NtRp3232
(dp3233
g62
(dp3234
g70
I3
ssg71
Nsg64
(lp3235
g57
(g73
g59
NtRp3236
(dp3237
g62
(dp3238
sg71
g3232
sg64
(lp3239
g57
(g78
g59
NtRp3240
(dp3241
g62
(dp3242
g82
g83
ssg71
g3236
sg64
(lp3243
S'email'
p3244
asbag57
(g78
g59
NtRp3245
(dp3246
g62
(dp3247
g89
g90
ssg71
g3236
sg64
(lp3248
S':'
asbag57
(g78
g59
NtRp3249
(dp3250
g62
(dp3251
sg71
g3236
sg64
(lp3252
g57
(g58
g59
NtRp3253
(dp3254
g62
(dp3255
g70
I3
ssg71
g3249
sg64
(lp3256
S'haha@haha.com'
p3257
asbasbasbag57
(g73
g59
NtRp3258
(dp3259
g62
(dp3260
sg71
g3232
sg64
(lp3261
g57
(g78
g59
NtRp3262
(dp3263
g62
(dp3264
g82
g83
ssg71
g3258
sg64
(lp3265
S'first_name'
p3266
asbag57
(g78
g59
NtRp3267
(dp3268
g62
(dp3269
g89
g90
ssg71
g3258
sg64
(lp3270
S':'
asbag57
(g78
g59
NtRp3271
(dp3272
g62
(dp3273
sg71
g3258
sg64
(lp3274
g57
(g58
g59
NtRp3275
(dp3276
g62
(dp3277
g70
I3
ssg71
g3271
sg64
(lp3278
S'Iana'
p3279
asbasbasbag57
(g73
g59
NtRp3280
(dp3281
g62
(dp3282
sg71
g3232
sg64
(lp3283
g57
(g78
g59
NtRp3284
(dp3285
g62
(dp3286
g82
g83
ssg71
g3280
sg64
(lp3287
S'id'
p3288
asbag57
(g78
g59
NtRp3289
(dp3290
g62
(dp3291
g89
g90
ssg71
g3280
sg64
(lp3292
S':'
asbag57
(g78
g59
NtRp3293
(dp3294
g62
(dp3295
sg71
g3280
sg64
(lp3296
g57
(g58
g59
NtRp3297
(dp3298
g62
(dp3299
g70
I3
ssg71
g3293
sg64
(lp3300
S'2'
asbasbasbag57
(g73
g59
NtRp3301
(dp3302
g62
(dp3303
sg71
g3232
sg64
(lp3304
g57
(g78
g59
NtRp3305
(dp3306
g62
(dp3307
g82
g83
ssg71
g3301
sg64
(lp3308
S'last_name'
p3309
asbag57
(g78
g59
NtRp3310
(dp3311
g62
(dp3312
g89
g90
ssg71
g3301
sg64
(lp3313
S':'
asbag57
(g78
g59
NtRp3314
(dp3315
g62
(dp3316
sg71
g3301
sg64
(lp3317
g57
(g58
g59
NtRp3318
(dp3319
g62
(dp3320
g70
I3
ssg71
g3314
sg64
(lp3321
S'Boneva'
p3322
asbasbasbag57
(g73
g59
NtRp3323
(dp3324
g62
(dp3325
sg71
g3232
sg64
(lp3326
g57
(g78
g59
NtRp3327
(dp3328
g62
(dp3329
g82
g83
ssg71
g3323
sg64
(lp3330
S'password'
p3331
asbag57
(g78
g59
NtRp3332
(dp3333
g62
(dp3334
g89
g90
ssg71
g3323
sg64
(lp3335
S':'
asbag57
(g78
g59
NtRp3336
(dp3337
g62
(dp3338
sg71
g3323
sg64
(lp3339
g57
(g58
g59
NtRp3340
(dp3341
g62
(dp3342
g70
I3
ssg71
g3336
sg64
(lp3343
S'be570e8e7b9bbc17c5aecccf653fd3d3'
p3344
asbasbasbag57
(g73
g59
NtRp3345
(dp3346
g62
(dp3347
sg71
g3232
sg64
(lp3348
g57
(g78
g59
NtRp3349
(dp3350
g62
(dp3351
g82
g83
ssg71
g3345
sg64
(lp3352
S'registration_id'
p3353
asbag57
(g78
g59
NtRp3354
(dp3355
g62
(dp3356
g89
g90
ssg71
g3345
sg64
(lp3357
S':'
asbag57
(g78
g59
NtRp3358
(dp3359
g62
(dp3360
sg71
g3345
sg64
(lp3361
g57
(g58
g59
NtRp3362
(dp3363
g62
(dp3364
g70
I3
ssg71
g3358
sg64
(lp3365
S''
asbasbasbag57
(g73
g59
NtRp3366
(dp3367
g62
(dp3368
sg71
g3232
sg64
(lp3369
g57
(g78
g59
NtRp3370
(dp3371
g62
(dp3372
g82
g83
ssg71
g3366
sg64
(lp3373
S'registration_key'
p3374
asbag57
(g78
g59
NtRp3375
(dp3376
g62
(dp3377
g89
g90
ssg71
g3366
sg64
(lp3378
S':'
asbag57
(g78
g59
NtRp3379
(dp3380
g62
(dp3381
sg71
g3366
sg64
(lp3382
g57
(g58
g59
NtRp3383
(dp3384
g62
(dp3385
g70
I3
ssg71
g3379
sg64
(lp3386
S''
asbasbasbag57
(g73
g59
NtRp3387
(dp3388
g62
(dp3389
sg71
g3232
sg64
(lp3390
g57
(g78
g59
NtRp3391
(dp3392
g62
(dp3393
g82
g83
ssg71
g3387
sg64
(lp3394
S'reset_password_key'
p3395
asbag57
(g78
g59
NtRp3396
(dp3397
g62
(dp3398
g89
g90
ssg71
g3387
sg64
(lp3399
S':'
asbag57
(g78
g59
NtRp3400
(dp3401
g62
(dp3402
sg71
g3387
sg64
(lp3403
g57
(g58
g59
NtRp3404
(dp3405
g62
(dp3406
g70
I3
ssg71
g3400
sg64
(lp3407
S''
asbasbasbasbasbasbasbag57
(g73
g59
NtRp3408
(dp3409
g62
(dp3410
sg71
g3120
sg64
(lp3411
g57
(g78
g59
NtRp3412
(dp3413
g62
(dp3414
g82
g83
ssg71
g3408
sg64
(lp3415
S'user_groups'
p3416
asbag57
(g78
g59
NtRp3417
(dp3418
g62
(dp3419
g89
g90
ssg71
g3408
sg64
(lp3420
S':'
asbag57
(g78
g59
NtRp3421
(dp3422
g62
(dp3423
sg71
g3408
sg64
(lp3424
g57
(g58
g59
NtRp3425
(dp3426
g62
(dp3427
g70
I4
ssg71
g3421
sg64
(lp3428
g57
(g66
g59
NtRp3429
(dp3430
g62
(dp3431
g70
I3
ssg71
Nsg64
(lp3432
g57
(g73
g59
NtRp3433
(dp3434
g62
(dp3435
sg71
g3429
sg64
(lp3436
g57
(g78
g59
NtRp3437
(dp3438
g62
(dp3439
g82
g83
ssg71
g3433
sg64
(lp3440
S'2'
asbag57
(g78
g59
NtRp3441
(dp3442
g62
(dp3443
g89
g90
ssg71
g3433
sg64
(lp3444
S':'
asbag57
(g78
g59
NtRp3445
(dp3446
g62
(dp3447
sg71
g3433
sg64
(lp3448
g57
(g58
g59
NtRp3449
(dp3450
g62
(dp3451
g70
I3
ssg71
g3445
sg64
(lp3452
S'user_2'
p3453
asbasbasbasbasbasbasbasbasbasbasbag57
(g73
g59
NtRp3454
(dp3455
g62
(dp3456
sg71
g3095
sg64
(lp3457
g57
(g78
g59
NtRp3458
(dp3459
g62
(dp3460
g82
g83
ssg71
g3454
sg64
(lp3461
S'last_query'
p3462
asbag57
(g78
g59
NtRp3463
(dp3464
g62
(dp3465
g89
g90
ssg71
g3454
sg64
(lp3466
S':'
asbag57
(g78
g59
NtRp3467
(dp3468
g62
(dp3469
sg71
g3454
sg64
(lp3470
g57
(g58
g59
NtRp3471
(dp3472
g62
(dp3473
g70
I5
ssg71
g3467
sg64
(lp3474
S'db.Book_Profile.id>0'
p3475
asbasbasbasbasbsS'etype'
p3476
S"<type 'exceptions.AttributeError'>"
p3477
sS'date'
p3478
S'Sun Jun  3 17:43:25 2012'
p3479
sS'response'
p3480
g57
(g58
g59
NtRp3481
(dp3482
g62
(dp3483
sg64
(lp3484
g57
(g66
g59
NtRp3485
(dp3486
g62
(dp3487
g70
I5
ssg71
Nsg64
(lp3488
g57
(g73
g59
NtRp3489
(dp3490
g62
(dp3491
sg71
g3485
sg64
(lp3492
g57
(g78
g59
NtRp3493
(dp3494
g62
(dp3495
g82
g83
ssg71
g3489
sg64
(lp3496
g167
asbag57
(g78
g59
NtRp3497
(dp3498
g62
(dp3499
g89
g90
ssg71
g3489
sg64
(lp3500
S':'
asbag57
(g78
g59
NtRp3501
(dp3502
g62
(dp3503
sg71
g3489
sg64
(lp3504
g57
(g58
g59
NtRp3505
(dp3506
g62
(dp3507
g70
I5
ssg71
g3501
sg64
(lp3508
S'<cStringIO.StringO object at 0x109e92148>'
p3509
asbasbasbag57
(g73
g59
NtRp3510
(dp3511
g62
(dp3512
sg71
g3485
sg64
(lp3513
g57
(g78
g59
NtRp3514
(dp3515
g62
(dp3516
g82
g83
ssg71
g3510
sg64
(lp3517
g233
asbag57
(g78
g59
NtRp3518
(dp3519
g62
(dp3520
g89
g90
ssg71
g3510
sg64
(lp3521
S':'
asbag57
(g78
g59
NtRp3522
(dp3523
g62
(dp3524
sg71
g3510
sg64
(lp3525
g57
(g58
g59
NtRp3526
(dp3527
g62
(dp3528
g70
I5
ssg71
g3522
sg64
(lp3529
g57
(g66
g59
NtRp3530
(dp3531
g62
(dp3532
g70
I4
ssg71
Nsg64
(lp3533
g57
(g73
g59
NtRp3534
(dp3535
g62
(dp3536
sg71
g3530
sg64
(lp3537
g57
(g78
g59
NtRp3538
(dp3539
g62
(dp3540
g82
g83
ssg71
g3534
sg64
(lp3541
S'session_id_book_shelf_copy'
p3542
asbag57
(g78
g59
NtRp3543
(dp3544
g62
(dp3545
g89
g90
ssg71
g3534
sg64
(lp3546
S':'
asbag57
(g78
g59
NtRp3547
(dp3548
g62
(dp3549
sg71
g3534
sg64
(lp3550
g57
(g58
g59
NtRp3551
(dp3552
g62
(dp3553
g70
I4
ssg71
g3547
sg64
(lp3554
g57
(g66
g59
NtRp3555
(dp3556
g62
(dp3557
g70
I3
ssg71
Nsg64
(lp3558
g57
(g73
g59
NtRp3559
(dp3560
g62
(dp3561
sg71
g3555
sg64
(lp3562
g57
(g78
g59
NtRp3563
(dp3564
g62
(dp3565
g82
g83
ssg71
g3559
sg64
(lp3566
g283
asbag57
(g78
g59
NtRp3567
(dp3568
g62
(dp3569
g89
g90
ssg71
g3559
sg64
(lp3570
S':'
asbag57
(g78
g59
NtRp3571
(dp3572
g62
(dp3573
sg71
g3559
sg64
(lp3574
g57
(g58
g59
NtRp3575
(dp3576
g62
(dp3577
g70
I3
ssg71
g3571
sg64
(lp3578
S''
asbasbasbag57
(g73
g59
NtRp3579
(dp3580
g62
(dp3581
sg71
g3555
sg64
(lp3582
g57
(g78
g59
NtRp3583
(dp3584
g62
(dp3585
g82
g83
ssg71
g3579
sg64
(lp3586
g304
asbag57
(g78
g59
NtRp3587
(dp3588
g62
(dp3589
g89
g90
ssg71
g3579
sg64
(lp3590
S':'
asbag57
(g78
g59
NtRp3591
(dp3592
g62
(dp3593
sg71
g3579
sg64
(lp3594
g57
(g58
g59
NtRp3595
(dp3596
g62
(dp3597
g70
I3
ssg71
g3591
sg64
(lp3598
S''
asbasbasbag57
(g73
g59
NtRp3599
(dp3600
g62
(dp3601
sg71
g3555
sg64
(lp3602
g57
(g78
g59
NtRp3603
(dp3604
g62
(dp3605
g82
g83
ssg71
g3599
sg64
(lp3606
g325
asbag57
(g78
g59
NtRp3607
(dp3608
g62
(dp3609
g89
g90
ssg71
g3599
sg64
(lp3610
S':'
asbag57
(g78
g59
NtRp3611
(dp3612
g62
(dp3613
sg71
g3599
sg64
(lp3614
g57
(g58
g59
NtRp3615
(dp3616
g62
(dp3617
g70
I3
ssg71
g3611
sg64
(lp3618
S''
asbasbasbag57
(g73
g59
NtRp3619
(dp3620
g62
(dp3621
sg71
g3555
sg64
(lp3622
g57
(g78
g59
NtRp3623
(dp3624
g62
(dp3625
g82
g83
ssg71
g3619
sg64
(lp3626
g346
asbag57
(g78
g59
NtRp3627
(dp3628
g62
(dp3629
g89
g90
ssg71
g3619
sg64
(lp3630
S':'
asbag57
(g78
g59
NtRp3631
(dp3632
g62
(dp3633
sg71
g3619
sg64
(lp3634
g57
(g58
g59
NtRp3635
(dp3636
g62
(dp3637
g70
I3
ssg71
g3631
sg64
(lp3638
S''
asbasbasbag57
(g73
g59
NtRp3639
(dp3640
g62
(dp3641
sg71
g3555
sg64
(lp3642
g57
(g78
g59
NtRp3643
(dp3644
g62
(dp3645
g82
g83
ssg71
g3639
sg64
(lp3646
g367
asbag57
(g78
g59
NtRp3647
(dp3648
g62
(dp3649
g89
g90
ssg71
g3639
sg64
(lp3650
S':'
asbag57
(g78
g59
NtRp3651
(dp3652
g62
(dp3653
sg71
g3639
sg64
(lp3654
g57
(g58
g59
NtRp3655
(dp3656
g62
(dp3657
g70
I3
ssg71
g3651
sg64
(lp3658
S''
asbasbasbag57
(g73
g59
NtRp3659
(dp3660
g62
(dp3661
sg71
g3555
sg64
(lp3662
g57
(g78
g59
NtRp3663
(dp3664
g62
(dp3665
g82
g83
ssg71
g3659
sg64
(lp3666
g388
asbag57
(g78
g59
NtRp3667
(dp3668
g62
(dp3669
g89
g90
ssg71
g3659
sg64
(lp3670
S':'
asbag57
(g78
g59
NtRp3671
(dp3672
g62
(dp3673
sg71
g3659
sg64
(lp3674
g57
(g58
g59
NtRp3675
(dp3676
g62
(dp3677
g70
I3
ssg71
g3671
sg64
(lp3678
S'/'
asbasbasbag57
(g73
g59
NtRp3679
(dp3680
g62
(dp3681
sg71
g3555
sg64
(lp3682
g57
(g78
g59
NtRp3683
(dp3684
g62
(dp3685
g82
g83
ssg71
g3679
sg64
(lp3686
g409
asbag57
(g78
g59
NtRp3687
(dp3688
g62
(dp3689
g89
g90
ssg71
g3679
sg64
(lp3690
S':'
asbag57
(g78
g59
NtRp3691
(dp3692
g62
(dp3693
sg71
g3679
sg64
(lp3694
g57
(g58
g59
NtRp3695
(dp3696
g62
(dp3697
g70
I3
ssg71
g3691
sg64
(lp3698
S''
asbasbasbag57
(g73
g59
NtRp3699
(dp3700
g62
(dp3701
sg71
g3555
sg64
(lp3702
g57
(g78
g59
NtRp3703
(dp3704
g62
(dp3705
g82
g83
ssg71
g3699
sg64
(lp3706
g430
asbag57
(g78
g59
NtRp3707
(dp3708
g62
(dp3709
g89
g90
ssg71
g3699
sg64
(lp3710
S':'
asbag57
(g78
g59
NtRp3711
(dp3712
g62
(dp3713
sg71
g3699
sg64
(lp3714
g57
(g58
g59
NtRp3715
(dp3716
g62
(dp3717
g70
I3
ssg71
g3711
sg64
(lp3718
S''
asbasbasbasbasbasbasbasbasbasbasbag57
(g73
g59
NtRp3719
(dp3720
g62
(dp3721
sg71
g3485
sg64
(lp3722
g57
(g78
g59
NtRp3723
(dp3724
g62
(dp3725
g82
g83
ssg71
g3719
sg64
(lp3726
S'delimiters'
p3727
asbag57
(g78
g59
NtRp3728
(dp3729
g62
(dp3730
g89
g90
ssg71
g3719
sg64
(lp3731
S':'
asbag57
(g78
g59
NtRp3732
(dp3733
g62
(dp3734
sg71
g3719
sg64
(lp3735
g57
(g58
g59
NtRp3736
(dp3737
g62
(dp3738
g70
I5
ssg71
g3732
sg64
(lp3739
g57
(g66
g59
NtRp3740
(dp3741
g62
(dp3742
g70
I4
ssg71
Nsg64
(lp3743
g57
(g73
g59
NtRp3744
(dp3745
g62
(dp3746
sg71
g3740
sg64
(lp3747
g57
(g78
g59
NtRp3748
(dp3749
g62
(dp3750
sg71
g3744
sg64
(lp3751
g57
(g58
g59
NtRp3752
(dp3753
g62
(dp3754
g70
I4
ssg71
g3748
sg64
(lp3755
S'{{'
p3756
asbasbasbag57
(g73
g59
NtRp3757
(dp3758
g62
(dp3759
sg71
g3740
sg64
(lp3760
g57
(g78
g59
NtRp3761
(dp3762
g62
(dp3763
sg71
g3757
sg64
(lp3764
g57
(g58
g59
NtRp3765
(dp3766
g62
(dp3767
g70
I4
ssg71
g3761
sg64
(lp3768
S'}}'
p3769
asbasbasbasbasbasbasbag57
(g73
g59
NtRp3770
(dp3771
g62
(dp3772
sg71
g3485
sg64
(lp3773
g57
(g78
g59
NtRp3774
(dp3775
g62
(dp3776
g82
g83
ssg71
g3770
sg64
(lp3777
S'files'
p3778
asbag57
(g78
g59
NtRp3779
(dp3780
g62
(dp3781
g89
g90
ssg71
g3770
sg64
(lp3782
S':'
asbag57
(g78
g59
NtRp3783
(dp3784
g62
(dp3785
sg71
g3770
sg64
(lp3786
g57
(g58
g59
NtRp3787
(dp3788
g62
(dp3789
g70
I5
ssg71
g3783
sg64
(lp3790
g57
(g66
g59
NtRp3791
(dp3792
g62
(dp3793
g70
I4
ssg71
Nsg64
(lp3794
g57
(g73
g59
NtRp3795
(dp3796
g62
(dp3797
sg71
g3791
sg64
(lp3798
g57
(g78
g59
NtRp3799
(dp3800
g62
(dp3801
sg71
g3795
sg64
(lp3802
g57
(g58
g59
NtRp3803
(dp3804
g62
(dp3805
g70
I4
ssg71
g3799
sg64
(lp3806
S'/Book_Shelf_copy/static/js/jquery.js'
p3807
asbasbasbag57
(g73
g59
NtRp3808
(dp3809
g62
(dp3810
sg71
g3791
sg64
(lp3811
g57
(g78
g59
NtRp3812
(dp3813
g62
(dp3814
sg71
g3808
sg64
(lp3815
g57
(g58
g59
NtRp3816
(dp3817
g62
(dp3818
g70
I4
ssg71
g3812
sg64
(lp3819
S'/Book_Shelf_copy/static/css/calendar.css'
p3820
asbasbasbag57
(g73
g59
NtRp3821
(dp3822
g62
(dp3823
sg71
g3791
sg64
(lp3824
g57
(g78
g59
NtRp3825
(dp3826
g62
(dp3827
sg71
g3821
sg64
(lp3828
g57
(g58
g59
NtRp3829
(dp3830
g62
(dp3831
g70
I4
ssg71
g3825
sg64
(lp3832
S'/Book_Shelf_copy/static/js/calendar.js'
p3833
asbasbasbag57
(g73
g59
NtRp3834
(dp3835
g62
(dp3836
sg71
g3791
sg64
(lp3837
g57
(g78
g59
NtRp3838
(dp3839
g62
(dp3840
sg71
g3834
sg64
(lp3841
g57
(g58
g59
NtRp3842
(dp3843
g62
(dp3844
g70
I4
ssg71
g3838
sg64
(lp3845
S'/Book_Shelf_copy/static/js/web2py.js'
p3846
asbasbasbag57
(g73
g59
NtRp3847
(dp3848
g62
(dp3849
sg71
g3791
sg64
(lp3850
g57
(g78
g59
NtRp3851
(dp3852
g62
(dp3853
sg71
g3847
sg64
(lp3854
g57
(g58
g59
NtRp3855
(dp3856
g62
(dp3857
g70
I4
ssg71
g3851
sg64
(lp3858
S'/Book_Shelf_copy/static/css/skeleton.css'
p3859
asbasbasbag57
(g73
g59
NtRp3860
(dp3861
g62
(dp3862
sg71
g3791
sg64
(lp3863
g57
(g78
g59
NtRp3864
(dp3865
g62
(dp3866
sg71
g3860
sg64
(lp3867
g57
(g58
g59
NtRp3868
(dp3869
g62
(dp3870
g70
I4
ssg71
g3864
sg64
(lp3871
S'/Book_Shelf_copy/static/css/web2py.css'
p3872
asbasbasbag57
(g73
g59
NtRp3873
(dp3874
g62
(dp3875
sg71
g3791
sg64
(lp3876
g57
(g78
g59
NtRp3877
(dp3878
g62
(dp3879
sg71
g3873
sg64
(lp3880
g57
(g58
g59
NtRp3881
(dp3882
g62
(dp3883
g70
I4
ssg71
g3877
sg64
(lp3884
S'/Book_Shelf_copy/static/css/superfish.css'
p3885
asbasbasbag57
(g73
g59
NtRp3886
(dp3887
g62
(dp3888
sg71
g3791
sg64
(lp3889
g57
(g78
g59
NtRp3890
(dp3891
g62
(dp3892
sg71
g3886
sg64
(lp3893
g57
(g58
g59
NtRp3894
(dp3895
g62
(dp3896
g70
I4
ssg71
g3890
sg64
(lp3897
S'/Book_Shelf_copy/static/js/superfish.js'
p3898
asbasbasbasbasbasbasbag57
(g73
g59
NtRp3899
(dp3900
g62
(dp3901
sg71
g3485
sg64
(lp3902
g57
(g78
g59
NtRp3903
(dp3904
g62
(dp3905
g82
g83
ssg71
g3899
sg64
(lp3906
S'flash'
p3907
asbag57
(g78
g59
NtRp3908
(dp3909
g62
(dp3910
g89
g90
ssg71
g3899
sg64
(lp3911
S':'
asbag57
(g78
g59
NtRp3912
(dp3913
g62
(dp3914
sg71
g3899
sg64
(lp3915
g57
(g58
g59
NtRp3916
(dp3917
g62
(dp3918
g70
I5
ssg71
g3912
sg64
(lp3919
S''
asbasbasbag57
(g73
g59
NtRp3920
(dp3921
g62
(dp3922
sg71
g3485
sg64
(lp3923
g57
(g78
g59
NtRp3924
(dp3925
g62
(dp3926
g82
g83
ssg71
g3920
sg64
(lp3927
S'generic_patterns'
p3928
asbag57
(g78
g59
NtRp3929
(dp3930
g62
(dp3931
g89
g90
ssg71
g3920
sg64
(lp3932
S':'
asbag57
(g78
g59
NtRp3933
(dp3934
g62
(dp3935
sg71
g3920
sg64
(lp3936
g57
(g58
g59
NtRp3937
(dp3938
g62
(dp3939
g70
I5
ssg71
g3933
sg64
(lp3940
g57
(g66
g59
NtRp3941
(dp3942
g62
(dp3943
g70
I4
ssg71
Nsg64
(lp3944
g57
(g73
g59
NtRp3945
(dp3946
g62
(dp3947
sg71
g3941
sg64
(lp3948
g57
(g78
g59
NtRp3949
(dp3950
g62
(dp3951
sg71
g3945
sg64
(lp3952
g57
(g58
g59
NtRp3953
(dp3954
g62
(dp3955
g70
I4
ssg71
g3949
sg64
(lp3956
S'*'
asbasbasbasbasbasbasbag57
(g73
g59
NtRp3957
(dp3958
g62
(dp3959
sg71
g3485
sg64
(lp3960
g57
(g78
g59
NtRp3961
(dp3962
g62
(dp3963
g82
g83
ssg71
g3957
sg64
(lp3964
S'headers'
p3965
asbag57
(g78
g59
NtRp3966
(dp3967
g62
(dp3968
g89
g90
ssg71
g3957
sg64
(lp3969
S':'
asbag57
(g78
g59
NtRp3970
(dp3971
g62
(dp3972
sg71
g3957
sg64
(lp3973
g57
(g58
g59
NtRp3974
(dp3975
g62
(dp3976
g70
I5
ssg71
g3970
sg64
(lp3977
g57
(g66
g59
NtRp3978
(dp3979
g62
(dp3980
g70
I4
ssg71
Nsg64
(lp3981
g57
(g73
g59
NtRp3982
(dp3983
g62
(dp3984
sg71
g3978
sg64
(lp3985
g57
(g78
g59
NtRp3986
(dp3987
g62
(dp3988
g82
g83
ssg71
g3982
sg64
(lp3989
S'Cache-Control'
p3990
asbag57
(g78
g59
NtRp3991
(dp3992
g62
(dp3993
g89
g90
ssg71
g3982
sg64
(lp3994
S':'
asbag57
(g78
g59
NtRp3995
(dp3996
g62
(dp3997
sg71
g3982
sg64
(lp3998
g57
(g58
g59
NtRp3999
(dp4000
g62
(dp4001
g70
I4
ssg71
g3995
sg64
(lp4002
S'no-store, no-cache, must-revalidate, post-check=0, pre-check=0'
p4003
asbasbasbag57
(g73
g59
NtRp4004
(dp4005
g62
(dp4006
sg71
g3978
sg64
(lp4007
g57
(g78
g59
NtRp4008
(dp4009
g62
(dp4010
g82
g83
ssg71
g4004
sg64
(lp4011
S'Content-Type'
p4012
asbag57
(g78
g59
NtRp4013
(dp4014
g62
(dp4015
g89
g90
ssg71
g4004
sg64
(lp4016
S':'
asbag57
(g78
g59
NtRp4017
(dp4018
g62
(dp4019
sg71
g4004
sg64
(lp4020
g57
(g58
g59
NtRp4021
(dp4022
g62
(dp4023
g70
I4
ssg71
g4017
sg64
(lp4024
S'text/html; charset=utf-8'
p4025
asbasbasbag57
(g73
g59
NtRp4026
(dp4027
g62
(dp4028
sg71
g3978
sg64
(lp4029
g57
(g78
g59
NtRp4030
(dp4031
g62
(dp4032
g82
g83
ssg71
g4026
sg64
(lp4033
S'Expires'
p4034
asbag57
(g78
g59
NtRp4035
(dp4036
g62
(dp4037
g89
g90
ssg71
g4026
sg64
(lp4038
S':'
asbag57
(g78
g59
NtRp4039
(dp4040
g62
(dp4041
sg71
g4026
sg64
(lp4042
g57
(g58
g59
NtRp4043
(dp4044
g62
(dp4045
g70
I4
ssg71
g4039
sg64
(lp4046
S'Sun, 03 Jun 2012 22:43:25 GMT'
p4047
asbasbasbag57
(g73
g59
NtRp4048
(dp4049
g62
(dp4050
sg71
g3978
sg64
(lp4051
g57
(g78
g59
NtRp4052
(dp4053
g62
(dp4054
g82
g83
ssg71
g4048
sg64
(lp4055
S'Pragma'
p4056
asbag57
(g78
g59
NtRp4057
(dp4058
g62
(dp4059
g89
g90
ssg71
g4048
sg64
(lp4060
S':'
asbag57
(g78
g59
NtRp4061
(dp4062
g62
(dp4063
sg71
g4048
sg64
(lp4064
g57
(g58
g59
NtRp4065
(dp4066
g62
(dp4067
g70
I4
ssg71
g4061
sg64
(lp4068
S'no-cache'
p4069
asbasbasbag57
(g73
g59
NtRp4070
(dp4071
g62
(dp4072
sg71
g3978
sg64
(lp4073
g57
(g78
g59
NtRp4074
(dp4075
g62
(dp4076
g82
g83
ssg71
g4070
sg64
(lp4077
S'X-Powered-By'
p4078
asbag57
(g78
g59
NtRp4079
(dp4080
g62
(dp4081
g89
g90
ssg71
g4070
sg64
(lp4082
S':'
asbag57
(g78
g59
NtRp4083
(dp4084
g62
(dp4085
sg71
g4070
sg64
(lp4086
g57
(g58
g59
NtRp4087
(dp4088
g62
(dp4089
g70
I4
ssg71
g4083
sg64
(lp4090
S'web2py'
p4091
asbasbasbasbasbasbasbag57
(g73
g59
NtRp4092
(dp4093
g62
(dp4094
sg71
g3485
sg64
(lp4095
g57
(g78
g59
NtRp4096
(dp4097
g62
(dp4098
g82
g83
ssg71
g4092
sg64
(lp4099
S'menu'
p4100
asbag57
(g78
g59
NtRp4101
(dp4102
g62
(dp4103
g89
g90
ssg71
g4092
sg64
(lp4104
S':'
asbag57
(g78
g59
NtRp4105
(dp4106
g62
(dp4107
sg71
g4092
sg64
(lp4108
g57
(g58
g59
NtRp4109
(dp4110
g62
(dp4111
g70
I5
ssg71
g4105
sg64
(lp4112
g57
(g66
g59
NtRp4113
(dp4114
g62
(dp4115
g70
I4
ssg71
Nsg64
(lp4116
g57
(g73
g59
NtRp4117
(dp4118
g62
(dp4119
sg71
g4113
sg64
(lp4120
g57
(g78
g59
NtRp4121
(dp4122
g62
(dp4123
sg71
g4117
sg64
(lp4124
g57
(g58
g59
NtRp4125
(dp4126
g62
(dp4127
g70
I4
ssg71
g4121
sg64
(lp4128
g57
(g66
g59
NtRp4129
(dp4130
g62
(dp4131
g70
I3
ssg71
Nsg64
(lp4132
g57
(g73
g59
NtRp4133
(dp4134
g62
(dp4135
sg71
g4129
sg64
(lp4136
g57
(g78
g59
NtRp4137
(dp4138
g62
(dp4139
sg71
g4133
sg64
(lp4140
g57
(g58
g59
NtRp4141
(dp4142
g62
(dp4143
g70
I3
ssg71
g4137
sg64
(lp4144
cgluon.languages
lazyT_unpickle
p4145
(S't\x04\x00\x00\x00Home'
tRp4146
asbasbasbag57
(g73
g59
NtRp4147
(dp4148
g62
(dp4149
sg71
g4129
sg64
(lp4150
g57
(g78
g59
NtRp4151
(dp4152
g62
(dp4153
sg71
g4147
sg64
(lp4154
g57
(g58
g59
NtRp4155
(dp4156
g62
(dp4157
g70
I3
ssg71
g4151
sg64
(lp4158
g100
asbasbasbag57
(g73
g59
NtRp4159
(dp4160
g62
(dp4161
sg71
g4129
sg64
(lp4162
g57
(g78
g59
NtRp4163
(dp4164
g62
(dp4165
sg71
g4159
sg64
(lp4166
g57
(g58
g59
NtRp4167
(dp4168
g62
(dp4169
g70
I3
ssg71
g4163
sg64
(lp4170
S'/Book_Shelf_copy/default/index'
p4171
asbasbasbag57
(g73
g59
NtRp4172
(dp4173
g62
(dp4174
sg71
g4129
sg64
(lp4175
g57
(g78
g59
NtRp4176
(dp4177
g62
(dp4178
sg71
g4172
sg64
(lp4179
g57
(g58
g59
NtRp4180
(dp4181
g62
(dp4182
g70
I3
ssg71
g4176
sg64
(lp4183
g57
(g66
g59
NtRp4184
(dp4185
g62
(dp4186
g70
I2
ssg71
Nsg64
(lp4187
sbasbasbasbasbasbasbasbag57
(g73
g59
NtRp4188
(dp4189
g62
(dp4190
sg71
g4113
sg64
(lp4191
g57
(g78
g59
NtRp4192
(dp4193
g62
(dp4194
sg71
g4188
sg64
(lp4195
g57
(g58
g59
NtRp4196
(dp4197
g62
(dp4198
g70
I4
ssg71
g4192
sg64
(lp4199
g57
(g66
g59
NtRp4200
(dp4201
g62
(dp4202
g70
I3
ssg71
Nsg64
(lp4203
g57
(g73
g59
NtRp4204
(dp4205
g62
(dp4206
sg71
g4200
sg64
(lp4207
g57
(g78
g59
NtRp4208
(dp4209
g62
(dp4210
sg71
g4204
sg64
(lp4211
g57
(g58
g59
NtRp4212
(dp4213
g62
(dp4214
g70
I3
ssg71
g4208
sg64
(lp4215
g4145
(S's\x0c\x00\x00\x00User Profile'
tRp4216
asbasbasbag57
(g73
g59
NtRp4217
(dp4218
g62
(dp4219
sg71
g4200
sg64
(lp4220
g57
(g78
g59
NtRp4221
(dp4222
g62
(dp4223
sg71
g4217
sg64
(lp4224
g57
(g58
g59
NtRp4225
(dp4226
g62
(dp4227
g70
I3
ssg71
g4221
sg64
(lp4228
g100
asbasbasbag57
(g73
g59
NtRp4229
(dp4230
g62
(dp4231
sg71
g4200
sg64
(lp4232
g57
(g78
g59
NtRp4233
(dp4234
g62
(dp4235
sg71
g4229
sg64
(lp4236
g57
(g58
g59
NtRp4237
(dp4238
g62
(dp4239
g70
I3
ssg71
g4233
sg64
(lp4240
S'None'
p4241
asbasbasbag57
(g73
g59
NtRp4242
(dp4243
g62
(dp4244
sg71
g4200
sg64
(lp4245
g57
(g78
g59
NtRp4246
(dp4247
g62
(dp4248
sg71
g4242
sg64
(lp4249
g57
(g58
g59
NtRp4250
(dp4251
g62
(dp4252
g70
I3
ssg71
g4246
sg64
(lp4253
g57
(g66
g59
NtRp4254
(dp4255
g62
(dp4256
g70
I2
ssg71
Nsg64
(lp4257
g57
(g73
g59
NtRp4258
(dp4259
g62
(dp4260
sg71
g4254
sg64
(lp4261
g57
(g78
g59
NtRp4262
(dp4263
g62
(dp4264
sg71
g4258
sg64
(lp4265
g57
(g58
g59
NtRp4266
(dp4267
g62
(dp4268
g70
I2
ssg71
g4262
sg64
(lp4269
g57
(g66
g59
NtRp4270
(dp4271
g62
(dp4272
g70
I1
ssg71
Nsg64
(lp4273
g57
(g73
g59
NtRp4274
(dp4275
g62
(dp4276
sg71
g4270
sg64
(lp4277
g57
(g78
g59
NtRp4278
(dp4279
g62
(dp4280
sg71
g4274
sg64
(lp4281
g57
(g58
g59
NtRp4282
(dp4283
g62
(dp4284
g70
I1
ssg71
g4278
sg64
(lp4285
g4145
(S's\x0c\x00\x00\x00User Profile'
tRp4286
asbasbasbag57
(g73
g59
NtRp4287
(dp4288
g62
(dp4289
sg71
g4270
sg64
(lp4290
g57
(g78
g59
NtRp4291
(dp4292
g62
(dp4293
sg71
g4287
sg64
(lp4294
g57
(g58
g59
NtRp4295
(dp4296
g62
(dp4297
g70
I1
ssg71
g4291
sg64
(lp4298
I00
asbasbasbag57
(g73
g59
NtRp4299
(dp4300
g62
(dp4301
sg71
g4270
sg64
(lp4302
g57
(g78
g59
NtRp4303
(dp4304
g62
(dp4305
sg71
g4299
sg64
(lp4306
g57
(g58
g59
NtRp4307
(dp4308
g62
(dp4309
g70
I1
ssg71
g4303
sg64
(lp4310
S'/Book_Shelf_copy/default/user_profile'
p4311
asbasbasbasbasbasbasbag57
(g73
g59
NtRp4312
(dp4313
g62
(dp4314
sg71
g4254
sg64
(lp4315
g57
(g78
g59
NtRp4316
(dp4317
g62
(dp4318
sg71
g4312
sg64
(lp4319
g57
(g58
g59
NtRp4320
(dp4321
g62
(dp4322
g70
I2
ssg71
g4316
sg64
(lp4323
g57
(g66
g59
NtRp4324
(dp4325
g62
(dp4326
g70
I1
ssg71
Nsg64
(lp4327
g57
(g73
g59
NtRp4328
(dp4329
g62
(dp4330
sg71
g4324
sg64
(lp4331
g57
(g78
g59
NtRp4332
(dp4333
g62
(dp4334
sg71
g4328
sg64
(lp4335
g57
(g58
g59
NtRp4336
(dp4337
g62
(dp4338
g70
I1
ssg71
g4332
sg64
(lp4339
g4145
(S's\x13\x00\x00\x00Create User Profile'
tRp4340
asbasbasbag57
(g73
g59
NtRp4341
(dp4342
g62
(dp4343
sg71
g4324
sg64
(lp4344
g57
(g78
g59
NtRp4345
(dp4346
g62
(dp4347
sg71
g4341
sg64
(lp4348
g57
(g58
g59
NtRp4349
(dp4350
g62
(dp4351
g70
I1
ssg71
g4345
sg64
(lp4352
I00
asbasbasbag57
(g73
g59
NtRp4353
(dp4354
g62
(dp4355
sg71
g4324
sg64
(lp4356
g57
(g78
g59
NtRp4357
(dp4358
g62
(dp4359
sg71
g4353
sg64
(lp4360
g57
(g58
g59
NtRp4361
(dp4362
g62
(dp4363
g70
I1
ssg71
g4357
sg64
(lp4364
S'/Book_Shelf_copy/default/create_user_profile'
p4365
asbasbasbasbasbasbasbag57
(g73
g59
NtRp4366
(dp4367
g62
(dp4368
sg71
g4254
sg64
(lp4369
g57
(g78
g59
NtRp4370
(dp4371
g62
(dp4372
sg71
g4366
sg64
(lp4373
g57
(g58
g59
NtRp4374
(dp4375
g62
(dp4376
g70
I2
ssg71
g4370
sg64
(lp4377
g57
(g66
g59
NtRp4378
(dp4379
g62
(dp4380
g70
I1
ssg71
Nsg64
(lp4381
g57
(g73
g59
NtRp4382
(dp4383
g62
(dp4384
sg71
g4378
sg64
(lp4385
g57
(g78
g59
NtRp4386
(dp4387
g62
(dp4388
sg71
g4382
sg64
(lp4389
g57
(g58
g59
NtRp4390
(dp4391
g62
(dp4392
g70
I1
ssg71
g4386
sg64
(lp4393
g4145
(S's\x13\x00\x00\x00Update User Profile'
tRp4394
asbasbasbag57
(g73
g59
NtRp4395
(dp4396
g62
(dp4397
sg71
g4378
sg64
(lp4398
g57
(g78
g59
NtRp4399
(dp4400
g62
(dp4401
sg71
g4395
sg64
(lp4402
g57
(g58
g59
NtRp4403
(dp4404
g62
(dp4405
g70
I1
ssg71
g4399
sg64
(lp4406
I00
asbasbasbag57
(g73
g59
NtRp4407
(dp4408
g62
(dp4409
sg71
g4378
sg64
(lp4410
g57
(g78
g59
NtRp4411
(dp4412
g62
(dp4413
sg71
g4407
sg64
(lp4414
g57
(g58
g59
NtRp4415
(dp4416
g62
(dp4417
g70
I1
ssg71
g4411
sg64
(lp4418
S'/Book_Shelf_copy/default/update_user_profile'
p4419
asbasbasbasbasbasbasbasbasbasbasbasbasbasbasbag57
(g73
g59
NtRp4420
(dp4421
g62
(dp4422
sg71
g4113
sg64
(lp4423
g57
(g78
g59
NtRp4424
(dp4425
g62
(dp4426
sg71
g4420
sg64
(lp4427
g57
(g58
g59
NtRp4428
(dp4429
g62
(dp4430
g70
I4
ssg71
g4424
sg64
(lp4431
g57
(g66
g59
NtRp4432
(dp4433
g62
(dp4434
g70
I3
ssg71
Nsg64
(lp4435
g57
(g73
g59
NtRp4436
(dp4437
g62
(dp4438
sg71
g4432
sg64
(lp4439
g57
(g78
g59
NtRp4440
(dp4441
g62
(dp4442
sg71
g4436
sg64
(lp4443
g57
(g58
g59
NtRp4444
(dp4445
g62
(dp4446
g70
I3
ssg71
g4440
sg64
(lp4447
g4145
(S't\x04\x00\x00\x00Book'
tRp4448
asbasbasbag57
(g73
g59
NtRp4449
(dp4450
g62
(dp4451
sg71
g4432
sg64
(lp4452
g57
(g78
g59
NtRp4453
(dp4454
g62
(dp4455
sg71
g4449
sg64
(lp4456
g57
(g58
g59
NtRp4457
(dp4458
g62
(dp4459
g70
I3
ssg71
g4453
sg64
(lp4460
g100
asbasbasbag57
(g73
g59
NtRp4461
(dp4462
g62
(dp4463
sg71
g4432
sg64
(lp4464
g57
(g78
g59
NtRp4465
(dp4466
g62
(dp4467
sg71
g4461
sg64
(lp4468
g57
(g58
g59
NtRp4469
(dp4470
g62
(dp4471
g70
I3
ssg71
g4465
sg64
(lp4472
S'None'
p4473
asbasbasbag57
(g73
g59
NtRp4474
(dp4475
g62
(dp4476
sg71
g4432
sg64
(lp4477
g57
(g78
g59
NtRp4478
(dp4479
g62
(dp4480
sg71
g4474
sg64
(lp4481
g57
(g58
g59
NtRp4482
(dp4483
g62
(dp4484
g70
I3
ssg71
g4478
sg64
(lp4485
g57
(g66
g59
NtRp4486
(dp4487
g62
(dp4488
g70
I2
ssg71
Nsg64
(lp4489
g57
(g73
g59
NtRp4490
(dp4491
g62
(dp4492
sg71
g4486
sg64
(lp4493
g57
(g78
g59
NtRp4494
(dp4495
g62
(dp4496
sg71
g4490
sg64
(lp4497
g57
(g58
g59
NtRp4498
(dp4499
g62
(dp4500
g70
I2
ssg71
g4494
sg64
(lp4501
g57
(g66
g59
NtRp4502
(dp4503
g62
(dp4504
g70
I1
ssg71
Nsg64
(lp4505
g57
(g73
g59
NtRp4506
(dp4507
g62
(dp4508
sg71
g4502
sg64
(lp4509
g57
(g78
g59
NtRp4510
(dp4511
g62
(dp4512
sg71
g4506
sg64
(lp4513
g57
(g58
g59
NtRp4514
(dp4515
g62
(dp4516
g70
I1
ssg71
g4510
sg64
(lp4517
g4145
(S's\x0c\x00\x00\x00Book Profile'
tRp4518
asbasbasbag57
(g73
g59
NtRp4519
(dp4520
g62
(dp4521
sg71
g4502
sg64
(lp4522
g57
(g78
g59
NtRp4523
(dp4524
g62
(dp4525
sg71
g4519
sg64
(lp4526
g57
(g58
g59
NtRp4527
(dp4528
g62
(dp4529
g70
I1
ssg71
g4523
sg64
(lp4530
I00
asbasbasbag57
(g73
g59
NtRp4531
(dp4532
g62
(dp4533
sg71
g4502
sg64
(lp4534
g57
(g78
g59
NtRp4535
(dp4536
g62
(dp4537
sg71
g4531
sg64
(lp4538
g57
(g58
g59
NtRp4539
(dp4540
g62
(dp4541
g70
I1
ssg71
g4535
sg64
(lp4542
S'/Book_Shelf_copy/default/book_profile'
p4543
asbasbasbasbasbasbasbag57
(g73
g59
NtRp4544
(dp4545
g62
(dp4546
sg71
g4486
sg64
(lp4547
g57
(g78
g59
NtRp4548
(dp4549
g62
(dp4550
sg71
g4544
sg64
(lp4551
g57
(g58
g59
NtRp4552
(dp4553
g62
(dp4554
g70
I2
ssg71
g4548
sg64
(lp4555
g57
(g66
g59
NtRp4556
(dp4557
g62
(dp4558
g70
I1
ssg71
Nsg64
(lp4559
g57
(g73
g59
NtRp4560
(dp4561
g62
(dp4562
sg71
g4556
sg64
(lp4563
g57
(g78
g59
NtRp4564
(dp4565
g62
(dp4566
sg71
g4560
sg64
(lp4567
g57
(g58
g59
NtRp4568
(dp4569
g62
(dp4570
g70
I1
ssg71
g4564
sg64
(lp4571
g4145
(S's\x13\x00\x00\x00Create Book Profile'
tRp4572
asbasbasbag57
(g73
g59
NtRp4573
(dp4574
g62
(dp4575
sg71
g4556
sg64
(lp4576
g57
(g78
g59
NtRp4577
(dp4578
g62
(dp4579
sg71
g4573
sg64
(lp4580
g57
(g58
g59
NtRp4581
(dp4582
g62
(dp4583
g70
I1
ssg71
g4577
sg64
(lp4584
I00
asbasbasbag57
(g73
g59
NtRp4585
(dp4586
g62
(dp4587
sg71
g4556
sg64
(lp4588
g57
(g78
g59
NtRp4589
(dp4590
g62
(dp4591
sg71
g4585
sg64
(lp4592
g57
(g58
g59
NtRp4593
(dp4594
g62
(dp4595
g70
I1
ssg71
g4589
sg64
(lp4596
S'/Book_Shelf_copy/default/create_book_profile'
p4597
asbasbasbasbasbasbasbag57
(g73
g59
NtRp4598
(dp4599
g62
(dp4600
sg71
g4486
sg64
(lp4601
g57
(g78
g59
NtRp4602
(dp4603
g62
(dp4604
sg71
g4598
sg64
(lp4605
g57
(g58
g59
NtRp4606
(dp4607
g62
(dp4608
g70
I2
ssg71
g4602
sg64
(lp4609
g57
(g66
g59
NtRp4610
(dp4611
g62
(dp4612
g70
I1
ssg71
Nsg64
(lp4613
g57
(g73
g59
NtRp4614
(dp4615
g62
(dp4616
sg71
g4610
sg64
(lp4617
g57
(g78
g59
NtRp4618
(dp4619
g62
(dp4620
sg71
g4614
sg64
(lp4621
g57
(g58
g59
NtRp4622
(dp4623
g62
(dp4624
g70
I1
ssg71
g4618
sg64
(lp4625
g4145
(S's\x13\x00\x00\x00Update Book Profile'
tRp4626
asbasbasbag57
(g73
g59
NtRp4627
(dp4628
g62
(dp4629
sg71
g4610
sg64
(lp4630
g57
(g78
g59
NtRp4631
(dp4632
g62
(dp4633
sg71
g4627
sg64
(lp4634
g57
(g58
g59
NtRp4635
(dp4636
g62
(dp4637
g70
I1
ssg71
g4631
sg64
(lp4638
I00
asbasbasbag57
(g73
g59
NtRp4639
(dp4640
g62
(dp4641
sg71
g4610
sg64
(lp4642
g57
(g78
g59
NtRp4643
(dp4644
g62
(dp4645
sg71
g4639
sg64
(lp4646
g57
(g58
g59
NtRp4647
(dp4648
g62
(dp4649
g70
I1
ssg71
g4643
sg64
(lp4650
S'/Book_Shelf_copy/default/update_book_profile'
p4651
asbasbasbasbasbasbasbasbasbasbasbasbasbasbasbag57
(g73
g59
NtRp4652
(dp4653
g62
(dp4654
sg71
g4113
sg64
(lp4655
g57
(g78
g59
NtRp4656
(dp4657
g62
(dp4658
sg71
g4652
sg64
(lp4659
g57
(g58
g59
NtRp4660
(dp4661
g62
(dp4662
g70
I4
ssg71
g4656
sg64
(lp4663
g57
(g66
g59
NtRp4664
(dp4665
g62
(dp4666
g70
I3
ssg71
Nsg64
(lp4667
g57
(g73
g59
NtRp4668
(dp4669
g62
(dp4670
sg71
g4664
sg64
(lp4671
g57
(g78
g59
NtRp4672
(dp4673
g62
(dp4674
sg71
g4668
sg64
(lp4675
g57
(g58
g59
NtRp4676
(dp4677
g62
(dp4678
g70
I3
ssg71
g4672
sg64
(lp4679
g4145
(S's\n\x00\x00\x00Book Shelf'
tRp4680
asbasbasbag57
(g73
g59
NtRp4681
(dp4682
g62
(dp4683
sg71
g4664
sg64
(lp4684
g57
(g78
g59
NtRp4685
(dp4686
g62
(dp4687
sg71
g4681
sg64
(lp4688
g57
(g58
g59
NtRp4689
(dp4690
g62
(dp4691
g70
I3
ssg71
g4685
sg64
(lp4692
g100
asbasbasbag57
(g73
g59
NtRp4693
(dp4694
g62
(dp4695
sg71
g4664
sg64
(lp4696
g57
(g78
g59
NtRp4697
(dp4698
g62
(dp4699
sg71
g4693
sg64
(lp4700
g57
(g58
g59
NtRp4701
(dp4702
g62
(dp4703
g70
I3
ssg71
g4697
sg64
(lp4704
S'None'
p4705
asbasbasbag57
(g73
g59
NtRp4706
(dp4707
g62
(dp4708
sg71
g4664
sg64
(lp4709
g57
(g78
g59
NtRp4710
(dp4711
g62
(dp4712
sg71
g4706
sg64
(lp4713
g57
(g58
g59
NtRp4714
(dp4715
g62
(dp4716
g70
I3
ssg71
g4710
sg64
(lp4717
g57
(g66
g59
NtRp4718
(dp4719
g62
(dp4720
g70
I2
ssg71
Nsg64
(lp4721
g57
(g73
g59
NtRp4722
(dp4723
g62
(dp4724
sg71
g4718
sg64
(lp4725
g57
(g78
g59
NtRp4726
(dp4727
g62
(dp4728
sg71
g4722
sg64
(lp4729
g57
(g58
g59
NtRp4730
(dp4731
g62
(dp4732
g70
I2
ssg71
g4726
sg64
(lp4733
g57
(g66
g59
NtRp4734
(dp4735
g62
(dp4736
g70
I1
ssg71
Nsg64
(lp4737
g57
(g73
g59
NtRp4738
(dp4739
g62
(dp4740
sg71
g4734
sg64
(lp4741
g57
(g78
g59
NtRp4742
(dp4743
g62
(dp4744
sg71
g4738
sg64
(lp4745
g57
(g58
g59
NtRp4746
(dp4747
g62
(dp4748
g70
I1
ssg71
g4742
sg64
(lp4749
g4145
(S's\n\x00\x00\x00Book Shelf'
tRp4750
asbasbasbag57
(g73
g59
NtRp4751
(dp4752
g62
(dp4753
sg71
g4734
sg64
(lp4754
g57
(g78
g59
NtRp4755
(dp4756
g62
(dp4757
sg71
g4751
sg64
(lp4758
g57
(g58
g59
NtRp4759
(dp4760
g62
(dp4761
g70
I1
ssg71
g4755
sg64
(lp4762
I00
asbasbasbag57
(g73
g59
NtRp4763
(dp4764
g62
(dp4765
sg71
g4734
sg64
(lp4766
g57
(g78
g59
NtRp4767
(dp4768
g62
(dp4769
sg71
g4763
sg64
(lp4770
g57
(g58
g59
NtRp4771
(dp4772
g62
(dp4773
g70
I1
ssg71
g4767
sg64
(lp4774
S'/Book_Shelf_copy/default/book_shelf'
p4775
asbasbasbasbasbasbasbag57
(g73
g59
NtRp4776
(dp4777
g62
(dp4778
sg71
g4718
sg64
(lp4779
g57
(g78
g59
NtRp4780
(dp4781
g62
(dp4782
sg71
g4776
sg64
(lp4783
g57
(g58
g59
NtRp4784
(dp4785
g62
(dp4786
g70
I2
ssg71
g4780
sg64
(lp4787
g57
(g66
g59
NtRp4788
(dp4789
g62
(dp4790
g70
I1
ssg71
Nsg64
(lp4791
g57
(g73
g59
NtRp4792
(dp4793
g62
(dp4794
sg71
g4788
sg64
(lp4795
g57
(g78
g59
NtRp4796
(dp4797
g62
(dp4798
sg71
g4792
sg64
(lp4799
g57
(g58
g59
NtRp4800
(dp4801
g62
(dp4802
g70
I1
ssg71
g4796
sg64
(lp4803
g4145
(S's\x11\x00\x00\x00Create Book Shelf'
tRp4804
asbasbasbag57
(g73
g59
NtRp4805
(dp4806
g62
(dp4807
sg71
g4788
sg64
(lp4808
g57
(g78
g59
NtRp4809
(dp4810
g62
(dp4811
sg71
g4805
sg64
(lp4812
g57
(g58
g59
NtRp4813
(dp4814
g62
(dp4815
g70
I1
ssg71
g4809
sg64
(lp4816
I00
asbasbasbag57
(g73
g59
NtRp4817
(dp4818
g62
(dp4819
sg71
g4788
sg64
(lp4820
g57
(g78
g59
NtRp4821
(dp4822
g62
(dp4823
sg71
g4817
sg64
(lp4824
g57
(g58
g59
NtRp4825
(dp4826
g62
(dp4827
g70
I1
ssg71
g4821
sg64
(lp4828
S'/Book_Shelf_copy/default/create_book_shelf'
p4829
asbasbasbasbasbasbasbag57
(g73
g59
NtRp4830
(dp4831
g62
(dp4832
sg71
g4718
sg64
(lp4833
g57
(g78
g59
NtRp4834
(dp4835
g62
(dp4836
sg71
g4830
sg64
(lp4837
g57
(g58
g59
NtRp4838
(dp4839
g62
(dp4840
g70
I2
ssg71
g4834
sg64
(lp4841
g57
(g66
g59
NtRp4842
(dp4843
g62
(dp4844
g70
I1
ssg71
Nsg64
(lp4845
g57
(g73
g59
NtRp4846
(dp4847
g62
(dp4848
sg71
g4842
sg64
(lp4849
g57
(g78
g59
NtRp4850
(dp4851
g62
(dp4852
sg71
g4846
sg64
(lp4853
g57
(g58
g59
NtRp4854
(dp4855
g62
(dp4856
g70
I1
ssg71
g4850
sg64
(lp4857
g4145
(S's\x11\x00\x00\x00Update Book Shelf'
tRp4858
asbasbasbag57
(g73
g59
NtRp4859
(dp4860
g62
(dp4861
sg71
g4842
sg64
(lp4862
g57
(g78
g59
NtRp4863
(dp4864
g62
(dp4865
sg71
g4859
sg64
(lp4866
g57
(g58
g59
NtRp4867
(dp4868
g62
(dp4869
g70
I1
ssg71
g4863
sg64
(lp4870
I00
asbasbasbag57
(g73
g59
NtRp4871
(dp4872
g62
(dp4873
sg71
g4842
sg64
(lp4874
g57
(g78
g59
NtRp4875
(dp4876
g62
(dp4877
sg71
g4871
sg64
(lp4878
g57
(g58
g59
NtRp4879
(dp4880
g62
(dp4881
g70
I1
ssg71
g4875
sg64
(lp4882
S'/Book_Shelf_copy/default/update_book_shelf'
p4883
asbasbasbasbasbasbasbasbasbasbasbasbasbasbasbag57
(g73
g59
NtRp4884
(dp4885
g62
(dp4886
sg71
g4113
sg64
(lp4887
g57
(g78
g59
NtRp4888
(dp4889
g62
(dp4890
sg71
g4884
sg64
(lp4891
g57
(g58
g59
NtRp4892
(dp4893
g62
(dp4894
g70
I4
ssg71
g4888
sg64
(lp4895
g57
(g66
g59
NtRp4896
(dp4897
g62
(dp4898
g70
I3
ssg71
Nsg64
(lp4899
g57
(g73
g59
NtRp4900
(dp4901
g62
(dp4902
sg71
g4896
sg64
(lp4903
g57
(g78
g59
NtRp4904
(dp4905
g62
(dp4906
sg71
g4900
sg64
(lp4907
g57
(g58
g59
NtRp4908
(dp4909
g62
(dp4910
g70
I3
ssg71
g4904
sg64
(lp4911
g57
(cgluon.html
SPAN
p4912
g59
NtRp4913
(dp4914
g62
(dp4915
g82
S'color:yellow'
p4916
ssg71
g57
(cgluon.html
A
p4917
g59
NtRp4918
(dp4919
g62
(dp4920
S'_onclick'
p4921
S'javascript:void(0);return false;'
p4922
sS'_href'
p4923
S'#'
ssg71
g57
(cgluon.html
LI
p4924
g59
NtRp4925
(dp4926
g62
(dp4927
S'_class'
p4928
S'web2py-menu-expand'
p4929
ssg71
g57
(cgluon.html
UL
p4930
g59
NtRp4931
(dp4932
g62
(dp4933
S'mobile'
p4934
I00
sS'li_class'
p4935
g4929
sg4928
S'sf-menu'
p4936
sS'ul_class'
p4937
S'web2py-menu-vertical'
p4938
sS'li_active'
p4939
S'web2py-menu-active'
p4940
ssg71
Nsg64
(lp4941
g57
(g4924
g59
NtRp4942
(dp4943
g62
(dp4944
sg71
g4931
sg64
(lp4945
g57
(g4917
g59
NtRp4946
(dp4947
g62
(dp4948
g4923
g4171
ssg71
g4942
sg64
(lp4949
g4146
asbasbag57
(g4924
g59
NtRp4950
(dp4951
g62
(dp4952
g4928
g4929
ssg71
g4931
sg64
(lp4953
g57
(g4917
g59
NtRp4954
(dp4955
g62
(dp4956
g4921
g4922
sg4923
S'#'
ssg71
g4950
sg64
(lp4957
g4216
asbag57
(g4930
g59
NtRp4958
(dp4959
g62
(dp4960
g4928
g4938
ssg71
g4950
sg64
(lp4961
g57
(g4924
g59
NtRp4962
(dp4963
g62
(dp4964
sg71
g4958
sg64
(lp4965
g57
(g4917
g59
NtRp4966
(dp4967
g62
(dp4968
g4923
g4311
ssg71
g4962
sg64
(lp4969
g4286
asbasbag57
(g4924
g59
NtRp4970
(dp4971
g62
(dp4972
sg71
g4958
sg64
(lp4973
g57
(g4917
g59
NtRp4974
(dp4975
g62
(dp4976
g4923
g4365
ssg71
g4970
sg64
(lp4977
g4340
asbasbag57
(g4924
g59
NtRp4978
(dp4979
g62
(dp4980
sg71
g4958
sg64
(lp4981
g57
(g4917
g59
NtRp4982
(dp4983
g62
(dp4984
g4923
g4419
ssg71
g4978
sg64
(lp4985
g4394
asbasbasbasbag57
(g4924
g59
NtRp4986
(dp4987
g62
(dp4988
g4928
g4929
ssg71
g4931
sg64
(lp4989
g57
(g4917
g59
NtRp4990
(dp4991
g62
(dp4992
g4921
g4922
sg4923
S'#'
ssg71
g4986
sg64
(lp4993
g4448
asbag57
(g4930
g59
NtRp4994
(dp4995
g62
(dp4996
g4928
g4938
ssg71
g4986
sg64
(lp4997
g57
(g4924
g59
NtRp4998
(dp4999
g62
(dp5000
sg71
g4994
sg64
(lp5001
g57
(g4917
g59
NtRp5002
(dp5003
g62
(dp5004
g4923
g4543
ssg71
g4998
sg64
(lp5005
g4518
asbasbag57
(g4924
g59
NtRp5006
(dp5007
g62
(dp5008
sg71
g4994
sg64
(lp5009
g57
(g4917
g59
NtRp5010
(dp5011
g62
(dp5012
g4923
g4597
ssg71
g5006
sg64
(lp5013
g4572
asbasbag57
(g4924
g59
NtRp5014
(dp5015
g62
(dp5016
sg71
g4994
sg64
(lp5017
g57
(g4917
g59
NtRp5018
(dp5019
g62
(dp5020
g4923
g4651
ssg71
g5014
sg64
(lp5021
g4626
asbasbasbasbag57
(g4924
g59
NtRp5022
(dp5023
g62
(dp5024
g4928
g4929
ssg71
g4931
sg64
(lp5025
g57
(g4917
g59
NtRp5026
(dp5027
g62
(dp5028
g4921
g4922
sg4923
S'#'
ssg71
g5022
sg64
(lp5029
g4680
asbag57
(g4930
g59
NtRp5030
(dp5031
g62
(dp5032
g4928
g4938
ssg71
g5022
sg64
(lp5033
g57
(g4924
g59
NtRp5034
(dp5035
g62
(dp5036
sg71
g5030
sg64
(lp5037
g57
(g4917
g59
NtRp5038
(dp5039
g62
(dp5040
g4923
g4775
ssg71
g5034
sg64
(lp5041
g4750
asbasbag57
(g4924
g59
NtRp5042
(dp5043
g62
(dp5044
sg71
g5030
sg64
(lp5045
g57
(g4917
g59
NtRp5046
(dp5047
g62
(dp5048
g4923
g4829
ssg71
g5042
sg64
(lp5049
g4804
asbasbag57
(g4924
g59
NtRp5050
(dp5051
g62
(dp5052
sg71
g5030
sg64
(lp5053
g57
(g4917
g59
NtRp5054
(dp5055
g62
(dp5056
g4923
g4883
ssg71
g5050
sg64
(lp5057
g4858
asbasbasbasbag4925
asbsg64
(lp5058
g4918
ag57
(g4930
g59
NtRp5059
(dp5060
g62
(dp5061
g4928
g4938
ssg71
g4925
sg64
(lp5062
g57
(g4924
g59
NtRp5063
(dp5064
g62
(dp5065
sg71
g5059
sg64
(lp5066
g57
(g4917
g59
NtRp5067
(dp5068
g62
(dp5069
g4923
S'/admin/default/site'
p5070
ssg71
g5063
sg64
(lp5071
g4145
(S's\x08\x00\x00\x00My Sites'
tRp5072
asbasbag57
(g4924
g59
NtRp5073
(dp5074
g62
(dp5075
g4928
g4929
ssg71
g5059
sg64
(lp5076
g57
(g4917
g59
NtRp5077
(dp5078
g62
(dp5079
g4923
S'/admin/default/design/Book_Shelf_copy'
p5080
ssg71
g5073
sg64
(lp5081
g4145
(S's\x08\x00\x00\x00This App'
tRp5082
asbag57
(g4930
g59
NtRp5083
(dp5084
g62
(dp5085
g4928
g4938
ssg71
g5073
sg64
(lp5086
g57
(g4924
g59
NtRp5087
(dp5088
g62
(dp5089
sg71
g5083
sg64
(lp5090
g57
(g4917
g59
NtRp5091
(dp5092
g62
(dp5093
g4923
S'/admin/default/edit/Book_Shelf_copy/controllers/default.py'
p5094
ssg71
g5087
sg64
(lp5095
g4145
(S't\n\x00\x00\x00Controller'
tRp5096
asbasbag57
(g4924
g59
NtRp5097
(dp5098
g62
(dp5099
sg71
g5083
sg64
(lp5100
g57
(g4917
g59
NtRp5101
(dp5102
g62
(dp5103
g4923
S'/admin/default/edit/Book_Shelf_copy/views/default/book_profile.html'
p5104
ssg71
g5097
sg64
(lp5105
g4145
(S't\x04\x00\x00\x00View'
tRp5106
asbasbag57
(g4924
g59
NtRp5107
(dp5108
g62
(dp5109
sg71
g5083
sg64
(lp5110
g57
(g4917
g59
NtRp5111
(dp5112
g62
(dp5113
g4923
S'/admin/default/edit/Book_Shelf_copy/views/layout.html'
p5114
ssg71
g5107
sg64
(lp5115
g4145
(S't\x06\x00\x00\x00Layout'
tRp5116
asbasbag57
(g4924
g59
NtRp5117
(dp5118
g62
(dp5119
sg71
g5083
sg64
(lp5120
g57
(g4917
g59
NtRp5121
(dp5122
g62
(dp5123
g4923
S'/admin/default/edit/Book_Shelf_copy/static/css/web2py.css'
p5124
ssg71
g5117
sg64
(lp5125
g4145
(S't\n\x00\x00\x00Stylesheet'
tRp5126
asbasbag57
(g4924
g59
NtRp5127
(dp5128
g62
(dp5129
sg71
g5083
sg64
(lp5130
g57
(g4917
g59
NtRp5131
(dp5132
g62
(dp5133
g4923
S'/admin/default/edit/Book_Shelf_copy/models/db.py'
p5134
ssg71
g5127
sg64
(lp5135
g4145
(S's\x08\x00\x00\x00DB Model'
tRp5136
asbasbag57
(g4924
g59
NtRp5137
(dp5138
g62
(dp5139
sg71
g5083
sg64
(lp5140
g57
(g4917
g59
NtRp5141
(dp5142
g62
(dp5143
g4923
S'/admin/default/edit/Book_Shelf_copy/models/menu.py'
p5144
ssg71
g5137
sg64
(lp5145
g4145
(S's\n\x00\x00\x00Menu Model'
tRp5146
asbasbag57
(g4924
g59
NtRp5147
(dp5148
g62
(dp5149
sg71
g5083
sg64
(lp5150
g57
(g4917
g59
NtRp5151
(dp5152
g62
(dp5153
g4923
S'/Book_Shelf_copy/appadmin/index'
p5154
ssg71
g5147
sg64
(lp5155
g4145
(S't\x08\x00\x00\x00Database'
tRp5156
asbasbag57
(g4924
g59
NtRp5157
(dp5158
g62
(dp5159
sg71
g5083
sg64
(lp5160
g57
(g4917
g59
NtRp5161
(dp5162
g62
(dp5163
g4923
S'/admin/default/errors/Book_Shelf_copy'
p5164
ssg71
g5157
sg64
(lp5165
g4145
(S't\x06\x00\x00\x00Errors'
tRp5166
asbasbag57
(g4924
g59
NtRp5167
(dp5168
g62
(dp5169
sg71
g5083
sg64
(lp5170
g57
(g4917
g59
NtRp5171
(dp5172
g62
(dp5173
g4923
S'/admin/default/about/Book_Shelf_copy'
p5174
ssg71
g5167
sg64
(lp5175
g4145
(S't\x05\x00\x00\x00About'
tRp5176
asbasbasbasbag57
(g4924
g59
NtRp5177
(dp5178
g62
(dp5179
g4928
g4929
ssg71
g5059
sg64
(lp5180
g57
(g4917
g59
NtRp5181
(dp5182
g62
(dp5183
g4923
S'http://www.web2py.com'
p5184
ssg71
g5177
sg64
(lp5185
S'web2py.com'
p5186
asbag57
(g4930
g59
NtRp5187
(dp5188
g62
(dp5189
g4928
g4938
ssg71
g5177
sg64
(lp5190
g57
(g4924
g59
NtRp5191
(dp5192
g62
(dp5193
sg71
g5187
sg64
(lp5194
g57
(g4917
g59
NtRp5195
(dp5196
g62
(dp5197
g4923
S'http://www.web2py.com/examples/default/download'
p5198
ssg71
g5191
sg64
(lp5199
g4145
(S't\x08\x00\x00\x00Download'
tRp5200
asbasbag57
(g4924
g59
NtRp5201
(dp5202
g62
(dp5203
sg71
g5187
sg64
(lp5204
g57
(g4917
g59
NtRp5205
(dp5206
g62
(dp5207
g4923
S'http://www.web2py.com/examples/default/support'
p5208
ssg71
g5201
sg64
(lp5209
g4145
(S't\x07\x00\x00\x00Support'
tRp5210
asbasbag57
(g4924
g59
NtRp5211
(dp5212
g62
(dp5213
sg71
g5187
sg64
(lp5214
g57
(g4917
g59
NtRp5215
(dp5216
g62
(dp5217
g4923
S'http://web2py.com/demo_admin'
p5218
ssg71
g5211
sg64
(lp5219
g4145
(S't\x04\x00\x00\x00Demo'
tRp5220
asbasbag57
(g4924
g59
NtRp5221
(dp5222
g62
(dp5223
sg71
g5187
sg64
(lp5224
g57
(g4917
g59
NtRp5225
(dp5226
g62
(dp5227
g4923
S'http://web2py.com/examples/default/examples'
p5228
ssg71
g5221
sg64
(lp5229
g4145
(S's\x0e\x00\x00\x00Quick Examples'
tRp5230
asbasbag57
(g4924
g59
NtRp5231
(dp5232
g62
(dp5233
sg71
g5187
sg64
(lp5234
g57
(g4917
g59
NtRp5235
(dp5236
g62
(dp5237
g4923
S'http://web2py.com/AlterEgo'
p5238
ssg71
g5231
sg64
(lp5239
g4145
(S't\x03\x00\x00\x00FAQ'
tRp5240
asbasbag57
(g4924
g59
NtRp5241
(dp5242
g62
(dp5243
sg71
g5187
sg64
(lp5244
g57
(g4917
g59
NtRp5245
(dp5246
g62
(dp5247
g4923
S'http://www.web2py.com/examples/default/videos/'
p5248
ssg71
g5241
sg64
(lp5249
g4145
(S't\x06\x00\x00\x00Videos'
tRp5250
asbasbag57
(g4924
g59
NtRp5251
(dp5252
g62
(dp5253
sg71
g5187
sg64
(lp5254
g57
(g4917
g59
NtRp5255
(dp5256
g62
(dp5257
g4923
S'http://web2py.com/appliances'
p5258
ssg71
g5251
sg64
(lp5259
g4145
(S's\x11\x00\x00\x00Free Applications'
tRp5260
asbasbag57
(g4924
g59
NtRp5261
(dp5262
g62
(dp5263
sg71
g5187
sg64
(lp5264
g57
(g4917
g59
NtRp5265
(dp5266
g62
(dp5267
g4923
S'http://web2py.com/plugins'
p5268
ssg71
g5261
sg64
(lp5269
g4145
(S't\x07\x00\x00\x00Plugins'
tRp5270
asbasbag57
(g4924
g59
NtRp5271
(dp5272
g62
(dp5273
sg71
g5187
sg64
(lp5274
g57
(g4917
g59
NtRp5275
(dp5276
g62
(dp5277
g4923
S'http://web2py.com/layouts'
p5278
ssg71
g5271
sg64
(lp5279
g4145
(S't\x07\x00\x00\x00Layouts'
tRp5280
asbasbag57
(g4924
g59
NtRp5281
(dp5282
g62
(dp5283
sg71
g5187
sg64
(lp5284
g57
(g4917
g59
NtRp5285
(dp5286
g62
(dp5287
g4923
S'http://web2pyslices.com/'
p5288
ssg71
g5281
sg64
(lp5289
g4145
(S't\x07\x00\x00\x00Recipes'
tRp5290
asbasbag57
(g4924
g59
NtRp5291
(dp5292
g62
(dp5293
sg71
g5187
sg64
(lp5294
g57
(g4917
g59
NtRp5295
(dp5296
g62
(dp5297
g4923
S'http://web2py.com/semantic'
p5298
ssg71
g5291
sg64
(lp5299
g4145
(S't\x08\x00\x00\x00Semantic'
tRp5300
asbasbasbasbag57
(g4924
g59
NtRp5301
(dp5302
g62
(dp5303
g4928
g4929
ssg71
g5059
sg64
(lp5304
g57
(g4917
g59
NtRp5305
(dp5306
g62
(dp5307
g4923
S'http://www.web2py.com/book'
p5308
ssg71
g5301
sg64
(lp5309
g4145
(S't\r\x00\x00\x00Documentation'
tRp5310
asbag57
(g4930
g59
NtRp5311
(dp5312
g62
(dp5313
g4928
g4938
ssg71
g5301
sg64
(lp5314
g57
(g4924
g59
NtRp5315
(dp5316
g62
(dp5317
sg71
g5311
sg64
(lp5318
g57
(g4917
g59
NtRp5319
(dp5320
g62
(dp5321
g4923
S'http://www.web2py.com/book/default/chapter/00'
p5322
ssg71
g5315
sg64
(lp5323
g4145
(S't\x07\x00\x00\x00Preface'
tRp5324
asbasbag57
(g4924
g59
NtRp5325
(dp5326
g62
(dp5327
sg71
g5311
sg64
(lp5328
g57
(g4917
g59
NtRp5329
(dp5330
g62
(dp5331
g4923
S'http://www.web2py.com/book/default/chapter/01'
p5332
ssg71
g5325
sg64
(lp5333
g4145
(S't\x0c\x00\x00\x00Introduction'
tRp5334
asbasbag57
(g4924
g59
NtRp5335
(dp5336
g62
(dp5337
sg71
g5311
sg64
(lp5338
g57
(g4917
g59
NtRp5339
(dp5340
g62
(dp5341
g4923
S'http://www.web2py.com/book/default/chapter/02'
p5342
ssg71
g5335
sg64
(lp5343
g4145
(S't\x06\x00\x00\x00Python'
tRp5344
asbasbag57
(g4924
g59
NtRp5345
(dp5346
g62
(dp5347
sg71
g5311
sg64
(lp5348
g57
(g4917
g59
NtRp5349
(dp5350
g62
(dp5351
g4923
S'http://www.web2py.com/book/default/chapter/03'
p5352
ssg71
g5345
sg64
(lp5353
g4145
(S't\x08\x00\x00\x00Overview'
tRp5354
asbasbag57
(g4924
g59
NtRp5355
(dp5356
g62
(dp5357
sg71
g5311
sg64
(lp5358
g57
(g4917
g59
NtRp5359
(dp5360
g62
(dp5361
g4923
S'http://www.web2py.com/book/default/chapter/04'
p5362
ssg71
g5355
sg64
(lp5363
g4145
(S's\x08\x00\x00\x00The Core'
tRp5364
asbasbag57
(g4924
g59
NtRp5365
(dp5366
g62
(dp5367
sg71
g5311
sg64
(lp5368
g57
(g4917
g59
NtRp5369
(dp5370
g62
(dp5371
g4923
S'http://www.web2py.com/book/default/chapter/05'
p5372
ssg71
g5365
sg64
(lp5373
g4145
(S's\t\x00\x00\x00The Views'
tRp5374
asbasbag57
(g4924
g59
NtRp5375
(dp5376
g62
(dp5377
sg71
g5311
sg64
(lp5378
g57
(g4917
g59
NtRp5379
(dp5380
g62
(dp5381
g4923
S'http://www.web2py.com/book/default/chapter/06'
p5382
ssg71
g5375
sg64
(lp5383
g4145
(S't\x08\x00\x00\x00Database'
tRp5384
asbasbag57
(g4924
g59
NtRp5385
(dp5386
g62
(dp5387
sg71
g5311
sg64
(lp5388
g57
(g4917
g59
NtRp5389
(dp5390
g62
(dp5391
g4923
S'http://www.web2py.com/book/default/chapter/07'
p5392
ssg71
g5385
sg64
(lp5393
g4145
(S's\x14\x00\x00\x00Forms and Validators'
tRp5394
asbasbag57
(g4924
g59
NtRp5395
(dp5396
g62
(dp5397
sg71
g5311
sg64
(lp5398
g57
(g4917
g59
NtRp5399
(dp5400
g62
(dp5401
g4923
S'http://www.web2py.com/book/default/chapter/08'
p5402
ssg71
g5395
sg64
(lp5403
g4145
(S's\r\x00\x00\x00Email and SMS'
tRp5404
asbasbag57
(g4924
g59
NtRp5405
(dp5406
g62
(dp5407
sg71
g5311
sg64
(lp5408
g57
(g4917
g59
NtRp5409
(dp5410
g62
(dp5411
g4923
S'http://www.web2py.com/book/default/chapter/09'
p5412
ssg71
g5405
sg64
(lp5413
g4145
(S's\x0e\x00\x00\x00Access Control'
tRp5414
asbasbag57
(g4924
g59
NtRp5415
(dp5416
g62
(dp5417
sg71
g5311
sg64
(lp5418
g57
(g4917
g59
NtRp5419
(dp5420
g62
(dp5421
g4923
S'http://www.web2py.com/book/default/chapter/10'
p5422
ssg71
g5415
sg64
(lp5423
g4145
(S't\x08\x00\x00\x00Services'
tRp5424
asbasbag57
(g4924
g59
NtRp5425
(dp5426
g62
(dp5427
sg71
g5311
sg64
(lp5428
g57
(g4917
g59
NtRp5429
(dp5430
g62
(dp5431
g4923
S'http://www.web2py.com/book/default/chapter/11'
p5432
ssg71
g5425
sg64
(lp5433
g4145
(S's\x0c\x00\x00\x00Ajax Recipes'
tRp5434
asbasbag57
(g4924
g59
NtRp5435
(dp5436
g62
(dp5437
sg71
g5311
sg64
(lp5438
g57
(g4917
g59
NtRp5439
(dp5440
g62
(dp5441
g4923
S'http://www.web2py.com/book/default/chapter/12'
p5442
ssg71
g5435
sg64
(lp5443
g4145
(S's\x16\x00\x00\x00Components and Plugins'
tRp5444
asbasbag57
(g4924
g59
NtRp5445
(dp5446
g62
(dp5447
sg71
g5311
sg64
(lp5448
g57
(g4917
g59
NtRp5449
(dp5450
g62
(dp5451
g4923
S'http://www.web2py.com/book/default/chapter/13'
p5452
ssg71
g5445
sg64
(lp5453
g4145
(S's\x12\x00\x00\x00Deployment Recipes'
tRp5454
asbasbag57
(g4924
g59
NtRp5455
(dp5456
g62
(dp5457
sg71
g5311
sg64
(lp5458
g57
(g4917
g59
NtRp5459
(dp5460
g62
(dp5461
g4923
S'http://www.web2py.com/book/default/chapter/14'
p5462
ssg71
g5455
sg64
(lp5463
g4145
(S's\r\x00\x00\x00Other Recipes'
tRp5464
asbasbag57
(g4924
g59
NtRp5465
(dp5466
g62
(dp5467
sg71
g5311
sg64
(lp5468
g57
(g4917
g59
NtRp5469
(dp5470
g62
(dp5471
g4923
S'http://stores.lulu.com/web2py'
p5472
ssg71
g5465
sg64
(lp5473
g4145
(S's\r\x00\x00\x00Buy this book'
tRp5474
asbasbasbasbag57
(g4924
g59
NtRp5475
(dp5476
g62
(dp5477
g4928
g4929
ssg71
g5059
sg64
(lp5478
g57
(g4917
g59
NtRp5479
(dp5480
g62
(dp5481
g4921
g4922
sg4923
S'#'
ssg71
g5475
sg64
(lp5482
g4145
(S't\t\x00\x00\x00Community'
tRp5483
asbag57
(g4930
g59
NtRp5484
(dp5485
g62
(dp5486
g4928
g4938
ssg71
g5475
sg64
(lp5487
g57
(g4924
g59
NtRp5488
(dp5489
g62
(dp5490
sg71
g5484
sg64
(lp5491
g57
(g4917
g59
NtRp5492
(dp5493
g62
(dp5494
g4923
S'http://www.web2py.com/examples/default/usergroups'
p5495
ssg71
g5488
sg64
(lp5496
g4145
(S't\x06\x00\x00\x00Groups'
tRp5497
asbasbag57
(g4924
g59
NtRp5498
(dp5499
g62
(dp5500
sg71
g5484
sg64
(lp5501
g57
(g4917
g59
NtRp5502
(dp5503
g62
(dp5504
g4923
S'http://twitter.com/web2py'
p5505
ssg71
g5498
sg64
(lp5506
g4145
(S't\x07\x00\x00\x00Twitter'
tRp5507
asbasbag57
(g4924
g59
NtRp5508
(dp5509
g62
(dp5510
sg71
g5484
sg64
(lp5511
g57
(g4917
g59
NtRp5512
(dp5513
g62
(dp5514
g4923
S'http://webchat.freenode.net/?channels=web2py'
p5515
ssg71
g5508
sg64
(lp5516
g4145
(S's\t\x00\x00\x00Live Chat'
tRp5517
asbasbasbasbag57
(g4924
g59
NtRp5518
(dp5519
g62
(dp5520
g4928
g4929
ssg71
g5059
sg64
(lp5521
g57
(g4917
g59
NtRp5522
(dp5523
g62
(dp5524
g4921
g4922
sg4923
S'#'
ssg71
g5518
sg64
(lp5525
g4145
(S't\x07\x00\x00\x00Plugins'
tRp5526
asbag57
(g4930
g59
NtRp5527
(dp5528
g62
(dp5529
g4928
g4938
ssg71
g5518
sg64
(lp5530
g57
(g4924
g59
NtRp5531
(dp5532
g62
(dp5533
sg71
g5527
sg64
(lp5534
g57
(g4917
g59
NtRp5535
(dp5536
g62
(dp5537
g4923
S'http://web2py.com/examples/default/download'
p5538
ssg71
g5531
sg64
(lp5539
S'plugin_wiki'
p5540
asbasbag57
(g4924
g59
NtRp5541
(dp5542
g62
(dp5543
sg71
g5527
sg64
(lp5544
g57
(g4917
g59
NtRp5545
(dp5546
g62
(dp5547
g4923
g5268
ssg71
g5541
sg64
(lp5548
g4145
(S's\r\x00\x00\x00Other Plugins'
tRp5549
asbasbag57
(g4924
g59
NtRp5550
(dp5551
g62
(dp5552
sg71
g5527
sg64
(lp5553
g57
(g4917
g59
NtRp5554
(dp5555
g62
(dp5556
g4923
g5278
ssg71
g5550
sg64
(lp5557
g4145
(S's\x0e\x00\x00\x00Layout Plugins'
tRp5558
asbasbasbasbasbasbsg64
(lp5559
g4913
asbsg64
(lp5560
g4091
asbasbasbasbag57
(g73
g59
NtRp5561
(dp5562
g62
(dp5563
sg71
g4896
sg64
(lp5564
g57
(g78
g59
NtRp5565
(dp5566
g62
(dp5567
sg71
g5561
sg64
(lp5568
g57
(g58
g59
NtRp5569
(dp5570
g62
(dp5571
g70
I3
ssg71
g5565
sg64
(lp5572
g100
asbasbasbag57
(g73
g59
NtRp5573
(dp5574
g62
(dp5575
sg71
g4896
sg64
(lp5576
g57
(g78
g59
NtRp5577
(dp5578
g62
(dp5579
sg71
g5573
sg64
(lp5580
g57
(g58
g59
NtRp5581
(dp5582
g62
(dp5583
g70
I3
ssg71
g5577
sg64
(lp5584
S'None'
p5585
asbasbasbag57
(g73
g59
NtRp5586
(dp5587
g62
(dp5588
sg71
g4896
sg64
(lp5589
g57
(g78
g59
NtRp5590
(dp5591
g62
(dp5592
sg71
g5586
sg64
(lp5593
g57
(g58
g59
NtRp5594
(dp5595
g62
(dp5596
g70
I3
ssg71
g5590
sg64
(lp5597
g57
(g66
g59
NtRp5598
(dp5599
g62
(dp5600
g70
I2
ssg71
Nsg64
(lp5601
g57
(g73
g59
NtRp5602
(dp5603
g62
(dp5604
sg71
g5598
sg64
(lp5605
g57
(g78
g59
NtRp5606
(dp5607
g62
(dp5608
sg71
g5602
sg64
(lp5609
g57
(g58
g59
NtRp5610
(dp5611
g62
(dp5612
g70
I2
ssg71
g5606
sg64
(lp5613
g57
(g66
g59
NtRp5614
(dp5615
g62
(dp5616
g70
I1
ssg71
Nsg64
(lp5617
g57
(g73
g59
NtRp5618
(dp5619
g62
(dp5620
sg71
g5614
sg64
(lp5621
g57
(g78
g59
NtRp5622
(dp5623
g62
(dp5624
sg71
g5618
sg64
(lp5625
g57
(g58
g59
NtRp5626
(dp5627
g62
(dp5628
g70
I1
ssg71
g5622
sg64
(lp5629
g5072
asbasbasbag57
(g73
g59
NtRp5630
(dp5631
g62
(dp5632
sg71
g5614
sg64
(lp5633
g57
(g78
g59
NtRp5634
(dp5635
g62
(dp5636
sg71
g5630
sg64
(lp5637
g57
(g58
g59
NtRp5638
(dp5639
g62
(dp5640
g70
I1
ssg71
g5634
sg64
(lp5641
I00
asbasbasbag57
(g73
g59
NtRp5642
(dp5643
g62
(dp5644
sg71
g5614
sg64
(lp5645
g57
(g78
g59
NtRp5646
(dp5647
g62
(dp5648
sg71
g5642
sg64
(lp5649
g57
(g58
g59
NtRp5650
(dp5651
g62
(dp5652
g70
I1
ssg71
g5646
sg64
(lp5653
g5070
asbasbasbasbasbasbasbag57
(g73
g59
NtRp5654
(dp5655
g62
(dp5656
sg71
g5598
sg64
(lp5657
g57
(g78
g59
NtRp5658
(dp5659
g62
(dp5660
sg71
g5654
sg64
(lp5661
g57
(g58
g59
NtRp5662
(dp5663
g62
(dp5664
g70
I2
ssg71
g5658
sg64
(lp5665
g57
(g66
g59
NtRp5666
(dp5667
g62
(dp5668
g70
I1
ssg71
Nsg64
(lp5669
g57
(g73
g59
NtRp5670
(dp5671
g62
(dp5672
sg71
g5666
sg64
(lp5673
g57
(g78
g59
NtRp5674
(dp5675
g62
(dp5676
sg71
g5670
sg64
(lp5677
g57
(g58
g59
NtRp5678
(dp5679
g62
(dp5680
g70
I1
ssg71
g5674
sg64
(lp5681
g5082
asbasbasbag57
(g73
g59
NtRp5682
(dp5683
g62
(dp5684
sg71
g5666
sg64
(lp5685
g57
(g78
g59
NtRp5686
(dp5687
g62
(dp5688
sg71
g5682
sg64
(lp5689
g57
(g58
g59
NtRp5690
(dp5691
g62
(dp5692
g70
I1
ssg71
g5686
sg64
(lp5693
I00
asbasbasbag57
(g73
g59
NtRp5694
(dp5695
g62
(dp5696
sg71
g5666
sg64
(lp5697
g57
(g78
g59
NtRp5698
(dp5699
g62
(dp5700
sg71
g5694
sg64
(lp5701
g57
(g58
g59
NtRp5702
(dp5703
g62
(dp5704
g70
I1
ssg71
g5698
sg64
(lp5705
g5080
asbasbasbag57
(g73
g59
NtRp5706
(dp5707
g62
(dp5708
sg71
g5666
sg64
(lp5709
g57
(g78
g59
NtRp5710
(dp5711
g62
(dp5712
sg71
g5706
sg64
(lp5713
g57
(g58
g59
NtRp5714
(dp5715
g62
(dp5716
g70
I1
ssg71
g5710
sg64
(lp5717
(lp5718
(g5096
I00
g5094
tp5719
a(g5106
I00
g5104
tp5720
a(g5116
I00
g5114
tp5721
a(g5126
I00
g5124
tp5722
a(g5136
I00
g5134
tp5723
a(g5146
I00
g5144
tp5724
a(g5156
I00
g5154
tp5725
a(g5166
I00
g5164
tp5726
a(g5176
I00
g5174
tp5727
aasbasbasbasbasbasbasbag57
(g73
g59
NtRp5728
(dp5729
g62
(dp5730
sg71
g5598
sg64
(lp5731
g57
(g78
g59
NtRp5732
(dp5733
g62
(dp5734
sg71
g5728
sg64
(lp5735
g57
(g58
g59
NtRp5736
(dp5737
g62
(dp5738
g70
I2
ssg71
g5732
sg64
(lp5739
g57
(g66
g59
NtRp5740
(dp5741
g62
(dp5742
g70
I1
ssg71
Nsg64
(lp5743
g57
(g73
g59
NtRp5744
(dp5745
g62
(dp5746
sg71
g5740
sg64
(lp5747
g57
(g78
g59
NtRp5748
(dp5749
g62
(dp5750
sg71
g5744
sg64
(lp5751
g57
(g58
g59
NtRp5752
(dp5753
g62
(dp5754
g70
I1
ssg71
g5748
sg64
(lp5755
g5186
asbasbasbag57
(g73
g59
NtRp5756
(dp5757
g62
(dp5758
sg71
g5740
sg64
(lp5759
g57
(g78
g59
NtRp5760
(dp5761
g62
(dp5762
sg71
g5756
sg64
(lp5763
g57
(g58
g59
NtRp5764
(dp5765
g62
(dp5766
g70
I1
ssg71
g5760
sg64
(lp5767
I00
asbasbasbag57
(g73
g59
NtRp5768
(dp5769
g62
(dp5770
sg71
g5740
sg64
(lp5771
g57
(g78
g59
NtRp5772
(dp5773
g62
(dp5774
sg71
g5768
sg64
(lp5775
g57
(g58
g59
NtRp5776
(dp5777
g62
(dp5778
g70
I1
ssg71
g5772
sg64
(lp5779
g5184
asbasbasbag57
(g73
g59
NtRp5780
(dp5781
g62
(dp5782
sg71
g5740
sg64
(lp5783
g57
(g78
g59
NtRp5784
(dp5785
g62
(dp5786
sg71
g5780
sg64
(lp5787
g57
(g58
g59
NtRp5788
(dp5789
g62
(dp5790
g70
I1
ssg71
g5784
sg64
(lp5791
(lp5792
(g5200
I00
g5198
tp5793
a(g5210
I00
g5208
tp5794
a(g5220
I00
g5218
tp5795
a(g5230
I00
g5228
tp5796
a(g5240
I00
g5238
tp5797
a(g5250
I00
g5248
tp5798
a(g5260
I00
g5258
tp5799
a(g5270
I00
g5268
tp5800
a(g5280
I00
g5278
tp5801
a(g5290
I00
g5288
tp5802
a(g5300
I00
g5298
tp5803
aasbasbasbasbasbasbasbag57
(g73
g59
NtRp5804
(dp5805
g62
(dp5806
sg71
g5598
sg64
(lp5807
g57
(g78
g59
NtRp5808
(dp5809
g62
(dp5810
sg71
g5804
sg64
(lp5811
g57
(g58
g59
NtRp5812
(dp5813
g62
(dp5814
g70
I2
ssg71
g5808
sg64
(lp5815
g57
(g66
g59
NtRp5816
(dp5817
g62
(dp5818
g70
I1
ssg71
Nsg64
(lp5819
g57
(g73
g59
NtRp5820
(dp5821
g62
(dp5822
sg71
g5816
sg64
(lp5823
g57
(g78
g59
NtRp5824
(dp5825
g62
(dp5826
sg71
g5820
sg64
(lp5827
g57
(g58
g59
NtRp5828
(dp5829
g62
(dp5830
g70
I1
ssg71
g5824
sg64
(lp5831
g5310
asbasbasbag57
(g73
g59
NtRp5832
(dp5833
g62
(dp5834
sg71
g5816
sg64
(lp5835
g57
(g78
g59
NtRp5836
(dp5837
g62
(dp5838
sg71
g5832
sg64
(lp5839
g57
(g58
g59
NtRp5840
(dp5841
g62
(dp5842
g70
I1
ssg71
g5836
sg64
(lp5843
I00
asbasbasbag57
(g73
g59
NtRp5844
(dp5845
g62
(dp5846
sg71
g5816
sg64
(lp5847
g57
(g78
g59
NtRp5848
(dp5849
g62
(dp5850
sg71
g5844
sg64
(lp5851
g57
(g58
g59
NtRp5852
(dp5853
g62
(dp5854
g70
I1
ssg71
g5848
sg64
(lp5855
g5308
asbasbasbag57
(g73
g59
NtRp5856
(dp5857
g62
(dp5858
sg71
g5816
sg64
(lp5859
g57
(g78
g59
NtRp5860
(dp5861
g62
(dp5862
sg71
g5856
sg64
(lp5863
g57
(g58
g59
NtRp5864
(dp5865
g62
(dp5866
g70
I1
ssg71
g5860
sg64
(lp5867
(lp5868
(g5324
I00
g5322
tp5869
a(g5334
I00
g5332
tp5870
a(g5344
I00
g5342
tp5871
a(g5354
I00
g5352
tp5872
a(g5364
I00
g5362
tp5873
a(g5374
I00
g5372
tp5874
a(g5384
I00
g5382
tp5875
a(g5394
I00
g5392
tp5876
a(g5404
I00
g5402
tp5877
a(g5414
I00
g5412
tp5878
a(g5424
I00
g5422
tp5879
a(g5434
I00
g5432
tp5880
a(g5444
I00
g5442
tp5881
a(g5454
I00
g5452
tp5882
a(g5464
I00
g5462
tp5883
a(g5474
I00
g5472
tp5884
aasbasbasbasbasbasbasbag57
(g73
g59
NtRp5885
(dp5886
g62
(dp5887
sg71
g5598
sg64
(lp5888
g57
(g78
g59
NtRp5889
(dp5890
g62
(dp5891
sg71
g5885
sg64
(lp5892
g57
(g58
g59
NtRp5893
(dp5894
g62
(dp5895
g70
I2
ssg71
g5889
sg64
(lp5896
g57
(g66
g59
NtRp5897
(dp5898
g62
(dp5899
g70
I1
ssg71
Nsg64
(lp5900
g57
(g73
g59
NtRp5901
(dp5902
g62
(dp5903
sg71
g5897
sg64
(lp5904
g57
(g78
g59
NtRp5905
(dp5906
g62
(dp5907
sg71
g5901
sg64
(lp5908
g57
(g58
g59
NtRp5909
(dp5910
g62
(dp5911
g70
I1
ssg71
g5905
sg64
(lp5912
g5483
asbasbasbag57
(g73
g59
NtRp5913
(dp5914
g62
(dp5915
sg71
g5897
sg64
(lp5916
g57
(g78
g59
NtRp5917
(dp5918
g62
(dp5919
sg71
g5913
sg64
(lp5920
g57
(g58
g59
NtRp5921
(dp5922
g62
(dp5923
g70
I1
ssg71
g5917
sg64
(lp5924
I00
asbasbasbag57
(g73
g59
NtRp5925
(dp5926
g62
(dp5927
sg71
g5897
sg64
(lp5928
g57
(g78
g59
NtRp5929
(dp5930
g62
(dp5931
sg71
g5925
sg64
(lp5932
g57
(g58
g59
NtRp5933
(dp5934
g62
(dp5935
g70
I1
ssg71
g5929
sg64
(lp5936
Nasbasbasbag57
(g73
g59
NtRp5937
(dp5938
g62
(dp5939
sg71
g5897
sg64
(lp5940
g57
(g78
g59
NtRp5941
(dp5942
g62
(dp5943
sg71
g5937
sg64
(lp5944
g57
(g58
g59
NtRp5945
(dp5946
g62
(dp5947
g70
I1
ssg71
g5941
sg64
(lp5948
(lp5949
(g5497
I00
g5495
tp5950
a(g5507
I00
g5505
tp5951
a(g5517
I00
g5515
tp5952
aasbasbasbasbasbasbasbag57
(g73
g59
NtRp5953
(dp5954
g62
(dp5955
sg71
g5598
sg64
(lp5956
g57
(g78
g59
NtRp5957
(dp5958
g62
(dp5959
sg71
g5953
sg64
(lp5960
g57
(g58
g59
NtRp5961
(dp5962
g62
(dp5963
g70
I2
ssg71
g5957
sg64
(lp5964
g57
(g66
g59
NtRp5965
(dp5966
g62
(dp5967
g70
I1
ssg71
Nsg64
(lp5968
g57
(g73
g59
NtRp5969
(dp5970
g62
(dp5971
sg71
g5965
sg64
(lp5972
g57
(g78
g59
NtRp5973
(dp5974
g62
(dp5975
sg71
g5969
sg64
(lp5976
g57
(g58
g59
NtRp5977
(dp5978
g62
(dp5979
g70
I1
ssg71
g5973
sg64
(lp5980
g5526
asbasbasbag57
(g73
g59
NtRp5981
(dp5982
g62
(dp5983
sg71
g5965
sg64
(lp5984
g57
(g78
g59
NtRp5985
(dp5986
g62
(dp5987
sg71
g5981
sg64
(lp5988
g57
(g58
g59
NtRp5989
(dp5990
g62
(dp5991
g70
I1
ssg71
g5985
sg64
(lp5992
I00
asbasbasbag57
(g73
g59
NtRp5993
(dp5994
g62
(dp5995
sg71
g5965
sg64
(lp5996
g57
(g78
g59
NtRp5997
(dp5998
g62
(dp5999
sg71
g5993
sg64
(lp6000
g57
(g58
g59
NtRp6001
(dp6002
g62
(dp6003
g70
I1
ssg71
g5997
sg64
(lp6004
Nasbasbasbag57
(g73
g59
NtRp6005
(dp6006
g62
(dp6007
sg71
g5965
sg64
(lp6008
g57
(g78
g59
NtRp6009
(dp6010
g62
(dp6011
sg71
g6005
sg64
(lp6012
g57
(g58
g59
NtRp6013
(dp6014
g62
(dp6015
g70
I1
ssg71
g6009
sg64
(lp6016
(lp6017
(g5540
I00
g5538
tp6018
a(g5549
I00
g5268
tp6019
a(g5558
I00
g5278
tp6020
aasbasbasbasbasbasbasbasbasbasbasbasbasbasbasbasbasbasbasbag57
(g73
g59
NtRp6021
(dp6022
g62
(dp6023
sg71
g3485
sg64
(lp6024
g57
(g78
g59
NtRp6025
(dp6026
g62
(dp6027
g82
g83
ssg71
g6021
sg64
(lp6028
S'meta'
p6029
asbag57
(g78
g59
NtRp6030
(dp6031
g62
(dp6032
g89
g90
ssg71
g6021
sg64
(lp6033
S':'
asbag57
(g78
g59
NtRp6034
(dp6035
g62
(dp6036
sg71
g6021
sg64
(lp6037
g57
(g58
g59
NtRp6038
(dp6039
g62
(dp6040
g70
I5
ssg71
g6034
sg64
(lp6041
g57
(g66
g59
NtRp6042
(dp6043
g62
(dp6044
g70
I4
ssg71
Nsg64
(lp6045
g57
(g73
g59
NtRp6046
(dp6047
g62
(dp6048
sg71
g6042
sg64
(lp6049
g57
(g78
g59
NtRp6050
(dp6051
g62
(dp6052
g82
g83
ssg71
g6046
sg64
(lp6053
S'author'
p6054
asbag57
(g78
g59
NtRp6055
(dp6056
g62
(dp6057
g89
g90
ssg71
g6046
sg64
(lp6058
S':'
asbag57
(g78
g59
NtRp6059
(dp6060
g62
(dp6061
sg71
g6046
sg64
(lp6062
g57
(g58
g59
NtRp6063
(dp6064
g62
(dp6065
g70
I4
ssg71
g6059
sg64
(lp6066
S'Your Name <you@example.com>'
p6067
asbasbasbag57
(g73
g59
NtRp6068
(dp6069
g62
(dp6070
sg71
g6042
sg64
(lp6071
g57
(g78
g59
NtRp6072
(dp6073
g62
(dp6074
g82
g83
ssg71
g6068
sg64
(lp6075
S'copyright'
p6076
asbag57
(g78
g59
NtRp6077
(dp6078
g62
(dp6079
g89
g90
ssg71
g6068
sg64
(lp6080
S':'
asbag57
(g78
g59
NtRp6081
(dp6082
g62
(dp6083
sg71
g6068
sg64
(lp6084
g57
(g58
g59
NtRp6085
(dp6086
g62
(dp6087
g70
I4
ssg71
g6081
sg64
(lp6088
S'Copyright 2011'
p6089
asbasbasbag57
(g73
g59
NtRp6090
(dp6091
g62
(dp6092
sg71
g6042
sg64
(lp6093
g57
(g78
g59
NtRp6094
(dp6095
g62
(dp6096
g82
g83
ssg71
g6090
sg64
(lp6097
S'description'
p6098
asbag57
(g78
g59
NtRp6099
(dp6100
g62
(dp6101
g89
g90
ssg71
g6090
sg64
(lp6102
S':'
asbag57
(g78
g59
NtRp6103
(dp6104
g62
(dp6105
sg71
g6090
sg64
(lp6106
g57
(g58
g59
NtRp6107
(dp6108
g62
(dp6109
g70
I4
ssg71
g6103
sg64
(lp6110
S'a cool new app'
p6111
asbasbasbag57
(g73
g59
NtRp6112
(dp6113
g62
(dp6114
sg71
g6042
sg64
(lp6115
g57
(g78
g59
NtRp6116
(dp6117
g62
(dp6118
g82
g83
ssg71
g6112
sg64
(lp6119
S'generator'
p6120
asbag57
(g78
g59
NtRp6121
(dp6122
g62
(dp6123
g89
g90
ssg71
g6112
sg64
(lp6124
S':'
asbag57
(g78
g59
NtRp6125
(dp6126
g62
(dp6127
sg71
g6112
sg64
(lp6128
g57
(g58
g59
NtRp6129
(dp6130
g62
(dp6131
g70
I4
ssg71
g6125
sg64
(lp6132
S'Web2py Web Framework'
p6133
asbasbasbag57
(g73
g59
NtRp6134
(dp6135
g62
(dp6136
sg71
g6042
sg64
(lp6137
g57
(g78
g59
NtRp6138
(dp6139
g62
(dp6140
g82
g83
ssg71
g6134
sg64
(lp6141
S'keywords'
p6142
asbag57
(g78
g59
NtRp6143
(dp6144
g62
(dp6145
g89
g90
ssg71
g6134
sg64
(lp6146
S':'
asbag57
(g78
g59
NtRp6147
(dp6148
g62
(dp6149
sg71
g6134
sg64
(lp6150
g57
(g58
g59
NtRp6151
(dp6152
g62
(dp6153
g70
I4
ssg71
g6147
sg64
(lp6154
S'web2py, python, framework'
p6155
asbasbasbasbasbasbasbag57
(g73
g59
NtRp6156
(dp6157
g62
(dp6158
sg71
g3485
sg64
(lp6159
g57
(g78
g59
NtRp6160
(dp6161
g62
(dp6162
g82
g83
ssg71
g6156
sg64
(lp6163
S'postprocessing'
p6164
asbag57
(g78
g59
NtRp6165
(dp6166
g62
(dp6167
g89
g90
ssg71
g6156
sg64
(lp6168
S':'
asbag57
(g78
g59
NtRp6169
(dp6170
g62
(dp6171
sg71
g6156
sg64
(lp6172
g57
(g58
g59
NtRp6173
(dp6174
g62
(dp6175
g70
I5
ssg71
g6169
sg64
(lp6176
g57
(g66
g59
NtRp6177
(dp6178
g62
(dp6179
g70
I4
ssg71
Nsg64
(lp6180
sbasbasbasbag57
(g73
g59
NtRp6181
(dp6182
g62
(dp6183
sg71
g3485
sg64
(lp6184
g57
(g78
g59
NtRp6185
(dp6186
g62
(dp6187
g82
g83
ssg71
g6181
sg64
(lp6188
S'session_file'
p6189
asbag57
(g78
g59
NtRp6190
(dp6191
g62
(dp6192
g89
g90
ssg71
g6181
sg64
(lp6193
S':'
asbag57
(g78
g59
NtRp6194
(dp6195
g62
(dp6196
sg71
g6181
sg64
(lp6197
g57
(g58
g59
NtRp6198
(dp6199
g62
(dp6200
g70
I5
ssg71
g6194
sg64
(lp6201
S"<open file '/Users/ianaboneva/Dropbox/DePaul/CSC 438 - Web Applications/web2py/applications/Book_Shelf_copy/sessions/127.0.0.1-eeba29a1-713d-4626-a1ad-4627ea1d2e7a', mode 'rb+' at 0x10563fdb0>"
p6202
asbasbasbag57
(g73
g59
NtRp6203
(dp6204
g62
(dp6205
sg71
g3485
sg64
(lp6206
g57
(g78
g59
NtRp6207
(dp6208
g62
(dp6209
g82
g83
ssg71
g6203
sg64
(lp6210
S'session_filename'
p6211
asbag57
(g78
g59
NtRp6212
(dp6213
g62
(dp6214
g89
g90
ssg71
g6203
sg64
(lp6215
S':'
asbag57
(g78
g59
NtRp6216
(dp6217
g62
(dp6218
sg71
g6203
sg64
(lp6219
g57
(g58
g59
NtRp6220
(dp6221
g62
(dp6222
g70
I5
ssg71
g6216
sg64
(lp6223
S'/Users/ianaboneva/Dropbox/DePaul/CSC 438 - Web Applications/web2py/applications/Book_Shelf_copy/sessions/127.0.0.1-eeba29a1-713d-4626-a1ad-4627ea1d2e7a'
p6224
asbasbasbag57
(g73
g59
NtRp6225
(dp6226
g62
(dp6227
sg71
g3485
sg64
(lp6228
g57
(g78
g59
NtRp6229
(dp6230
g62
(dp6231
g82
g83
ssg71
g6225
sg64
(lp6232
S'session_id'
p6233
asbag57
(g78
g59
NtRp6234
(dp6235
g62
(dp6236
g89
g90
ssg71
g6225
sg64
(lp6237
S':'
asbag57
(g78
g59
NtRp6238
(dp6239
g62
(dp6240
sg71
g6225
sg64
(lp6241
g57
(g58
g59
NtRp6242
(dp6243
g62
(dp6244
g70
I5
ssg71
g6238
sg64
(lp6245
S'127.0.0.1-eeba29a1-713d-4626-a1ad-4627ea1d2e7a'
p6246
asbasbasbag57
(g73
g59
NtRp6247
(dp6248
g62
(dp6249
sg71
g3485
sg64
(lp6250
g57
(g78
g59
NtRp6251
(dp6252
g62
(dp6253
g82
g83
ssg71
g6247
sg64
(lp6254
S'session_id_name'
p6255
asbag57
(g78
g59
NtRp6256
(dp6257
g62
(dp6258
g89
g90
ssg71
g6247
sg64
(lp6259
S':'
asbag57
(g78
g59
NtRp6260
(dp6261
g62
(dp6262
sg71
g6247
sg64
(lp6263
g57
(g58
g59
NtRp6264
(dp6265
g62
(dp6266
g70
I5
ssg71
g6260
sg64
(lp6267
g3542
asbasbasbag57
(g73
g59
NtRp6268
(dp6269
g62
(dp6270
sg71
g3485
sg64
(lp6271
g57
(g78
g59
NtRp6272
(dp6273
g62
(dp6274
g82
g83
ssg71
g6268
sg64
(lp6275
S'session_locked'
p6276
asbag57
(g78
g59
NtRp6277
(dp6278
g62
(dp6279
g89
g90
ssg71
g6268
sg64
(lp6280
S':'
asbag57
(g78
g59
NtRp6281
(dp6282
g62
(dp6283
sg71
g6268
sg64
(lp6284
g57
(g58
g59
NtRp6285
(dp6286
g62
(dp6287
g70
I5
ssg71
g6281
sg64
(lp6288
g1690
asbasbasbag57
(g73
g59
NtRp6289
(dp6290
g62
(dp6291
sg71
g3485
sg64
(lp6292
g57
(g78
g59
NtRp6293
(dp6294
g62
(dp6295
g82
g83
ssg71
g6289
sg64
(lp6296
S'session_new'
p6297
asbag57
(g78
g59
NtRp6298
(dp6299
g62
(dp6300
g89
g90
ssg71
g6289
sg64
(lp6301
S':'
asbag57
(g78
g59
NtRp6302
(dp6303
g62
(dp6304
sg71
g6289
sg64
(lp6305
g57
(g58
g59
NtRp6306
(dp6307
g62
(dp6308
g70
I5
ssg71
g6302
sg64
(lp6309
g100
asbasbasbag57
(g73
g59
NtRp6310
(dp6311
g62
(dp6312
sg71
g3485
sg64
(lp6313
g57
(g78
g59
NtRp6314
(dp6315
g62
(dp6316
g82
g83
ssg71
g6310
sg64
(lp6317
S'status'
p6318
asbag57
(g78
g59
NtRp6319
(dp6320
g62
(dp6321
g89
g90
ssg71
g6310
sg64
(lp6322
S':'
asbag57
(g78
g59
NtRp6323
(dp6324
g62
(dp6325
sg71
g6310
sg64
(lp6326
g57
(g58
g59
NtRp6327
(dp6328
g62
(dp6329
g70
I5
ssg71
g6323
sg64
(lp6330
S'200'
p6331
asbasbasbag57
(g73
g59
NtRp6332
(dp6333
g62
(dp6334
sg71
g3485
sg64
(lp6335
g57
(g78
g59
NtRp6336
(dp6337
g62
(dp6338
g82
g83
ssg71
g6332
sg64
(lp6339
S'subtitle'
p6340
asbag57
(g78
g59
NtRp6341
(dp6342
g62
(dp6343
g89
g90
ssg71
g6332
sg64
(lp6344
S':'
asbag57
(g78
g59
NtRp6345
(dp6346
g62
(dp6347
sg71
g6332
sg64
(lp6348
g57
(g58
g59
NtRp6349
(dp6350
g62
(dp6351
g70
I5
ssg71
g6345
sg64
(lp6352
g4145
(S's\r\x00\x00\x00customize me!'
tRp6353
asbasbasbag57
(g73
g59
NtRp6354
(dp6355
g62
(dp6356
sg71
g3485
sg64
(lp6357
g57
(g78
g59
NtRp6358
(dp6359
g62
(dp6360
g82
g83
ssg71
g6354
sg64
(lp6361
S'title'
p6362
asbag57
(g78
g59
NtRp6363
(dp6364
g62
(dp6365
g89
g90
ssg71
g6354
sg64
(lp6366
S':'
asbag57
(g78
g59
NtRp6367
(dp6368
g62
(dp6369
sg71
g6354
sg64
(lp6370
g57
(g58
g59
NtRp6371
(dp6372
g62
(dp6373
g70
I5
ssg71
g6367
sg64
(lp6374
S'Book Shelf Copy'
p6375
asbasbasbag57
(g73
g59
NtRp6376
(dp6377
g62
(dp6378
sg71
g3485
sg64
(lp6379
g57
(g78
g59
NtRp6380
(dp6381
g62
(dp6382
g82
g83
ssg71
g6376
sg64
(lp6383
g2375
asbag57
(g78
g59
NtRp6384
(dp6385
g62
(dp6386
g89
g90
ssg71
g6376
sg64
(lp6387
S':'
asbag57
(g78
g59
NtRp6388
(dp6389
g62
(dp6390
sg71
g6376
sg64
(lp6391
g57
(g58
g59
NtRp6392
(dp6393
g62
(dp6394
g70
I5
ssg71
g6388
sg64
(lp6395
g2388
asbasbasbag57
(g73
g59
NtRp6396
(dp6397
g62
(dp6398
sg71
g3485
sg64
(lp6399
g57
(g78
g59
NtRp6400
(dp6401
g62
(dp6402
g82
g83
ssg71
g6396
sg64
(lp6403
S'view'
p6404
asbag57
(g78
g59
NtRp6405
(dp6406
g62
(dp6407
g89
g90
ssg71
g6396
sg64
(lp6408
S':'
asbag57
(g78
g59
NtRp6409
(dp6410
g62
(dp6411
sg71
g6396
sg64
(lp6412
g57
(g58
g59
NtRp6413
(dp6414
g62
(dp6415
g70
I5
ssg71
g6409
sg64
(lp6416
S'default/book_profile.html'
p6417
asbasbasbasbasbsS'locals'
p6418
(dp6419
S'Service'
p6420
S"<class 'gluon.tools.Service'>"
p6421
sS'OBJECT'
p6422
S"<class 'gluon.html.OBJECT'>"
p6423
sS'SQLDB'
p6424
S"<class 'gluon.dal.DAL'>"
p6425
sg3090
S"<Storage {'last_query': 'db.Book_Profile.id>0', ...login]': '7ccba1b3-4763-455a-afcb-2e2461122aae'}>"
p6426
sS'LINK'
p6427
S"<class 'gluon.html.LINK'>"
p6428
sS'BR'
p6429
S"<class 'gluon.html.BR'>"
p6430
sS'local_import'
p6431
S'<function <lambda>>'
p6432
sS'OPTGROUP'
p6433
S"<class 'gluon.html.OPTGROUP'>"
p6434
sS'__package__'
p6435
S'None'
p6436
sS'PRE'
p6437
S"<class 'gluon.html.PRE'>"
p6438
sS'IS_INT_IN_RANGE'
p6439
S"<class 'gluon.validators.IS_INT_IN_RANGE'>"
p6440
sS'left_sidebar_enabled'
p6441
g100
sS'IS_LOWER'
p6442
S"<class 'gluon.validators.IS_LOWER'>"
p6443
sS'IS_STRONG'
p6444
S"<class 'gluon.validators.IS_STRONG'>"
p6445
sS'cache'
p6446
S'<gluon.cache.Cache object>'
p6447
sS'IS_IN_DB'
p6448
S"<class 'gluon.validators.IS_IN_DB'>"
p6449
sS'TAG'
p6450
S'<gluon.html.__TAG__ object>'
p6451
sS'SQLField'
p6452
S"<class 'gluon.dal.Field'>"
p6453
sS'mail'
p6454
S'<gluon.tools.Mail object>'
p6455
sS'BODY'
p6456
S"<class 'gluon.html.BODY'>"
p6457
sS'IS_DATE_IN_RANGE'
p6458
S"<class 'gluon.validators.IS_DATE_IN_RANGE'>"
p6459
sS'TH'
p6460
S"<class 'gluon.html.TH'>"
p6461
sS'URL'
p6462
S'<function URL>'
p6463
sS'__file__'
p6464
S"'/Users/ianaboneva/Dropbox/DePaul/CSC 438 - Web A...s/Book_Shelf_copy/views/default/book_profile.html'"
p6465
sS'db'
p6466
S"<DAL {'Book_Shelf': <Table {'_db': <DAL {...}>, ...key': <gluon.dal.Field object at 0x109e27fd0>}>}>"
p6467
sS'auth'
p6468
S'<gluon.tools.Auth object>'
p6469
sS'P'
S"<class 'gluon.html.P'>"
p6470
sS'TFOOT'
p6471
S"<class 'gluon.html.TFOOT'>"
p6472
sS'XHTML'
p6473
S"<class 'gluon.html.XHTML'>"
p6474
sS'ON'
p6475
g1690
sS'OL'
p6476
S"<class 'gluon.html.OL'>"
p6477
sS'TEXTAREA'
p6478
S"<class 'gluon.html.TEXTAREA'>"
p6479
sS'MENU'
p6480
S"<class 'gluon.html.MENU'>"
p6481
sS'LOAD'
p6482
S'<function LOAD>'
p6483
sS'CODE'
p6484
S"<class 'gluon.html.CODE'>"
p6485
sS'HTTP'
p6486
S"<class 'gluon.http.HTTP'>"
p6487
sS'HR'
p6488
S"<class 'gluon.html.HR'>"
p6489
sS'IS_DATETIME'
p6490
S"<class 'gluon.validators.IS_DATETIME'>"
p6491
sS'HEAD'
p6492
S"<class 'gluon.html.HEAD'>"
p6493
sS'LABEL'
p6494
S"<class 'gluon.html.LABEL'>"
p6495
sS'CLEANUP'
p6496
S"<class 'gluon.validators.CLEANUP'>"
p6497
sS'plugins'
p6498
S'<gluon.tools.PluginManager object>'
p6499
sS'book_profiles'
p6500
S'<gluon.dal.Rows object>'
p6501
sS'SELECT'
p6502
S"<class 'gluon.html.SELECT'>"
p6503
sS'use_janrain'
p6504
S'<function use_janrain>'
p6505
sS'CENTER'
p6506
S"<class 'gluon.html.CENTER'>"
p6507
sS'prettydate'
p6508
S'<function prettydate>'
p6509
sS'Crud'
p6510
S"<class 'gluon.tools.Crud'>"
p6511
sS'Auth'
p6512
S"<class 'gluon.tools.Auth'>"
p6513
sS'__builtins__'
p6514
S"{'ArithmeticError': <type 'exceptions.ArithmeticError'>, 'AssertionError': <type 'exceptions.AssertionError'>, 'AttributeError': <type 'exceptions.AttributeError'>, 'BaseException': <type 'exceptions.BaseException'>, 'BufferError': <type 'exceptions.BufferError'>, 'BytesWarning': <type 'exceptions.BytesWarning'>, 'DeprecationWarning': <type 'exceptions.DeprecationWarning'>, 'EOFError': <type 'exceptions.EOFError'>, 'Ellipsis': Ellipsis, 'EnvironmentError': <type 'exceptions.EnvironmentError'>, ...}"
p6515
sS'HTML'
p6516
S"<class 'gluon.html.HTML'>"
p6517
sS'SQLFORM'
p6518
S"<class 'gluon.sqlhtml.SQLFORM'>"
p6519
sS'EM'
p6520
S"<class 'gluon.html.EM'>"
p6521
sS'redirect'
p6522
S'<function redirect>'
p6523
sS'FIELDSET'
p6524
S"<class 'gluon.html.FIELDSET'>"
p6525
sS'IS_EQUAL_TO'
p6526
S"<class 'gluon.validators.IS_EQUAL_TO'>"
p6527
sS'embed64'
p6528
S'<function embed64>'
p6529
sS'IS_LIST_OF'
p6530
S"<class 'gluon.validators.IS_LIST_OF'>"
p6531
sS'__name__'
p6532
S"'__restricted__'"
p6533
sS'EMBED'
p6534
S"<class 'gluon.html.EMBED'>"
p6535
sS'_'
S'<function _>'
p6536
sS'FORM'
p6537
S"<class 'gluon.html.FORM'>"
p6538
sS'H2'
p6539
S"<class 'gluon.html.H2'>"
p6540
sS'H3'
p6541
S"<class 'gluon.html.H3'>"
p6542
sS'BUTTON'
p6543
S"<class 'gluon.html.BUTTON'>"
p6544
sS'H1'
p6545
S"<class 'gluon.html.H1'>"
p6546
sS'H6'
p6547
S"<class 'gluon.html.H6'>"
p6548
sS'book_profile'
p6549
S"<Row {'created_by': 2, 'Publisher': '', 'modifie...ete_record': <function <lambda> at 0x109ee3230>}>"
p6550
sS'H4'
p6551
S"<class 'gluon.html.H4'>"
p6552
sS'H5'
p6553
S"<class 'gluon.html.H5'>"
p6554
sS'UL'
p6555
S"<class 'gluon.html.UL'>"
p6556
sS'IS_UPPER'
p6557
S"<class 'gluon.validators.IS_UPPER'>"
p6558
sS'xmlescape'
p6559
S'<function xmlescape>'
p6560
sS'IS_TIME'
p6561
S"<class 'gluon.validators.IS_TIME'>"
p6562
sS'OPTION'
p6563
S"<class 'gluon.html.OPTION'>"
p6564
sS'TITLE'
p6565
S"<class 'gluon.html.TITLE'>"
p6566
sS'CRYPT'
p6567
S"<class 'gluon.validators.CRYPT'>"
p6568
sS'IS_EMPTY_OR'
p6569
S"<class 'gluon.validators.IS_EMPTY_OR'>"
p6570
sS'MARKMIN'
p6571
S"<class 'gluon.html.MARKMIN'>"
p6572
sS'INPUT'
p6573
S"<class 'gluon.html.INPUT'>"
p6574
sS'COL'
p6575
S"<class 'gluon.html.COL'>"
p6576
sS'service'
p6577
S'<gluon.tools.Service object>'
p6578
sS'SCRIPT'
p6579
S"<class 'gluon.html.SCRIPT'>"
p6580
sS'is_mobile'
p6581
g100
sS'TABLE'
p6582
S"<class 'gluon.html.TABLE'>"
p6583
sS'IS_IPV4'
p6584
S"<class 'gluon.validators.IS_IPV4'>"
p6585
sS'IS_LENGTH'
p6586
S"<class 'gluon.validators.IS_LENGTH'>"
p6587
sS'XML'
p6588
S"<class 'gluon.html.XML'>"
p6589
sS'B'
S"<class 'gluon.html.B'>"
p6590
sS'IMG'
p6591
S"<class 'gluon.html.IMG'>"
p6592
sS'SQLTABLE'
p6593
S"<class 'gluon.sqlhtml.SQLTABLE'>"
p6594
sS'IS_MATCH'
p6595
S"<class 'gluon.validators.IS_MATCH'>"
p6596
sS'IS_ALPHANUMERIC'
p6597
S"<class 'gluon.validators.IS_ALPHANUMERIC'>"
p6598
sS'SPAN'
p6599
S"<class 'gluon.html.SPAN'>"
p6600
sS'IS_SLUG'
p6601
S"<class 'gluon.validators.IS_SLUG'>"
p6602
sS'record'
p6603
S"<Row {'created_by': 2, 'Publisher': 'You mama', ...ete_record': <function <lambda> at 0x109faae60>}>"
p6604
sS'BEAUTIFY'
p6605
S"<class 'gluon.html.BEAUTIFY'>"
p6606
sS'META'
p6607
S"<class 'gluon.html.META'>"
p6608
sS'IS_DATE'
p6609
S"<class 'gluon.validators.IS_DATE'>"
p6610
sS'IS_EMAIL'
p6611
S"<class 'gluon.validators.IS_EMAIL'>"
p6612
sS'IS_NOT_EMPTY'
p6613
S"<class 'gluon.validators.IS_NOT_EMPTY'>"
p6614
sS'IS_FLOAT_IN_RANGE'
p6615
S"<class 'gluon.validators.IS_FLOAT_IN_RANGE'>"
p6616
sS'TBODY'
p6617
S"<class 'gluon.html.TBODY'>"
p6618
sS'CAT'
p6619
S"<class 'gluon.html.CAT'>"
p6620
sS'Field'
p6621
S"<class 'gluon.dal.Field'>"
p6622
sS'middle_columns'
p6623
S"'sixteen'"
p6624
sS'DIV'
p6625
S"<class 'gluon.html.DIV'>"
p6626
sS'LEGEND'
p6627
S"<class 'gluon.html.LEGEND'>"
p6628
sS'COLGROUP'
p6629
S"<class 'gluon.html.COLGROUP'>"
p6630
sS'DAL'
p6631
S"<class 'gluon.dal.DAL'>"
p6632
sS'TT'
p6633
S"<class 'gluon.html.TT'>"
p6634
sS'TR'
p6635
S"<class 'gluon.html.TR'>"
p6636
sS'LI'
p6637
S"<class 'gluon.html.LI'>"
p6638
sS'right_sidebar_enabled'
p6639
g100
sS'book'
p6640
S'<gluon.dal.Rows object>'
p6641
sS'IFRAME'
p6642
S"<class 'gluon.html.IFRAME'>"
p6643
sS'TD'
p6644
S"<class 'gluon.html.TD'>"
p6645
sS'PluginManager'
p6646
S"<class 'gluon.tools.PluginManager'>"
p6647
sS'IS_URL'
p6648
S"<class 'gluon.validators.IS_URL'>"
p6649
sS'A'
S"<class 'gluon.html.A'>"
p6650
sS'STYLE'
p6651
S"<class 'gluon.html.STYLE'>"
p6652
sS'IS_DATETIME_IN_RANGE'
p6653
S"<class 'gluon.validators.IS_DATETIME_IN_RANGE'>"
p6654
sS'IS_IMAGE'
p6655
S"<class 'gluon.validators.IS_IMAGE'>"
p6656
sS'I'
S"<class 'gluon.html.I'>"
p6657
sS'crud'
p6658
S'<gluon.tools.Crud object>'
p6659
sS'IS_NOT_IN_DB'
p6660
S"<class 'gluon.validators.IS_NOT_IN_DB'>"
p6661
sg3480
S"<Storage {'body': <cStringIO.StringO object at 0...109e2e0c8>, 'view': 'default/book_profile.html'}>"
p6662
sS'THEAD'
p6663
S"<class 'gluon.html.THEAD'>"
p6664
sS'IS_NULL_OR'
p6665
S"<class 'gluon.validators.IS_EMPTY_OR'>"
p6666
sg56
S"<Storage {'body': <cStringIO.StringO object at 0..._vars': <Storage {}>, 'post_vars': <Storage {}>}>"
p6667
sS'IS_EXPR'
p6668
S"<class 'gluon.validators.IS_EXPR'>"
p6669
sS'T'
S'<gluon.languages.translator object>'
p6670
sS'IS_IN_SET'
p6671
S"<class 'gluon.validators.IS_IN_SET'>"
p6672
sS'IS_UPLOAD_FILENAME'
p6673
S"<class 'gluon.validators.IS_UPLOAD_FILENAME'>"
p6674
sS'IS_DECIMAL_IN_RANGE'
p6675
S"<class 'gluon.validators.IS_DECIMAL_IN_RANGE'>"
p6676
sssS'traceback'
p6677
S'Traceback (most recent call last):\n  File "/Users/ianaboneva/Dropbox/DePaul/CSC 438 - Web Applications/web2py/gluon/restricted.py", line 205, in restricted\n    exec ccode in environment\n  File "/Users/ianaboneva/Dropbox/DePaul/CSC 438 - Web Applications/web2py/applications/Book_Shelf_copy/views/default/book_profile.html", line 104, in <module>\nAttributeError: \'Rows\' object has no attribute \'Title\'\n'
p6678
s.