(dp1
S'output'
p2
S"<type 'exceptions.KeyError'> 'Title'"
p3
sS'layer'
p4
S'/Users/ianaboneva/Dropbox/DePaul/CSC 438 - Web Applications/web2py/applications/Book_Shelf_copy/views/default/book_shelf.html'
p5
sS'code'
p6
S'response.write(\'<!DOCTYPE html>\\n<!-- paulirish.com/2008/conditional-stylesheets-vs-css-hacks-answer-neither/ -->\\n<!--[if lt IE 7]><html class="ie ie6 ie-lte9 ie-lte8 ie-lte7 no-js" lang="\', escape=False)\nresponse.write(T.accepted_language or \'en\')\nresponse.write(\'"> <![endif]-->\\n<!--[if IE 7]><html class="ie ie7 ie-lte9 ie-lte8 ie-lte7 no-js" lang="\', escape=False)\nresponse.write(T.accepted_language or \'en\')\nresponse.write(\'"> <![endif]-->\\n<!--[if IE 8]><html class="ie ie8 ie-lte9 ie-lte8 no-js" lang="\', escape=False)\nresponse.write(T.accepted_language or \'en\')\nresponse.write(\'"> <![endif]-->\\n<!--[if IE 9]><html class="ie9 ie-lte9 no-js" lang="\', escape=False)\nresponse.write(T.accepted_language or \'en\')\nresponse.write(\'"> <![endif]-->\\n<!--[if (gt IE 9)|!(IE)]><!--> <html class="no-js" lang="\', escape=False)\nresponse.write(T.accepted_language or \'en\')\nresponse.write(\'"> <!--<![endif]-->\\n<head>\\n  <meta charset="utf-8" />\\n  <!-- www.phpied.com/conditional-comments-block-downloads/ -->\\n  <!-- Always force latest IE rendering engine\\n\\t   (even in intranet) & Chrome Frame\\n\\t   Remove this if you use the .htaccess -->\\n  <!--[if IE]>\\n    <meta http-equiv="X-UA-Compatible" content="IE=edge\', escape=False)\nresponse.write(not request.is_local and \',chrome=1\' or \'\')\nresponse.write(\'">\\n  <![endif]-->\\n  \\n  <title>\', escape=False)\nresponse.write(response.title or request.application)\nresponse.write(\'</title>\\n  \\n  <!-- http://dev.w3.org/html5/markup/meta.name.html -->\\n  <meta name="application-name" content="\', escape=False)\nresponse.write(request.application)\nresponse.write(\'" />\\n  \\n  <!-- Speaking of Google, don\\\'t forget to set your site up:\\n\\t   http://google.com/webmasters -->\\n  <meta name="google-site-verification" content="" />\\n\\n  <!--  Mobile Viewport Fix\\n\\t  j.mp/mobileviewport & davidbcalhoun.com/2010/viewport-metatag\\n\\t  device-width: Occupy full width of the screen in its current orientation\\n\\t  initial-scale = 1.0 retains dimensions instead of zooming out if page height > device height\\n\\t  user-scalable = yes allows the user to zoom in -->\\n  <meta name="viewport" content="width=device-width, initial-scale=1.0, user-scalable=yes">\\n  \\n  <!-- Place favicon.ico and apple-touch-icon.png in the root of your domain and delete these references -->\\n  <link rel="shortcut icon" href="\', escape=False)\nresponse.write(URL(\'static\',\'favicon.ico\'))\nresponse.write(\'" type="image/x-icon">\\n  <link rel="apple-touch-icon" href="\', escape=False)\nresponse.write(URL(\'static\',\'favicon.png\'))\nresponse.write(\'">\\n\\n  <!-- All JavaScript at the bottom, except for Modernizr which enables \\n\\t   HTML5 elements & feature detects -->\\n  <script src="\', escape=False)\nresponse.write(URL(\'static\',\'js/modernizr.custom.js\'))\nresponse.write(\'"></script>  \\n\\n  <!-- include stylesheets -->\\n  \', escape=False)\nresponse.files.append(URL(\'static\',\'css/skeleton.css\'))\nresponse.files.append(URL(\'static\',\'css/web2py.css\'))\nif response.menu:\n    response.files.append(URL(\'static\',\'css/superfish.css\'))\n    response.files.append(URL(\'static\',\'js/superfish.js\'))\n    pass\nresponse.write(\'\\n\\n  \', escape=False)\nresponse.write(\'<script type="text/javascript"><!--\\n    // These variables are used by the web2py_ajax_init function in web2py_ajax.js (which is loaded below).\\n    var w2p_ajax_confirm_message = "\', escape=False)\nresponse.write(T(\'Are you sure you want to delete this object?\'))\nresponse.write(\'";\\n    var w2p_ajax_date_format = "\', escape=False)\nresponse.write(T(\'%Y-%m-%d\'))\nresponse.write(\'";\\n    var w2p_ajax_datetime_format = "\', escape=False)\nresponse.write(T(\'%Y-%m-%d %H:%M:%S\'))\nresponse.write(\'";\\n    //--></script>\\n\', escape=False)\nresponse.files.insert(0,URL(\'static\',\'js/jquery.js\'))\nresponse.files.insert(1,URL(\'static\',\'css/calendar.css\'))\nresponse.files.insert(2,URL(\'static\',\'js/calendar.js\'))\nresponse.files.insert(3,URL(\'static\',\'js/web2py.js\'))\nresponse.include_meta()\nresponse.include_files()\nresponse.write(\'\\n\', escape=False)\nresponse.write(\'\\n\\n  \', escape=False)\nif response.menu:\n    response.write(\'\\n  <script type="text/javascript">\\n    jQuery(function(){ jQuery(\\\'ul.sf-menu\\\').supersubs({minWidth:12,maxWidth:30,extraWidth:3}).superfish(); });\\n  </script>\\n  \', escape=False)\n    pass\nresponse.write(\'\\n\\n  \', escape=False)\n# using sidebars need to know what sidebar you want to use\nleft_sidebar_enabled = globals().get(\'left_sidebar_enabled\',False)\nright_sidebar_enabled = globals().get(\'right_sidebar_enabled\',False)\nmiddle_columns = {0:\'sixteen\',1:\'twelve\',2:\'eight\'}[\n(left_sidebar_enabled and 1 or 0)+(right_sidebar_enabled and 1 or 0)]\nresponse.write(\'\\n\\n  <!-- uncomment here to load jquery-ui\\n  <link rel="stylesheet" href="http://ajax.googleapis.com/ajax/libs/jqueryui/1.8.16/themes/base/jquery-ui.css" type="text/css" media="all" />\\n  <script src="http://ajax.googleapis.com/ajax/libs/jqueryui/1.8.16/jquery-ui.min.js" type="text/javascript"></script>\\n  uncomment to load jquery-ui //-->\\n</head>\\n<body>\\n  <div class="wrapper"><!-- for sticky footer -->\\n  \\n    <div class="topbar">\\n      <div class="container">    \\n        <div class="sixteen columns">\\n          <div id="navbar">\', escape=False)\nresponse.write(\'auth\' in globals() and auth.navbar(separators=(\' \',\' | \',\'\')))\nresponse.write(\'</div>\\n          \', escape=False)\nis_mobile=request.user_agent().is_mobile\nresponse.write(\'\\n\\t  \', escape=False)\nif response.menu:\n    response.write(\'\\n          <div id="menu">\\n             \', escape=False)\n    response.write(MENU(response.menu, _class=\'mobile-menu\' if is_mobile else \'sf-menu\',mobile=is_mobile))\n    response.write(\'\\n          </div>\\n          \', escape=False)\n    pass\nresponse.write(\'\\n        </div>\\n      </div>\\n    </div><!-- topbar -->\\n    \\n    <div class="flash">\', escape=False)\nresponse.write(response.flash or \'\')\nresponse.write(\'</div>\\n    \\n    <div class="header">\\n      <div class="container">         \\n        <div class="sixteen columns">\\n          <h1 class="remove-bottom" style="margin-top: .5em;">\\n          \', escape=False)\nresponse.write(response.title or request.application)\nresponse.write(\'\\n          </h1>\\n          <h5>\', escape=False)\nresponse.write(response.subtitle or \'\')\nresponse.write(\'</h5>\\n        </div>\\n        <div class="sixteen columns">\\n          <div class="statusbar clearfix">\\n            \', escape=False)\nresponse.write(\'\\n            <div class="breadcrumbs">\', escape=False)\nresponse.write(request.function.replace(\'_\', \' \').title())\nresponse.write(\'</div>\\n            \', escape=False)\nresponse.write(\'\\n            <!-- AddToAny BEGIN -->\\n            <div style="float:right; padding-top: .25em;" class="a2a_kit a2a_default_style">\\n            <a class="a2a_dd" href="http://www.addtoany.com/share_save">Share</a></div>\\n            <script type="text/javascript" src="http://static.addtoany.com/menu/page.js"></script>\\n            <!-- AddToAny END -->\\n          </div>\\n        </div>\\n      </div>\\n    </div>\\n\\n    <div class="main">\\n      <div class="container">                 \\n        \', escape=False)\nif left_sidebar_enabled:\n    response.write(\'\\n        <div class="four columns left-sidebar">\\n          \', escape=False)\n    response.write(\'\\n          <h3>Left Sidebar</h3>\\n          <p></p>\\n          \', escape=False)\n    response.write(\'\\n        </div>\\n        \', escape=False)\n    pass\nresponse.write(\'\\n        \\n        <div class="\', escape=False)\nresponse.write(middle_columns)\nresponse.write(\' columns center">\\n          \', escape=False)\nresponse.write(\'\\n          \', escape=False)\nresponse.write(\'\\n<h1>\', escape=False)\nresponse.write(shelf.Shelf_Name)\nresponse.write(\'</h1>\\n\', escape=False)\nresponse.write(form)\nresponse.write(\'\\n\\n\', escape=False)\nif len(books):\n    response.write(\'\\n\\t\', escape=False)\n    for book in books:\n        response.write(\'\\n\\t\\t<p>\', escape=False)\n        response.write(book.Title)\n        response.write(\'</p>\\n\\t\', escape=False)\n        pass\n    response.write(\'\\n\', escape=False)\nelse:\n    response.write(\'\\n\\tNo books\\n\', escape=False)\n    pass\nresponse.write(\'\\n\\t\\n\\n\', escape=False)\nresponse.write(\'\\n          \', escape=False)\nresponse.write(\'\\n        </div>\\n        \\n        \', escape=False)\nif right_sidebar_enabled:\n    response.write(\'\\n        <div class="four columns">\\n          \', escape=False)\n    response.write(\'\\n          <h3>Right Sidebar</h3>\\n          <p></p>\\n          \', escape=False)\n    response.write(\'\\n        </div>    \\n        \', escape=False)\n    pass\nresponse.write(\'\\n        \\n      </div><!-- container -->\\n    </div><!-- main -->\\n    \\n    <div class="push"></div>\\n  </div><!-- wrapper -->\\n\\n  <div class="footer">\\n    <div class="container">    \\n      <div class="sixteen columns">\\n        \', escape=False)\nresponse.write(\' <!-- this is default footer -->\\n        <div class="footer-content clearfix">\\n          <div class="copyright">\', escape=False)\nresponse.write(T(\'Copyright\'))\nresponse.write(\' &#169; 2011</div>\\n          <div style="float: right;">\\n            <a href="http://www.web2py.com/">\\n            <img style="padding-bottom: 0;" src="\', escape=False)\nresponse.write(URL(\'static\',\'images/poweredby.png\'))\nresponse.write(\'"/>\\n            </a>\\n          </div>\\n        </div>\\n        \', escape=False)\nresponse.write(\'\\t\\n      </div>\\n    </div><!-- container -->\\n  </div><!-- footer -->\\n  \\n  <!--[if lt IE 7 ]>\\n\\t<script src="\', escape=False)\nresponse.write(URL(\'static\',\'js/dd_belatedpng.js\'))\nresponse.write(\'"></script>\\n\\t<script> DD_belatedPNG.fix(\\\'img, .png_bg\\\'); //fix any <img> or .png_bg background-images </script>\\n\\t<![endif]-->\\n  \', escape=False)\nif response.google_analytics_id:\n    response.write(\'<script type="text/javascript"> var _gaq = _gaq || []; _gaq.push([\\\'_setAccount\\\', \\\'\', escape=False)\n    response.write(response.google_analytics_id)\n    response.write("\']); _gaq.push([\'_trackPageview\']); (function() { var ga = document.createElement(\'script\'); ga.type = \'text/javascript\'; ga.async = true; ga.src = (\'https:\' == document.location.protocol ? \'https://ssl\' : \'http://www\') + \'.google-analytics.com/ga.js\'; var s = document.getElementsByTagName(\'script\')[0]; s.parentNode.insertBefore(ga, s); })(); </script> ", escape=False)\n    pass\nresponse.write(\'\\n</body>\\n</html>\\n\', escape=False)'
p7
sS'snapshot'
p8
(dp9
S'exception'
p10
(dp11
S'__hash__'
p12
S"<method-wrapper '__hash__' of exceptions.KeyError object>"
p13
sS'__setattr__'
p14
S"<method-wrapper '__setattr__' of exceptions.KeyError object>"
p15
sS'__reduce_ex__'
p16
S'<built-in method __reduce_ex__ of exceptions.KeyError object>'
p17
sS'__getslice__'
p18
S"<method-wrapper '__getslice__' of exceptions.KeyError object>"
p19
sS'__getitem__'
p20
S"<method-wrapper '__getitem__' of exceptions.KeyError object>"
p21
sS'__setstate__'
p22
S'<built-in method __setstate__ of exceptions.KeyError object>'
p23
sS'args'
p24
S"('Title',)"
p25
sS'__reduce__'
p26
S'<built-in method __reduce__ of exceptions.KeyError object>'
p27
sS'__str__'
p28
S"<method-wrapper '__str__' of exceptions.KeyError object>"
p29
sS'__format__'
p30
S'<built-in method __format__ of exceptions.KeyError object>'
p31
sS'__getattribute__'
p32
S"<method-wrapper '__getattribute__' of exceptions.KeyError object>"
p33
sS'__class__'
p34
S"<type 'exceptions.KeyError'>"
p35
sS'__unicode__'
p36
S'<built-in method __unicode__ of exceptions.KeyError object>'
p37
sS'__delattr__'
p38
S"<method-wrapper '__delattr__' of exceptions.KeyError object>"
p39
sS'__subclasshook__'
p40
S'<built-in method __subclasshook__ of type object>'
p41
sS'__repr__'
p42
S"<method-wrapper '__repr__' of exceptions.KeyError object>"
p43
sS'__dict__'
p44
S'{}'
p45
sS'__sizeof__'
p46
S'<built-in method __sizeof__ of exceptions.KeyError object>'
p47
sS'__doc__'
p48
S"'Mapping key not found.'"
p49
sS'__init__'
p50
S"<method-wrapper '__init__' of exceptions.KeyError object>"
p51
sS'__new__'
p52
S'<built-in method __new__ of type object>'
p53
ssS'evalue'
p54
S"'Title'"
p55
sS'request'
p56
ccopy_reg
_reconstructor
p57
(cgluon.html
BEAUTIFY
p58
c__builtin__
object
p59
NtRp60
(dp61
S'attributes'
p62
(dp63
sS'components'
p64
(lp65
g57
(cgluon.html
TABLE
p66
g59
NtRp67
(dp68
g62
(dp69
S'level'
p70
I5
ssS'parent'
p71
Nsg64
(lp72
g57
(cgluon.html
TR
p73
g59
NtRp74
(dp75
g62
(dp76
sg71
g67
sg64
(lp77
g57
(cgluon.html
TD
p78
g59
NtRp79
(dp80
g62
(dp81
S'_style'
p82
S'font-weight:bold;vertical-align:top'
p83
ssg71
g74
sg64
(lp84
S'ajax'
p85
asbag57
(g78
g59
NtRp86
(dp87
g62
(dp88
S'_valign'
p89
S'top'
p90
ssg71
g74
sg64
(lp91
S':'
asbag57
(g78
g59
NtRp92
(dp93
g62
(dp94
sg71
g74
sg64
(lp95
g57
(g58
g59
NtRp96
(dp97
g62
(dp98
g70
I5
ssg71
g92
sg64
(lp99
S'False'
p100
asbasbasbag57
(g73
g59
NtRp101
(dp102
g62
(dp103
sg71
g67
sg64
(lp104
g57
(g78
g59
NtRp105
(dp106
g62
(dp107
g82
g83
ssg71
g101
sg64
(lp108
S'application'
p109
asbag57
(g78
g59
NtRp110
(dp111
g62
(dp112
g89
g90
ssg71
g101
sg64
(lp113
S':'
asbag57
(g78
g59
NtRp114
(dp115
g62
(dp116
sg71
g101
sg64
(lp117
g57
(g58
g59
NtRp118
(dp119
g62
(dp120
g70
I5
ssg71
g114
sg64
(lp121
S'Book_Shelf_copy'
p122
asbasbasbag57
(g73
g59
NtRp123
(dp124
g62
(dp125
sg71
g67
sg64
(lp126
g57
(g78
g59
NtRp127
(dp128
g62
(dp129
g82
g83
ssg71
g123
sg64
(lp130
g24
asbag57
(g78
g59
NtRp131
(dp132
g62
(dp133
g89
g90
ssg71
g123
sg64
(lp134
S':'
asbag57
(g78
g59
NtRp135
(dp136
g62
(dp137
sg71
g123
sg64
(lp138
g57
(g58
g59
NtRp139
(dp140
g62
(dp141
g70
I5
ssg71
g135
sg64
(lp142
g57
(g66
g59
NtRp143
(dp144
g62
(dp145
g70
I4
ssg71
Nsg64
(lp146
g57
(g73
g59
NtRp147
(dp148
g62
(dp149
sg71
g143
sg64
(lp150
g57
(g78
g59
NtRp151
(dp152
g62
(dp153
sg71
g147
sg64
(lp154
g57
(g58
g59
NtRp155
(dp156
g62
(dp157
g70
I4
ssg71
g151
sg64
(lp158
S'1'
asbasbasbasbasbasbasbag57
(g73
g59
NtRp159
(dp160
g62
(dp161
sg71
g67
sg64
(lp162
g57
(g78
g59
NtRp163
(dp164
g62
(dp165
g82
g83
ssg71
g159
sg64
(lp166
S'body'
p167
asbag57
(g78
g59
NtRp168
(dp169
g62
(dp170
g89
g90
ssg71
g159
sg64
(lp171
S':'
asbag57
(g78
g59
NtRp172
(dp173
g62
(dp174
sg71
g159
sg64
(lp175
g57
(g58
g59
NtRp176
(dp177
g62
(dp178
g70
I5
ssg71
g172
sg64
(lp179
S'<cStringIO.StringO object at 0x1054776c0>'
p180
asbasbasbag57
(g73
g59
NtRp181
(dp182
g62
(dp183
sg71
g67
sg64
(lp184
g57
(g78
g59
NtRp185
(dp186
g62
(dp187
g82
g83
ssg71
g181
sg64
(lp188
S'client'
p189
asbag57
(g78
g59
NtRp190
(dp191
g62
(dp192
g89
g90
ssg71
g181
sg64
(lp193
S':'
asbag57
(g78
g59
NtRp194
(dp195
g62
(dp196
sg71
g181
sg64
(lp197
g57
(g58
g59
NtRp198
(dp199
g62
(dp200
g70
I5
ssg71
g194
sg64
(lp201
S'127.0.0.1'
p202
asbasbasbag57
(g73
g59
NtRp203
(dp204
g62
(dp205
sg71
g67
sg64
(lp206
g57
(g78
g59
NtRp207
(dp208
g62
(dp209
g82
g83
ssg71
g203
sg64
(lp210
S'controller'
p211
asbag57
(g78
g59
NtRp212
(dp213
g62
(dp214
g89
g90
ssg71
g203
sg64
(lp215
S':'
asbag57
(g78
g59
NtRp216
(dp217
g62
(dp218
sg71
g203
sg64
(lp219
g57
(g58
g59
NtRp220
(dp221
g62
(dp222
g70
I5
ssg71
g216
sg64
(lp223
S'default'
p224
asbasbasbag57
(g73
g59
NtRp225
(dp226
g62
(dp227
sg71
g67
sg64
(lp228
g57
(g78
g59
NtRp229
(dp230
g62
(dp231
g82
g83
ssg71
g225
sg64
(lp232
S'cookies'
p233
asbag57
(g78
g59
NtRp234
(dp235
g62
(dp236
g89
g90
ssg71
g225
sg64
(lp237
S':'
asbag57
(g78
g59
NtRp238
(dp239
g62
(dp240
sg71
g225
sg64
(lp241
g57
(g58
g59
NtRp242
(dp243
g62
(dp244
g70
I5
ssg71
g238
sg64
(lp245
g57
(g66
g59
NtRp246
(dp247
g62
(dp248
g70
I4
ssg71
Nsg64
(lp249
g57
(g73
g59
NtRp250
(dp251
g62
(dp252
sg71
g246
sg64
(lp253
g57
(g78
g59
NtRp254
(dp255
g62
(dp256
g82
g83
ssg71
g250
sg64
(lp257
S'session_id_admin'
p258
asbag57
(g78
g59
NtRp259
(dp260
g62
(dp261
g89
g90
ssg71
g250
sg64
(lp262
S':'
asbag57
(g78
g59
NtRp263
(dp264
g62
(dp265
sg71
g250
sg64
(lp266
g57
(g58
g59
NtRp267
(dp268
g62
(dp269
g70
I4
ssg71
g263
sg64
(lp270
g57
(g66
g59
NtRp271
(dp272
g62
(dp273
g70
I3
ssg71
Nsg64
(lp274
g57
(g73
g59
NtRp275
(dp276
g62
(dp277
sg71
g271
sg64
(lp278
g57
(g78
g59
NtRp279
(dp280
g62
(dp281
g82
g83
ssg71
g275
sg64
(lp282
S'comment'
p283
asbag57
(g78
g59
NtRp284
(dp285
g62
(dp286
g89
g90
ssg71
g275
sg64
(lp287
S':'
asbag57
(g78
g59
NtRp288
(dp289
g62
(dp290
sg71
g275
sg64
(lp291
g57
(g58
g59
NtRp292
(dp293
g62
(dp294
g70
I3
ssg71
g288
sg64
(lp295
S''
asbasbasbag57
(g73
g59
NtRp296
(dp297
g62
(dp298
sg71
g271
sg64
(lp299
g57
(g78
g59
NtRp300
(dp301
g62
(dp302
g82
g83
ssg71
g296
sg64
(lp303
S'domain'
p304
asbag57
(g78
g59
NtRp305
(dp306
g62
(dp307
g89
g90
ssg71
g296
sg64
(lp308
S':'
asbag57
(g78
g59
NtRp309
(dp310
g62
(dp311
sg71
g296
sg64
(lp312
g57
(g58
g59
NtRp313
(dp314
g62
(dp315
g70
I3
ssg71
g309
sg64
(lp316
S''
asbasbasbag57
(g73
g59
NtRp317
(dp318
g62
(dp319
sg71
g271
sg64
(lp320
g57
(g78
g59
NtRp321
(dp322
g62
(dp323
g82
g83
ssg71
g317
sg64
(lp324
S'expires'
p325
asbag57
(g78
g59
NtRp326
(dp327
g62
(dp328
g89
g90
ssg71
g317
sg64
(lp329
S':'
asbag57
(g78
g59
NtRp330
(dp331
g62
(dp332
sg71
g317
sg64
(lp333
g57
(g58
g59
NtRp334
(dp335
g62
(dp336
g70
I3
ssg71
g330
sg64
(lp337
S''
asbasbasbag57
(g73
g59
NtRp338
(dp339
g62
(dp340
sg71
g271
sg64
(lp341
g57
(g78
g59
NtRp342
(dp343
g62
(dp344
g82
g83
ssg71
g338
sg64
(lp345
S'httponly'
p346
asbag57
(g78
g59
NtRp347
(dp348
g62
(dp349
g89
g90
ssg71
g338
sg64
(lp350
S':'
asbag57
(g78
g59
NtRp351
(dp352
g62
(dp353
sg71
g338
sg64
(lp354
g57
(g58
g59
NtRp355
(dp356
g62
(dp357
g70
I3
ssg71
g351
sg64
(lp358
S''
asbasbasbag57
(g73
g59
NtRp359
(dp360
g62
(dp361
sg71
g271
sg64
(lp362
g57
(g78
g59
NtRp363
(dp364
g62
(dp365
g82
g83
ssg71
g359
sg64
(lp366
S'max-age'
p367
asbag57
(g78
g59
NtRp368
(dp369
g62
(dp370
g89
g90
ssg71
g359
sg64
(lp371
S':'
asbag57
(g78
g59
NtRp372
(dp373
g62
(dp374
sg71
g359
sg64
(lp375
g57
(g58
g59
NtRp376
(dp377
g62
(dp378
g70
I3
ssg71
g372
sg64
(lp379
S''
asbasbasbag57
(g73
g59
NtRp380
(dp381
g62
(dp382
sg71
g271
sg64
(lp383
g57
(g78
g59
NtRp384
(dp385
g62
(dp386
g82
g83
ssg71
g380
sg64
(lp387
S'path'
p388
asbag57
(g78
g59
NtRp389
(dp390
g62
(dp391
g89
g90
ssg71
g380
sg64
(lp392
S':'
asbag57
(g78
g59
NtRp393
(dp394
g62
(dp395
sg71
g380
sg64
(lp396
g57
(g58
g59
NtRp397
(dp398
g62
(dp399
g70
I3
ssg71
g393
sg64
(lp400
S''
asbasbasbag57
(g73
g59
NtRp401
(dp402
g62
(dp403
sg71
g271
sg64
(lp404
g57
(g78
g59
NtRp405
(dp406
g62
(dp407
g82
g83
ssg71
g401
sg64
(lp408
S'secure'
p409
asbag57
(g78
g59
NtRp410
(dp411
g62
(dp412
g89
g90
ssg71
g401
sg64
(lp413
S':'
asbag57
(g78
g59
NtRp414
(dp415
g62
(dp416
sg71
g401
sg64
(lp417
g57
(g58
g59
NtRp418
(dp419
g62
(dp420
g70
I3
ssg71
g414
sg64
(lp421
S''
asbasbasbag57
(g73
g59
NtRp422
(dp423
g62
(dp424
sg71
g271
sg64
(lp425
g57
(g78
g59
NtRp426
(dp427
g62
(dp428
g82
g83
ssg71
g422
sg64
(lp429
S'version'
p430
asbag57
(g78
g59
NtRp431
(dp432
g62
(dp433
g89
g90
ssg71
g422
sg64
(lp434
S':'
asbag57
(g78
g59
NtRp435
(dp436
g62
(dp437
sg71
g422
sg64
(lp438
g57
(g58
g59
NtRp439
(dp440
g62
(dp441
g70
I3
ssg71
g435
sg64
(lp442
S''
asbasbasbasbasbasbasbag57
(g73
g59
NtRp443
(dp444
g62
(dp445
sg71
g246
sg64
(lp446
g57
(g78
g59
NtRp447
(dp448
g62
(dp449
g82
g83
ssg71
g443
sg64
(lp450
S'session_id_book_shelf_copy'
p451
asbag57
(g78
g59
NtRp452
(dp453
g62
(dp454
g89
g90
ssg71
g443
sg64
(lp455
S':'
asbag57
(g78
g59
NtRp456
(dp457
g62
(dp458
sg71
g443
sg64
(lp459
g57
(g58
g59
NtRp460
(dp461
g62
(dp462
g70
I4
ssg71
g456
sg64
(lp463
g57
(g66
g59
NtRp464
(dp465
g62
(dp466
g70
I3
ssg71
Nsg64
(lp467
g57
(g73
g59
NtRp468
(dp469
g62
(dp470
sg71
g464
sg64
(lp471
g57
(g78
g59
NtRp472
(dp473
g62
(dp474
g82
g83
ssg71
g468
sg64
(lp475
g283
asbag57
(g78
g59
NtRp476
(dp477
g62
(dp478
g89
g90
ssg71
g468
sg64
(lp479
S':'
asbag57
(g78
g59
NtRp480
(dp481
g62
(dp482
sg71
g468
sg64
(lp483
g57
(g58
g59
NtRp484
(dp485
g62
(dp486
g70
I3
ssg71
g480
sg64
(lp487
S''
asbasbasbag57
(g73
g59
NtRp488
(dp489
g62
(dp490
sg71
g464
sg64
(lp491
g57
(g78
g59
NtRp492
(dp493
g62
(dp494
g82
g83
ssg71
g488
sg64
(lp495
g304
asbag57
(g78
g59
NtRp496
(dp497
g62
(dp498
g89
g90
ssg71
g488
sg64
(lp499
S':'
asbag57
(g78
g59
NtRp500
(dp501
g62
(dp502
sg71
g488
sg64
(lp503
g57
(g58
g59
NtRp504
(dp505
g62
(dp506
g70
I3
ssg71
g500
sg64
(lp507
S''
asbasbasbag57
(g73
g59
NtRp508
(dp509
g62
(dp510
sg71
g464
sg64
(lp511
g57
(g78
g59
NtRp512
(dp513
g62
(dp514
g82
g83
ssg71
g508
sg64
(lp515
g325
asbag57
(g78
g59
NtRp516
(dp517
g62
(dp518
g89
g90
ssg71
g508
sg64
(lp519
S':'
asbag57
(g78
g59
NtRp520
(dp521
g62
(dp522
sg71
g508
sg64
(lp523
g57
(g58
g59
NtRp524
(dp525
g62
(dp526
g70
I3
ssg71
g520
sg64
(lp527
S''
asbasbasbag57
(g73
g59
NtRp528
(dp529
g62
(dp530
sg71
g464
sg64
(lp531
g57
(g78
g59
NtRp532
(dp533
g62
(dp534
g82
g83
ssg71
g528
sg64
(lp535
g346
asbag57
(g78
g59
NtRp536
(dp537
g62
(dp538
g89
g90
ssg71
g528
sg64
(lp539
S':'
asbag57
(g78
g59
NtRp540
(dp541
g62
(dp542
sg71
g528
sg64
(lp543
g57
(g58
g59
NtRp544
(dp545
g62
(dp546
g70
I3
ssg71
g540
sg64
(lp547
S''
asbasbasbag57
(g73
g59
NtRp548
(dp549
g62
(dp550
sg71
g464
sg64
(lp551
g57
(g78
g59
NtRp552
(dp553
g62
(dp554
g82
g83
ssg71
g548
sg64
(lp555
g367
asbag57
(g78
g59
NtRp556
(dp557
g62
(dp558
g89
g90
ssg71
g548
sg64
(lp559
S':'
asbag57
(g78
g59
NtRp560
(dp561
g62
(dp562
sg71
g548
sg64
(lp563
g57
(g58
g59
NtRp564
(dp565
g62
(dp566
g70
I3
ssg71
g560
sg64
(lp567
S''
asbasbasbag57
(g73
g59
NtRp568
(dp569
g62
(dp570
sg71
g464
sg64
(lp571
g57
(g78
g59
NtRp572
(dp573
g62
(dp574
g82
g83
ssg71
g568
sg64
(lp575
g388
asbag57
(g78
g59
NtRp576
(dp577
g62
(dp578
g89
g90
ssg71
g568
sg64
(lp579
S':'
asbag57
(g78
g59
NtRp580
(dp581
g62
(dp582
sg71
g568
sg64
(lp583
g57
(g58
g59
NtRp584
(dp585
g62
(dp586
g70
I3
ssg71
g580
sg64
(lp587
S''
asbasbasbag57
(g73
g59
NtRp588
(dp589
g62
(dp590
sg71
g464
sg64
(lp591
g57
(g78
g59
NtRp592
(dp593
g62
(dp594
g82
g83
ssg71
g588
sg64
(lp595
g409
asbag57
(g78
g59
NtRp596
(dp597
g62
(dp598
g89
g90
ssg71
g588
sg64
(lp599
S':'
asbag57
(g78
g59
NtRp600
(dp601
g62
(dp602
sg71
g588
sg64
(lp603
g57
(g58
g59
NtRp604
(dp605
g62
(dp606
g70
I3
ssg71
g600
sg64
(lp607
S''
asbasbasbag57
(g73
g59
NtRp608
(dp609
g62
(dp610
sg71
g464
sg64
(lp611
g57
(g78
g59
NtRp612
(dp613
g62
(dp614
g82
g83
ssg71
g608
sg64
(lp615
g430
asbag57
(g78
g59
NtRp616
(dp617
g62
(dp618
g89
g90
ssg71
g608
sg64
(lp619
S':'
asbag57
(g78
g59
NtRp620
(dp621
g62
(dp622
sg71
g608
sg64
(lp623
g57
(g58
g59
NtRp624
(dp625
g62
(dp626
g70
I3
ssg71
g620
sg64
(lp627
S''
asbasbasbasbasbasbasbag57
(g73
g59
NtRp628
(dp629
g62
(dp630
sg71
g246
sg64
(lp631
g57
(g78
g59
NtRp632
(dp633
g62
(dp634
g82
g83
ssg71
g628
sg64
(lp635
S'session_id_todolist2'
p636
asbag57
(g78
g59
NtRp637
(dp638
g62
(dp639
g89
g90
ssg71
g628
sg64
(lp640
S':'
asbag57
(g78
g59
NtRp641
(dp642
g62
(dp643
sg71
g628
sg64
(lp644
g57
(g58
g59
NtRp645
(dp646
g62
(dp647
g70
I4
ssg71
g641
sg64
(lp648
g57
(g66
g59
NtRp649
(dp650
g62
(dp651
g70
I3
ssg71
Nsg64
(lp652
g57
(g73
g59
NtRp653
(dp654
g62
(dp655
sg71
g649
sg64
(lp656
g57
(g78
g59
NtRp657
(dp658
g62
(dp659
g82
g83
ssg71
g653
sg64
(lp660
g283
asbag57
(g78
g59
NtRp661
(dp662
g62
(dp663
g89
g90
ssg71
g653
sg64
(lp664
S':'
asbag57
(g78
g59
NtRp665
(dp666
g62
(dp667
sg71
g653
sg64
(lp668
g57
(g58
g59
NtRp669
(dp670
g62
(dp671
g70
I3
ssg71
g665
sg64
(lp672
S''
asbasbasbag57
(g73
g59
NtRp673
(dp674
g62
(dp675
sg71
g649
sg64
(lp676
g57
(g78
g59
NtRp677
(dp678
g62
(dp679
g82
g83
ssg71
g673
sg64
(lp680
g304
asbag57
(g78
g59
NtRp681
(dp682
g62
(dp683
g89
g90
ssg71
g673
sg64
(lp684
S':'
asbag57
(g78
g59
NtRp685
(dp686
g62
(dp687
sg71
g673
sg64
(lp688
g57
(g58
g59
NtRp689
(dp690
g62
(dp691
g70
I3
ssg71
g685
sg64
(lp692
S''
asbasbasbag57
(g73
g59
NtRp693
(dp694
g62
(dp695
sg71
g649
sg64
(lp696
g57
(g78
g59
NtRp697
(dp698
g62
(dp699
g82
g83
ssg71
g693
sg64
(lp700
g325
asbag57
(g78
g59
NtRp701
(dp702
g62
(dp703
g89
g90
ssg71
g693
sg64
(lp704
S':'
asbag57
(g78
g59
NtRp705
(dp706
g62
(dp707
sg71
g693
sg64
(lp708
g57
(g58
g59
NtRp709
(dp710
g62
(dp711
g70
I3
ssg71
g705
sg64
(lp712
S''
asbasbasbag57
(g73
g59
NtRp713
(dp714
g62
(dp715
sg71
g649
sg64
(lp716
g57
(g78
g59
NtRp717
(dp718
g62
(dp719
g82
g83
ssg71
g713
sg64
(lp720
g346
asbag57
(g78
g59
NtRp721
(dp722
g62
(dp723
g89
g90
ssg71
g713
sg64
(lp724
S':'
asbag57
(g78
g59
NtRp725
(dp726
g62
(dp727
sg71
g713
sg64
(lp728
g57
(g58
g59
NtRp729
(dp730
g62
(dp731
g70
I3
ssg71
g725
sg64
(lp732
S''
asbasbasbag57
(g73
g59
NtRp733
(dp734
g62
(dp735
sg71
g649
sg64
(lp736
g57
(g78
g59
NtRp737
(dp738
g62
(dp739
g82
g83
ssg71
g733
sg64
(lp740
g367
asbag57
(g78
g59
NtRp741
(dp742
g62
(dp743
g89
g90
ssg71
g733
sg64
(lp744
S':'
asbag57
(g78
g59
NtRp745
(dp746
g62
(dp747
sg71
g733
sg64
(lp748
g57
(g58
g59
NtRp749
(dp750
g62
(dp751
g70
I3
ssg71
g745
sg64
(lp752
S''
asbasbasbag57
(g73
g59
NtRp753
(dp754
g62
(dp755
sg71
g649
sg64
(lp756
g57
(g78
g59
NtRp757
(dp758
g62
(dp759
g82
g83
ssg71
g753
sg64
(lp760
g388
asbag57
(g78
g59
NtRp761
(dp762
g62
(dp763
g89
g90
ssg71
g753
sg64
(lp764
S':'
asbag57
(g78
g59
NtRp765
(dp766
g62
(dp767
sg71
g753
sg64
(lp768
g57
(g58
g59
NtRp769
(dp770
g62
(dp771
g70
I3
ssg71
g765
sg64
(lp772
S''
asbasbasbag57
(g73
g59
NtRp773
(dp774
g62
(dp775
sg71
g649
sg64
(lp776
g57
(g78
g59
NtRp777
(dp778
g62
(dp779
g82
g83
ssg71
g773
sg64
(lp780
g409
asbag57
(g78
g59
NtRp781
(dp782
g62
(dp783
g89
g90
ssg71
g773
sg64
(lp784
S':'
asbag57
(g78
g59
NtRp785
(dp786
g62
(dp787
sg71
g773
sg64
(lp788
g57
(g58
g59
NtRp789
(dp790
g62
(dp791
g70
I3
ssg71
g785
sg64
(lp792
S''
asbasbasbag57
(g73
g59
NtRp793
(dp794
g62
(dp795
sg71
g649
sg64
(lp796
g57
(g78
g59
NtRp797
(dp798
g62
(dp799
g82
g83
ssg71
g793
sg64
(lp800
g430
asbag57
(g78
g59
NtRp801
(dp802
g62
(dp803
g89
g90
ssg71
g793
sg64
(lp804
S':'
asbag57
(g78
g59
NtRp805
(dp806
g62
(dp807
sg71
g793
sg64
(lp808
g57
(g58
g59
NtRp809
(dp810
g62
(dp811
g70
I3
ssg71
g805
sg64
(lp812
S''
asbasbasbasbasbasbasbag57
(g73
g59
NtRp813
(dp814
g62
(dp815
sg71
g246
sg64
(lp816
g57
(g78
g59
NtRp817
(dp818
g62
(dp819
g82
g83
ssg71
g813
sg64
(lp820
S'session_id_welcome'
p821
asbag57
(g78
g59
NtRp822
(dp823
g62
(dp824
g89
g90
ssg71
g813
sg64
(lp825
S':'
asbag57
(g78
g59
NtRp826
(dp827
g62
(dp828
sg71
g813
sg64
(lp829
g57
(g58
g59
NtRp830
(dp831
g62
(dp832
g70
I4
ssg71
g826
sg64
(lp833
g57
(g66
g59
NtRp834
(dp835
g62
(dp836
g70
I3
ssg71
Nsg64
(lp837
g57
(g73
g59
NtRp838
(dp839
g62
(dp840
sg71
g834
sg64
(lp841
g57
(g78
g59
NtRp842
(dp843
g62
(dp844
g82
g83
ssg71
g838
sg64
(lp845
g283
asbag57
(g78
g59
NtRp846
(dp847
g62
(dp848
g89
g90
ssg71
g838
sg64
(lp849
S':'
asbag57
(g78
g59
NtRp850
(dp851
g62
(dp852
sg71
g838
sg64
(lp853
g57
(g58
g59
NtRp854
(dp855
g62
(dp856
g70
I3
ssg71
g850
sg64
(lp857
S''
asbasbasbag57
(g73
g59
NtRp858
(dp859
g62
(dp860
sg71
g834
sg64
(lp861
g57
(g78
g59
NtRp862
(dp863
g62
(dp864
g82
g83
ssg71
g858
sg64
(lp865
g304
asbag57
(g78
g59
NtRp866
(dp867
g62
(dp868
g89
g90
ssg71
g858
sg64
(lp869
S':'
asbag57
(g78
g59
NtRp870
(dp871
g62
(dp872
sg71
g858
sg64
(lp873
g57
(g58
g59
NtRp874
(dp875
g62
(dp876
g70
I3
ssg71
g870
sg64
(lp877
S''
asbasbasbag57
(g73
g59
NtRp878
(dp879
g62
(dp880
sg71
g834
sg64
(lp881
g57
(g78
g59
NtRp882
(dp883
g62
(dp884
g82
g83
ssg71
g878
sg64
(lp885
g325
asbag57
(g78
g59
NtRp886
(dp887
g62
(dp888
g89
g90
ssg71
g878
sg64
(lp889
S':'
asbag57
(g78
g59
NtRp890
(dp891
g62
(dp892
sg71
g878
sg64
(lp893
g57
(g58
g59
NtRp894
(dp895
g62
(dp896
g70
I3
ssg71
g890
sg64
(lp897
S''
asbasbasbag57
(g73
g59
NtRp898
(dp899
g62
(dp900
sg71
g834
sg64
(lp901
g57
(g78
g59
NtRp902
(dp903
g62
(dp904
g82
g83
ssg71
g898
sg64
(lp905
g346
asbag57
(g78
g59
NtRp906
(dp907
g62
(dp908
g89
g90
ssg71
g898
sg64
(lp909
S':'
asbag57
(g78
g59
NtRp910
(dp911
g62
(dp912
sg71
g898
sg64
(lp913
g57
(g58
g59
NtRp914
(dp915
g62
(dp916
g70
I3
ssg71
g910
sg64
(lp917
S''
asbasbasbag57
(g73
g59
NtRp918
(dp919
g62
(dp920
sg71
g834
sg64
(lp921
g57
(g78
g59
NtRp922
(dp923
g62
(dp924
g82
g83
ssg71
g918
sg64
(lp925
g367
asbag57
(g78
g59
NtRp926
(dp927
g62
(dp928
g89
g90
ssg71
g918
sg64
(lp929
S':'
asbag57
(g78
g59
NtRp930
(dp931
g62
(dp932
sg71
g918
sg64
(lp933
g57
(g58
g59
NtRp934
(dp935
g62
(dp936
g70
I3
ssg71
g930
sg64
(lp937
S''
asbasbasbag57
(g73
g59
NtRp938
(dp939
g62
(dp940
sg71
g834
sg64
(lp941
g57
(g78
g59
NtRp942
(dp943
g62
(dp944
g82
g83
ssg71
g938
sg64
(lp945
g388
asbag57
(g78
g59
NtRp946
(dp947
g62
(dp948
g89
g90
ssg71
g938
sg64
(lp949
S':'
asbag57
(g78
g59
NtRp950
(dp951
g62
(dp952
sg71
g938
sg64
(lp953
g57
(g58
g59
NtRp954
(dp955
g62
(dp956
g70
I3
ssg71
g950
sg64
(lp957
S''
asbasbasbag57
(g73
g59
NtRp958
(dp959
g62
(dp960
sg71
g834
sg64
(lp961
g57
(g78
g59
NtRp962
(dp963
g62
(dp964
g82
g83
ssg71
g958
sg64
(lp965
g409
asbag57
(g78
g59
NtRp966
(dp967
g62
(dp968
g89
g90
ssg71
g958
sg64
(lp969
S':'
asbag57
(g78
g59
NtRp970
(dp971
g62
(dp972
sg71
g958
sg64
(lp973
g57
(g58
g59
NtRp974
(dp975
g62
(dp976
g70
I3
ssg71
g970
sg64
(lp977
S''
asbasbasbag57
(g73
g59
NtRp978
(dp979
g62
(dp980
sg71
g834
sg64
(lp981
g57
(g78
g59
NtRp982
(dp983
g62
(dp984
g82
g83
ssg71
g978
sg64
(lp985
g430
asbag57
(g78
g59
NtRp986
(dp987
g62
(dp988
g89
g90
ssg71
g978
sg64
(lp989
S':'
asbag57
(g78
g59
NtRp990
(dp991
g62
(dp992
sg71
g978
sg64
(lp993
g57
(g58
g59
NtRp994
(dp995
g62
(dp996
g70
I3
ssg71
g990
sg64
(lp997
S''
asbasbasbasbasbasbasbasbasbasbasbag57
(g73
g59
NtRp998
(dp999
g62
(dp1000
sg71
g67
sg64
(lp1001
g57
(g78
g59
NtRp1002
(dp1003
g62
(dp1004
g82
g83
ssg71
g998
sg64
(lp1005
S'env'
p1006
asbag57
(g78
g59
NtRp1007
(dp1008
g62
(dp1009
g89
g90
ssg71
g998
sg64
(lp1010
S':'
asbag57
(g78
g59
NtRp1011
(dp1012
g62
(dp1013
sg71
g998
sg64
(lp1014
g57
(g58
g59
NtRp1015
(dp1016
g62
(dp1017
g70
I5
ssg71
g1011
sg64
(lp1018
g57
(g66
g59
NtRp1019
(dp1020
g62
(dp1021
g70
I4
ssg71
Nsg64
(lp1022
g57
(g73
g59
NtRp1023
(dp1024
g62
(dp1025
sg71
g1019
sg64
(lp1026
g57
(g78
g59
NtRp1027
(dp1028
g62
(dp1029
g82
g83
ssg71
g1023
sg64
(lp1030
S'app_folders'
p1031
asbag57
(g78
g59
NtRp1032
(dp1033
g62
(dp1034
g89
g90
ssg71
g1023
sg64
(lp1035
S':'
asbag57
(g78
g59
NtRp1036
(dp1037
g62
(dp1038
sg71
g1023
sg64
(lp1039
g57
(g58
g59
NtRp1040
(dp1041
g62
(dp1042
g70
I4
ssg71
g1036
sg64
(lp1043
S"set(['/Users/ianaboneva/Dropbox/DePaul/CSC 438 - Web Applications/web2py/applications/ToDoList2/', '/Users/ianaboneva/Dropbox/DePaul/CSC 438 - Web Applications/web2py/applications/welcome/', '/Users/ianaboneva/Dropbox/DePaul/CSC 438 - Web Applications/web2py/applications/admin/', '/Users/ianaboneva/Dropbox/DePaul/CSC 438 - Web Applications/web2py/applications/Book_Shelf_copy/'])"
p1044
asbasbasbag57
(g73
g59
NtRp1045
(dp1046
g62
(dp1047
sg71
g1019
sg64
(lp1048
g57
(g78
g59
NtRp1049
(dp1050
g62
(dp1051
g82
g83
ssg71
g1045
sg64
(lp1052
S'applications_parent'
p1053
asbag57
(g78
g59
NtRp1054
(dp1055
g62
(dp1056
g89
g90
ssg71
g1045
sg64
(lp1057
S':'
asbag57
(g78
g59
NtRp1058
(dp1059
g62
(dp1060
sg71
g1045
sg64
(lp1061
g57
(g58
g59
NtRp1062
(dp1063
g62
(dp1064
g70
I4
ssg71
g1058
sg64
(lp1065
S'/Users/ianaboneva/Dropbox/DePaul/CSC 438 - Web Applications/web2py'
p1066
asbasbasbag57
(g73
g59
NtRp1067
(dp1068
g62
(dp1069
sg71
g1019
sg64
(lp1070
g57
(g78
g59
NtRp1071
(dp1072
g62
(dp1073
g82
g83
ssg71
g1067
sg64
(lp1074
S'cmd_args'
p1075
asbag57
(g78
g59
NtRp1076
(dp1077
g62
(dp1078
g89
g90
ssg71
g1067
sg64
(lp1079
S':'
asbag57
(g78
g59
NtRp1080
(dp1081
g62
(dp1082
sg71
g1067
sg64
(lp1083
g57
(g58
g59
NtRp1084
(dp1085
g62
(dp1086
g70
I4
ssg71
g1080
sg64
(lp1087
g57
(g66
g59
NtRp1088
(dp1089
g62
(dp1090
g70
I3
ssg71
Nsg64
(lp1091
sbasbasbasbag57
(g73
g59
NtRp1092
(dp1093
g62
(dp1094
sg71
g1019
sg64
(lp1095
g57
(g78
g59
NtRp1096
(dp1097
g62
(dp1098
g82
g83
ssg71
g1092
sg64
(lp1099
S'cmd_options'
p1100
asbag57
(g78
g59
NtRp1101
(dp1102
g62
(dp1103
g89
g90
ssg71
g1092
sg64
(lp1104
S':'
asbag57
(g78
g59
NtRp1105
(dp1106
g62
(dp1107
sg71
g1092
sg64
(lp1108
g57
(g58
g59
NtRp1109
(dp1110
g62
(dp1111
g70
I4
ssg71
g1105
sg64
(lp1112
S"<Values at 0x104fc1b00: {'verbose': False, 'ip': '127.0.0.1', 'shutdown_timeout': 5, 'taskbar': False, 'nocron': False, 'pid_filename': 'httpserver.pid', 'maxthreads': None, 'softcron': False, 'server_name': 'Iana-Bonevas-MacBook-Pro.local', 'bpython': False, 'nogui': False, 'port': 8000, 'extcron': False, 'debuglevel': 30, 'test': None, 'folder': '/Users/ianaboneva/Dropbox/DePaul/CSC 438 - Web Applications/web2py', 'config': '', 'import_models': False, 'winservice': '', 'shell': None, 'run': '', 'log_filename': 'httpserver.log', 'args': [''], 'socket_timeout': 5, 'ssl_ca_certificate': None, 'scheduler': None, 'profiler_filename': None, 'ssl_private_key': '', 'password': '<ask>', 'request_queue_size': 5, 'ssl_certificate': '', 'cronjob': False, 'numthreads': None, 'quiet': False, 'interfaces': None, 'minthreads': None, 'timeout': 10, 'plain': False, 'nobanner': False}>"
p1113
asbasbasbag57
(g73
g59
NtRp1114
(dp1115
g62
(dp1116
sg71
g1019
sg64
(lp1117
g57
(g78
g59
NtRp1118
(dp1119
g62
(dp1120
g82
g83
ssg71
g1114
sg64
(lp1121
S'db_sessions'
p1122
asbag57
(g78
g59
NtRp1123
(dp1124
g62
(dp1125
g89
g90
ssg71
g1114
sg64
(lp1126
S':'
asbag57
(g78
g59
NtRp1127
(dp1128
g62
(dp1129
sg71
g1114
sg64
(lp1130
g57
(g58
g59
NtRp1131
(dp1132
g62
(dp1133
g70
I4
ssg71
g1127
sg64
(lp1134
S'set([])'
p1135
asbasbasbag57
(g73
g59
NtRp1136
(dp1137
g62
(dp1138
sg71
g1019
sg64
(lp1139
g57
(g78
g59
NtRp1140
(dp1141
g62
(dp1142
g82
g83
ssg71
g1136
sg64
(lp1143
S'debugging'
p1144
asbag57
(g78
g59
NtRp1145
(dp1146
g62
(dp1147
g89
g90
ssg71
g1136
sg64
(lp1148
S':'
asbag57
(g78
g59
NtRp1149
(dp1150
g62
(dp1151
sg71
g1136
sg64
(lp1152
g57
(g58
g59
NtRp1153
(dp1154
g62
(dp1155
g70
I4
ssg71
g1149
sg64
(lp1156
g100
asbasbasbag57
(g73
g59
NtRp1157
(dp1158
g62
(dp1159
sg71
g1019
sg64
(lp1160
g57
(g78
g59
NtRp1161
(dp1162
g62
(dp1163
g82
g83
ssg71
g1157
sg64
(lp1164
S'gluon_parent'
p1165
asbag57
(g78
g59
NtRp1166
(dp1167
g62
(dp1168
g89
g90
ssg71
g1157
sg64
(lp1169
S':'
asbag57
(g78
g59
NtRp1170
(dp1171
g62
(dp1172
sg71
g1157
sg64
(lp1173
g57
(g58
g59
NtRp1174
(dp1175
g62
(dp1176
g70
I4
ssg71
g1170
sg64
(lp1177
S'/Users/ianaboneva/Dropbox/DePaul/CSC 438 - Web Applications/web2py'
p1178
asbasbasbag57
(g73
g59
NtRp1179
(dp1180
g62
(dp1181
sg71
g1019
sg64
(lp1182
g57
(g78
g59
NtRp1183
(dp1184
g62
(dp1185
g82
g83
ssg71
g1179
sg64
(lp1186
S'http_accept'
p1187
asbag57
(g78
g59
NtRp1188
(dp1189
g62
(dp1190
g89
g90
ssg71
g1179
sg64
(lp1191
S':'
asbag57
(g78
g59
NtRp1192
(dp1193
g62
(dp1194
sg71
g1179
sg64
(lp1195
g57
(g58
g59
NtRp1196
(dp1197
g62
(dp1198
g70
I4
ssg71
g1192
sg64
(lp1199
S'text/html,application/xhtml+xml,application/xml;q=0.9,*/*;q=0.8'
p1200
asbasbasbag57
(g73
g59
NtRp1201
(dp1202
g62
(dp1203
sg71
g1019
sg64
(lp1204
g57
(g78
g59
NtRp1205
(dp1206
g62
(dp1207
g82
g83
ssg71
g1201
sg64
(lp1208
S'http_accept_charset'
p1209
asbag57
(g78
g59
NtRp1210
(dp1211
g62
(dp1212
g89
g90
ssg71
g1201
sg64
(lp1213
S':'
asbag57
(g78
g59
NtRp1214
(dp1215
g62
(dp1216
sg71
g1201
sg64
(lp1217
g57
(g58
g59
NtRp1218
(dp1219
g62
(dp1220
g70
I4
ssg71
g1214
sg64
(lp1221
S'ISO-8859-1,utf-8;q=0.7,*;q=0.3'
p1222
asbasbasbag57
(g73
g59
NtRp1223
(dp1224
g62
(dp1225
sg71
g1019
sg64
(lp1226
g57
(g78
g59
NtRp1227
(dp1228
g62
(dp1229
g82
g83
ssg71
g1223
sg64
(lp1230
S'http_accept_encoding'
p1231
asbag57
(g78
g59
NtRp1232
(dp1233
g62
(dp1234
g89
g90
ssg71
g1223
sg64
(lp1235
S':'
asbag57
(g78
g59
NtRp1236
(dp1237
g62
(dp1238
sg71
g1223
sg64
(lp1239
g57
(g58
g59
NtRp1240
(dp1241
g62
(dp1242
g70
I4
ssg71
g1236
sg64
(lp1243
S'gzip,deflate,sdch'
p1244
asbasbasbag57
(g73
g59
NtRp1245
(dp1246
g62
(dp1247
sg71
g1019
sg64
(lp1248
g57
(g78
g59
NtRp1249
(dp1250
g62
(dp1251
g82
g83
ssg71
g1245
sg64
(lp1252
S'http_accept_language'
p1253
asbag57
(g78
g59
NtRp1254
(dp1255
g62
(dp1256
g89
g90
ssg71
g1245
sg64
(lp1257
S':'
asbag57
(g78
g59
NtRp1258
(dp1259
g62
(dp1260
sg71
g1245
sg64
(lp1261
g57
(g58
g59
NtRp1262
(dp1263
g62
(dp1264
g70
I4
ssg71
g1258
sg64
(lp1265
S'en-US,en;q=0.8'
p1266
asbasbasbag57
(g73
g59
NtRp1267
(dp1268
g62
(dp1269
sg71
g1019
sg64
(lp1270
g57
(g78
g59
NtRp1271
(dp1272
g62
(dp1273
g82
g83
ssg71
g1267
sg64
(lp1274
S'http_cache_control'
p1275
asbag57
(g78
g59
NtRp1276
(dp1277
g62
(dp1278
g89
g90
ssg71
g1267
sg64
(lp1279
S':'
asbag57
(g78
g59
NtRp1280
(dp1281
g62
(dp1282
sg71
g1267
sg64
(lp1283
g57
(g58
g59
NtRp1284
(dp1285
g62
(dp1286
g70
I4
ssg71
g1280
sg64
(lp1287
S'max-age=0'
p1288
asbasbasbag57
(g73
g59
NtRp1289
(dp1290
g62
(dp1291
sg71
g1019
sg64
(lp1292
g57
(g78
g59
NtRp1293
(dp1294
g62
(dp1295
g82
g83
ssg71
g1289
sg64
(lp1296
S'http_connection'
p1297
asbag57
(g78
g59
NtRp1298
(dp1299
g62
(dp1300
g89
g90
ssg71
g1289
sg64
(lp1301
S':'
asbag57
(g78
g59
NtRp1302
(dp1303
g62
(dp1304
sg71
g1289
sg64
(lp1305
g57
(g58
g59
NtRp1306
(dp1307
g62
(dp1308
g70
I4
ssg71
g1302
sg64
(lp1309
S'keep-alive'
p1310
asbasbasbag57
(g73
g59
NtRp1311
(dp1312
g62
(dp1313
sg71
g1019
sg64
(lp1314
g57
(g78
g59
NtRp1315
(dp1316
g62
(dp1317
g82
g83
ssg71
g1311
sg64
(lp1318
S'http_cookie'
p1319
asbag57
(g78
g59
NtRp1320
(dp1321
g62
(dp1322
g89
g90
ssg71
g1311
sg64
(lp1323
S':'
asbag57
(g78
g59
NtRp1324
(dp1325
g62
(dp1326
sg71
g1311
sg64
(lp1327
g57
(g58
g59
NtRp1328
(dp1329
g62
(dp1330
g70
I4
ssg71
g1324
sg64
(lp1331
S'session_id_welcome=127.0.0.1-bffe8a2c-7cac-4fda-8379-2a112ae00c58; session_id_todolist2=127.0.0.1-477221c7-510b-4aa7-b5d2-77bae14bca92; session_id_book_shelf_copy=127.0.0.1-eeba29a1-713d-4626-a1ad-4627ea1d2e7a; session_id_admin=127.0.0.1-4c04cc91-8b55-4bcd-8835-a51019000e30'
p1332
asbasbasbag57
(g73
g59
NtRp1333
(dp1334
g62
(dp1335
sg71
g1019
sg64
(lp1336
g57
(g78
g59
NtRp1337
(dp1338
g62
(dp1339
g82
g83
ssg71
g1333
sg64
(lp1340
S'http_host'
p1341
asbag57
(g78
g59
NtRp1342
(dp1343
g62
(dp1344
g89
g90
ssg71
g1333
sg64
(lp1345
S':'
asbag57
(g78
g59
NtRp1346
(dp1347
g62
(dp1348
sg71
g1333
sg64
(lp1349
g57
(g58
g59
NtRp1350
(dp1351
g62
(dp1352
g70
I4
ssg71
g1346
sg64
(lp1353
S'127.0.0.1:8000'
p1354
asbasbasbag57
(g73
g59
NtRp1355
(dp1356
g62
(dp1357
sg71
g1019
sg64
(lp1358
g57
(g78
g59
NtRp1359
(dp1360
g62
(dp1361
g82
g83
ssg71
g1355
sg64
(lp1362
S'http_user_agent'
p1363
asbag57
(g78
g59
NtRp1364
(dp1365
g62
(dp1366
g89
g90
ssg71
g1355
sg64
(lp1367
S':'
asbag57
(g78
g59
NtRp1368
(dp1369
g62
(dp1370
sg71
g1355
sg64
(lp1371
g57
(g58
g59
NtRp1372
(dp1373
g62
(dp1374
g70
I4
ssg71
g1368
sg64
(lp1375
S'Mozilla/5.0 (Macintosh; Intel Mac OS X 10_7_4) AppleWebKit/536.5 (KHTML, like Gecko) Chrome/19.0.1084.53 Safari/536.5'
p1376
asbasbasbag57
(g73
g59
NtRp1377
(dp1378
g62
(dp1379
sg71
g1019
sg64
(lp1380
g57
(g78
g59
NtRp1381
(dp1382
g62
(dp1383
g82
g83
ssg71
g1377
sg64
(lp1384
S'is_jython'
p1385
asbag57
(g78
g59
NtRp1386
(dp1387
g62
(dp1388
g89
g90
ssg71
g1377
sg64
(lp1389
S':'
asbag57
(g78
g59
NtRp1390
(dp1391
g62
(dp1392
sg71
g1377
sg64
(lp1393
g57
(g58
g59
NtRp1394
(dp1395
g62
(dp1396
g70
I4
ssg71
g1390
sg64
(lp1397
g100
asbasbasbag57
(g73
g59
NtRp1398
(dp1399
g62
(dp1400
sg71
g1019
sg64
(lp1401
g57
(g78
g59
NtRp1402
(dp1403
g62
(dp1404
g82
g83
ssg71
g1398
sg64
(lp1405
S'is_pypy'
p1406
asbag57
(g78
g59
NtRp1407
(dp1408
g62
(dp1409
g89
g90
ssg71
g1398
sg64
(lp1410
S':'
asbag57
(g78
g59
NtRp1411
(dp1412
g62
(dp1413
sg71
g1398
sg64
(lp1414
g57
(g58
g59
NtRp1415
(dp1416
g62
(dp1417
g70
I4
ssg71
g1411
sg64
(lp1418
g100
asbasbasbag57
(g73
g59
NtRp1419
(dp1420
g62
(dp1421
sg71
g1019
sg64
(lp1422
g57
(g78
g59
NtRp1423
(dp1424
g62
(dp1425
g82
g83
ssg71
g1419
sg64
(lp1426
S'path_info'
p1427
asbag57
(g78
g59
NtRp1428
(dp1429
g62
(dp1430
g89
g90
ssg71
g1419
sg64
(lp1431
S':'
asbag57
(g78
g59
NtRp1432
(dp1433
g62
(dp1434
sg71
g1419
sg64
(lp1435
g57
(g58
g59
NtRp1436
(dp1437
g62
(dp1438
g70
I4
ssg71
g1432
sg64
(lp1439
S'/Book_Shelf_copy/default/book_shelf/1'
p1440
asbasbasbag57
(g73
g59
NtRp1441
(dp1442
g62
(dp1443
sg71
g1019
sg64
(lp1444
g57
(g78
g59
NtRp1445
(dp1446
g62
(dp1447
g82
g83
ssg71
g1441
sg64
(lp1448
S'query_string'
p1449
asbag57
(g78
g59
NtRp1450
(dp1451
g62
(dp1452
g89
g90
ssg71
g1441
sg64
(lp1453
S':'
asbag57
(g78
g59
NtRp1454
(dp1455
g62
(dp1456
sg71
g1441
sg64
(lp1457
g57
(g58
g59
NtRp1458
(dp1459
g62
(dp1460
g70
I4
ssg71
g1454
sg64
(lp1461
S''
asbasbasbag57
(g73
g59
NtRp1462
(dp1463
g62
(dp1464
sg71
g1019
sg64
(lp1465
g57
(g78
g59
NtRp1466
(dp1467
g62
(dp1468
g82
g83
ssg71
g1462
sg64
(lp1469
S'remote_addr'
p1470
asbag57
(g78
g59
NtRp1471
(dp1472
g62
(dp1473
g89
g90
ssg71
g1462
sg64
(lp1474
S':'
asbag57
(g78
g59
NtRp1475
(dp1476
g62
(dp1477
sg71
g1462
sg64
(lp1478
g57
(g58
g59
NtRp1479
(dp1480
g62
(dp1481
g70
I4
ssg71
g1475
sg64
(lp1482
g202
asbasbasbag57
(g73
g59
NtRp1483
(dp1484
g62
(dp1485
sg71
g1019
sg64
(lp1486
g57
(g78
g59
NtRp1487
(dp1488
g62
(dp1489
g82
g83
ssg71
g1483
sg64
(lp1490
S'remote_port'
p1491
asbag57
(g78
g59
NtRp1492
(dp1493
g62
(dp1494
g89
g90
ssg71
g1483
sg64
(lp1495
S':'
asbag57
(g78
g59
NtRp1496
(dp1497
g62
(dp1498
sg71
g1483
sg64
(lp1499
g57
(g58
g59
NtRp1500
(dp1501
g62
(dp1502
g70
I4
ssg71
g1496
sg64
(lp1503
S'54212'
p1504
asbasbasbag57
(g73
g59
NtRp1505
(dp1506
g62
(dp1507
sg71
g1019
sg64
(lp1508
g57
(g78
g59
NtRp1509
(dp1510
g62
(dp1511
g82
g83
ssg71
g1505
sg64
(lp1512
S'request_method'
p1513
asbag57
(g78
g59
NtRp1514
(dp1515
g62
(dp1516
g89
g90
ssg71
g1505
sg64
(lp1517
S':'
asbag57
(g78
g59
NtRp1518
(dp1519
g62
(dp1520
sg71
g1505
sg64
(lp1521
g57
(g58
g59
NtRp1522
(dp1523
g62
(dp1524
g70
I4
ssg71
g1518
sg64
(lp1525
S'GET'
p1526
asbasbasbag57
(g73
g59
NtRp1527
(dp1528
g62
(dp1529
sg71
g1019
sg64
(lp1530
g57
(g78
g59
NtRp1531
(dp1532
g62
(dp1533
g82
g83
ssg71
g1527
sg64
(lp1534
S'script_name'
p1535
asbag57
(g78
g59
NtRp1536
(dp1537
g62
(dp1538
g89
g90
ssg71
g1527
sg64
(lp1539
S':'
asbag57
(g78
g59
NtRp1540
(dp1541
g62
(dp1542
sg71
g1527
sg64
(lp1543
g57
(g58
g59
NtRp1544
(dp1545
g62
(dp1546
g70
I4
ssg71
g1540
sg64
(lp1547
S''
asbasbasbag57
(g73
g59
NtRp1548
(dp1549
g62
(dp1550
sg71
g1019
sg64
(lp1551
g57
(g78
g59
NtRp1552
(dp1553
g62
(dp1554
g82
g83
ssg71
g1548
sg64
(lp1555
S'server_name'
p1556
asbag57
(g78
g59
NtRp1557
(dp1558
g62
(dp1559
g89
g90
ssg71
g1548
sg64
(lp1560
S':'
asbag57
(g78
g59
NtRp1561
(dp1562
g62
(dp1563
sg71
g1548
sg64
(lp1564
g57
(g58
g59
NtRp1565
(dp1566
g62
(dp1567
g70
I4
ssg71
g1561
sg64
(lp1568
S'Iana-Bonevas-MacBook-Pro.local'
p1569
asbasbasbag57
(g73
g59
NtRp1570
(dp1571
g62
(dp1572
sg71
g1019
sg64
(lp1573
g57
(g78
g59
NtRp1574
(dp1575
g62
(dp1576
g82
g83
ssg71
g1570
sg64
(lp1577
S'server_port'
p1578
asbag57
(g78
g59
NtRp1579
(dp1580
g62
(dp1581
g89
g90
ssg71
g1570
sg64
(lp1582
S':'
asbag57
(g78
g59
NtRp1583
(dp1584
g62
(dp1585
sg71
g1570
sg64
(lp1586
g57
(g58
g59
NtRp1587
(dp1588
g62
(dp1589
g70
I4
ssg71
g1583
sg64
(lp1590
S'8000'
p1591
asbasbasbag57
(g73
g59
NtRp1592
(dp1593
g62
(dp1594
sg71
g1019
sg64
(lp1595
g57
(g78
g59
NtRp1596
(dp1597
g62
(dp1598
g82
g83
ssg71
g1592
sg64
(lp1599
S'server_protocol'
p1600
asbag57
(g78
g59
NtRp1601
(dp1602
g62
(dp1603
g89
g90
ssg71
g1592
sg64
(lp1604
S':'
asbag57
(g78
g59
NtRp1605
(dp1606
g62
(dp1607
sg71
g1592
sg64
(lp1608
g57
(g58
g59
NtRp1609
(dp1610
g62
(dp1611
g70
I4
ssg71
g1605
sg64
(lp1612
S'HTTP/1.1'
p1613
asbasbasbag57
(g73
g59
NtRp1614
(dp1615
g62
(dp1616
sg71
g1019
sg64
(lp1617
g57
(g78
g59
NtRp1618
(dp1619
g62
(dp1620
g82
g83
ssg71
g1614
sg64
(lp1621
S'server_software'
p1622
asbag57
(g78
g59
NtRp1623
(dp1624
g62
(dp1625
g89
g90
ssg71
g1614
sg64
(lp1626
S':'
asbag57
(g78
g59
NtRp1627
(dp1628
g62
(dp1629
sg71
g1614
sg64
(lp1630
g57
(g58
g59
NtRp1631
(dp1632
g62
(dp1633
g70
I4
ssg71
g1627
sg64
(lp1634
S'Rocket 1.2.4'
p1635
asbasbasbag57
(g73
g59
NtRp1636
(dp1637
g62
(dp1638
sg71
g1019
sg64
(lp1639
g57
(g78
g59
NtRp1640
(dp1641
g62
(dp1642
g82
g83
ssg71
g1636
sg64
(lp1643
S'web2py_crontype'
p1644
asbag57
(g78
g59
NtRp1645
(dp1646
g62
(dp1647
g89
g90
ssg71
g1636
sg64
(lp1648
S':'
asbag57
(g78
g59
NtRp1649
(dp1650
g62
(dp1651
sg71
g1636
sg64
(lp1652
g57
(g58
g59
NtRp1653
(dp1654
g62
(dp1655
g70
I4
ssg71
g1649
sg64
(lp1656
S'hard'
p1657
asbasbasbag57
(g73
g59
NtRp1658
(dp1659
g62
(dp1660
sg71
g1019
sg64
(lp1661
g57
(g78
g59
NtRp1662
(dp1663
g62
(dp1664
g82
g83
ssg71
g1658
sg64
(lp1665
S'web2py_path'
p1666
asbag57
(g78
g59
NtRp1667
(dp1668
g62
(dp1669
g89
g90
ssg71
g1658
sg64
(lp1670
S':'
asbag57
(g78
g59
NtRp1671
(dp1672
g62
(dp1673
sg71
g1658
sg64
(lp1674
g57
(g58
g59
NtRp1675
(dp1676
g62
(dp1677
g70
I4
ssg71
g1671
sg64
(lp1678
g1066
asbasbasbag57
(g73
g59
NtRp1679
(dp1680
g62
(dp1681
sg71
g1019
sg64
(lp1682
g57
(g78
g59
NtRp1683
(dp1684
g62
(dp1685
g82
g83
ssg71
g1679
sg64
(lp1686
S'web2py_version'
p1687
asbag57
(g78
g59
NtRp1688
(dp1689
g62
(dp1690
g89
g90
ssg71
g1679
sg64
(lp1691
S':'
asbag57
(g78
g59
NtRp1692
(dp1693
g62
(dp1694
sg71
g1679
sg64
(lp1695
g57
(g58
g59
NtRp1696
(dp1697
g62
(dp1698
g70
I4
ssg71
g1692
sg64
(lp1699
g57
(g66
g59
NtRp1700
(dp1701
g62
(dp1702
g70
I3
ssg71
Nsg64
(lp1703
g57
(g73
g59
NtRp1704
(dp1705
g62
(dp1706
sg71
g1700
sg64
(lp1707
g57
(g78
g59
NtRp1708
(dp1709
g62
(dp1710
sg71
g1704
sg64
(lp1711
g57
(g58
g59
NtRp1712
(dp1713
g62
(dp1714
g70
I3
ssg71
g1708
sg64
(lp1715
S'1'
asbasbasbag57
(g73
g59
NtRp1716
(dp1717
g62
(dp1718
sg71
g1700
sg64
(lp1719
g57
(g78
g59
NtRp1720
(dp1721
g62
(dp1722
sg71
g1716
sg64
(lp1723
g57
(g58
g59
NtRp1724
(dp1725
g62
(dp1726
g70
I3
ssg71
g1720
sg64
(lp1727
S'99'
p1728
asbasbasbag57
(g73
g59
NtRp1729
(dp1730
g62
(dp1731
sg71
g1700
sg64
(lp1732
g57
(g78
g59
NtRp1733
(dp1734
g62
(dp1735
sg71
g1729
sg64
(lp1736
g57
(g58
g59
NtRp1737
(dp1738
g62
(dp1739
g70
I3
ssg71
g1733
sg64
(lp1740
S'7'
asbasbasbag57
(g73
g59
NtRp1741
(dp1742
g62
(dp1743
sg71
g1700
sg64
(lp1744
g57
(g78
g59
NtRp1745
(dp1746
g62
(dp1747
sg71
g1741
sg64
(lp1748
g57
(g58
g59
NtRp1749
(dp1750
g62
(dp1751
g70
I3
ssg71
g1745
sg64
(lp1752
S'datetime.datetime(2012, 3, 4, 22, 12, 8)'
p1753
asbasbasbag57
(g73
g59
NtRp1754
(dp1755
g62
(dp1756
sg71
g1700
sg64
(lp1757
g57
(g78
g59
NtRp1758
(dp1759
g62
(dp1760
sg71
g1754
sg64
(lp1761
g57
(g58
g59
NtRp1762
(dp1763
g62
(dp1764
g70
I3
ssg71
g1758
sg64
(lp1765
S'stable'
p1766
asbasbasbasbasbasbasbag57
(g73
g59
NtRp1767
(dp1768
g62
(dp1769
sg71
g1019
sg64
(lp1770
g57
(g78
g59
NtRp1771
(dp1772
g62
(dp1773
g82
g83
ssg71
g1767
sg64
(lp1774
S'wsgi_errors'
p1775
asbag57
(g78
g59
NtRp1776
(dp1777
g62
(dp1778
g89
g90
ssg71
g1767
sg64
(lp1779
S':'
asbag57
(g78
g59
NtRp1780
(dp1781
g62
(dp1782
sg71
g1767
sg64
(lp1783
g57
(g58
g59
NtRp1784
(dp1785
g62
(dp1786
g70
I4
ssg71
g1780
sg64
(lp1787
S"<open file '<stderr>', mode 'w' at 0x104484270>"
p1788
asbasbasbag57
(g73
g59
NtRp1789
(dp1790
g62
(dp1791
sg71
g1019
sg64
(lp1792
g57
(g78
g59
NtRp1793
(dp1794
g62
(dp1795
g82
g83
ssg71
g1789
sg64
(lp1796
S'wsgi_file_wrapper'
p1797
asbag57
(g78
g59
NtRp1798
(dp1799
g62
(dp1800
g89
g90
ssg71
g1789
sg64
(lp1801
S':'
asbag57
(g78
g59
NtRp1802
(dp1803
g62
(dp1804
sg71
g1789
sg64
(lp1805
g57
(g58
g59
NtRp1806
(dp1807
g62
(dp1808
g70
I4
ssg71
g1802
sg64
(lp1809
S'<class wsgiref.util.FileWrapper at 0x104ebdf58>'
p1810
asbasbasbag57
(g73
g59
NtRp1811
(dp1812
g62
(dp1813
sg71
g1019
sg64
(lp1814
g57
(g78
g59
NtRp1815
(dp1816
g62
(dp1817
g82
g83
ssg71
g1811
sg64
(lp1818
S'wsgi_input'
p1819
asbag57
(g78
g59
NtRp1820
(dp1821
g62
(dp1822
g89
g90
ssg71
g1811
sg64
(lp1823
S':'
asbag57
(g78
g59
NtRp1824
(dp1825
g62
(dp1826
sg71
g1811
sg64
(lp1827
g57
(g58
g59
NtRp1828
(dp1829
g62
(dp1830
g70
I4
ssg71
g1824
sg64
(lp1831
S'<socket._fileobject object at 0x109f74ed0>'
p1832
asbasbasbag57
(g73
g59
NtRp1833
(dp1834
g62
(dp1835
sg71
g1019
sg64
(lp1836
g57
(g78
g59
NtRp1837
(dp1838
g62
(dp1839
g82
g83
ssg71
g1833
sg64
(lp1840
S'wsgi_multiprocess'
p1841
asbag57
(g78
g59
NtRp1842
(dp1843
g62
(dp1844
g89
g90
ssg71
g1833
sg64
(lp1845
S':'
asbag57
(g78
g59
NtRp1846
(dp1847
g62
(dp1848
sg71
g1833
sg64
(lp1849
g57
(g58
g59
NtRp1850
(dp1851
g62
(dp1852
g70
I4
ssg71
g1846
sg64
(lp1853
g100
asbasbasbag57
(g73
g59
NtRp1854
(dp1855
g62
(dp1856
sg71
g1019
sg64
(lp1857
g57
(g78
g59
NtRp1858
(dp1859
g62
(dp1860
g82
g83
ssg71
g1854
sg64
(lp1861
S'wsgi_multithread'
p1862
asbag57
(g78
g59
NtRp1863
(dp1864
g62
(dp1865
g89
g90
ssg71
g1854
sg64
(lp1866
S':'
asbag57
(g78
g59
NtRp1867
(dp1868
g62
(dp1869
sg71
g1854
sg64
(lp1870
g57
(g58
g59
NtRp1871
(dp1872
g62
(dp1873
g70
I4
ssg71
g1867
sg64
(lp1874
S'True'
p1875
asbasbasbag57
(g73
g59
NtRp1876
(dp1877
g62
(dp1878
sg71
g1019
sg64
(lp1879
g57
(g78
g59
NtRp1880
(dp1881
g62
(dp1882
g82
g83
ssg71
g1876
sg64
(lp1883
S'wsgi_run_once'
p1884
asbag57
(g78
g59
NtRp1885
(dp1886
g62
(dp1887
g89
g90
ssg71
g1876
sg64
(lp1888
S':'
asbag57
(g78
g59
NtRp1889
(dp1890
g62
(dp1891
sg71
g1876
sg64
(lp1892
g57
(g58
g59
NtRp1893
(dp1894
g62
(dp1895
g70
I4
ssg71
g1889
sg64
(lp1896
g100
asbasbasbag57
(g73
g59
NtRp1897
(dp1898
g62
(dp1899
sg71
g1019
sg64
(lp1900
g57
(g78
g59
NtRp1901
(dp1902
g62
(dp1903
g82
g83
ssg71
g1897
sg64
(lp1904
S'wsgi_url_scheme'
p1905
asbag57
(g78
g59
NtRp1906
(dp1907
g62
(dp1908
g89
g90
ssg71
g1897
sg64
(lp1909
S':'
asbag57
(g78
g59
NtRp1910
(dp1911
g62
(dp1912
sg71
g1897
sg64
(lp1913
g57
(g58
g59
NtRp1914
(dp1915
g62
(dp1916
g70
I4
ssg71
g1910
sg64
(lp1917
S'http'
p1918
asbasbasbag57
(g73
g59
NtRp1919
(dp1920
g62
(dp1921
sg71
g1019
sg64
(lp1922
g57
(g78
g59
NtRp1923
(dp1924
g62
(dp1925
g82
g83
ssg71
g1919
sg64
(lp1926
S'wsgi_version'
p1927
asbag57
(g78
g59
NtRp1928
(dp1929
g62
(dp1930
g89
g90
ssg71
g1919
sg64
(lp1931
S':'
asbag57
(g78
g59
NtRp1932
(dp1933
g62
(dp1934
sg71
g1919
sg64
(lp1935
g57
(g58
g59
NtRp1936
(dp1937
g62
(dp1938
g70
I4
ssg71
g1932
sg64
(lp1939
g57
(g66
g59
NtRp1940
(dp1941
g62
(dp1942
g70
I3
ssg71
Nsg64
(lp1943
g57
(g73
g59
NtRp1944
(dp1945
g62
(dp1946
sg71
g1940
sg64
(lp1947
g57
(g78
g59
NtRp1948
(dp1949
g62
(dp1950
sg71
g1944
sg64
(lp1951
g57
(g58
g59
NtRp1952
(dp1953
g62
(dp1954
g70
I3
ssg71
g1948
sg64
(lp1955
S'1'
asbasbasbag57
(g73
g59
NtRp1956
(dp1957
g62
(dp1958
sg71
g1940
sg64
(lp1959
g57
(g78
g59
NtRp1960
(dp1961
g62
(dp1962
sg71
g1956
sg64
(lp1963
g57
(g58
g59
NtRp1964
(dp1965
g62
(dp1966
g70
I3
ssg71
g1960
sg64
(lp1967
S'0'
asbasbasbasbasbasbasbasbasbasbasbag57
(g73
g59
NtRp1968
(dp1969
g62
(dp1970
sg71
g67
sg64
(lp1971
g57
(g78
g59
NtRp1972
(dp1973
g62
(dp1974
g82
g83
ssg71
g1968
sg64
(lp1975
S'extension'
p1976
asbag57
(g78
g59
NtRp1977
(dp1978
g62
(dp1979
g89
g90
ssg71
g1968
sg64
(lp1980
S':'
asbag57
(g78
g59
NtRp1981
(dp1982
g62
(dp1983
sg71
g1968
sg64
(lp1984
g57
(g58
g59
NtRp1985
(dp1986
g62
(dp1987
g70
I5
ssg71
g1981
sg64
(lp1988
S'html'
p1989
asbasbasbag57
(g73
g59
NtRp1990
(dp1991
g62
(dp1992
sg71
g67
sg64
(lp1993
g57
(g78
g59
NtRp1994
(dp1995
g62
(dp1996
g82
g83
ssg71
g1990
sg64
(lp1997
S'folder'
p1998
asbag57
(g78
g59
NtRp1999
(dp2000
g62
(dp2001
g89
g90
ssg71
g1990
sg64
(lp2002
S':'
asbag57
(g78
g59
NtRp2003
(dp2004
g62
(dp2005
sg71
g1990
sg64
(lp2006
g57
(g58
g59
NtRp2007
(dp2008
g62
(dp2009
g70
I5
ssg71
g2003
sg64
(lp2010
S'/Users/ianaboneva/Dropbox/DePaul/CSC 438 - Web Applications/web2py/applications/Book_Shelf_copy/'
p2011
asbasbasbag57
(g73
g59
NtRp2012
(dp2013
g62
(dp2014
sg71
g67
sg64
(lp2015
g57
(g78
g59
NtRp2016
(dp2017
g62
(dp2018
g82
g83
ssg71
g2012
sg64
(lp2019
S'function'
p2020
asbag57
(g78
g59
NtRp2021
(dp2022
g62
(dp2023
g89
g90
ssg71
g2012
sg64
(lp2024
S':'
asbag57
(g78
g59
NtRp2025
(dp2026
g62
(dp2027
sg71
g2012
sg64
(lp2028
g57
(g58
g59
NtRp2029
(dp2030
g62
(dp2031
g70
I5
ssg71
g2025
sg64
(lp2032
S'book_shelf'
p2033
asbasbasbag57
(g73
g59
NtRp2034
(dp2035
g62
(dp2036
sg71
g67
sg64
(lp2037
g57
(g78
g59
NtRp2038
(dp2039
g62
(dp2040
g82
g83
ssg71
g2034
sg64
(lp2041
S'get_vars'
p2042
asbag57
(g78
g59
NtRp2043
(dp2044
g62
(dp2045
g89
g90
ssg71
g2034
sg64
(lp2046
S':'
asbag57
(g78
g59
NtRp2047
(dp2048
g62
(dp2049
sg71
g2034
sg64
(lp2050
g57
(g58
g59
NtRp2051
(dp2052
g62
(dp2053
g70
I5
ssg71
g2047
sg64
(lp2054
g57
(g66
g59
NtRp2055
(dp2056
g62
(dp2057
g70
I4
ssg71
Nsg64
(lp2058
sbasbasbasbag57
(g73
g59
NtRp2059
(dp2060
g62
(dp2061
sg71
g67
sg64
(lp2062
g57
(g78
g59
NtRp2063
(dp2064
g62
(dp2065
g82
g83
ssg71
g2059
sg64
(lp2066
S'global_settings'
p2067
asbag57
(g78
g59
NtRp2068
(dp2069
g62
(dp2070
g89
g90
ssg71
g2059
sg64
(lp2071
S':'
asbag57
(g78
g59
NtRp2072
(dp2073
g62
(dp2074
sg71
g2059
sg64
(lp2075
g57
(g58
g59
NtRp2076
(dp2077
g62
(dp2078
g70
I5
ssg71
g2072
sg64
(lp2079
g57
(g66
g59
NtRp2080
(dp2081
g62
(dp2082
g70
I4
ssg71
Nsg64
(lp2083
g57
(g73
g59
NtRp2084
(dp2085
g62
(dp2086
sg71
g2080
sg64
(lp2087
g57
(g78
g59
NtRp2088
(dp2089
g62
(dp2090
g82
g83
ssg71
g2084
sg64
(lp2091
g1031
asbag57
(g78
g59
NtRp2092
(dp2093
g62
(dp2094
g89
g90
ssg71
g2084
sg64
(lp2095
S':'
asbag57
(g78
g59
NtRp2096
(dp2097
g62
(dp2098
sg71
g2084
sg64
(lp2099
g57
(g58
g59
NtRp2100
(dp2101
g62
(dp2102
g70
I4
ssg71
g2096
sg64
(lp2103
S"set(['/Users/ianaboneva/Dropbox/DePaul/CSC 438 - Web Applications/web2py/applications/ToDoList2/', '/Users/ianaboneva/Dropbox/DePaul/CSC 438 - Web Applications/web2py/applications/welcome/', '/Users/ianaboneva/Dropbox/DePaul/CSC 438 - Web Applications/web2py/applications/admin/', '/Users/ianaboneva/Dropbox/DePaul/CSC 438 - Web Applications/web2py/applications/Book_Shelf_copy/'])"
p2104
asbasbasbag57
(g73
g59
NtRp2105
(dp2106
g62
(dp2107
sg71
g2080
sg64
(lp2108
g57
(g78
g59
NtRp2109
(dp2110
g62
(dp2111
g82
g83
ssg71
g2105
sg64
(lp2112
g1053
asbag57
(g78
g59
NtRp2113
(dp2114
g62
(dp2115
g89
g90
ssg71
g2105
sg64
(lp2116
S':'
asbag57
(g78
g59
NtRp2117
(dp2118
g62
(dp2119
sg71
g2105
sg64
(lp2120
g57
(g58
g59
NtRp2121
(dp2122
g62
(dp2123
g70
I4
ssg71
g2117
sg64
(lp2124
g1066
asbasbasbag57
(g73
g59
NtRp2125
(dp2126
g62
(dp2127
sg71
g2080
sg64
(lp2128
g57
(g78
g59
NtRp2129
(dp2130
g62
(dp2131
g82
g83
ssg71
g2125
sg64
(lp2132
g1075
asbag57
(g78
g59
NtRp2133
(dp2134
g62
(dp2135
g89
g90
ssg71
g2125
sg64
(lp2136
S':'
asbag57
(g78
g59
NtRp2137
(dp2138
g62
(dp2139
sg71
g2125
sg64
(lp2140
g57
(g58
g59
NtRp2141
(dp2142
g62
(dp2143
g70
I4
ssg71
g2137
sg64
(lp2144
g57
(g66
g59
NtRp2145
(dp2146
g62
(dp2147
g70
I3
ssg71
Nsg64
(lp2148
sbasbasbasbag57
(g73
g59
NtRp2149
(dp2150
g62
(dp2151
sg71
g2080
sg64
(lp2152
g57
(g78
g59
NtRp2153
(dp2154
g62
(dp2155
g82
g83
ssg71
g2149
sg64
(lp2156
g1100
asbag57
(g78
g59
NtRp2157
(dp2158
g62
(dp2159
g89
g90
ssg71
g2149
sg64
(lp2160
S':'
asbag57
(g78
g59
NtRp2161
(dp2162
g62
(dp2163
sg71
g2149
sg64
(lp2164
g57
(g58
g59
NtRp2165
(dp2166
g62
(dp2167
g70
I4
ssg71
g2161
sg64
(lp2168
S"<Values at 0x104fc1b00: {'verbose': False, 'ip': '127.0.0.1', 'shutdown_timeout': 5, 'taskbar': False, 'nocron': False, 'pid_filename': 'httpserver.pid', 'maxthreads': None, 'softcron': False, 'server_name': 'Iana-Bonevas-MacBook-Pro.local', 'bpython': False, 'nogui': False, 'port': 8000, 'extcron': False, 'debuglevel': 30, 'test': None, 'folder': '/Users/ianaboneva/Dropbox/DePaul/CSC 438 - Web Applications/web2py', 'config': '', 'import_models': False, 'winservice': '', 'shell': None, 'run': '', 'log_filename': 'httpserver.log', 'args': [''], 'socket_timeout': 5, 'ssl_ca_certificate': None, 'scheduler': None, 'profiler_filename': None, 'ssl_private_key': '', 'password': '<ask>', 'request_queue_size': 5, 'ssl_certificate': '', 'cronjob': False, 'numthreads': None, 'quiet': False, 'interfaces': None, 'minthreads': None, 'timeout': 10, 'plain': False, 'nobanner': False}>"
p2169
asbasbasbag57
(g73
g59
NtRp2170
(dp2171
g62
(dp2172
sg71
g2080
sg64
(lp2173
g57
(g78
g59
NtRp2174
(dp2175
g62
(dp2176
g82
g83
ssg71
g2170
sg64
(lp2177
g1122
asbag57
(g78
g59
NtRp2178
(dp2179
g62
(dp2180
g89
g90
ssg71
g2170
sg64
(lp2181
S':'
asbag57
(g78
g59
NtRp2182
(dp2183
g62
(dp2184
sg71
g2170
sg64
(lp2185
g57
(g58
g59
NtRp2186
(dp2187
g62
(dp2188
g70
I4
ssg71
g2182
sg64
(lp2189
S'set([])'
p2190
asbasbasbag57
(g73
g59
NtRp2191
(dp2192
g62
(dp2193
sg71
g2080
sg64
(lp2194
g57
(g78
g59
NtRp2195
(dp2196
g62
(dp2197
g82
g83
ssg71
g2191
sg64
(lp2198
g1144
asbag57
(g78
g59
NtRp2199
(dp2200
g62
(dp2201
g89
g90
ssg71
g2191
sg64
(lp2202
S':'
asbag57
(g78
g59
NtRp2203
(dp2204
g62
(dp2205
sg71
g2191
sg64
(lp2206
g57
(g58
g59
NtRp2207
(dp2208
g62
(dp2209
g70
I4
ssg71
g2203
sg64
(lp2210
g100
asbasbasbag57
(g73
g59
NtRp2211
(dp2212
g62
(dp2213
sg71
g2080
sg64
(lp2214
g57
(g78
g59
NtRp2215
(dp2216
g62
(dp2217
g82
g83
ssg71
g2211
sg64
(lp2218
g1165
asbag57
(g78
g59
NtRp2219
(dp2220
g62
(dp2221
g89
g90
ssg71
g2211
sg64
(lp2222
S':'
asbag57
(g78
g59
NtRp2223
(dp2224
g62
(dp2225
sg71
g2211
sg64
(lp2226
g57
(g58
g59
NtRp2227
(dp2228
g62
(dp2229
g70
I4
ssg71
g2223
sg64
(lp2230
g1178
asbasbasbag57
(g73
g59
NtRp2231
(dp2232
g62
(dp2233
sg71
g2080
sg64
(lp2234
g57
(g78
g59
NtRp2235
(dp2236
g62
(dp2237
g82
g83
ssg71
g2231
sg64
(lp2238
g1385
asbag57
(g78
g59
NtRp2239
(dp2240
g62
(dp2241
g89
g90
ssg71
g2231
sg64
(lp2242
S':'
asbag57
(g78
g59
NtRp2243
(dp2244
g62
(dp2245
sg71
g2231
sg64
(lp2246
g57
(g58
g59
NtRp2247
(dp2248
g62
(dp2249
g70
I4
ssg71
g2243
sg64
(lp2250
g100
asbasbasbag57
(g73
g59
NtRp2251
(dp2252
g62
(dp2253
sg71
g2080
sg64
(lp2254
g57
(g78
g59
NtRp2255
(dp2256
g62
(dp2257
g82
g83
ssg71
g2251
sg64
(lp2258
g1406
asbag57
(g78
g59
NtRp2259
(dp2260
g62
(dp2261
g89
g90
ssg71
g2251
sg64
(lp2262
S':'
asbag57
(g78
g59
NtRp2263
(dp2264
g62
(dp2265
sg71
g2251
sg64
(lp2266
g57
(g58
g59
NtRp2267
(dp2268
g62
(dp2269
g70
I4
ssg71
g2263
sg64
(lp2270
g100
asbasbasbag57
(g73
g59
NtRp2271
(dp2272
g62
(dp2273
sg71
g2080
sg64
(lp2274
g57
(g78
g59
NtRp2275
(dp2276
g62
(dp2277
g82
g83
ssg71
g2271
sg64
(lp2278
g1644
asbag57
(g78
g59
NtRp2279
(dp2280
g62
(dp2281
g89
g90
ssg71
g2271
sg64
(lp2282
S':'
asbag57
(g78
g59
NtRp2283
(dp2284
g62
(dp2285
sg71
g2271
sg64
(lp2286
g57
(g58
g59
NtRp2287
(dp2288
g62
(dp2289
g70
I4
ssg71
g2283
sg64
(lp2290
g1657
asbasbasbag57
(g73
g59
NtRp2291
(dp2292
g62
(dp2293
sg71
g2080
sg64
(lp2294
g57
(g78
g59
NtRp2295
(dp2296
g62
(dp2297
g82
g83
ssg71
g2291
sg64
(lp2298
g1687
asbag57
(g78
g59
NtRp2299
(dp2300
g62
(dp2301
g89
g90
ssg71
g2291
sg64
(lp2302
S':'
asbag57
(g78
g59
NtRp2303
(dp2304
g62
(dp2305
sg71
g2291
sg64
(lp2306
g57
(g58
g59
NtRp2307
(dp2308
g62
(dp2309
g70
I4
ssg71
g2303
sg64
(lp2310
g57
(g66
g59
NtRp2311
(dp2312
g62
(dp2313
g70
I3
ssg71
Nsg64
(lp2314
g57
(g73
g59
NtRp2315
(dp2316
g62
(dp2317
sg71
g2311
sg64
(lp2318
g57
(g78
g59
NtRp2319
(dp2320
g62
(dp2321
sg71
g2315
sg64
(lp2322
g57
(g58
g59
NtRp2323
(dp2324
g62
(dp2325
g70
I3
ssg71
g2319
sg64
(lp2326
S'1'
asbasbasbag57
(g73
g59
NtRp2327
(dp2328
g62
(dp2329
sg71
g2311
sg64
(lp2330
g57
(g78
g59
NtRp2331
(dp2332
g62
(dp2333
sg71
g2327
sg64
(lp2334
g57
(g58
g59
NtRp2335
(dp2336
g62
(dp2337
g70
I3
ssg71
g2331
sg64
(lp2338
S'99'
p2339
asbasbasbag57
(g73
g59
NtRp2340
(dp2341
g62
(dp2342
sg71
g2311
sg64
(lp2343
g57
(g78
g59
NtRp2344
(dp2345
g62
(dp2346
sg71
g2340
sg64
(lp2347
g57
(g58
g59
NtRp2348
(dp2349
g62
(dp2350
g70
I3
ssg71
g2344
sg64
(lp2351
S'7'
asbasbasbag57
(g73
g59
NtRp2352
(dp2353
g62
(dp2354
sg71
g2311
sg64
(lp2355
g57
(g78
g59
NtRp2356
(dp2357
g62
(dp2358
sg71
g2352
sg64
(lp2359
g57
(g58
g59
NtRp2360
(dp2361
g62
(dp2362
g70
I3
ssg71
g2356
sg64
(lp2363
S'datetime.datetime(2012, 3, 4, 22, 12, 8)'
p2364
asbasbasbag57
(g73
g59
NtRp2365
(dp2366
g62
(dp2367
sg71
g2311
sg64
(lp2368
g57
(g78
g59
NtRp2369
(dp2370
g62
(dp2371
sg71
g2365
sg64
(lp2372
g57
(g58
g59
NtRp2373
(dp2374
g62
(dp2375
g70
I3
ssg71
g2369
sg64
(lp2376
g1766
asbasbasbasbasbasbasbasbasbasbasbag57
(g73
g59
NtRp2377
(dp2378
g62
(dp2379
sg71
g67
sg64
(lp2380
g57
(g78
g59
NtRp2381
(dp2382
g62
(dp2383
g82
g83
ssg71
g2377
sg64
(lp2384
S'is_https'
p2385
asbag57
(g78
g59
NtRp2386
(dp2387
g62
(dp2388
g89
g90
ssg71
g2377
sg64
(lp2389
S':'
asbag57
(g78
g59
NtRp2390
(dp2391
g62
(dp2392
sg71
g2377
sg64
(lp2393
g57
(g58
g59
NtRp2394
(dp2395
g62
(dp2396
g70
I5
ssg71
g2390
sg64
(lp2397
g100
asbasbasbag57
(g73
g59
NtRp2398
(dp2399
g62
(dp2400
sg71
g67
sg64
(lp2401
g57
(g78
g59
NtRp2402
(dp2403
g62
(dp2404
g82
g83
ssg71
g2398
sg64
(lp2405
S'is_local'
p2406
asbag57
(g78
g59
NtRp2407
(dp2408
g62
(dp2409
g89
g90
ssg71
g2398
sg64
(lp2410
S':'
asbag57
(g78
g59
NtRp2411
(dp2412
g62
(dp2413
sg71
g2398
sg64
(lp2414
g57
(g58
g59
NtRp2415
(dp2416
g62
(dp2417
g70
I5
ssg71
g2411
sg64
(lp2418
g1875
asbasbasbag57
(g73
g59
NtRp2419
(dp2420
g62
(dp2421
sg71
g67
sg64
(lp2422
g57
(g78
g59
NtRp2423
(dp2424
g62
(dp2425
g82
g83
ssg71
g2419
sg64
(lp2426
S'is_restful'
p2427
asbag57
(g78
g59
NtRp2428
(dp2429
g62
(dp2430
g89
g90
ssg71
g2419
sg64
(lp2431
S':'
asbag57
(g78
g59
NtRp2432
(dp2433
g62
(dp2434
sg71
g2419
sg64
(lp2435
g57
(g58
g59
NtRp2436
(dp2437
g62
(dp2438
g70
I5
ssg71
g2432
sg64
(lp2439
g100
asbasbasbag57
(g73
g59
NtRp2440
(dp2441
g62
(dp2442
sg71
g67
sg64
(lp2443
g57
(g78
g59
NtRp2444
(dp2445
g62
(dp2446
g82
g83
ssg71
g2440
sg64
(lp2447
S'now'
p2448
asbag57
(g78
g59
NtRp2449
(dp2450
g62
(dp2451
g89
g90
ssg71
g2440
sg64
(lp2452
S':'
asbag57
(g78
g59
NtRp2453
(dp2454
g62
(dp2455
sg71
g2440
sg64
(lp2456
g57
(g58
g59
NtRp2457
(dp2458
g62
(dp2459
g70
I5
ssg71
g2453
sg64
(lp2460
S'datetime.datetime(2012, 6, 3, 18, 11, 47, 790532)'
p2461
asbasbasbag57
(g73
g59
NtRp2462
(dp2463
g62
(dp2464
sg71
g67
sg64
(lp2465
g57
(g78
g59
NtRp2466
(dp2467
g62
(dp2468
g82
g83
ssg71
g2462
sg64
(lp2469
S'post_vars'
p2470
asbag57
(g78
g59
NtRp2471
(dp2472
g62
(dp2473
g89
g90
ssg71
g2462
sg64
(lp2474
S':'
asbag57
(g78
g59
NtRp2475
(dp2476
g62
(dp2477
sg71
g2462
sg64
(lp2478
g57
(g58
g59
NtRp2479
(dp2480
g62
(dp2481
g70
I5
ssg71
g2475
sg64
(lp2482
g57
(g66
g59
NtRp2483
(dp2484
g62
(dp2485
g70
I4
ssg71
Nsg64
(lp2486
sbasbasbasbag57
(g73
g59
NtRp2487
(dp2488
g62
(dp2489
sg71
g67
sg64
(lp2490
g57
(g78
g59
NtRp2491
(dp2492
g62
(dp2493
g82
g83
ssg71
g2487
sg64
(lp2494
S'raw_args'
p2495
asbag57
(g78
g59
NtRp2496
(dp2497
g62
(dp2498
g89
g90
ssg71
g2487
sg64
(lp2499
S':'
asbag57
(g78
g59
NtRp2500
(dp2501
g62
(dp2502
sg71
g2487
sg64
(lp2503
g57
(g58
g59
NtRp2504
(dp2505
g62
(dp2506
g70
I5
ssg71
g2500
sg64
(lp2507
S'1'
asbasbasbag57
(g73
g59
NtRp2508
(dp2509
g62
(dp2510
sg71
g67
sg64
(lp2511
g57
(g78
g59
NtRp2512
(dp2513
g62
(dp2514
g82
g83
ssg71
g2508
sg64
(lp2515
S'url'
p2516
asbag57
(g78
g59
NtRp2517
(dp2518
g62
(dp2519
g89
g90
ssg71
g2508
sg64
(lp2520
S':'
asbag57
(g78
g59
NtRp2521
(dp2522
g62
(dp2523
sg71
g2508
sg64
(lp2524
g57
(g58
g59
NtRp2525
(dp2526
g62
(dp2527
g70
I5
ssg71
g2521
sg64
(lp2528
S'/Book_Shelf_copy/default/book_shelf/1'
p2529
asbasbasbag57
(g73
g59
NtRp2530
(dp2531
g62
(dp2532
sg71
g67
sg64
(lp2533
g57
(g78
g59
NtRp2534
(dp2535
g62
(dp2536
g82
g83
ssg71
g2530
sg64
(lp2537
S'utcnow'
p2538
asbag57
(g78
g59
NtRp2539
(dp2540
g62
(dp2541
g89
g90
ssg71
g2530
sg64
(lp2542
S':'
asbag57
(g78
g59
NtRp2543
(dp2544
g62
(dp2545
sg71
g2530
sg64
(lp2546
g57
(g58
g59
NtRp2547
(dp2548
g62
(dp2549
g70
I5
ssg71
g2543
sg64
(lp2550
S'datetime.datetime(2012, 6, 3, 23, 11, 47, 790550)'
p2551
asbasbasbag57
(g73
g59
NtRp2552
(dp2553
g62
(dp2554
sg71
g67
sg64
(lp2555
g57
(g78
g59
NtRp2556
(dp2557
g62
(dp2558
g82
g83
ssg71
g2552
sg64
(lp2559
S'uuid'
p2560
asbag57
(g78
g59
NtRp2561
(dp2562
g62
(dp2563
g89
g90
ssg71
g2552
sg64
(lp2564
S':'
asbag57
(g78
g59
NtRp2565
(dp2566
g62
(dp2567
sg71
g2552
sg64
(lp2568
g57
(g58
g59
NtRp2569
(dp2570
g62
(dp2571
g70
I5
ssg71
g2565
sg64
(lp2572
S'Book_Shelf_copy/127.0.0.1.2012-06-03.18-11-47.472ed27c-8008-4ffb-9728-ced73fe42a8c'
p2573
asbasbasbag57
(g73
g59
NtRp2574
(dp2575
g62
(dp2576
sg71
g67
sg64
(lp2577
g57
(g78
g59
NtRp2578
(dp2579
g62
(dp2580
g82
g83
ssg71
g2574
sg64
(lp2581
S'vars'
p2582
asbag57
(g78
g59
NtRp2583
(dp2584
g62
(dp2585
g89
g90
ssg71
g2574
sg64
(lp2586
S':'
asbag57
(g78
g59
NtRp2587
(dp2588
g62
(dp2589
sg71
g2574
sg64
(lp2590
g57
(g58
g59
NtRp2591
(dp2592
g62
(dp2593
g70
I5
ssg71
g2587
sg64
(lp2594
g57
(g66
g59
NtRp2595
(dp2596
g62
(dp2597
g70
I4
ssg71
Nsg64
(lp2598
sbasbasbasbag57
(g73
g59
NtRp2599
(dp2600
g62
(dp2601
sg71
g67
sg64
(lp2602
g57
(g78
g59
NtRp2603
(dp2604
g62
(dp2605
g82
g83
ssg71
g2599
sg64
(lp2606
S'wsgi'
p2607
asbag57
(g78
g59
NtRp2608
(dp2609
g62
(dp2610
g89
g90
ssg71
g2599
sg64
(lp2611
S':'
asbag57
(g78
g59
NtRp2612
(dp2613
g62
(dp2614
sg71
g2599
sg64
(lp2615
g57
(g58
g59
NtRp2616
(dp2617
g62
(dp2618
g70
I5
ssg71
g2612
sg64
(lp2619
g57
(g66
g59
NtRp2620
(dp2621
g62
(dp2622
g70
I4
ssg71
Nsg64
(lp2623
g57
(g73
g59
NtRp2624
(dp2625
g62
(dp2626
sg71
g2620
sg64
(lp2627
g57
(g78
g59
NtRp2628
(dp2629
g62
(dp2630
g82
g83
ssg71
g2624
sg64
(lp2631
S'environ'
p2632
asbag57
(g78
g59
NtRp2633
(dp2634
g62
(dp2635
g89
g90
ssg71
g2624
sg64
(lp2636
S':'
asbag57
(g78
g59
NtRp2637
(dp2638
g62
(dp2639
sg71
g2624
sg64
(lp2640
g57
(g58
g59
NtRp2641
(dp2642
g62
(dp2643
g70
I4
ssg71
g2637
sg64
(lp2644
g57
(g66
g59
NtRp2645
(dp2646
g62
(dp2647
g70
I3
ssg71
Nsg64
(lp2648
g57
(g73
g59
NtRp2649
(dp2650
g62
(dp2651
sg71
g2645
sg64
(lp2652
g57
(g78
g59
NtRp2653
(dp2654
g62
(dp2655
g82
g83
ssg71
g2649
sg64
(lp2656
S'HTTP_ACCEPT'
p2657
asbag57
(g78
g59
NtRp2658
(dp2659
g62
(dp2660
g89
g90
ssg71
g2649
sg64
(lp2661
S':'
asbag57
(g78
g59
NtRp2662
(dp2663
g62
(dp2664
sg71
g2649
sg64
(lp2665
g57
(g58
g59
NtRp2666
(dp2667
g62
(dp2668
g70
I3
ssg71
g2662
sg64
(lp2669
g1200
asbasbasbag57
(g73
g59
NtRp2670
(dp2671
g62
(dp2672
sg71
g2645
sg64
(lp2673
g57
(g78
g59
NtRp2674
(dp2675
g62
(dp2676
g82
g83
ssg71
g2670
sg64
(lp2677
S'HTTP_ACCEPT_CHARSET'
p2678
asbag57
(g78
g59
NtRp2679
(dp2680
g62
(dp2681
g89
g90
ssg71
g2670
sg64
(lp2682
S':'
asbag57
(g78
g59
NtRp2683
(dp2684
g62
(dp2685
sg71
g2670
sg64
(lp2686
g57
(g58
g59
NtRp2687
(dp2688
g62
(dp2689
g70
I3
ssg71
g2683
sg64
(lp2690
g1222
asbasbasbag57
(g73
g59
NtRp2691
(dp2692
g62
(dp2693
sg71
g2645
sg64
(lp2694
g57
(g78
g59
NtRp2695
(dp2696
g62
(dp2697
g82
g83
ssg71
g2691
sg64
(lp2698
S'HTTP_ACCEPT_ENCODING'
p2699
asbag57
(g78
g59
NtRp2700
(dp2701
g62
(dp2702
g89
g90
ssg71
g2691
sg64
(lp2703
S':'
asbag57
(g78
g59
NtRp2704
(dp2705
g62
(dp2706
sg71
g2691
sg64
(lp2707
g57
(g58
g59
NtRp2708
(dp2709
g62
(dp2710
g70
I3
ssg71
g2704
sg64
(lp2711
g1244
asbasbasbag57
(g73
g59
NtRp2712
(dp2713
g62
(dp2714
sg71
g2645
sg64
(lp2715
g57
(g78
g59
NtRp2716
(dp2717
g62
(dp2718
g82
g83
ssg71
g2712
sg64
(lp2719
S'HTTP_ACCEPT_LANGUAGE'
p2720
asbag57
(g78
g59
NtRp2721
(dp2722
g62
(dp2723
g89
g90
ssg71
g2712
sg64
(lp2724
S':'
asbag57
(g78
g59
NtRp2725
(dp2726
g62
(dp2727
sg71
g2712
sg64
(lp2728
g57
(g58
g59
NtRp2729
(dp2730
g62
(dp2731
g70
I3
ssg71
g2725
sg64
(lp2732
g1266
asbasbasbag57
(g73
g59
NtRp2733
(dp2734
g62
(dp2735
sg71
g2645
sg64
(lp2736
g57
(g78
g59
NtRp2737
(dp2738
g62
(dp2739
g82
g83
ssg71
g2733
sg64
(lp2740
S'HTTP_CACHE_CONTROL'
p2741
asbag57
(g78
g59
NtRp2742
(dp2743
g62
(dp2744
g89
g90
ssg71
g2733
sg64
(lp2745
S':'
asbag57
(g78
g59
NtRp2746
(dp2747
g62
(dp2748
sg71
g2733
sg64
(lp2749
g57
(g58
g59
NtRp2750
(dp2751
g62
(dp2752
g70
I3
ssg71
g2746
sg64
(lp2753
g1288
asbasbasbag57
(g73
g59
NtRp2754
(dp2755
g62
(dp2756
sg71
g2645
sg64
(lp2757
g57
(g78
g59
NtRp2758
(dp2759
g62
(dp2760
g82
g83
ssg71
g2754
sg64
(lp2761
S'HTTP_CONNECTION'
p2762
asbag57
(g78
g59
NtRp2763
(dp2764
g62
(dp2765
g89
g90
ssg71
g2754
sg64
(lp2766
S':'
asbag57
(g78
g59
NtRp2767
(dp2768
g62
(dp2769
sg71
g2754
sg64
(lp2770
g57
(g58
g59
NtRp2771
(dp2772
g62
(dp2773
g70
I3
ssg71
g2767
sg64
(lp2774
g1310
asbasbasbag57
(g73
g59
NtRp2775
(dp2776
g62
(dp2777
sg71
g2645
sg64
(lp2778
g57
(g78
g59
NtRp2779
(dp2780
g62
(dp2781
g82
g83
ssg71
g2775
sg64
(lp2782
S'HTTP_COOKIE'
p2783
asbag57
(g78
g59
NtRp2784
(dp2785
g62
(dp2786
g89
g90
ssg71
g2775
sg64
(lp2787
S':'
asbag57
(g78
g59
NtRp2788
(dp2789
g62
(dp2790
sg71
g2775
sg64
(lp2791
g57
(g58
g59
NtRp2792
(dp2793
g62
(dp2794
g70
I3
ssg71
g2788
sg64
(lp2795
g1332
asbasbasbag57
(g73
g59
NtRp2796
(dp2797
g62
(dp2798
sg71
g2645
sg64
(lp2799
g57
(g78
g59
NtRp2800
(dp2801
g62
(dp2802
g82
g83
ssg71
g2796
sg64
(lp2803
S'HTTP_HOST'
p2804
asbag57
(g78
g59
NtRp2805
(dp2806
g62
(dp2807
g89
g90
ssg71
g2796
sg64
(lp2808
S':'
asbag57
(g78
g59
NtRp2809
(dp2810
g62
(dp2811
sg71
g2796
sg64
(lp2812
g57
(g58
g59
NtRp2813
(dp2814
g62
(dp2815
g70
I3
ssg71
g2809
sg64
(lp2816
g1354
asbasbasbag57
(g73
g59
NtRp2817
(dp2818
g62
(dp2819
sg71
g2645
sg64
(lp2820
g57
(g78
g59
NtRp2821
(dp2822
g62
(dp2823
g82
g83
ssg71
g2817
sg64
(lp2824
S'HTTP_USER_AGENT'
p2825
asbag57
(g78
g59
NtRp2826
(dp2827
g62
(dp2828
g89
g90
ssg71
g2817
sg64
(lp2829
S':'
asbag57
(g78
g59
NtRp2830
(dp2831
g62
(dp2832
sg71
g2817
sg64
(lp2833
g57
(g58
g59
NtRp2834
(dp2835
g62
(dp2836
g70
I3
ssg71
g2830
sg64
(lp2837
g1376
asbasbasbag57
(g73
g59
NtRp2838
(dp2839
g62
(dp2840
sg71
g2645
sg64
(lp2841
g57
(g78
g59
NtRp2842
(dp2843
g62
(dp2844
g82
g83
ssg71
g2838
sg64
(lp2845
S'PATH_INFO'
p2846
asbag57
(g78
g59
NtRp2847
(dp2848
g62
(dp2849
g89
g90
ssg71
g2838
sg64
(lp2850
S':'
asbag57
(g78
g59
NtRp2851
(dp2852
g62
(dp2853
sg71
g2838
sg64
(lp2854
g57
(g58
g59
NtRp2855
(dp2856
g62
(dp2857
g70
I3
ssg71
g2851
sg64
(lp2858
g1440
asbasbasbag57
(g73
g59
NtRp2859
(dp2860
g62
(dp2861
sg71
g2645
sg64
(lp2862
g57
(g78
g59
NtRp2863
(dp2864
g62
(dp2865
g82
g83
ssg71
g2859
sg64
(lp2866
S'QUERY_STRING'
p2867
asbag57
(g78
g59
NtRp2868
(dp2869
g62
(dp2870
g89
g90
ssg71
g2859
sg64
(lp2871
S':'
asbag57
(g78
g59
NtRp2872
(dp2873
g62
(dp2874
sg71
g2859
sg64
(lp2875
g57
(g58
g59
NtRp2876
(dp2877
g62
(dp2878
g70
I3
ssg71
g2872
sg64
(lp2879
S''
asbasbasbag57
(g73
g59
NtRp2880
(dp2881
g62
(dp2882
sg71
g2645
sg64
(lp2883
g57
(g78
g59
NtRp2884
(dp2885
g62
(dp2886
g82
g83
ssg71
g2880
sg64
(lp2887
S'REMOTE_ADDR'
p2888
asbag57
(g78
g59
NtRp2889
(dp2890
g62
(dp2891
g89
g90
ssg71
g2880
sg64
(lp2892
S':'
asbag57
(g78
g59
NtRp2893
(dp2894
g62
(dp2895
sg71
g2880
sg64
(lp2896
g57
(g58
g59
NtRp2897
(dp2898
g62
(dp2899
g70
I3
ssg71
g2893
sg64
(lp2900
g202
asbasbasbag57
(g73
g59
NtRp2901
(dp2902
g62
(dp2903
sg71
g2645
sg64
(lp2904
g57
(g78
g59
NtRp2905
(dp2906
g62
(dp2907
g82
g83
ssg71
g2901
sg64
(lp2908
S'REMOTE_PORT'
p2909
asbag57
(g78
g59
NtRp2910
(dp2911
g62
(dp2912
g89
g90
ssg71
g2901
sg64
(lp2913
S':'
asbag57
(g78
g59
NtRp2914
(dp2915
g62
(dp2916
sg71
g2901
sg64
(lp2917
g57
(g58
g59
NtRp2918
(dp2919
g62
(dp2920
g70
I3
ssg71
g2914
sg64
(lp2921
g1504
asbasbasbag57
(g73
g59
NtRp2922
(dp2923
g62
(dp2924
sg71
g2645
sg64
(lp2925
g57
(g78
g59
NtRp2926
(dp2927
g62
(dp2928
g82
g83
ssg71
g2922
sg64
(lp2929
S'REQUEST_METHOD'
p2930
asbag57
(g78
g59
NtRp2931
(dp2932
g62
(dp2933
g89
g90
ssg71
g2922
sg64
(lp2934
S':'
asbag57
(g78
g59
NtRp2935
(dp2936
g62
(dp2937
sg71
g2922
sg64
(lp2938
g57
(g58
g59
NtRp2939
(dp2940
g62
(dp2941
g70
I3
ssg71
g2935
sg64
(lp2942
g1526
asbasbasbag57
(g73
g59
NtRp2943
(dp2944
g62
(dp2945
sg71
g2645
sg64
(lp2946
g57
(g78
g59
NtRp2947
(dp2948
g62
(dp2949
g82
g83
ssg71
g2943
sg64
(lp2950
S'SCRIPT_NAME'
p2951
asbag57
(g78
g59
NtRp2952
(dp2953
g62
(dp2954
g89
g90
ssg71
g2943
sg64
(lp2955
S':'
asbag57
(g78
g59
NtRp2956
(dp2957
g62
(dp2958
sg71
g2943
sg64
(lp2959
g57
(g58
g59
NtRp2960
(dp2961
g62
(dp2962
g70
I3
ssg71
g2956
sg64
(lp2963
S''
asbasbasbag57
(g73
g59
NtRp2964
(dp2965
g62
(dp2966
sg71
g2645
sg64
(lp2967
g57
(g78
g59
NtRp2968
(dp2969
g62
(dp2970
g82
g83
ssg71
g2964
sg64
(lp2971
S'SERVER_NAME'
p2972
asbag57
(g78
g59
NtRp2973
(dp2974
g62
(dp2975
g89
g90
ssg71
g2964
sg64
(lp2976
S':'
asbag57
(g78
g59
NtRp2977
(dp2978
g62
(dp2979
sg71
g2964
sg64
(lp2980
g57
(g58
g59
NtRp2981
(dp2982
g62
(dp2983
g70
I3
ssg71
g2977
sg64
(lp2984
g1569
asbasbasbag57
(g73
g59
NtRp2985
(dp2986
g62
(dp2987
sg71
g2645
sg64
(lp2988
g57
(g78
g59
NtRp2989
(dp2990
g62
(dp2991
g82
g83
ssg71
g2985
sg64
(lp2992
S'SERVER_PORT'
p2993
asbag57
(g78
g59
NtRp2994
(dp2995
g62
(dp2996
g89
g90
ssg71
g2985
sg64
(lp2997
S':'
asbag57
(g78
g59
NtRp2998
(dp2999
g62
(dp3000
sg71
g2985
sg64
(lp3001
g57
(g58
g59
NtRp3002
(dp3003
g62
(dp3004
g70
I3
ssg71
g2998
sg64
(lp3005
g1591
asbasbasbag57
(g73
g59
NtRp3006
(dp3007
g62
(dp3008
sg71
g2645
sg64
(lp3009
g57
(g78
g59
NtRp3010
(dp3011
g62
(dp3012
g82
g83
ssg71
g3006
sg64
(lp3013
S'SERVER_PROTOCOL'
p3014
asbag57
(g78
g59
NtRp3015
(dp3016
g62
(dp3017
g89
g90
ssg71
g3006
sg64
(lp3018
S':'
asbag57
(g78
g59
NtRp3019
(dp3020
g62
(dp3021
sg71
g3006
sg64
(lp3022
g57
(g58
g59
NtRp3023
(dp3024
g62
(dp3025
g70
I3
ssg71
g3019
sg64
(lp3026
g1613
asbasbasbag57
(g73
g59
NtRp3027
(dp3028
g62
(dp3029
sg71
g2645
sg64
(lp3030
g57
(g78
g59
NtRp3031
(dp3032
g62
(dp3033
g82
g83
ssg71
g3027
sg64
(lp3034
S'SERVER_SOFTWARE'
p3035
asbag57
(g78
g59
NtRp3036
(dp3037
g62
(dp3038
g89
g90
ssg71
g3027
sg64
(lp3039
S':'
asbag57
(g78
g59
NtRp3040
(dp3041
g62
(dp3042
sg71
g3027
sg64
(lp3043
g57
(g58
g59
NtRp3044
(dp3045
g62
(dp3046
g70
I3
ssg71
g3040
sg64
(lp3047
g1635
asbasbasbag57
(g73
g59
NtRp3048
(dp3049
g62
(dp3050
sg71
g2645
sg64
(lp3051
g57
(g78
g59
NtRp3052
(dp3053
g62
(dp3054
g82
g83
ssg71
g3048
sg64
(lp3055
S'wsgi.errors'
p3056
asbag57
(g78
g59
NtRp3057
(dp3058
g62
(dp3059
g89
g90
ssg71
g3048
sg64
(lp3060
S':'
asbag57
(g78
g59
NtRp3061
(dp3062
g62
(dp3063
sg71
g3048
sg64
(lp3064
g57
(g58
g59
NtRp3065
(dp3066
g62
(dp3067
g70
I3
ssg71
g3061
sg64
(lp3068
S"<open file '<stderr>', mode 'w' at 0x104484270>"
p3069
asbasbasbag57
(g73
g59
NtRp3070
(dp3071
g62
(dp3072
sg71
g2645
sg64
(lp3073
g57
(g78
g59
NtRp3074
(dp3075
g62
(dp3076
g82
g83
ssg71
g3070
sg64
(lp3077
S'wsgi.file_wrapper'
p3078
asbag57
(g78
g59
NtRp3079
(dp3080
g62
(dp3081
g89
g90
ssg71
g3070
sg64
(lp3082
S':'
asbag57
(g78
g59
NtRp3083
(dp3084
g62
(dp3085
sg71
g3070
sg64
(lp3086
g57
(g58
g59
NtRp3087
(dp3088
g62
(dp3089
g70
I3
ssg71
g3083
sg64
(lp3090
S'<class wsgiref.util.FileWrapper at 0x104ebdf58>'
p3091
asbasbasbag57
(g73
g59
NtRp3092
(dp3093
g62
(dp3094
sg71
g2645
sg64
(lp3095
g57
(g78
g59
NtRp3096
(dp3097
g62
(dp3098
g82
g83
ssg71
g3092
sg64
(lp3099
S'wsgi.input'
p3100
asbag57
(g78
g59
NtRp3101
(dp3102
g62
(dp3103
g89
g90
ssg71
g3092
sg64
(lp3104
S':'
asbag57
(g78
g59
NtRp3105
(dp3106
g62
(dp3107
sg71
g3092
sg64
(lp3108
g57
(g58
g59
NtRp3109
(dp3110
g62
(dp3111
g70
I3
ssg71
g3105
sg64
(lp3112
S'<cStringIO.StringO object at 0x1054776c0>'
p3113
asbasbasbag57
(g73
g59
NtRp3114
(dp3115
g62
(dp3116
sg71
g2645
sg64
(lp3117
g57
(g78
g59
NtRp3118
(dp3119
g62
(dp3120
g82
g83
ssg71
g3114
sg64
(lp3121
S'wsgi.multiprocess'
p3122
asbag57
(g78
g59
NtRp3123
(dp3124
g62
(dp3125
g89
g90
ssg71
g3114
sg64
(lp3126
S':'
asbag57
(g78
g59
NtRp3127
(dp3128
g62
(dp3129
sg71
g3114
sg64
(lp3130
g57
(g58
g59
NtRp3131
(dp3132
g62
(dp3133
g70
I3
ssg71
g3127
sg64
(lp3134
g100
asbasbasbag57
(g73
g59
NtRp3135
(dp3136
g62
(dp3137
sg71
g2645
sg64
(lp3138
g57
(g78
g59
NtRp3139
(dp3140
g62
(dp3141
g82
g83
ssg71
g3135
sg64
(lp3142
S'wsgi.multithread'
p3143
asbag57
(g78
g59
NtRp3144
(dp3145
g62
(dp3146
g89
g90
ssg71
g3135
sg64
(lp3147
S':'
asbag57
(g78
g59
NtRp3148
(dp3149
g62
(dp3150
sg71
g3135
sg64
(lp3151
g57
(g58
g59
NtRp3152
(dp3153
g62
(dp3154
g70
I3
ssg71
g3148
sg64
(lp3155
g1875
asbasbasbag57
(g73
g59
NtRp3156
(dp3157
g62
(dp3158
sg71
g2645
sg64
(lp3159
g57
(g78
g59
NtRp3160
(dp3161
g62
(dp3162
g82
g83
ssg71
g3156
sg64
(lp3163
S'wsgi.run_once'
p3164
asbag57
(g78
g59
NtRp3165
(dp3166
g62
(dp3167
g89
g90
ssg71
g3156
sg64
(lp3168
S':'
asbag57
(g78
g59
NtRp3169
(dp3170
g62
(dp3171
sg71
g3156
sg64
(lp3172
g57
(g58
g59
NtRp3173
(dp3174
g62
(dp3175
g70
I3
ssg71
g3169
sg64
(lp3176
g100
asbasbasbag57
(g73
g59
NtRp3177
(dp3178
g62
(dp3179
sg71
g2645
sg64
(lp3180
g57
(g78
g59
NtRp3181
(dp3182
g62
(dp3183
g82
g83
ssg71
g3177
sg64
(lp3184
S'wsgi.url_scheme'
p3185
asbag57
(g78
g59
NtRp3186
(dp3187
g62
(dp3188
g89
g90
ssg71
g3177
sg64
(lp3189
S':'
asbag57
(g78
g59
NtRp3190
(dp3191
g62
(dp3192
sg71
g3177
sg64
(lp3193
g57
(g58
g59
NtRp3194
(dp3195
g62
(dp3196
g70
I3
ssg71
g3190
sg64
(lp3197
g1918
asbasbasbag57
(g73
g59
NtRp3198
(dp3199
g62
(dp3200
sg71
g2645
sg64
(lp3201
g57
(g78
g59
NtRp3202
(dp3203
g62
(dp3204
g82
g83
ssg71
g3198
sg64
(lp3205
S'wsgi.version'
p3206
asbag57
(g78
g59
NtRp3207
(dp3208
g62
(dp3209
g89
g90
ssg71
g3198
sg64
(lp3210
S':'
asbag57
(g78
g59
NtRp3211
(dp3212
g62
(dp3213
sg71
g3198
sg64
(lp3214
g57
(g58
g59
NtRp3215
(dp3216
g62
(dp3217
g70
I3
ssg71
g3211
sg64
(lp3218
S'1'
asbasbasbasbasbasbasbasbasbasbasbasbasbsS'frames'
p3219
(lp3220
(dp3221
S'file'
p3222
S'/Users/ianaboneva/Dropbox/DePaul/CSC 438 - Web Applications/web2py/gluon/restricted.py'
p3223
sS'dump'
p3224
(dp3225
S'environment'
p3226
S"{'A': <class 'gluon.html.A'>, 'Auth': <class 'gluon.tools.Auth'>, 'B': <class 'gluon.html.B'>, 'BEAUTIFY': <class 'gluon.html.BEAUTIFY'>, 'BODY': <class 'gluon.html.BODY'>, 'BR': <class 'gluon.html.BR'>, 'BUTTON': <class 'gluon.html.BUTTON'>, 'CAT': <class 'gluon.html.CAT'>, 'CENTER': <class 'gluon.html.CENTER'>, 'CLEANUP': <class 'gluon.validators.CLEANUP'>, ...}"
p3227
sS'ccode'
p3228
S'<code object <module> at 0x109f74db0, file "/Use...helf_copy/views/default/book_shelf.html", line 1>'
p3229
ssS'lnum'
p3230
I205
sS'lines'
p3231
(dp3232
I200
S'    try:'
p3233
sI201
S'        if type(code) == types.CodeType:'
p3234
sI202
S'            ccode = code'
p3235
sI203
S'        else:'
p3236
sI204
S'            ccode = compile2(code,layer)'
p3237
sI205
S'        exec ccode in environment'
p3238
sI206
S'    except HTTP:'
p3239
sI207
S'        raise'
p3240
sI208
S'    except RestrictedError:'
p3241
sI209
S'        # do not encapsulate (obfuscate) the original RestrictedError'
p3242
ssS'call'
p3243
S'(code=r"response.write(\'<!DOCTYPE html>\\n<!-- paulirish....ponse.write(\'\\n</body>\\n</html>\\n\', escape=False)", environment={\'A\': <class \'gluon.html.A\'>, \'Auth\': <class \'gluon.tools.Auth\'>, \'B\': <class \'gluon.html.B\'>, \'BEAUTIFY\': <class \'gluon.html.BEAUTIFY\'>, \'BODY\': <class \'gluon.html.BODY\'>, \'BR\': <class \'gluon.html.BR\'>, \'BUTTON\': <class \'gluon.html.BUTTON\'>, \'CAT\': <class \'gluon.html.CAT\'>, \'CENTER\': <class \'gluon.html.CENTER\'>, \'CLEANUP\': <class \'gluon.validators.CLEANUP\'>, ...}, layer=\'/Users/ianaboneva/Dropbox/DePaul/CSC 438 - Web A...ons/Book_Shelf_copy/views/default/book_shelf.html\')'
p3244
sS'func'
p3245
S'restricted'
p3246
sa(dp3247
g3222
S'/Users/ianaboneva/Dropbox/DePaul/CSC 438 - Web Applications/web2py/applications/Book_Shelf_copy/views/default/book_shelf.html'
p3248
sg3224
(dp3249
sg3230
I94
sg3231
(dp3250
I96
S'        pass'
p3251
sI97
S"    response.write('\\n', escape=False)"
p3252
sI98
S'else:'
p3253
sI99
S"    response.write('\\n\\tNo books\\n', escape=False)"
p3254
sI100
S'    pass'
p3255
sI101
S"response.write('\\n\\t\\n\\n', escape=False)"
p3256
sI102
S"response.write('\\n          ', escape=False)"
p3257
sI103
S"response.write('\\n        </div>\\n        \\n        ', escape=False)"
p3258
sI104
S'if right_sidebar_enabled:'
p3259
sI85
S"response.write('\\n<h1>', escape=False)"
p3260
sI86
S'response.write(shelf.Shelf_Name)'
p3261
sI87
S"response.write('</h1>\\n', escape=False)"
p3262
sI88
S'response.write(form)'
p3263
sI89
S"response.write('\\n\\n', escape=False)"
p3264
sI90
S'if len(books):'
p3265
sI91
S"    response.write('\\n\\t', escape=False)"
p3266
sI92
S'    for book in books:'
p3267
sI93
S"        response.write('\\n\\t\\t<p>', escape=False)"
p3268
sI94
S'        response.write(book.Title)'
p3269
sI95
S"        response.write('</p>\\n\\t', escape=False)"
p3270
ssg3243
S'()'
p3271
sg3245
S'<module>'
p3272
sa(dp3273
g3222
S'/Users/ianaboneva/Dropbox/DePaul/CSC 438 - Web Applications/web2py/gluon/dal.py'
p3274
sg3224
(dp3275
S'self'
p3276
S"<Row {'modified_by': 2, 'update_record': <functi...ete_record': <function <lambda> at 0x109f582a8>}>"
p3277
sS'key'
p3278
S"'Title'"
p3279
ssg3230
I5657
sg3231
(dp3280
I5652
S''
sI5653
S'    def __setitem__(self, key, value):'
p3281
sI5654
S'        dict.__setitem__(self, str(key), value)'
p3282
sI5655
S''
sI5656
S'    def __getattr__(self, key):'
p3283
sI5657
S'        return self[key]'
p3284
sI5658
S''
sI5659
S'    def __setattr__(self, key, value):'
p3285
sI5660
S'        self[key] = value'
p3286
sI5661
S''
ssg3243
S"(self=<Row {'modified_by': 2, 'update_record': <functi...ete_record': <function <lambda> at 0x109f582a8>}>, key='Title')"
p3287
sg3245
S'__getattr__'
p3288
sa(dp3289
g3222
S'/Users/ianaboneva/Dropbox/DePaul/CSC 438 - Web Applications/web2py/gluon/dal.py'
p3290
sg3224
(dp3291
S'self'
p3292
S"<Row {'modified_by': 2, 'update_record': <functi...ete_record': <function <lambda> at 0x109f582a8>}>"
p3293
sS'dict.__getitem__'
p3294
S"<method '__getitem__' of 'dict' objects>"
p3295
sS'key'
p3296
S"'Title'"
p3297
sS'builtindict'
p3298
S"<type 'dict'>"
p3299
ssg3230
I5648
sg3231
(dp3300
I5643
S'        elif m:'
p3301
sI5644
S'            try:'
p3302
sI5645
S'                return dict.__getitem__(self, m.group(1))[m.group(2)]'
p3303
sI5646
S'            except (KeyError,TypeError):'
p3304
sI5647
S'                key = m.group(2)'
p3305
sI5648
S'        return dict.__getitem__(self, key)'
p3306
sI5649
S''
sI5650
S'    def __call__(self,key):'
p3307
sI5651
S'        return self.__getitem__(key)'
p3308
sI5652
S''
ssg3243
S"(self=<Row {'modified_by': 2, 'update_record': <functi...ete_record': <function <lambda> at 0x109f582a8>}>, key='Title')"
p3309
sg3245
g20
sasS'pyver'
p3310
S'Python 2.7.1: /usr/bin/python'
p3311
sS'session'
p3312
g57
(g58
g59
NtRp3313
(dp3314
g62
(dp3315
sg64
(lp3316
g57
(g66
g59
NtRp3317
(dp3318
g62
(dp3319
g70
I5
ssg71
Nsg64
(lp3320
g57
(g73
g59
NtRp3321
(dp3322
g62
(dp3323
sg71
g3317
sg64
(lp3324
g57
(g78
g59
NtRp3325
(dp3326
g62
(dp3327
g82
g83
ssg71
g3321
sg64
(lp3328
S'auth'
p3329
asbag57
(g78
g59
NtRp3330
(dp3331
g62
(dp3332
g89
g90
ssg71
g3321
sg64
(lp3333
S':'
asbag57
(g78
g59
NtRp3334
(dp3335
g62
(dp3336
sg71
g3321
sg64
(lp3337
g57
(g58
g59
NtRp3338
(dp3339
g62
(dp3340
g70
I5
ssg71
g3334
sg64
(lp3341
g57
(g66
g59
NtRp3342
(dp3343
g62
(dp3344
g70
I4
ssg71
Nsg64
(lp3345
g57
(g73
g59
NtRp3346
(dp3347
g62
(dp3348
sg71
g3342
sg64
(lp3349
g57
(g78
g59
NtRp3350
(dp3351
g62
(dp3352
g82
g83
ssg71
g3346
sg64
(lp3353
S'expiration'
p3354
asbag57
(g78
g59
NtRp3355
(dp3356
g62
(dp3357
g89
g90
ssg71
g3346
sg64
(lp3358
S':'
asbag57
(g78
g59
NtRp3359
(dp3360
g62
(dp3361
sg71
g3346
sg64
(lp3362
g57
(g58
g59
NtRp3363
(dp3364
g62
(dp3365
g70
I4
ssg71
g3359
sg64
(lp3366
S'3600'
p3367
asbasbasbag57
(g73
g59
NtRp3368
(dp3369
g62
(dp3370
sg71
g3342
sg64
(lp3371
g57
(g78
g59
NtRp3372
(dp3373
g62
(dp3374
g82
g83
ssg71
g3368
sg64
(lp3375
S'hmac_key'
p3376
asbag57
(g78
g59
NtRp3377
(dp3378
g62
(dp3379
g89
g90
ssg71
g3368
sg64
(lp3380
S':'
asbag57
(g78
g59
NtRp3381
(dp3382
g62
(dp3383
sg71
g3368
sg64
(lp3384
g57
(g58
g59
NtRp3385
(dp3386
g62
(dp3387
g70
I4
ssg71
g3381
sg64
(lp3388
S'6d65ccff-e9f9-4a04-a10d-f39c9767a83a'
p3389
asbasbasbag57
(g73
g59
NtRp3390
(dp3391
g62
(dp3392
sg71
g3342
sg64
(lp3393
g57
(g78
g59
NtRp3394
(dp3395
g62
(dp3396
g82
g83
ssg71
g3390
sg64
(lp3397
S'last_visit'
p3398
asbag57
(g78
g59
NtRp3399
(dp3400
g62
(dp3401
g89
g90
ssg71
g3390
sg64
(lp3402
S':'
asbag57
(g78
g59
NtRp3403
(dp3404
g62
(dp3405
sg71
g3390
sg64
(lp3406
g57
(g58
g59
NtRp3407
(dp3408
g62
(dp3409
g70
I4
ssg71
g3403
sg64
(lp3410
S'datetime.datetime(2012, 6, 3, 18, 6, 40, 242370)'
p3411
asbasbasbag57
(g73
g59
NtRp3412
(dp3413
g62
(dp3414
sg71
g3342
sg64
(lp3415
g57
(g78
g59
NtRp3416
(dp3417
g62
(dp3418
g82
g83
ssg71
g3412
sg64
(lp3419
S'remember'
p3420
asbag57
(g78
g59
NtRp3421
(dp3422
g62
(dp3423
g89
g90
ssg71
g3412
sg64
(lp3424
S':'
asbag57
(g78
g59
NtRp3425
(dp3426
g62
(dp3427
sg71
g3412
sg64
(lp3428
g57
(g58
g59
NtRp3429
(dp3430
g62
(dp3431
g70
I4
ssg71
g3425
sg64
(lp3432
g100
asbasbasbag57
(g73
g59
NtRp3433
(dp3434
g62
(dp3435
sg71
g3342
sg64
(lp3436
g57
(g78
g59
NtRp3437
(dp3438
g62
(dp3439
g82
g83
ssg71
g3433
sg64
(lp3440
S'user'
p3441
asbag57
(g78
g59
NtRp3442
(dp3443
g62
(dp3444
g89
g90
ssg71
g3433
sg64
(lp3445
S':'
asbag57
(g78
g59
NtRp3446
(dp3447
g62
(dp3448
sg71
g3433
sg64
(lp3449
g57
(g58
g59
NtRp3450
(dp3451
g62
(dp3452
g70
I4
ssg71
g3446
sg64
(lp3453
g57
(g66
g59
NtRp3454
(dp3455
g62
(dp3456
g70
I3
ssg71
Nsg64
(lp3457
g57
(g73
g59
NtRp3458
(dp3459
g62
(dp3460
sg71
g3454
sg64
(lp3461
g57
(g78
g59
NtRp3462
(dp3463
g62
(dp3464
g82
g83
ssg71
g3458
sg64
(lp3465
S'email'
p3466
asbag57
(g78
g59
NtRp3467
(dp3468
g62
(dp3469
g89
g90
ssg71
g3458
sg64
(lp3470
S':'
asbag57
(g78
g59
NtRp3471
(dp3472
g62
(dp3473
sg71
g3458
sg64
(lp3474
g57
(g58
g59
NtRp3475
(dp3476
g62
(dp3477
g70
I3
ssg71
g3471
sg64
(lp3478
S'haha@haha.com'
p3479
asbasbasbag57
(g73
g59
NtRp3480
(dp3481
g62
(dp3482
sg71
g3454
sg64
(lp3483
g57
(g78
g59
NtRp3484
(dp3485
g62
(dp3486
g82
g83
ssg71
g3480
sg64
(lp3487
S'first_name'
p3488
asbag57
(g78
g59
NtRp3489
(dp3490
g62
(dp3491
g89
g90
ssg71
g3480
sg64
(lp3492
S':'
asbag57
(g78
g59
NtRp3493
(dp3494
g62
(dp3495
sg71
g3480
sg64
(lp3496
g57
(g58
g59
NtRp3497
(dp3498
g62
(dp3499
g70
I3
ssg71
g3493
sg64
(lp3500
S'Iana'
p3501
asbasbasbag57
(g73
g59
NtRp3502
(dp3503
g62
(dp3504
sg71
g3454
sg64
(lp3505
g57
(g78
g59
NtRp3506
(dp3507
g62
(dp3508
g82
g83
ssg71
g3502
sg64
(lp3509
S'id'
p3510
asbag57
(g78
g59
NtRp3511
(dp3512
g62
(dp3513
g89
g90
ssg71
g3502
sg64
(lp3514
S':'
asbag57
(g78
g59
NtRp3515
(dp3516
g62
(dp3517
sg71
g3502
sg64
(lp3518
g57
(g58
g59
NtRp3519
(dp3520
g62
(dp3521
g70
I3
ssg71
g3515
sg64
(lp3522
S'2'
asbasbasbag57
(g73
g59
NtRp3523
(dp3524
g62
(dp3525
sg71
g3454
sg64
(lp3526
g57
(g78
g59
NtRp3527
(dp3528
g62
(dp3529
g82
g83
ssg71
g3523
sg64
(lp3530
S'last_name'
p3531
asbag57
(g78
g59
NtRp3532
(dp3533
g62
(dp3534
g89
g90
ssg71
g3523
sg64
(lp3535
S':'
asbag57
(g78
g59
NtRp3536
(dp3537
g62
(dp3538
sg71
g3523
sg64
(lp3539
g57
(g58
g59
NtRp3540
(dp3541
g62
(dp3542
g70
I3
ssg71
g3536
sg64
(lp3543
S'Boneva'
p3544
asbasbasbag57
(g73
g59
NtRp3545
(dp3546
g62
(dp3547
sg71
g3454
sg64
(lp3548
g57
(g78
g59
NtRp3549
(dp3550
g62
(dp3551
g82
g83
ssg71
g3545
sg64
(lp3552
S'password'
p3553
asbag57
(g78
g59
NtRp3554
(dp3555
g62
(dp3556
g89
g90
ssg71
g3545
sg64
(lp3557
S':'
asbag57
(g78
g59
NtRp3558
(dp3559
g62
(dp3560
sg71
g3545
sg64
(lp3561
g57
(g58
g59
NtRp3562
(dp3563
g62
(dp3564
g70
I3
ssg71
g3558
sg64
(lp3565
S'be570e8e7b9bbc17c5aecccf653fd3d3'
p3566
asbasbasbag57
(g73
g59
NtRp3567
(dp3568
g62
(dp3569
sg71
g3454
sg64
(lp3570
g57
(g78
g59
NtRp3571
(dp3572
g62
(dp3573
g82
g83
ssg71
g3567
sg64
(lp3574
S'registration_id'
p3575
asbag57
(g78
g59
NtRp3576
(dp3577
g62
(dp3578
g89
g90
ssg71
g3567
sg64
(lp3579
S':'
asbag57
(g78
g59
NtRp3580
(dp3581
g62
(dp3582
sg71
g3567
sg64
(lp3583
g57
(g58
g59
NtRp3584
(dp3585
g62
(dp3586
g70
I3
ssg71
g3580
sg64
(lp3587
S''
asbasbasbag57
(g73
g59
NtRp3588
(dp3589
g62
(dp3590
sg71
g3454
sg64
(lp3591
g57
(g78
g59
NtRp3592
(dp3593
g62
(dp3594
g82
g83
ssg71
g3588
sg64
(lp3595
S'registration_key'
p3596
asbag57
(g78
g59
NtRp3597
(dp3598
g62
(dp3599
g89
g90
ssg71
g3588
sg64
(lp3600
S':'
asbag57
(g78
g59
NtRp3601
(dp3602
g62
(dp3603
sg71
g3588
sg64
(lp3604
g57
(g58
g59
NtRp3605
(dp3606
g62
(dp3607
g70
I3
ssg71
g3601
sg64
(lp3608
S''
asbasbasbag57
(g73
g59
NtRp3609
(dp3610
g62
(dp3611
sg71
g3454
sg64
(lp3612
g57
(g78
g59
NtRp3613
(dp3614
g62
(dp3615
g82
g83
ssg71
g3609
sg64
(lp3616
S'reset_password_key'
p3617
asbag57
(g78
g59
NtRp3618
(dp3619
g62
(dp3620
g89
g90
ssg71
g3609
sg64
(lp3621
S':'
asbag57
(g78
g59
NtRp3622
(dp3623
g62
(dp3624
sg71
g3609
sg64
(lp3625
g57
(g58
g59
NtRp3626
(dp3627
g62
(dp3628
g70
I3
ssg71
g3622
sg64
(lp3629
S''
asbasbasbasbasbasbasbag57
(g73
g59
NtRp3630
(dp3631
g62
(dp3632
sg71
g3342
sg64
(lp3633
g57
(g78
g59
NtRp3634
(dp3635
g62
(dp3636
g82
g83
ssg71
g3630
sg64
(lp3637
S'user_groups'
p3638
asbag57
(g78
g59
NtRp3639
(dp3640
g62
(dp3641
g89
g90
ssg71
g3630
sg64
(lp3642
S':'
asbag57
(g78
g59
NtRp3643
(dp3644
g62
(dp3645
sg71
g3630
sg64
(lp3646
g57
(g58
g59
NtRp3647
(dp3648
g62
(dp3649
g70
I4
ssg71
g3643
sg64
(lp3650
g57
(g66
g59
NtRp3651
(dp3652
g62
(dp3653
g70
I3
ssg71
Nsg64
(lp3654
g57
(g73
g59
NtRp3655
(dp3656
g62
(dp3657
sg71
g3651
sg64
(lp3658
g57
(g78
g59
NtRp3659
(dp3660
g62
(dp3661
g82
g83
ssg71
g3655
sg64
(lp3662
S'2'
asbag57
(g78
g59
NtRp3663
(dp3664
g62
(dp3665
g89
g90
ssg71
g3655
sg64
(lp3666
S':'
asbag57
(g78
g59
NtRp3667
(dp3668
g62
(dp3669
sg71
g3655
sg64
(lp3670
g57
(g58
g59
NtRp3671
(dp3672
g62
(dp3673
g70
I3
ssg71
g3667
sg64
(lp3674
S'user_2'
p3675
asbasbasbasbasbasbasbasbasbasbasbag57
(g73
g59
NtRp3676
(dp3677
g62
(dp3678
sg71
g3317
sg64
(lp3679
g57
(g78
g59
NtRp3680
(dp3681
g62
(dp3682
g82
g83
ssg71
g3676
sg64
(lp3683
S'last_query'
p3684
asbag57
(g78
g59
NtRp3685
(dp3686
g62
(dp3687
g89
g90
ssg71
g3676
sg64
(lp3688
S':'
asbag57
(g78
g59
NtRp3689
(dp3690
g62
(dp3691
sg71
g3676
sg64
(lp3692
g57
(g58
g59
NtRp3693
(dp3694
g62
(dp3695
g70
I5
ssg71
g3689
sg64
(lp3696
S'db.Book_Shelf_Items.id>0'
p3697
asbasbasbasbasbsS'etype'
p3698
S"<type 'exceptions.KeyError'>"
p3699
sS'date'
p3700
S'Sun Jun  3 18:11:47 2012'
p3701
sS'response'
p3702
g57
(g58
g59
NtRp3703
(dp3704
g62
(dp3705
sg64
(lp3706
g57
(g66
g59
NtRp3707
(dp3708
g62
(dp3709
g70
I5
ssg71
Nsg64
(lp3710
g57
(g73
g59
NtRp3711
(dp3712
g62
(dp3713
sg71
g3707
sg64
(lp3714
g57
(g78
g59
NtRp3715
(dp3716
g62
(dp3717
g82
g83
ssg71
g3711
sg64
(lp3718
g167
asbag57
(g78
g59
NtRp3719
(dp3720
g62
(dp3721
g89
g90
ssg71
g3711
sg64
(lp3722
S':'
asbag57
(g78
g59
NtRp3723
(dp3724
g62
(dp3725
sg71
g3711
sg64
(lp3726
g57
(g58
g59
NtRp3727
(dp3728
g62
(dp3729
g70
I5
ssg71
g3723
sg64
(lp3730
S'<cStringIO.StringO object at 0x109e00490>'
p3731
asbasbasbag57
(g73
g59
NtRp3732
(dp3733
g62
(dp3734
sg71
g3707
sg64
(lp3735
g57
(g78
g59
NtRp3736
(dp3737
g62
(dp3738
g82
g83
ssg71
g3732
sg64
(lp3739
g233
asbag57
(g78
g59
NtRp3740
(dp3741
g62
(dp3742
g89
g90
ssg71
g3732
sg64
(lp3743
S':'
asbag57
(g78
g59
NtRp3744
(dp3745
g62
(dp3746
sg71
g3732
sg64
(lp3747
g57
(g58
g59
NtRp3748
(dp3749
g62
(dp3750
g70
I5
ssg71
g3744
sg64
(lp3751
g57
(g66
g59
NtRp3752
(dp3753
g62
(dp3754
g70
I4
ssg71
Nsg64
(lp3755
g57
(g73
g59
NtRp3756
(dp3757
g62
(dp3758
sg71
g3752
sg64
(lp3759
g57
(g78
g59
NtRp3760
(dp3761
g62
(dp3762
g82
g83
ssg71
g3756
sg64
(lp3763
S'session_id_book_shelf_copy'
p3764
asbag57
(g78
g59
NtRp3765
(dp3766
g62
(dp3767
g89
g90
ssg71
g3756
sg64
(lp3768
S':'
asbag57
(g78
g59
NtRp3769
(dp3770
g62
(dp3771
sg71
g3756
sg64
(lp3772
g57
(g58
g59
NtRp3773
(dp3774
g62
(dp3775
g70
I4
ssg71
g3769
sg64
(lp3776
g57
(g66
g59
NtRp3777
(dp3778
g62
(dp3779
g70
I3
ssg71
Nsg64
(lp3780
g57
(g73
g59
NtRp3781
(dp3782
g62
(dp3783
sg71
g3777
sg64
(lp3784
g57
(g78
g59
NtRp3785
(dp3786
g62
(dp3787
g82
g83
ssg71
g3781
sg64
(lp3788
g283
asbag57
(g78
g59
NtRp3789
(dp3790
g62
(dp3791
g89
g90
ssg71
g3781
sg64
(lp3792
S':'
asbag57
(g78
g59
NtRp3793
(dp3794
g62
(dp3795
sg71
g3781
sg64
(lp3796
g57
(g58
g59
NtRp3797
(dp3798
g62
(dp3799
g70
I3
ssg71
g3793
sg64
(lp3800
S''
asbasbasbag57
(g73
g59
NtRp3801
(dp3802
g62
(dp3803
sg71
g3777
sg64
(lp3804
g57
(g78
g59
NtRp3805
(dp3806
g62
(dp3807
g82
g83
ssg71
g3801
sg64
(lp3808
g304
asbag57
(g78
g59
NtRp3809
(dp3810
g62
(dp3811
g89
g90
ssg71
g3801
sg64
(lp3812
S':'
asbag57
(g78
g59
NtRp3813
(dp3814
g62
(dp3815
sg71
g3801
sg64
(lp3816
g57
(g58
g59
NtRp3817
(dp3818
g62
(dp3819
g70
I3
ssg71
g3813
sg64
(lp3820
S''
asbasbasbag57
(g73
g59
NtRp3821
(dp3822
g62
(dp3823
sg71
g3777
sg64
(lp3824
g57
(g78
g59
NtRp3825
(dp3826
g62
(dp3827
g82
g83
ssg71
g3821
sg64
(lp3828
g325
asbag57
(g78
g59
NtRp3829
(dp3830
g62
(dp3831
g89
g90
ssg71
g3821
sg64
(lp3832
S':'
asbag57
(g78
g59
NtRp3833
(dp3834
g62
(dp3835
sg71
g3821
sg64
(lp3836
g57
(g58
g59
NtRp3837
(dp3838
g62
(dp3839
g70
I3
ssg71
g3833
sg64
(lp3840
S''
asbasbasbag57
(g73
g59
NtRp3841
(dp3842
g62
(dp3843
sg71
g3777
sg64
(lp3844
g57
(g78
g59
NtRp3845
(dp3846
g62
(dp3847
g82
g83
ssg71
g3841
sg64
(lp3848
g346
asbag57
(g78
g59
NtRp3849
(dp3850
g62
(dp3851
g89
g90
ssg71
g3841
sg64
(lp3852
S':'
asbag57
(g78
g59
NtRp3853
(dp3854
g62
(dp3855
sg71
g3841
sg64
(lp3856
g57
(g58
g59
NtRp3857
(dp3858
g62
(dp3859
g70
I3
ssg71
g3853
sg64
(lp3860
S''
asbasbasbag57
(g73
g59
NtRp3861
(dp3862
g62
(dp3863
sg71
g3777
sg64
(lp3864
g57
(g78
g59
NtRp3865
(dp3866
g62
(dp3867
g82
g83
ssg71
g3861
sg64
(lp3868
g367
asbag57
(g78
g59
NtRp3869
(dp3870
g62
(dp3871
g89
g90
ssg71
g3861
sg64
(lp3872
S':'
asbag57
(g78
g59
NtRp3873
(dp3874
g62
(dp3875
sg71
g3861
sg64
(lp3876
g57
(g58
g59
NtRp3877
(dp3878
g62
(dp3879
g70
I3
ssg71
g3873
sg64
(lp3880
S''
asbasbasbag57
(g73
g59
NtRp3881
(dp3882
g62
(dp3883
sg71
g3777
sg64
(lp3884
g57
(g78
g59
NtRp3885
(dp3886
g62
(dp3887
g82
g83
ssg71
g3881
sg64
(lp3888
g388
asbag57
(g78
g59
NtRp3889
(dp3890
g62
(dp3891
g89
g90
ssg71
g3881
sg64
(lp3892
S':'
asbag57
(g78
g59
NtRp3893
(dp3894
g62
(dp3895
sg71
g3881
sg64
(lp3896
g57
(g58
g59
NtRp3897
(dp3898
g62
(dp3899
g70
I3
ssg71
g3893
sg64
(lp3900
S'/'
asbasbasbag57
(g73
g59
NtRp3901
(dp3902
g62
(dp3903
sg71
g3777
sg64
(lp3904
g57
(g78
g59
NtRp3905
(dp3906
g62
(dp3907
g82
g83
ssg71
g3901
sg64
(lp3908
g409
asbag57
(g78
g59
NtRp3909
(dp3910
g62
(dp3911
g89
g90
ssg71
g3901
sg64
(lp3912
S':'
asbag57
(g78
g59
NtRp3913
(dp3914
g62
(dp3915
sg71
g3901
sg64
(lp3916
g57
(g58
g59
NtRp3917
(dp3918
g62
(dp3919
g70
I3
ssg71
g3913
sg64
(lp3920
S''
asbasbasbag57
(g73
g59
NtRp3921
(dp3922
g62
(dp3923
sg71
g3777
sg64
(lp3924
g57
(g78
g59
NtRp3925
(dp3926
g62
(dp3927
g82
g83
ssg71
g3921
sg64
(lp3928
g430
asbag57
(g78
g59
NtRp3929
(dp3930
g62
(dp3931
g89
g90
ssg71
g3921
sg64
(lp3932
S':'
asbag57
(g78
g59
NtRp3933
(dp3934
g62
(dp3935
sg71
g3921
sg64
(lp3936
g57
(g58
g59
NtRp3937
(dp3938
g62
(dp3939
g70
I3
ssg71
g3933
sg64
(lp3940
S''
asbasbasbasbasbasbasbasbasbasbasbag57
(g73
g59
NtRp3941
(dp3942
g62
(dp3943
sg71
g3707
sg64
(lp3944
g57
(g78
g59
NtRp3945
(dp3946
g62
(dp3947
g82
g83
ssg71
g3941
sg64
(lp3948
S'delimiters'
p3949
asbag57
(g78
g59
NtRp3950
(dp3951
g62
(dp3952
g89
g90
ssg71
g3941
sg64
(lp3953
S':'
asbag57
(g78
g59
NtRp3954
(dp3955
g62
(dp3956
sg71
g3941
sg64
(lp3957
g57
(g58
g59
NtRp3958
(dp3959
g62
(dp3960
g70
I5
ssg71
g3954
sg64
(lp3961
g57
(g66
g59
NtRp3962
(dp3963
g62
(dp3964
g70
I4
ssg71
Nsg64
(lp3965
g57
(g73
g59
NtRp3966
(dp3967
g62
(dp3968
sg71
g3962
sg64
(lp3969
g57
(g78
g59
NtRp3970
(dp3971
g62
(dp3972
sg71
g3966
sg64
(lp3973
g57
(g58
g59
NtRp3974
(dp3975
g62
(dp3976
g70
I4
ssg71
g3970
sg64
(lp3977
S'{{'
p3978
asbasbasbag57
(g73
g59
NtRp3979
(dp3980
g62
(dp3981
sg71
g3962
sg64
(lp3982
g57
(g78
g59
NtRp3983
(dp3984
g62
(dp3985
sg71
g3979
sg64
(lp3986
g57
(g58
g59
NtRp3987
(dp3988
g62
(dp3989
g70
I4
ssg71
g3983
sg64
(lp3990
S'}}'
p3991
asbasbasbasbasbasbasbag57
(g73
g59
NtRp3992
(dp3993
g62
(dp3994
sg71
g3707
sg64
(lp3995
g57
(g78
g59
NtRp3996
(dp3997
g62
(dp3998
g82
g83
ssg71
g3992
sg64
(lp3999
S'files'
p4000
asbag57
(g78
g59
NtRp4001
(dp4002
g62
(dp4003
g89
g90
ssg71
g3992
sg64
(lp4004
S':'
asbag57
(g78
g59
NtRp4005
(dp4006
g62
(dp4007
sg71
g3992
sg64
(lp4008
g57
(g58
g59
NtRp4009
(dp4010
g62
(dp4011
g70
I5
ssg71
g4005
sg64
(lp4012
g57
(g66
g59
NtRp4013
(dp4014
g62
(dp4015
g70
I4
ssg71
Nsg64
(lp4016
g57
(g73
g59
NtRp4017
(dp4018
g62
(dp4019
sg71
g4013
sg64
(lp4020
g57
(g78
g59
NtRp4021
(dp4022
g62
(dp4023
sg71
g4017
sg64
(lp4024
g57
(g58
g59
NtRp4025
(dp4026
g62
(dp4027
g70
I4
ssg71
g4021
sg64
(lp4028
S'/Book_Shelf_copy/static/js/jquery.js'
p4029
asbasbasbag57
(g73
g59
NtRp4030
(dp4031
g62
(dp4032
sg71
g4013
sg64
(lp4033
g57
(g78
g59
NtRp4034
(dp4035
g62
(dp4036
sg71
g4030
sg64
(lp4037
g57
(g58
g59
NtRp4038
(dp4039
g62
(dp4040
g70
I4
ssg71
g4034
sg64
(lp4041
S'/Book_Shelf_copy/static/css/calendar.css'
p4042
asbasbasbag57
(g73
g59
NtRp4043
(dp4044
g62
(dp4045
sg71
g4013
sg64
(lp4046
g57
(g78
g59
NtRp4047
(dp4048
g62
(dp4049
sg71
g4043
sg64
(lp4050
g57
(g58
g59
NtRp4051
(dp4052
g62
(dp4053
g70
I4
ssg71
g4047
sg64
(lp4054
S'/Book_Shelf_copy/static/js/calendar.js'
p4055
asbasbasbag57
(g73
g59
NtRp4056
(dp4057
g62
(dp4058
sg71
g4013
sg64
(lp4059
g57
(g78
g59
NtRp4060
(dp4061
g62
(dp4062
sg71
g4056
sg64
(lp4063
g57
(g58
g59
NtRp4064
(dp4065
g62
(dp4066
g70
I4
ssg71
g4060
sg64
(lp4067
S'/Book_Shelf_copy/static/js/web2py.js'
p4068
asbasbasbag57
(g73
g59
NtRp4069
(dp4070
g62
(dp4071
sg71
g4013
sg64
(lp4072
g57
(g78
g59
NtRp4073
(dp4074
g62
(dp4075
sg71
g4069
sg64
(lp4076
g57
(g58
g59
NtRp4077
(dp4078
g62
(dp4079
g70
I4
ssg71
g4073
sg64
(lp4080
S'/Book_Shelf_copy/static/css/skeleton.css'
p4081
asbasbasbag57
(g73
g59
NtRp4082
(dp4083
g62
(dp4084
sg71
g4013
sg64
(lp4085
g57
(g78
g59
NtRp4086
(dp4087
g62
(dp4088
sg71
g4082
sg64
(lp4089
g57
(g58
g59
NtRp4090
(dp4091
g62
(dp4092
g70
I4
ssg71
g4086
sg64
(lp4093
S'/Book_Shelf_copy/static/css/web2py.css'
p4094
asbasbasbag57
(g73
g59
NtRp4095
(dp4096
g62
(dp4097
sg71
g4013
sg64
(lp4098
g57
(g78
g59
NtRp4099
(dp4100
g62
(dp4101
sg71
g4095
sg64
(lp4102
g57
(g58
g59
NtRp4103
(dp4104
g62
(dp4105
g70
I4
ssg71
g4099
sg64
(lp4106
S'/Book_Shelf_copy/static/css/superfish.css'
p4107
asbasbasbag57
(g73
g59
NtRp4108
(dp4109
g62
(dp4110
sg71
g4013
sg64
(lp4111
g57
(g78
g59
NtRp4112
(dp4113
g62
(dp4114
sg71
g4108
sg64
(lp4115
g57
(g58
g59
NtRp4116
(dp4117
g62
(dp4118
g70
I4
ssg71
g4112
sg64
(lp4119
S'/Book_Shelf_copy/static/js/superfish.js'
p4120
asbasbasbasbasbasbasbag57
(g73
g59
NtRp4121
(dp4122
g62
(dp4123
sg71
g3707
sg64
(lp4124
g57
(g78
g59
NtRp4125
(dp4126
g62
(dp4127
g82
g83
ssg71
g4121
sg64
(lp4128
S'flash'
p4129
asbag57
(g78
g59
NtRp4130
(dp4131
g62
(dp4132
g89
g90
ssg71
g4121
sg64
(lp4133
S':'
asbag57
(g78
g59
NtRp4134
(dp4135
g62
(dp4136
sg71
g4121
sg64
(lp4137
g57
(g58
g59
NtRp4138
(dp4139
g62
(dp4140
g70
I5
ssg71
g4134
sg64
(lp4141
S'WRONG!'
p4142
asbasbasbag57
(g73
g59
NtRp4143
(dp4144
g62
(dp4145
sg71
g3707
sg64
(lp4146
g57
(g78
g59
NtRp4147
(dp4148
g62
(dp4149
g82
g83
ssg71
g4143
sg64
(lp4150
S'generic_patterns'
p4151
asbag57
(g78
g59
NtRp4152
(dp4153
g62
(dp4154
g89
g90
ssg71
g4143
sg64
(lp4155
S':'
asbag57
(g78
g59
NtRp4156
(dp4157
g62
(dp4158
sg71
g4143
sg64
(lp4159
g57
(g58
g59
NtRp4160
(dp4161
g62
(dp4162
g70
I5
ssg71
g4156
sg64
(lp4163
g57
(g66
g59
NtRp4164
(dp4165
g62
(dp4166
g70
I4
ssg71
Nsg64
(lp4167
g57
(g73
g59
NtRp4168
(dp4169
g62
(dp4170
sg71
g4164
sg64
(lp4171
g57
(g78
g59
NtRp4172
(dp4173
g62
(dp4174
sg71
g4168
sg64
(lp4175
g57
(g58
g59
NtRp4176
(dp4177
g62
(dp4178
g70
I4
ssg71
g4172
sg64
(lp4179
S'*'
asbasbasbasbasbasbasbag57
(g73
g59
NtRp4180
(dp4181
g62
(dp4182
sg71
g3707
sg64
(lp4183
g57
(g78
g59
NtRp4184
(dp4185
g62
(dp4186
g82
g83
ssg71
g4180
sg64
(lp4187
S'headers'
p4188
asbag57
(g78
g59
NtRp4189
(dp4190
g62
(dp4191
g89
g90
ssg71
g4180
sg64
(lp4192
S':'
asbag57
(g78
g59
NtRp4193
(dp4194
g62
(dp4195
sg71
g4180
sg64
(lp4196
g57
(g58
g59
NtRp4197
(dp4198
g62
(dp4199
g70
I5
ssg71
g4193
sg64
(lp4200
g57
(g66
g59
NtRp4201
(dp4202
g62
(dp4203
g70
I4
ssg71
Nsg64
(lp4204
g57
(g73
g59
NtRp4205
(dp4206
g62
(dp4207
sg71
g4201
sg64
(lp4208
g57
(g78
g59
NtRp4209
(dp4210
g62
(dp4211
g82
g83
ssg71
g4205
sg64
(lp4212
S'Cache-Control'
p4213
asbag57
(g78
g59
NtRp4214
(dp4215
g62
(dp4216
g89
g90
ssg71
g4205
sg64
(lp4217
S':'
asbag57
(g78
g59
NtRp4218
(dp4219
g62
(dp4220
sg71
g4205
sg64
(lp4221
g57
(g58
g59
NtRp4222
(dp4223
g62
(dp4224
g70
I4
ssg71
g4218
sg64
(lp4225
S'no-store, no-cache, must-revalidate, post-check=0, pre-check=0'
p4226
asbasbasbag57
(g73
g59
NtRp4227
(dp4228
g62
(dp4229
sg71
g4201
sg64
(lp4230
g57
(g78
g59
NtRp4231
(dp4232
g62
(dp4233
g82
g83
ssg71
g4227
sg64
(lp4234
S'Content-Type'
p4235
asbag57
(g78
g59
NtRp4236
(dp4237
g62
(dp4238
g89
g90
ssg71
g4227
sg64
(lp4239
S':'
asbag57
(g78
g59
NtRp4240
(dp4241
g62
(dp4242
sg71
g4227
sg64
(lp4243
g57
(g58
g59
NtRp4244
(dp4245
g62
(dp4246
g70
I4
ssg71
g4240
sg64
(lp4247
S'text/html; charset=utf-8'
p4248
asbasbasbag57
(g73
g59
NtRp4249
(dp4250
g62
(dp4251
sg71
g4201
sg64
(lp4252
g57
(g78
g59
NtRp4253
(dp4254
g62
(dp4255
g82
g83
ssg71
g4249
sg64
(lp4256
S'Expires'
p4257
asbag57
(g78
g59
NtRp4258
(dp4259
g62
(dp4260
g89
g90
ssg71
g4249
sg64
(lp4261
S':'
asbag57
(g78
g59
NtRp4262
(dp4263
g62
(dp4264
sg71
g4249
sg64
(lp4265
g57
(g58
g59
NtRp4266
(dp4267
g62
(dp4268
g70
I4
ssg71
g4262
sg64
(lp4269
S'Sun, 03 Jun 2012 23:11:47 GMT'
p4270
asbasbasbag57
(g73
g59
NtRp4271
(dp4272
g62
(dp4273
sg71
g4201
sg64
(lp4274
g57
(g78
g59
NtRp4275
(dp4276
g62
(dp4277
g82
g83
ssg71
g4271
sg64
(lp4278
S'Pragma'
p4279
asbag57
(g78
g59
NtRp4280
(dp4281
g62
(dp4282
g89
g90
ssg71
g4271
sg64
(lp4283
S':'
asbag57
(g78
g59
NtRp4284
(dp4285
g62
(dp4286
sg71
g4271
sg64
(lp4287
g57
(g58
g59
NtRp4288
(dp4289
g62
(dp4290
g70
I4
ssg71
g4284
sg64
(lp4291
S'no-cache'
p4292
asbasbasbag57
(g73
g59
NtRp4293
(dp4294
g62
(dp4295
sg71
g4201
sg64
(lp4296
g57
(g78
g59
NtRp4297
(dp4298
g62
(dp4299
g82
g83
ssg71
g4293
sg64
(lp4300
S'X-Powered-By'
p4301
asbag57
(g78
g59
NtRp4302
(dp4303
g62
(dp4304
g89
g90
ssg71
g4293
sg64
(lp4305
S':'
asbag57
(g78
g59
NtRp4306
(dp4307
g62
(dp4308
sg71
g4293
sg64
(lp4309
g57
(g58
g59
NtRp4310
(dp4311
g62
(dp4312
g70
I4
ssg71
g4306
sg64
(lp4313
S'web2py'
p4314
asbasbasbasbasbasbasbag57
(g73
g59
NtRp4315
(dp4316
g62
(dp4317
sg71
g3707
sg64
(lp4318
g57
(g78
g59
NtRp4319
(dp4320
g62
(dp4321
g82
g83
ssg71
g4315
sg64
(lp4322
S'menu'
p4323
asbag57
(g78
g59
NtRp4324
(dp4325
g62
(dp4326
g89
g90
ssg71
g4315
sg64
(lp4327
S':'
asbag57
(g78
g59
NtRp4328
(dp4329
g62
(dp4330
sg71
g4315
sg64
(lp4331
g57
(g58
g59
NtRp4332
(dp4333
g62
(dp4334
g70
I5
ssg71
g4328
sg64
(lp4335
g57
(g66
g59
NtRp4336
(dp4337
g62
(dp4338
g70
I4
ssg71
Nsg64
(lp4339
g57
(g73
g59
NtRp4340
(dp4341
g62
(dp4342
sg71
g4336
sg64
(lp4343
g57
(g78
g59
NtRp4344
(dp4345
g62
(dp4346
sg71
g4340
sg64
(lp4347
g57
(g58
g59
NtRp4348
(dp4349
g62
(dp4350
g70
I4
ssg71
g4344
sg64
(lp4351
g57
(g66
g59
NtRp4352
(dp4353
g62
(dp4354
g70
I3
ssg71
Nsg64
(lp4355
g57
(g73
g59
NtRp4356
(dp4357
g62
(dp4358
sg71
g4352
sg64
(lp4359
g57
(g78
g59
NtRp4360
(dp4361
g62
(dp4362
sg71
g4356
sg64
(lp4363
g57
(g58
g59
NtRp4364
(dp4365
g62
(dp4366
g70
I3
ssg71
g4360
sg64
(lp4367
cgluon.languages
lazyT_unpickle
p4368
(S't\x04\x00\x00\x00Home'
tRp4369
asbasbasbag57
(g73
g59
NtRp4370
(dp4371
g62
(dp4372
sg71
g4352
sg64
(lp4373
g57
(g78
g59
NtRp4374
(dp4375
g62
(dp4376
sg71
g4370
sg64
(lp4377
g57
(g58
g59
NtRp4378
(dp4379
g62
(dp4380
g70
I3
ssg71
g4374
sg64
(lp4381
g100
asbasbasbag57
(g73
g59
NtRp4382
(dp4383
g62
(dp4384
sg71
g4352
sg64
(lp4385
g57
(g78
g59
NtRp4386
(dp4387
g62
(dp4388
sg71
g4382
sg64
(lp4389
g57
(g58
g59
NtRp4390
(dp4391
g62
(dp4392
g70
I3
ssg71
g4386
sg64
(lp4393
S'/Book_Shelf_copy/default/index'
p4394
asbasbasbag57
(g73
g59
NtRp4395
(dp4396
g62
(dp4397
sg71
g4352
sg64
(lp4398
g57
(g78
g59
NtRp4399
(dp4400
g62
(dp4401
sg71
g4395
sg64
(lp4402
g57
(g58
g59
NtRp4403
(dp4404
g62
(dp4405
g70
I3
ssg71
g4399
sg64
(lp4406
g57
(g66
g59
NtRp4407
(dp4408
g62
(dp4409
g70
I2
ssg71
Nsg64
(lp4410
sbasbasbasbasbasbasbasbag57
(g73
g59
NtRp4411
(dp4412
g62
(dp4413
sg71
g4336
sg64
(lp4414
g57
(g78
g59
NtRp4415
(dp4416
g62
(dp4417
sg71
g4411
sg64
(lp4418
g57
(g58
g59
NtRp4419
(dp4420
g62
(dp4421
g70
I4
ssg71
g4415
sg64
(lp4422
g57
(g66
g59
NtRp4423
(dp4424
g62
(dp4425
g70
I3
ssg71
Nsg64
(lp4426
g57
(g73
g59
NtRp4427
(dp4428
g62
(dp4429
sg71
g4423
sg64
(lp4430
g57
(g78
g59
NtRp4431
(dp4432
g62
(dp4433
sg71
g4427
sg64
(lp4434
g57
(g58
g59
NtRp4435
(dp4436
g62
(dp4437
g70
I3
ssg71
g4431
sg64
(lp4438
g4368
(S's\x0c\x00\x00\x00User Profile'
tRp4439
asbasbasbag57
(g73
g59
NtRp4440
(dp4441
g62
(dp4442
sg71
g4423
sg64
(lp4443
g57
(g78
g59
NtRp4444
(dp4445
g62
(dp4446
sg71
g4440
sg64
(lp4447
g57
(g58
g59
NtRp4448
(dp4449
g62
(dp4450
g70
I3
ssg71
g4444
sg64
(lp4451
g100
asbasbasbag57
(g73
g59
NtRp4452
(dp4453
g62
(dp4454
sg71
g4423
sg64
(lp4455
g57
(g78
g59
NtRp4456
(dp4457
g62
(dp4458
sg71
g4452
sg64
(lp4459
g57
(g58
g59
NtRp4460
(dp4461
g62
(dp4462
g70
I3
ssg71
g4456
sg64
(lp4463
S'None'
p4464
asbasbasbag57
(g73
g59
NtRp4465
(dp4466
g62
(dp4467
sg71
g4423
sg64
(lp4468
g57
(g78
g59
NtRp4469
(dp4470
g62
(dp4471
sg71
g4465
sg64
(lp4472
g57
(g58
g59
NtRp4473
(dp4474
g62
(dp4475
g70
I3
ssg71
g4469
sg64
(lp4476
g57
(g66
g59
NtRp4477
(dp4478
g62
(dp4479
g70
I2
ssg71
Nsg64
(lp4480
g57
(g73
g59
NtRp4481
(dp4482
g62
(dp4483
sg71
g4477
sg64
(lp4484
g57
(g78
g59
NtRp4485
(dp4486
g62
(dp4487
sg71
g4481
sg64
(lp4488
g57
(g58
g59
NtRp4489
(dp4490
g62
(dp4491
g70
I2
ssg71
g4485
sg64
(lp4492
g57
(g66
g59
NtRp4493
(dp4494
g62
(dp4495
g70
I1
ssg71
Nsg64
(lp4496
g57
(g73
g59
NtRp4497
(dp4498
g62
(dp4499
sg71
g4493
sg64
(lp4500
g57
(g78
g59
NtRp4501
(dp4502
g62
(dp4503
sg71
g4497
sg64
(lp4504
g57
(g58
g59
NtRp4505
(dp4506
g62
(dp4507
g70
I1
ssg71
g4501
sg64
(lp4508
g4368
(S's\x0c\x00\x00\x00User Profile'
tRp4509
asbasbasbag57
(g73
g59
NtRp4510
(dp4511
g62
(dp4512
sg71
g4493
sg64
(lp4513
g57
(g78
g59
NtRp4514
(dp4515
g62
(dp4516
sg71
g4510
sg64
(lp4517
g57
(g58
g59
NtRp4518
(dp4519
g62
(dp4520
g70
I1
ssg71
g4514
sg64
(lp4521
I00
asbasbasbag57
(g73
g59
NtRp4522
(dp4523
g62
(dp4524
sg71
g4493
sg64
(lp4525
g57
(g78
g59
NtRp4526
(dp4527
g62
(dp4528
sg71
g4522
sg64
(lp4529
g57
(g58
g59
NtRp4530
(dp4531
g62
(dp4532
g70
I1
ssg71
g4526
sg64
(lp4533
S'/Book_Shelf_copy/default/user_profile'
p4534
asbasbasbasbasbasbasbag57
(g73
g59
NtRp4535
(dp4536
g62
(dp4537
sg71
g4477
sg64
(lp4538
g57
(g78
g59
NtRp4539
(dp4540
g62
(dp4541
sg71
g4535
sg64
(lp4542
g57
(g58
g59
NtRp4543
(dp4544
g62
(dp4545
g70
I2
ssg71
g4539
sg64
(lp4546
g57
(g66
g59
NtRp4547
(dp4548
g62
(dp4549
g70
I1
ssg71
Nsg64
(lp4550
g57
(g73
g59
NtRp4551
(dp4552
g62
(dp4553
sg71
g4547
sg64
(lp4554
g57
(g78
g59
NtRp4555
(dp4556
g62
(dp4557
sg71
g4551
sg64
(lp4558
g57
(g58
g59
NtRp4559
(dp4560
g62
(dp4561
g70
I1
ssg71
g4555
sg64
(lp4562
g4368
(S's\x13\x00\x00\x00Create User Profile'
tRp4563
asbasbasbag57
(g73
g59
NtRp4564
(dp4565
g62
(dp4566
sg71
g4547
sg64
(lp4567
g57
(g78
g59
NtRp4568
(dp4569
g62
(dp4570
sg71
g4564
sg64
(lp4571
g57
(g58
g59
NtRp4572
(dp4573
g62
(dp4574
g70
I1
ssg71
g4568
sg64
(lp4575
I00
asbasbasbag57
(g73
g59
NtRp4576
(dp4577
g62
(dp4578
sg71
g4547
sg64
(lp4579
g57
(g78
g59
NtRp4580
(dp4581
g62
(dp4582
sg71
g4576
sg64
(lp4583
g57
(g58
g59
NtRp4584
(dp4585
g62
(dp4586
g70
I1
ssg71
g4580
sg64
(lp4587
S'/Book_Shelf_copy/default/create_user_profile'
p4588
asbasbasbasbasbasbasbag57
(g73
g59
NtRp4589
(dp4590
g62
(dp4591
sg71
g4477
sg64
(lp4592
g57
(g78
g59
NtRp4593
(dp4594
g62
(dp4595
sg71
g4589
sg64
(lp4596
g57
(g58
g59
NtRp4597
(dp4598
g62
(dp4599
g70
I2
ssg71
g4593
sg64
(lp4600
g57
(g66
g59
NtRp4601
(dp4602
g62
(dp4603
g70
I1
ssg71
Nsg64
(lp4604
g57
(g73
g59
NtRp4605
(dp4606
g62
(dp4607
sg71
g4601
sg64
(lp4608
g57
(g78
g59
NtRp4609
(dp4610
g62
(dp4611
sg71
g4605
sg64
(lp4612
g57
(g58
g59
NtRp4613
(dp4614
g62
(dp4615
g70
I1
ssg71
g4609
sg64
(lp4616
g4368
(S's\x13\x00\x00\x00Update User Profile'
tRp4617
asbasbasbag57
(g73
g59
NtRp4618
(dp4619
g62
(dp4620
sg71
g4601
sg64
(lp4621
g57
(g78
g59
NtRp4622
(dp4623
g62
(dp4624
sg71
g4618
sg64
(lp4625
g57
(g58
g59
NtRp4626
(dp4627
g62
(dp4628
g70
I1
ssg71
g4622
sg64
(lp4629
I00
asbasbasbag57
(g73
g59
NtRp4630
(dp4631
g62
(dp4632
sg71
g4601
sg64
(lp4633
g57
(g78
g59
NtRp4634
(dp4635
g62
(dp4636
sg71
g4630
sg64
(lp4637
g57
(g58
g59
NtRp4638
(dp4639
g62
(dp4640
g70
I1
ssg71
g4634
sg64
(lp4641
S'/Book_Shelf_copy/default/update_user_profile'
p4642
asbasbasbasbasbasbasbasbasbasbasbasbasbasbasbag57
(g73
g59
NtRp4643
(dp4644
g62
(dp4645
sg71
g4336
sg64
(lp4646
g57
(g78
g59
NtRp4647
(dp4648
g62
(dp4649
sg71
g4643
sg64
(lp4650
g57
(g58
g59
NtRp4651
(dp4652
g62
(dp4653
g70
I4
ssg71
g4647
sg64
(lp4654
g57
(g66
g59
NtRp4655
(dp4656
g62
(dp4657
g70
I3
ssg71
Nsg64
(lp4658
g57
(g73
g59
NtRp4659
(dp4660
g62
(dp4661
sg71
g4655
sg64
(lp4662
g57
(g78
g59
NtRp4663
(dp4664
g62
(dp4665
sg71
g4659
sg64
(lp4666
g57
(g58
g59
NtRp4667
(dp4668
g62
(dp4669
g70
I3
ssg71
g4663
sg64
(lp4670
g4368
(S't\x04\x00\x00\x00Book'
tRp4671
asbasbasbag57
(g73
g59
NtRp4672
(dp4673
g62
(dp4674
sg71
g4655
sg64
(lp4675
g57
(g78
g59
NtRp4676
(dp4677
g62
(dp4678
sg71
g4672
sg64
(lp4679
g57
(g58
g59
NtRp4680
(dp4681
g62
(dp4682
g70
I3
ssg71
g4676
sg64
(lp4683
g100
asbasbasbag57
(g73
g59
NtRp4684
(dp4685
g62
(dp4686
sg71
g4655
sg64
(lp4687
g57
(g78
g59
NtRp4688
(dp4689
g62
(dp4690
sg71
g4684
sg64
(lp4691
g57
(g58
g59
NtRp4692
(dp4693
g62
(dp4694
g70
I3
ssg71
g4688
sg64
(lp4695
S'None'
p4696
asbasbasbag57
(g73
g59
NtRp4697
(dp4698
g62
(dp4699
sg71
g4655
sg64
(lp4700
g57
(g78
g59
NtRp4701
(dp4702
g62
(dp4703
sg71
g4697
sg64
(lp4704
g57
(g58
g59
NtRp4705
(dp4706
g62
(dp4707
g70
I3
ssg71
g4701
sg64
(lp4708
g57
(g66
g59
NtRp4709
(dp4710
g62
(dp4711
g70
I2
ssg71
Nsg64
(lp4712
g57
(g73
g59
NtRp4713
(dp4714
g62
(dp4715
sg71
g4709
sg64
(lp4716
g57
(g78
g59
NtRp4717
(dp4718
g62
(dp4719
sg71
g4713
sg64
(lp4720
g57
(g58
g59
NtRp4721
(dp4722
g62
(dp4723
g70
I2
ssg71
g4717
sg64
(lp4724
g57
(g66
g59
NtRp4725
(dp4726
g62
(dp4727
g70
I1
ssg71
Nsg64
(lp4728
g57
(g73
g59
NtRp4729
(dp4730
g62
(dp4731
sg71
g4725
sg64
(lp4732
g57
(g78
g59
NtRp4733
(dp4734
g62
(dp4735
sg71
g4729
sg64
(lp4736
g57
(g58
g59
NtRp4737
(dp4738
g62
(dp4739
g70
I1
ssg71
g4733
sg64
(lp4740
g4368
(S's\x0c\x00\x00\x00Book Profile'
tRp4741
asbasbasbag57
(g73
g59
NtRp4742
(dp4743
g62
(dp4744
sg71
g4725
sg64
(lp4745
g57
(g78
g59
NtRp4746
(dp4747
g62
(dp4748
sg71
g4742
sg64
(lp4749
g57
(g58
g59
NtRp4750
(dp4751
g62
(dp4752
g70
I1
ssg71
g4746
sg64
(lp4753
I00
asbasbasbag57
(g73
g59
NtRp4754
(dp4755
g62
(dp4756
sg71
g4725
sg64
(lp4757
g57
(g78
g59
NtRp4758
(dp4759
g62
(dp4760
sg71
g4754
sg64
(lp4761
g57
(g58
g59
NtRp4762
(dp4763
g62
(dp4764
g70
I1
ssg71
g4758
sg64
(lp4765
S'/Book_Shelf_copy/default/book_profile'
p4766
asbasbasbasbasbasbasbag57
(g73
g59
NtRp4767
(dp4768
g62
(dp4769
sg71
g4709
sg64
(lp4770
g57
(g78
g59
NtRp4771
(dp4772
g62
(dp4773
sg71
g4767
sg64
(lp4774
g57
(g58
g59
NtRp4775
(dp4776
g62
(dp4777
g70
I2
ssg71
g4771
sg64
(lp4778
g57
(g66
g59
NtRp4779
(dp4780
g62
(dp4781
g70
I1
ssg71
Nsg64
(lp4782
g57
(g73
g59
NtRp4783
(dp4784
g62
(dp4785
sg71
g4779
sg64
(lp4786
g57
(g78
g59
NtRp4787
(dp4788
g62
(dp4789
sg71
g4783
sg64
(lp4790
g57
(g58
g59
NtRp4791
(dp4792
g62
(dp4793
g70
I1
ssg71
g4787
sg64
(lp4794
g4368
(S's\x13\x00\x00\x00Create Book Profile'
tRp4795
asbasbasbag57
(g73
g59
NtRp4796
(dp4797
g62
(dp4798
sg71
g4779
sg64
(lp4799
g57
(g78
g59
NtRp4800
(dp4801
g62
(dp4802
sg71
g4796
sg64
(lp4803
g57
(g58
g59
NtRp4804
(dp4805
g62
(dp4806
g70
I1
ssg71
g4800
sg64
(lp4807
I00
asbasbasbag57
(g73
g59
NtRp4808
(dp4809
g62
(dp4810
sg71
g4779
sg64
(lp4811
g57
(g78
g59
NtRp4812
(dp4813
g62
(dp4814
sg71
g4808
sg64
(lp4815
g57
(g58
g59
NtRp4816
(dp4817
g62
(dp4818
g70
I1
ssg71
g4812
sg64
(lp4819
S'/Book_Shelf_copy/default/create_book_profile'
p4820
asbasbasbasbasbasbasbag57
(g73
g59
NtRp4821
(dp4822
g62
(dp4823
sg71
g4709
sg64
(lp4824
g57
(g78
g59
NtRp4825
(dp4826
g62
(dp4827
sg71
g4821
sg64
(lp4828
g57
(g58
g59
NtRp4829
(dp4830
g62
(dp4831
g70
I2
ssg71
g4825
sg64
(lp4832
g57
(g66
g59
NtRp4833
(dp4834
g62
(dp4835
g70
I1
ssg71
Nsg64
(lp4836
g57
(g73
g59
NtRp4837
(dp4838
g62
(dp4839
sg71
g4833
sg64
(lp4840
g57
(g78
g59
NtRp4841
(dp4842
g62
(dp4843
sg71
g4837
sg64
(lp4844
g57
(g58
g59
NtRp4845
(dp4846
g62
(dp4847
g70
I1
ssg71
g4841
sg64
(lp4848
g4368
(S's\x13\x00\x00\x00Update Book Profile'
tRp4849
asbasbasbag57
(g73
g59
NtRp4850
(dp4851
g62
(dp4852
sg71
g4833
sg64
(lp4853
g57
(g78
g59
NtRp4854
(dp4855
g62
(dp4856
sg71
g4850
sg64
(lp4857
g57
(g58
g59
NtRp4858
(dp4859
g62
(dp4860
g70
I1
ssg71
g4854
sg64
(lp4861
I00
asbasbasbag57
(g73
g59
NtRp4862
(dp4863
g62
(dp4864
sg71
g4833
sg64
(lp4865
g57
(g78
g59
NtRp4866
(dp4867
g62
(dp4868
sg71
g4862
sg64
(lp4869
g57
(g58
g59
NtRp4870
(dp4871
g62
(dp4872
g70
I1
ssg71
g4866
sg64
(lp4873
S'/Book_Shelf_copy/default/update_book_profile'
p4874
asbasbasbasbasbasbasbasbasbasbasbasbasbasbasbag57
(g73
g59
NtRp4875
(dp4876
g62
(dp4877
sg71
g4336
sg64
(lp4878
g57
(g78
g59
NtRp4879
(dp4880
g62
(dp4881
sg71
g4875
sg64
(lp4882
g57
(g58
g59
NtRp4883
(dp4884
g62
(dp4885
g70
I4
ssg71
g4879
sg64
(lp4886
g57
(g66
g59
NtRp4887
(dp4888
g62
(dp4889
g70
I3
ssg71
Nsg64
(lp4890
g57
(g73
g59
NtRp4891
(dp4892
g62
(dp4893
sg71
g4887
sg64
(lp4894
g57
(g78
g59
NtRp4895
(dp4896
g62
(dp4897
sg71
g4891
sg64
(lp4898
g57
(g58
g59
NtRp4899
(dp4900
g62
(dp4901
g70
I3
ssg71
g4895
sg64
(lp4902
g4368
(S's\n\x00\x00\x00Book Shelf'
tRp4903
asbasbasbag57
(g73
g59
NtRp4904
(dp4905
g62
(dp4906
sg71
g4887
sg64
(lp4907
g57
(g78
g59
NtRp4908
(dp4909
g62
(dp4910
sg71
g4904
sg64
(lp4911
g57
(g58
g59
NtRp4912
(dp4913
g62
(dp4914
g70
I3
ssg71
g4908
sg64
(lp4915
g100
asbasbasbag57
(g73
g59
NtRp4916
(dp4917
g62
(dp4918
sg71
g4887
sg64
(lp4919
g57
(g78
g59
NtRp4920
(dp4921
g62
(dp4922
sg71
g4916
sg64
(lp4923
g57
(g58
g59
NtRp4924
(dp4925
g62
(dp4926
g70
I3
ssg71
g4920
sg64
(lp4927
S'None'
p4928
asbasbasbag57
(g73
g59
NtRp4929
(dp4930
g62
(dp4931
sg71
g4887
sg64
(lp4932
g57
(g78
g59
NtRp4933
(dp4934
g62
(dp4935
sg71
g4929
sg64
(lp4936
g57
(g58
g59
NtRp4937
(dp4938
g62
(dp4939
g70
I3
ssg71
g4933
sg64
(lp4940
g57
(g66
g59
NtRp4941
(dp4942
g62
(dp4943
g70
I2
ssg71
Nsg64
(lp4944
g57
(g73
g59
NtRp4945
(dp4946
g62
(dp4947
sg71
g4941
sg64
(lp4948
g57
(g78
g59
NtRp4949
(dp4950
g62
(dp4951
sg71
g4945
sg64
(lp4952
g57
(g58
g59
NtRp4953
(dp4954
g62
(dp4955
g70
I2
ssg71
g4949
sg64
(lp4956
g57
(g66
g59
NtRp4957
(dp4958
g62
(dp4959
g70
I1
ssg71
Nsg64
(lp4960
g57
(g73
g59
NtRp4961
(dp4962
g62
(dp4963
sg71
g4957
sg64
(lp4964
g57
(g78
g59
NtRp4965
(dp4966
g62
(dp4967
sg71
g4961
sg64
(lp4968
g57
(g58
g59
NtRp4969
(dp4970
g62
(dp4971
g70
I1
ssg71
g4965
sg64
(lp4972
g4368
(S's\n\x00\x00\x00Book Shelf'
tRp4973
asbasbasbag57
(g73
g59
NtRp4974
(dp4975
g62
(dp4976
sg71
g4957
sg64
(lp4977
g57
(g78
g59
NtRp4978
(dp4979
g62
(dp4980
sg71
g4974
sg64
(lp4981
g57
(g58
g59
NtRp4982
(dp4983
g62
(dp4984
g70
I1
ssg71
g4978
sg64
(lp4985
I00
asbasbasbag57
(g73
g59
NtRp4986
(dp4987
g62
(dp4988
sg71
g4957
sg64
(lp4989
g57
(g78
g59
NtRp4990
(dp4991
g62
(dp4992
sg71
g4986
sg64
(lp4993
g57
(g58
g59
NtRp4994
(dp4995
g62
(dp4996
g70
I1
ssg71
g4990
sg64
(lp4997
S'/Book_Shelf_copy/default/book_shelf'
p4998
asbasbasbasbasbasbasbag57
(g73
g59
NtRp4999
(dp5000
g62
(dp5001
sg71
g4941
sg64
(lp5002
g57
(g78
g59
NtRp5003
(dp5004
g62
(dp5005
sg71
g4999
sg64
(lp5006
g57
(g58
g59
NtRp5007
(dp5008
g62
(dp5009
g70
I2
ssg71
g5003
sg64
(lp5010
g57
(g66
g59
NtRp5011
(dp5012
g62
(dp5013
g70
I1
ssg71
Nsg64
(lp5014
g57
(g73
g59
NtRp5015
(dp5016
g62
(dp5017
sg71
g5011
sg64
(lp5018
g57
(g78
g59
NtRp5019
(dp5020
g62
(dp5021
sg71
g5015
sg64
(lp5022
g57
(g58
g59
NtRp5023
(dp5024
g62
(dp5025
g70
I1
ssg71
g5019
sg64
(lp5026
g4368
(S's\x11\x00\x00\x00Create Book Shelf'
tRp5027
asbasbasbag57
(g73
g59
NtRp5028
(dp5029
g62
(dp5030
sg71
g5011
sg64
(lp5031
g57
(g78
g59
NtRp5032
(dp5033
g62
(dp5034
sg71
g5028
sg64
(lp5035
g57
(g58
g59
NtRp5036
(dp5037
g62
(dp5038
g70
I1
ssg71
g5032
sg64
(lp5039
I00
asbasbasbag57
(g73
g59
NtRp5040
(dp5041
g62
(dp5042
sg71
g5011
sg64
(lp5043
g57
(g78
g59
NtRp5044
(dp5045
g62
(dp5046
sg71
g5040
sg64
(lp5047
g57
(g58
g59
NtRp5048
(dp5049
g62
(dp5050
g70
I1
ssg71
g5044
sg64
(lp5051
S'/Book_Shelf_copy/default/create_book_shelf'
p5052
asbasbasbasbasbasbasbag57
(g73
g59
NtRp5053
(dp5054
g62
(dp5055
sg71
g4941
sg64
(lp5056
g57
(g78
g59
NtRp5057
(dp5058
g62
(dp5059
sg71
g5053
sg64
(lp5060
g57
(g58
g59
NtRp5061
(dp5062
g62
(dp5063
g70
I2
ssg71
g5057
sg64
(lp5064
g57
(g66
g59
NtRp5065
(dp5066
g62
(dp5067
g70
I1
ssg71
Nsg64
(lp5068
g57
(g73
g59
NtRp5069
(dp5070
g62
(dp5071
sg71
g5065
sg64
(lp5072
g57
(g78
g59
NtRp5073
(dp5074
g62
(dp5075
sg71
g5069
sg64
(lp5076
g57
(g58
g59
NtRp5077
(dp5078
g62
(dp5079
g70
I1
ssg71
g5073
sg64
(lp5080
g4368
(S's\x11\x00\x00\x00Update Book Shelf'
tRp5081
asbasbasbag57
(g73
g59
NtRp5082
(dp5083
g62
(dp5084
sg71
g5065
sg64
(lp5085
g57
(g78
g59
NtRp5086
(dp5087
g62
(dp5088
sg71
g5082
sg64
(lp5089
g57
(g58
g59
NtRp5090
(dp5091
g62
(dp5092
g70
I1
ssg71
g5086
sg64
(lp5093
I00
asbasbasbag57
(g73
g59
NtRp5094
(dp5095
g62
(dp5096
sg71
g5065
sg64
(lp5097
g57
(g78
g59
NtRp5098
(dp5099
g62
(dp5100
sg71
g5094
sg64
(lp5101
g57
(g58
g59
NtRp5102
(dp5103
g62
(dp5104
g70
I1
ssg71
g5098
sg64
(lp5105
S'/Book_Shelf_copy/default/update_book_shelf'
p5106
asbasbasbasbasbasbasbasbasbasbasbasbasbasbasbag57
(g73
g59
NtRp5107
(dp5108
g62
(dp5109
sg71
g4336
sg64
(lp5110
g57
(g78
g59
NtRp5111
(dp5112
g62
(dp5113
sg71
g5107
sg64
(lp5114
g57
(g58
g59
NtRp5115
(dp5116
g62
(dp5117
g70
I4
ssg71
g5111
sg64
(lp5118
g57
(g66
g59
NtRp5119
(dp5120
g62
(dp5121
g70
I3
ssg71
Nsg64
(lp5122
g57
(g73
g59
NtRp5123
(dp5124
g62
(dp5125
sg71
g5119
sg64
(lp5126
g57
(g78
g59
NtRp5127
(dp5128
g62
(dp5129
sg71
g5123
sg64
(lp5130
g57
(g58
g59
NtRp5131
(dp5132
g62
(dp5133
g70
I3
ssg71
g5127
sg64
(lp5134
g57
(cgluon.html
SPAN
p5135
g59
NtRp5136
(dp5137
g62
(dp5138
g82
S'color:yellow'
p5139
ssg71
g57
(cgluon.html
A
p5140
g59
NtRp5141
(dp5142
g62
(dp5143
S'_onclick'
p5144
S'javascript:void(0);return false;'
p5145
sS'_href'
p5146
S'#'
ssg71
g57
(cgluon.html
LI
p5147
g59
NtRp5148
(dp5149
g62
(dp5150
S'_class'
p5151
S'web2py-menu-expand'
p5152
ssg71
g57
(cgluon.html
UL
p5153
g59
NtRp5154
(dp5155
g62
(dp5156
S'mobile'
p5157
I00
sS'li_class'
p5158
g5152
sg5151
S'sf-menu'
p5159
sS'ul_class'
p5160
S'web2py-menu-vertical'
p5161
sS'li_active'
p5162
S'web2py-menu-active'
p5163
ssg71
Nsg64
(lp5164
g57
(g5147
g59
NtRp5165
(dp5166
g62
(dp5167
sg71
g5154
sg64
(lp5168
g57
(g5140
g59
NtRp5169
(dp5170
g62
(dp5171
g5146
g4394
ssg71
g5165
sg64
(lp5172
g4369
asbasbag57
(g5147
g59
NtRp5173
(dp5174
g62
(dp5175
g5151
g5152
ssg71
g5154
sg64
(lp5176
g57
(g5140
g59
NtRp5177
(dp5178
g62
(dp5179
g5144
g5145
sg5146
S'#'
ssg71
g5173
sg64
(lp5180
g4439
asbag57
(g5153
g59
NtRp5181
(dp5182
g62
(dp5183
g5151
g5161
ssg71
g5173
sg64
(lp5184
g57
(g5147
g59
NtRp5185
(dp5186
g62
(dp5187
sg71
g5181
sg64
(lp5188
g57
(g5140
g59
NtRp5189
(dp5190
g62
(dp5191
g5146
g4534
ssg71
g5185
sg64
(lp5192
g4509
asbasbag57
(g5147
g59
NtRp5193
(dp5194
g62
(dp5195
sg71
g5181
sg64
(lp5196
g57
(g5140
g59
NtRp5197
(dp5198
g62
(dp5199
g5146
g4588
ssg71
g5193
sg64
(lp5200
g4563
asbasbag57
(g5147
g59
NtRp5201
(dp5202
g62
(dp5203
sg71
g5181
sg64
(lp5204
g57
(g5140
g59
NtRp5205
(dp5206
g62
(dp5207
g5146
g4642
ssg71
g5201
sg64
(lp5208
g4617
asbasbasbasbag57
(g5147
g59
NtRp5209
(dp5210
g62
(dp5211
g5151
g5152
ssg71
g5154
sg64
(lp5212
g57
(g5140
g59
NtRp5213
(dp5214
g62
(dp5215
g5144
g5145
sg5146
S'#'
ssg71
g5209
sg64
(lp5216
g4671
asbag57
(g5153
g59
NtRp5217
(dp5218
g62
(dp5219
g5151
g5161
ssg71
g5209
sg64
(lp5220
g57
(g5147
g59
NtRp5221
(dp5222
g62
(dp5223
sg71
g5217
sg64
(lp5224
g57
(g5140
g59
NtRp5225
(dp5226
g62
(dp5227
g5146
g4766
ssg71
g5221
sg64
(lp5228
g4741
asbasbag57
(g5147
g59
NtRp5229
(dp5230
g62
(dp5231
sg71
g5217
sg64
(lp5232
g57
(g5140
g59
NtRp5233
(dp5234
g62
(dp5235
g5146
g4820
ssg71
g5229
sg64
(lp5236
g4795
asbasbag57
(g5147
g59
NtRp5237
(dp5238
g62
(dp5239
sg71
g5217
sg64
(lp5240
g57
(g5140
g59
NtRp5241
(dp5242
g62
(dp5243
g5146
g4874
ssg71
g5237
sg64
(lp5244
g4849
asbasbasbasbag57
(g5147
g59
NtRp5245
(dp5246
g62
(dp5247
g5151
g5152
ssg71
g5154
sg64
(lp5248
g57
(g5140
g59
NtRp5249
(dp5250
g62
(dp5251
g5144
g5145
sg5146
S'#'
ssg71
g5245
sg64
(lp5252
g4903
asbag57
(g5153
g59
NtRp5253
(dp5254
g62
(dp5255
g5151
g5161
ssg71
g5245
sg64
(lp5256
g57
(g5147
g59
NtRp5257
(dp5258
g62
(dp5259
sg71
g5253
sg64
(lp5260
g57
(g5140
g59
NtRp5261
(dp5262
g62
(dp5263
g5146
g4998
ssg71
g5257
sg64
(lp5264
g4973
asbasbag57
(g5147
g59
NtRp5265
(dp5266
g62
(dp5267
sg71
g5253
sg64
(lp5268
g57
(g5140
g59
NtRp5269
(dp5270
g62
(dp5271
g5146
g5052
ssg71
g5265
sg64
(lp5272
g5027
asbasbag57
(g5147
g59
NtRp5273
(dp5274
g62
(dp5275
sg71
g5253
sg64
(lp5276
g57
(g5140
g59
NtRp5277
(dp5278
g62
(dp5279
g5146
g5106
ssg71
g5273
sg64
(lp5280
g5081
asbasbasbasbag5148
asbsg64
(lp5281
g5141
ag57
(g5153
g59
NtRp5282
(dp5283
g62
(dp5284
g5151
g5161
ssg71
g5148
sg64
(lp5285
g57
(g5147
g59
NtRp5286
(dp5287
g62
(dp5288
sg71
g5282
sg64
(lp5289
g57
(g5140
g59
NtRp5290
(dp5291
g62
(dp5292
g5146
S'/admin/default/site'
p5293
ssg71
g5286
sg64
(lp5294
g4368
(S's\x08\x00\x00\x00My Sites'
tRp5295
asbasbag57
(g5147
g59
NtRp5296
(dp5297
g62
(dp5298
g5151
g5152
ssg71
g5282
sg64
(lp5299
g57
(g5140
g59
NtRp5300
(dp5301
g62
(dp5302
g5146
S'/admin/default/design/Book_Shelf_copy'
p5303
ssg71
g5296
sg64
(lp5304
g4368
(S's\x08\x00\x00\x00This App'
tRp5305
asbag57
(g5153
g59
NtRp5306
(dp5307
g62
(dp5308
g5151
g5161
ssg71
g5296
sg64
(lp5309
g57
(g5147
g59
NtRp5310
(dp5311
g62
(dp5312
sg71
g5306
sg64
(lp5313
g57
(g5140
g59
NtRp5314
(dp5315
g62
(dp5316
g5146
S'/admin/default/edit/Book_Shelf_copy/controllers/default.py'
p5317
ssg71
g5310
sg64
(lp5318
g4368
(S't\n\x00\x00\x00Controller'
tRp5319
asbasbag57
(g5147
g59
NtRp5320
(dp5321
g62
(dp5322
sg71
g5306
sg64
(lp5323
g57
(g5140
g59
NtRp5324
(dp5325
g62
(dp5326
g5146
S'/admin/default/edit/Book_Shelf_copy/views/default/book_shelf.html'
p5327
ssg71
g5320
sg64
(lp5328
g4368
(S't\x04\x00\x00\x00View'
tRp5329
asbasbag57
(g5147
g59
NtRp5330
(dp5331
g62
(dp5332
sg71
g5306
sg64
(lp5333
g57
(g5140
g59
NtRp5334
(dp5335
g62
(dp5336
g5146
S'/admin/default/edit/Book_Shelf_copy/views/layout.html'
p5337
ssg71
g5330
sg64
(lp5338
g4368
(S't\x06\x00\x00\x00Layout'
tRp5339
asbasbag57
(g5147
g59
NtRp5340
(dp5341
g62
(dp5342
sg71
g5306
sg64
(lp5343
g57
(g5140
g59
NtRp5344
(dp5345
g62
(dp5346
g5146
S'/admin/default/edit/Book_Shelf_copy/static/css/web2py.css'
p5347
ssg71
g5340
sg64
(lp5348
g4368
(S't\n\x00\x00\x00Stylesheet'
tRp5349
asbasbag57
(g5147
g59
NtRp5350
(dp5351
g62
(dp5352
sg71
g5306
sg64
(lp5353
g57
(g5140
g59
NtRp5354
(dp5355
g62
(dp5356
g5146
S'/admin/default/edit/Book_Shelf_copy/models/db.py'
p5357
ssg71
g5350
sg64
(lp5358
g4368
(S's\x08\x00\x00\x00DB Model'
tRp5359
asbasbag57
(g5147
g59
NtRp5360
(dp5361
g62
(dp5362
sg71
g5306
sg64
(lp5363
g57
(g5140
g59
NtRp5364
(dp5365
g62
(dp5366
g5146
S'/admin/default/edit/Book_Shelf_copy/models/menu.py'
p5367
ssg71
g5360
sg64
(lp5368
g4368
(S's\n\x00\x00\x00Menu Model'
tRp5369
asbasbag57
(g5147
g59
NtRp5370
(dp5371
g62
(dp5372
sg71
g5306
sg64
(lp5373
g57
(g5140
g59
NtRp5374
(dp5375
g62
(dp5376
g5146
S'/Book_Shelf_copy/appadmin/index'
p5377
ssg71
g5370
sg64
(lp5378
g4368
(S't\x08\x00\x00\x00Database'
tRp5379
asbasbag57
(g5147
g59
NtRp5380
(dp5381
g62
(dp5382
sg71
g5306
sg64
(lp5383
g57
(g5140
g59
NtRp5384
(dp5385
g62
(dp5386
g5146
S'/admin/default/errors/Book_Shelf_copy'
p5387
ssg71
g5380
sg64
(lp5388
g4368
(S't\x06\x00\x00\x00Errors'
tRp5389
asbasbag57
(g5147
g59
NtRp5390
(dp5391
g62
(dp5392
sg71
g5306
sg64
(lp5393
g57
(g5140
g59
NtRp5394
(dp5395
g62
(dp5396
g5146
S'/admin/default/about/Book_Shelf_copy'
p5397
ssg71
g5390
sg64
(lp5398
g4368
(S't\x05\x00\x00\x00About'
tRp5399
asbasbasbasbag57
(g5147
g59
NtRp5400
(dp5401
g62
(dp5402
g5151
g5152
ssg71
g5282
sg64
(lp5403
g57
(g5140
g59
NtRp5404
(dp5405
g62
(dp5406
g5146
S'http://www.web2py.com'
p5407
ssg71
g5400
sg64
(lp5408
S'web2py.com'
p5409
asbag57
(g5153
g59
NtRp5410
(dp5411
g62
(dp5412
g5151
g5161
ssg71
g5400
sg64
(lp5413
g57
(g5147
g59
NtRp5414
(dp5415
g62
(dp5416
sg71
g5410
sg64
(lp5417
g57
(g5140
g59
NtRp5418
(dp5419
g62
(dp5420
g5146
S'http://www.web2py.com/examples/default/download'
p5421
ssg71
g5414
sg64
(lp5422
g4368
(S't\x08\x00\x00\x00Download'
tRp5423
asbasbag57
(g5147
g59
NtRp5424
(dp5425
g62
(dp5426
sg71
g5410
sg64
(lp5427
g57
(g5140
g59
NtRp5428
(dp5429
g62
(dp5430
g5146
S'http://www.web2py.com/examples/default/support'
p5431
ssg71
g5424
sg64
(lp5432
g4368
(S't\x07\x00\x00\x00Support'
tRp5433
asbasbag57
(g5147
g59
NtRp5434
(dp5435
g62
(dp5436
sg71
g5410
sg64
(lp5437
g57
(g5140
g59
NtRp5438
(dp5439
g62
(dp5440
g5146
S'http://web2py.com/demo_admin'
p5441
ssg71
g5434
sg64
(lp5442
g4368
(S't\x04\x00\x00\x00Demo'
tRp5443
asbasbag57
(g5147
g59
NtRp5444
(dp5445
g62
(dp5446
sg71
g5410
sg64
(lp5447
g57
(g5140
g59
NtRp5448
(dp5449
g62
(dp5450
g5146
S'http://web2py.com/examples/default/examples'
p5451
ssg71
g5444
sg64
(lp5452
g4368
(S's\x0e\x00\x00\x00Quick Examples'
tRp5453
asbasbag57
(g5147
g59
NtRp5454
(dp5455
g62
(dp5456
sg71
g5410
sg64
(lp5457
g57
(g5140
g59
NtRp5458
(dp5459
g62
(dp5460
g5146
S'http://web2py.com/AlterEgo'
p5461
ssg71
g5454
sg64
(lp5462
g4368
(S't\x03\x00\x00\x00FAQ'
tRp5463
asbasbag57
(g5147
g59
NtRp5464
(dp5465
g62
(dp5466
sg71
g5410
sg64
(lp5467
g57
(g5140
g59
NtRp5468
(dp5469
g62
(dp5470
g5146
S'http://www.web2py.com/examples/default/videos/'
p5471
ssg71
g5464
sg64
(lp5472
g4368
(S't\x06\x00\x00\x00Videos'
tRp5473
asbasbag57
(g5147
g59
NtRp5474
(dp5475
g62
(dp5476
sg71
g5410
sg64
(lp5477
g57
(g5140
g59
NtRp5478
(dp5479
g62
(dp5480
g5146
S'http://web2py.com/appliances'
p5481
ssg71
g5474
sg64
(lp5482
g4368
(S's\x11\x00\x00\x00Free Applications'
tRp5483
asbasbag57
(g5147
g59
NtRp5484
(dp5485
g62
(dp5486
sg71
g5410
sg64
(lp5487
g57
(g5140
g59
NtRp5488
(dp5489
g62
(dp5490
g5146
S'http://web2py.com/plugins'
p5491
ssg71
g5484
sg64
(lp5492
g4368
(S't\x07\x00\x00\x00Plugins'
tRp5493
asbasbag57
(g5147
g59
NtRp5494
(dp5495
g62
(dp5496
sg71
g5410
sg64
(lp5497
g57
(g5140
g59
NtRp5498
(dp5499
g62
(dp5500
g5146
S'http://web2py.com/layouts'
p5501
ssg71
g5494
sg64
(lp5502
g4368
(S't\x07\x00\x00\x00Layouts'
tRp5503
asbasbag57
(g5147
g59
NtRp5504
(dp5505
g62
(dp5506
sg71
g5410
sg64
(lp5507
g57
(g5140
g59
NtRp5508
(dp5509
g62
(dp5510
g5146
S'http://web2pyslices.com/'
p5511
ssg71
g5504
sg64
(lp5512
g4368
(S't\x07\x00\x00\x00Recipes'
tRp5513
asbasbag57
(g5147
g59
NtRp5514
(dp5515
g62
(dp5516
sg71
g5410
sg64
(lp5517
g57
(g5140
g59
NtRp5518
(dp5519
g62
(dp5520
g5146
S'http://web2py.com/semantic'
p5521
ssg71
g5514
sg64
(lp5522
g4368
(S't\x08\x00\x00\x00Semantic'
tRp5523
asbasbasbasbag57
(g5147
g59
NtRp5524
(dp5525
g62
(dp5526
g5151
g5152
ssg71
g5282
sg64
(lp5527
g57
(g5140
g59
NtRp5528
(dp5529
g62
(dp5530
g5146
S'http://www.web2py.com/book'
p5531
ssg71
g5524
sg64
(lp5532
g4368
(S't\r\x00\x00\x00Documentation'
tRp5533
asbag57
(g5153
g59
NtRp5534
(dp5535
g62
(dp5536
g5151
g5161
ssg71
g5524
sg64
(lp5537
g57
(g5147
g59
NtRp5538
(dp5539
g62
(dp5540
sg71
g5534
sg64
(lp5541
g57
(g5140
g59
NtRp5542
(dp5543
g62
(dp5544
g5146
S'http://www.web2py.com/book/default/chapter/00'
p5545
ssg71
g5538
sg64
(lp5546
g4368
(S't\x07\x00\x00\x00Preface'
tRp5547
asbasbag57
(g5147
g59
NtRp5548
(dp5549
g62
(dp5550
sg71
g5534
sg64
(lp5551
g57
(g5140
g59
NtRp5552
(dp5553
g62
(dp5554
g5146
S'http://www.web2py.com/book/default/chapter/01'
p5555
ssg71
g5548
sg64
(lp5556
g4368
(S't\x0c\x00\x00\x00Introduction'
tRp5557
asbasbag57
(g5147
g59
NtRp5558
(dp5559
g62
(dp5560
sg71
g5534
sg64
(lp5561
g57
(g5140
g59
NtRp5562
(dp5563
g62
(dp5564
g5146
S'http://www.web2py.com/book/default/chapter/02'
p5565
ssg71
g5558
sg64
(lp5566
g4368
(S't\x06\x00\x00\x00Python'
tRp5567
asbasbag57
(g5147
g59
NtRp5568
(dp5569
g62
(dp5570
sg71
g5534
sg64
(lp5571
g57
(g5140
g59
NtRp5572
(dp5573
g62
(dp5574
g5146
S'http://www.web2py.com/book/default/chapter/03'
p5575
ssg71
g5568
sg64
(lp5576
g4368
(S't\x08\x00\x00\x00Overview'
tRp5577
asbasbag57
(g5147
g59
NtRp5578
(dp5579
g62
(dp5580
sg71
g5534
sg64
(lp5581
g57
(g5140
g59
NtRp5582
(dp5583
g62
(dp5584
g5146
S'http://www.web2py.com/book/default/chapter/04'
p5585
ssg71
g5578
sg64
(lp5586
g4368
(S's\x08\x00\x00\x00The Core'
tRp5587
asbasbag57
(g5147
g59
NtRp5588
(dp5589
g62
(dp5590
sg71
g5534
sg64
(lp5591
g57
(g5140
g59
NtRp5592
(dp5593
g62
(dp5594
g5146
S'http://www.web2py.com/book/default/chapter/05'
p5595
ssg71
g5588
sg64
(lp5596
g4368
(S's\t\x00\x00\x00The Views'
tRp5597
asbasbag57
(g5147
g59
NtRp5598
(dp5599
g62
(dp5600
sg71
g5534
sg64
(lp5601
g57
(g5140
g59
NtRp5602
(dp5603
g62
(dp5604
g5146
S'http://www.web2py.com/book/default/chapter/06'
p5605
ssg71
g5598
sg64
(lp5606
g4368
(S't\x08\x00\x00\x00Database'
tRp5607
asbasbag57
(g5147
g59
NtRp5608
(dp5609
g62
(dp5610
sg71
g5534
sg64
(lp5611
g57
(g5140
g59
NtRp5612
(dp5613
g62
(dp5614
g5146
S'http://www.web2py.com/book/default/chapter/07'
p5615
ssg71
g5608
sg64
(lp5616
g4368
(S's\x14\x00\x00\x00Forms and Validators'
tRp5617
asbasbag57
(g5147
g59
NtRp5618
(dp5619
g62
(dp5620
sg71
g5534
sg64
(lp5621
g57
(g5140
g59
NtRp5622
(dp5623
g62
(dp5624
g5146
S'http://www.web2py.com/book/default/chapter/08'
p5625
ssg71
g5618
sg64
(lp5626
g4368
(S's\r\x00\x00\x00Email and SMS'
tRp5627
asbasbag57
(g5147
g59
NtRp5628
(dp5629
g62
(dp5630
sg71
g5534
sg64
(lp5631
g57
(g5140
g59
NtRp5632
(dp5633
g62
(dp5634
g5146
S'http://www.web2py.com/book/default/chapter/09'
p5635
ssg71
g5628
sg64
(lp5636
g4368
(S's\x0e\x00\x00\x00Access Control'
tRp5637
asbasbag57
(g5147
g59
NtRp5638
(dp5639
g62
(dp5640
sg71
g5534
sg64
(lp5641
g57
(g5140
g59
NtRp5642
(dp5643
g62
(dp5644
g5146
S'http://www.web2py.com/book/default/chapter/10'
p5645
ssg71
g5638
sg64
(lp5646
g4368
(S't\x08\x00\x00\x00Services'
tRp5647
asbasbag57
(g5147
g59
NtRp5648
(dp5649
g62
(dp5650
sg71
g5534
sg64
(lp5651
g57
(g5140
g59
NtRp5652
(dp5653
g62
(dp5654
g5146
S'http://www.web2py.com/book/default/chapter/11'
p5655
ssg71
g5648
sg64
(lp5656
g4368
(S's\x0c\x00\x00\x00Ajax Recipes'
tRp5657
asbasbag57
(g5147
g59
NtRp5658
(dp5659
g62
(dp5660
sg71
g5534
sg64
(lp5661
g57
(g5140
g59
NtRp5662
(dp5663
g62
(dp5664
g5146
S'http://www.web2py.com/book/default/chapter/12'
p5665
ssg71
g5658
sg64
(lp5666
g4368
(S's\x16\x00\x00\x00Components and Plugins'
tRp5667
asbasbag57
(g5147
g59
NtRp5668
(dp5669
g62
(dp5670
sg71
g5534
sg64
(lp5671
g57
(g5140
g59
NtRp5672
(dp5673
g62
(dp5674
g5146
S'http://www.web2py.com/book/default/chapter/13'
p5675
ssg71
g5668
sg64
(lp5676
g4368
(S's\x12\x00\x00\x00Deployment Recipes'
tRp5677
asbasbag57
(g5147
g59
NtRp5678
(dp5679
g62
(dp5680
sg71
g5534
sg64
(lp5681
g57
(g5140
g59
NtRp5682
(dp5683
g62
(dp5684
g5146
S'http://www.web2py.com/book/default/chapter/14'
p5685
ssg71
g5678
sg64
(lp5686
g4368
(S's\r\x00\x00\x00Other Recipes'
tRp5687
asbasbag57
(g5147
g59
NtRp5688
(dp5689
g62
(dp5690
sg71
g5534
sg64
(lp5691
g57
(g5140
g59
NtRp5692
(dp5693
g62
(dp5694
g5146
S'http://stores.lulu.com/web2py'
p5695
ssg71
g5688
sg64
(lp5696
g4368
(S's\r\x00\x00\x00Buy this book'
tRp5697
asbasbasbasbag57
(g5147
g59
NtRp5698
(dp5699
g62
(dp5700
g5151
g5152
ssg71
g5282
sg64
(lp5701
g57
(g5140
g59
NtRp5702
(dp5703
g62
(dp5704
g5144
g5145
sg5146
S'#'
ssg71
g5698
sg64
(lp5705
g4368
(S't\t\x00\x00\x00Community'
tRp5706
asbag57
(g5153
g59
NtRp5707
(dp5708
g62
(dp5709
g5151
g5161
ssg71
g5698
sg64
(lp5710
g57
(g5147
g59
NtRp5711
(dp5712
g62
(dp5713
sg71
g5707
sg64
(lp5714
g57
(g5140
g59
NtRp5715
(dp5716
g62
(dp5717
g5146
S'http://www.web2py.com/examples/default/usergroups'
p5718
ssg71
g5711
sg64
(lp5719
g4368
(S't\x06\x00\x00\x00Groups'
tRp5720
asbasbag57
(g5147
g59
NtRp5721
(dp5722
g62
(dp5723
sg71
g5707
sg64
(lp5724
g57
(g5140
g59
NtRp5725
(dp5726
g62
(dp5727
g5146
S'http://twitter.com/web2py'
p5728
ssg71
g5721
sg64
(lp5729
g4368
(S't\x07\x00\x00\x00Twitter'
tRp5730
asbasbag57
(g5147
g59
NtRp5731
(dp5732
g62
(dp5733
sg71
g5707
sg64
(lp5734
g57
(g5140
g59
NtRp5735
(dp5736
g62
(dp5737
g5146
S'http://webchat.freenode.net/?channels=web2py'
p5738
ssg71
g5731
sg64
(lp5739
g4368
(S's\t\x00\x00\x00Live Chat'
tRp5740
asbasbasbasbag57
(g5147
g59
NtRp5741
(dp5742
g62
(dp5743
g5151
g5152
ssg71
g5282
sg64
(lp5744
g57
(g5140
g59
NtRp5745
(dp5746
g62
(dp5747
g5144
g5145
sg5146
S'#'
ssg71
g5741
sg64
(lp5748
g4368
(S't\x07\x00\x00\x00Plugins'
tRp5749
asbag57
(g5153
g59
NtRp5750
(dp5751
g62
(dp5752
g5151
g5161
ssg71
g5741
sg64
(lp5753
g57
(g5147
g59
NtRp5754
(dp5755
g62
(dp5756
sg71
g5750
sg64
(lp5757
g57
(g5140
g59
NtRp5758
(dp5759
g62
(dp5760
g5146
S'http://web2py.com/examples/default/download'
p5761
ssg71
g5754
sg64
(lp5762
S'plugin_wiki'
p5763
asbasbag57
(g5147
g59
NtRp5764
(dp5765
g62
(dp5766
sg71
g5750
sg64
(lp5767
g57
(g5140
g59
NtRp5768
(dp5769
g62
(dp5770
g5146
g5491
ssg71
g5764
sg64
(lp5771
g4368
(S's\r\x00\x00\x00Other Plugins'
tRp5772
asbasbag57
(g5147
g59
NtRp5773
(dp5774
g62
(dp5775
sg71
g5750
sg64
(lp5776
g57
(g5140
g59
NtRp5777
(dp5778
g62
(dp5779
g5146
g5501
ssg71
g5773
sg64
(lp5780
g4368
(S's\x0e\x00\x00\x00Layout Plugins'
tRp5781
asbasbasbasbasbasbsg64
(lp5782
g5136
asbsg64
(lp5783
g4314
asbasbasbasbag57
(g73
g59
NtRp5784
(dp5785
g62
(dp5786
sg71
g5119
sg64
(lp5787
g57
(g78
g59
NtRp5788
(dp5789
g62
(dp5790
sg71
g5784
sg64
(lp5791
g57
(g58
g59
NtRp5792
(dp5793
g62
(dp5794
g70
I3
ssg71
g5788
sg64
(lp5795
g100
asbasbasbag57
(g73
g59
NtRp5796
(dp5797
g62
(dp5798
sg71
g5119
sg64
(lp5799
g57
(g78
g59
NtRp5800
(dp5801
g62
(dp5802
sg71
g5796
sg64
(lp5803
g57
(g58
g59
NtRp5804
(dp5805
g62
(dp5806
g70
I3
ssg71
g5800
sg64
(lp5807
S'None'
p5808
asbasbasbag57
(g73
g59
NtRp5809
(dp5810
g62
(dp5811
sg71
g5119
sg64
(lp5812
g57
(g78
g59
NtRp5813
(dp5814
g62
(dp5815
sg71
g5809
sg64
(lp5816
g57
(g58
g59
NtRp5817
(dp5818
g62
(dp5819
g70
I3
ssg71
g5813
sg64
(lp5820
g57
(g66
g59
NtRp5821
(dp5822
g62
(dp5823
g70
I2
ssg71
Nsg64
(lp5824
g57
(g73
g59
NtRp5825
(dp5826
g62
(dp5827
sg71
g5821
sg64
(lp5828
g57
(g78
g59
NtRp5829
(dp5830
g62
(dp5831
sg71
g5825
sg64
(lp5832
g57
(g58
g59
NtRp5833
(dp5834
g62
(dp5835
g70
I2
ssg71
g5829
sg64
(lp5836
g57
(g66
g59
NtRp5837
(dp5838
g62
(dp5839
g70
I1
ssg71
Nsg64
(lp5840
g57
(g73
g59
NtRp5841
(dp5842
g62
(dp5843
sg71
g5837
sg64
(lp5844
g57
(g78
g59
NtRp5845
(dp5846
g62
(dp5847
sg71
g5841
sg64
(lp5848
g57
(g58
g59
NtRp5849
(dp5850
g62
(dp5851
g70
I1
ssg71
g5845
sg64
(lp5852
g5295
asbasbasbag57
(g73
g59
NtRp5853
(dp5854
g62
(dp5855
sg71
g5837
sg64
(lp5856
g57
(g78
g59
NtRp5857
(dp5858
g62
(dp5859
sg71
g5853
sg64
(lp5860
g57
(g58
g59
NtRp5861
(dp5862
g62
(dp5863
g70
I1
ssg71
g5857
sg64
(lp5864
I00
asbasbasbag57
(g73
g59
NtRp5865
(dp5866
g62
(dp5867
sg71
g5837
sg64
(lp5868
g57
(g78
g59
NtRp5869
(dp5870
g62
(dp5871
sg71
g5865
sg64
(lp5872
g57
(g58
g59
NtRp5873
(dp5874
g62
(dp5875
g70
I1
ssg71
g5869
sg64
(lp5876
g5293
asbasbasbasbasbasbasbag57
(g73
g59
NtRp5877
(dp5878
g62
(dp5879
sg71
g5821
sg64
(lp5880
g57
(g78
g59
NtRp5881
(dp5882
g62
(dp5883
sg71
g5877
sg64
(lp5884
g57
(g58
g59
NtRp5885
(dp5886
g62
(dp5887
g70
I2
ssg71
g5881
sg64
(lp5888
g57
(g66
g59
NtRp5889
(dp5890
g62
(dp5891
g70
I1
ssg71
Nsg64
(lp5892
g57
(g73
g59
NtRp5893
(dp5894
g62
(dp5895
sg71
g5889
sg64
(lp5896
g57
(g78
g59
NtRp5897
(dp5898
g62
(dp5899
sg71
g5893
sg64
(lp5900
g57
(g58
g59
NtRp5901
(dp5902
g62
(dp5903
g70
I1
ssg71
g5897
sg64
(lp5904
g5305
asbasbasbag57
(g73
g59
NtRp5905
(dp5906
g62
(dp5907
sg71
g5889
sg64
(lp5908
g57
(g78
g59
NtRp5909
(dp5910
g62
(dp5911
sg71
g5905
sg64
(lp5912
g57
(g58
g59
NtRp5913
(dp5914
g62
(dp5915
g70
I1
ssg71
g5909
sg64
(lp5916
I00
asbasbasbag57
(g73
g59
NtRp5917
(dp5918
g62
(dp5919
sg71
g5889
sg64
(lp5920
g57
(g78
g59
NtRp5921
(dp5922
g62
(dp5923
sg71
g5917
sg64
(lp5924
g57
(g58
g59
NtRp5925
(dp5926
g62
(dp5927
g70
I1
ssg71
g5921
sg64
(lp5928
g5303
asbasbasbag57
(g73
g59
NtRp5929
(dp5930
g62
(dp5931
sg71
g5889
sg64
(lp5932
g57
(g78
g59
NtRp5933
(dp5934
g62
(dp5935
sg71
g5929
sg64
(lp5936
g57
(g58
g59
NtRp5937
(dp5938
g62
(dp5939
g70
I1
ssg71
g5933
sg64
(lp5940
(lp5941
(g5319
I00
g5317
tp5942
a(g5329
I00
g5327
tp5943
a(g5339
I00
g5337
tp5944
a(g5349
I00
g5347
tp5945
a(g5359
I00
g5357
tp5946
a(g5369
I00
g5367
tp5947
a(g5379
I00
g5377
tp5948
a(g5389
I00
g5387
tp5949
a(g5399
I00
g5397
tp5950
aasbasbasbasbasbasbasbag57
(g73
g59
NtRp5951
(dp5952
g62
(dp5953
sg71
g5821
sg64
(lp5954
g57
(g78
g59
NtRp5955
(dp5956
g62
(dp5957
sg71
g5951
sg64
(lp5958
g57
(g58
g59
NtRp5959
(dp5960
g62
(dp5961
g70
I2
ssg71
g5955
sg64
(lp5962
g57
(g66
g59
NtRp5963
(dp5964
g62
(dp5965
g70
I1
ssg71
Nsg64
(lp5966
g57
(g73
g59
NtRp5967
(dp5968
g62
(dp5969
sg71
g5963
sg64
(lp5970
g57
(g78
g59
NtRp5971
(dp5972
g62
(dp5973
sg71
g5967
sg64
(lp5974
g57
(g58
g59
NtRp5975
(dp5976
g62
(dp5977
g70
I1
ssg71
g5971
sg64
(lp5978
g5409
asbasbasbag57
(g73
g59
NtRp5979
(dp5980
g62
(dp5981
sg71
g5963
sg64
(lp5982
g57
(g78
g59
NtRp5983
(dp5984
g62
(dp5985
sg71
g5979
sg64
(lp5986
g57
(g58
g59
NtRp5987
(dp5988
g62
(dp5989
g70
I1
ssg71
g5983
sg64
(lp5990
I00
asbasbasbag57
(g73
g59
NtRp5991
(dp5992
g62
(dp5993
sg71
g5963
sg64
(lp5994
g57
(g78
g59
NtRp5995
(dp5996
g62
(dp5997
sg71
g5991
sg64
(lp5998
g57
(g58
g59
NtRp5999
(dp6000
g62
(dp6001
g70
I1
ssg71
g5995
sg64
(lp6002
g5407
asbasbasbag57
(g73
g59
NtRp6003
(dp6004
g62
(dp6005
sg71
g5963
sg64
(lp6006
g57
(g78
g59
NtRp6007
(dp6008
g62
(dp6009
sg71
g6003
sg64
(lp6010
g57
(g58
g59
NtRp6011
(dp6012
g62
(dp6013
g70
I1
ssg71
g6007
sg64
(lp6014
(lp6015
(g5423
I00
g5421
tp6016
a(g5433
I00
g5431
tp6017
a(g5443
I00
g5441
tp6018
a(g5453
I00
g5451
tp6019
a(g5463
I00
g5461
tp6020
a(g5473
I00
g5471
tp6021
a(g5483
I00
g5481
tp6022
a(g5493
I00
g5491
tp6023
a(g5503
I00
g5501
tp6024
a(g5513
I00
g5511
tp6025
a(g5523
I00
g5521
tp6026
aasbasbasbasbasbasbasbag57
(g73
g59
NtRp6027
(dp6028
g62
(dp6029
sg71
g5821
sg64
(lp6030
g57
(g78
g59
NtRp6031
(dp6032
g62
(dp6033
sg71
g6027
sg64
(lp6034
g57
(g58
g59
NtRp6035
(dp6036
g62
(dp6037
g70
I2
ssg71
g6031
sg64
(lp6038
g57
(g66
g59
NtRp6039
(dp6040
g62
(dp6041
g70
I1
ssg71
Nsg64
(lp6042
g57
(g73
g59
NtRp6043
(dp6044
g62
(dp6045
sg71
g6039
sg64
(lp6046
g57
(g78
g59
NtRp6047
(dp6048
g62
(dp6049
sg71
g6043
sg64
(lp6050
g57
(g58
g59
NtRp6051
(dp6052
g62
(dp6053
g70
I1
ssg71
g6047
sg64
(lp6054
g5533
asbasbasbag57
(g73
g59
NtRp6055
(dp6056
g62
(dp6057
sg71
g6039
sg64
(lp6058
g57
(g78
g59
NtRp6059
(dp6060
g62
(dp6061
sg71
g6055
sg64
(lp6062
g57
(g58
g59
NtRp6063
(dp6064
g62
(dp6065
g70
I1
ssg71
g6059
sg64
(lp6066
I00
asbasbasbag57
(g73
g59
NtRp6067
(dp6068
g62
(dp6069
sg71
g6039
sg64
(lp6070
g57
(g78
g59
NtRp6071
(dp6072
g62
(dp6073
sg71
g6067
sg64
(lp6074
g57
(g58
g59
NtRp6075
(dp6076
g62
(dp6077
g70
I1
ssg71
g6071
sg64
(lp6078
g5531
asbasbasbag57
(g73
g59
NtRp6079
(dp6080
g62
(dp6081
sg71
g6039
sg64
(lp6082
g57
(g78
g59
NtRp6083
(dp6084
g62
(dp6085
sg71
g6079
sg64
(lp6086
g57
(g58
g59
NtRp6087
(dp6088
g62
(dp6089
g70
I1
ssg71
g6083
sg64
(lp6090
(lp6091
(g5547
I00
g5545
tp6092
a(g5557
I00
g5555
tp6093
a(g5567
I00
g5565
tp6094
a(g5577
I00
g5575
tp6095
a(g5587
I00
g5585
tp6096
a(g5597
I00
g5595
tp6097
a(g5607
I00
g5605
tp6098
a(g5617
I00
g5615
tp6099
a(g5627
I00
g5625
tp6100
a(g5637
I00
g5635
tp6101
a(g5647
I00
g5645
tp6102
a(g5657
I00
g5655
tp6103
a(g5667
I00
g5665
tp6104
a(g5677
I00
g5675
tp6105
a(g5687
I00
g5685
tp6106
a(g5697
I00
g5695
tp6107
aasbasbasbasbasbasbasbag57
(g73
g59
NtRp6108
(dp6109
g62
(dp6110
sg71
g5821
sg64
(lp6111
g57
(g78
g59
NtRp6112
(dp6113
g62
(dp6114
sg71
g6108
sg64
(lp6115
g57
(g58
g59
NtRp6116
(dp6117
g62
(dp6118
g70
I2
ssg71
g6112
sg64
(lp6119
g57
(g66
g59
NtRp6120
(dp6121
g62
(dp6122
g70
I1
ssg71
Nsg64
(lp6123
g57
(g73
g59
NtRp6124
(dp6125
g62
(dp6126
sg71
g6120
sg64
(lp6127
g57
(g78
g59
NtRp6128
(dp6129
g62
(dp6130
sg71
g6124
sg64
(lp6131
g57
(g58
g59
NtRp6132
(dp6133
g62
(dp6134
g70
I1
ssg71
g6128
sg64
(lp6135
g5706
asbasbasbag57
(g73
g59
NtRp6136
(dp6137
g62
(dp6138
sg71
g6120
sg64
(lp6139
g57
(g78
g59
NtRp6140
(dp6141
g62
(dp6142
sg71
g6136
sg64
(lp6143
g57
(g58
g59
NtRp6144
(dp6145
g62
(dp6146
g70
I1
ssg71
g6140
sg64
(lp6147
I00
asbasbasbag57
(g73
g59
NtRp6148
(dp6149
g62
(dp6150
sg71
g6120
sg64
(lp6151
g57
(g78
g59
NtRp6152
(dp6153
g62
(dp6154
sg71
g6148
sg64
(lp6155
g57
(g58
g59
NtRp6156
(dp6157
g62
(dp6158
g70
I1
ssg71
g6152
sg64
(lp6159
Nasbasbasbag57
(g73
g59
NtRp6160
(dp6161
g62
(dp6162
sg71
g6120
sg64
(lp6163
g57
(g78
g59
NtRp6164
(dp6165
g62
(dp6166
sg71
g6160
sg64
(lp6167
g57
(g58
g59
NtRp6168
(dp6169
g62
(dp6170
g70
I1
ssg71
g6164
sg64
(lp6171
(lp6172
(g5720
I00
g5718
tp6173
a(g5730
I00
g5728
tp6174
a(g5740
I00
g5738
tp6175
aasbasbasbasbasbasbasbag57
(g73
g59
NtRp6176
(dp6177
g62
(dp6178
sg71
g5821
sg64
(lp6179
g57
(g78
g59
NtRp6180
(dp6181
g62
(dp6182
sg71
g6176
sg64
(lp6183
g57
(g58
g59
NtRp6184
(dp6185
g62
(dp6186
g70
I2
ssg71
g6180
sg64
(lp6187
g57
(g66
g59
NtRp6188
(dp6189
g62
(dp6190
g70
I1
ssg71
Nsg64
(lp6191
g57
(g73
g59
NtRp6192
(dp6193
g62
(dp6194
sg71
g6188
sg64
(lp6195
g57
(g78
g59
NtRp6196
(dp6197
g62
(dp6198
sg71
g6192
sg64
(lp6199
g57
(g58
g59
NtRp6200
(dp6201
g62
(dp6202
g70
I1
ssg71
g6196
sg64
(lp6203
g5749
asbasbasbag57
(g73
g59
NtRp6204
(dp6205
g62
(dp6206
sg71
g6188
sg64
(lp6207
g57
(g78
g59
NtRp6208
(dp6209
g62
(dp6210
sg71
g6204
sg64
(lp6211
g57
(g58
g59
NtRp6212
(dp6213
g62
(dp6214
g70
I1
ssg71
g6208
sg64
(lp6215
I00
asbasbasbag57
(g73
g59
NtRp6216
(dp6217
g62
(dp6218
sg71
g6188
sg64
(lp6219
g57
(g78
g59
NtRp6220
(dp6221
g62
(dp6222
sg71
g6216
sg64
(lp6223
g57
(g58
g59
NtRp6224
(dp6225
g62
(dp6226
g70
I1
ssg71
g6220
sg64
(lp6227
Nasbasbasbag57
(g73
g59
NtRp6228
(dp6229
g62
(dp6230
sg71
g6188
sg64
(lp6231
g57
(g78
g59
NtRp6232
(dp6233
g62
(dp6234
sg71
g6228
sg64
(lp6235
g57
(g58
g59
NtRp6236
(dp6237
g62
(dp6238
g70
I1
ssg71
g6232
sg64
(lp6239
(lp6240
(g5763
I00
g5761
tp6241
a(g5772
I00
g5491
tp6242
a(g5781
I00
g5501
tp6243
aasbasbasbasbasbasbasbasbasbasbasbasbasbasbasbasbasbasbasbag57
(g73
g59
NtRp6244
(dp6245
g62
(dp6246
sg71
g3707
sg64
(lp6247
g57
(g78
g59
NtRp6248
(dp6249
g62
(dp6250
g82
g83
ssg71
g6244
sg64
(lp6251
S'meta'
p6252
asbag57
(g78
g59
NtRp6253
(dp6254
g62
(dp6255
g89
g90
ssg71
g6244
sg64
(lp6256
S':'
asbag57
(g78
g59
NtRp6257
(dp6258
g62
(dp6259
sg71
g6244
sg64
(lp6260
g57
(g58
g59
NtRp6261
(dp6262
g62
(dp6263
g70
I5
ssg71
g6257
sg64
(lp6264
g57
(g66
g59
NtRp6265
(dp6266
g62
(dp6267
g70
I4
ssg71
Nsg64
(lp6268
g57
(g73
g59
NtRp6269
(dp6270
g62
(dp6271
sg71
g6265
sg64
(lp6272
g57
(g78
g59
NtRp6273
(dp6274
g62
(dp6275
g82
g83
ssg71
g6269
sg64
(lp6276
S'author'
p6277
asbag57
(g78
g59
NtRp6278
(dp6279
g62
(dp6280
g89
g90
ssg71
g6269
sg64
(lp6281
S':'
asbag57
(g78
g59
NtRp6282
(dp6283
g62
(dp6284
sg71
g6269
sg64
(lp6285
g57
(g58
g59
NtRp6286
(dp6287
g62
(dp6288
g70
I4
ssg71
g6282
sg64
(lp6289
S'Your Name <you@example.com>'
p6290
asbasbasbag57
(g73
g59
NtRp6291
(dp6292
g62
(dp6293
sg71
g6265
sg64
(lp6294
g57
(g78
g59
NtRp6295
(dp6296
g62
(dp6297
g82
g83
ssg71
g6291
sg64
(lp6298
S'copyright'
p6299
asbag57
(g78
g59
NtRp6300
(dp6301
g62
(dp6302
g89
g90
ssg71
g6291
sg64
(lp6303
S':'
asbag57
(g78
g59
NtRp6304
(dp6305
g62
(dp6306
sg71
g6291
sg64
(lp6307
g57
(g58
g59
NtRp6308
(dp6309
g62
(dp6310
g70
I4
ssg71
g6304
sg64
(lp6311
S'Copyright 2011'
p6312
asbasbasbag57
(g73
g59
NtRp6313
(dp6314
g62
(dp6315
sg71
g6265
sg64
(lp6316
g57
(g78
g59
NtRp6317
(dp6318
g62
(dp6319
g82
g83
ssg71
g6313
sg64
(lp6320
S'description'
p6321
asbag57
(g78
g59
NtRp6322
(dp6323
g62
(dp6324
g89
g90
ssg71
g6313
sg64
(lp6325
S':'
asbag57
(g78
g59
NtRp6326
(dp6327
g62
(dp6328
sg71
g6313
sg64
(lp6329
g57
(g58
g59
NtRp6330
(dp6331
g62
(dp6332
g70
I4
ssg71
g6326
sg64
(lp6333
S'a cool new app'
p6334
asbasbasbag57
(g73
g59
NtRp6335
(dp6336
g62
(dp6337
sg71
g6265
sg64
(lp6338
g57
(g78
g59
NtRp6339
(dp6340
g62
(dp6341
g82
g83
ssg71
g6335
sg64
(lp6342
S'generator'
p6343
asbag57
(g78
g59
NtRp6344
(dp6345
g62
(dp6346
g89
g90
ssg71
g6335
sg64
(lp6347
S':'
asbag57
(g78
g59
NtRp6348
(dp6349
g62
(dp6350
sg71
g6335
sg64
(lp6351
g57
(g58
g59
NtRp6352
(dp6353
g62
(dp6354
g70
I4
ssg71
g6348
sg64
(lp6355
S'Web2py Web Framework'
p6356
asbasbasbag57
(g73
g59
NtRp6357
(dp6358
g62
(dp6359
sg71
g6265
sg64
(lp6360
g57
(g78
g59
NtRp6361
(dp6362
g62
(dp6363
g82
g83
ssg71
g6357
sg64
(lp6364
S'keywords'
p6365
asbag57
(g78
g59
NtRp6366
(dp6367
g62
(dp6368
g89
g90
ssg71
g6357
sg64
(lp6369
S':'
asbag57
(g78
g59
NtRp6370
(dp6371
g62
(dp6372
sg71
g6357
sg64
(lp6373
g57
(g58
g59
NtRp6374
(dp6375
g62
(dp6376
g70
I4
ssg71
g6370
sg64
(lp6377
S'web2py, python, framework'
p6378
asbasbasbasbasbasbasbag57
(g73
g59
NtRp6379
(dp6380
g62
(dp6381
sg71
g3707
sg64
(lp6382
g57
(g78
g59
NtRp6383
(dp6384
g62
(dp6385
g82
g83
ssg71
g6379
sg64
(lp6386
S'postprocessing'
p6387
asbag57
(g78
g59
NtRp6388
(dp6389
g62
(dp6390
g89
g90
ssg71
g6379
sg64
(lp6391
S':'
asbag57
(g78
g59
NtRp6392
(dp6393
g62
(dp6394
sg71
g6379
sg64
(lp6395
g57
(g58
g59
NtRp6396
(dp6397
g62
(dp6398
g70
I5
ssg71
g6392
sg64
(lp6399
g57
(g66
g59
NtRp6400
(dp6401
g62
(dp6402
g70
I4
ssg71
Nsg64
(lp6403
sbasbasbasbag57
(g73
g59
NtRp6404
(dp6405
g62
(dp6406
sg71
g3707
sg64
(lp6407
g57
(g78
g59
NtRp6408
(dp6409
g62
(dp6410
g82
g83
ssg71
g6404
sg64
(lp6411
S'session_file'
p6412
asbag57
(g78
g59
NtRp6413
(dp6414
g62
(dp6415
g89
g90
ssg71
g6404
sg64
(lp6416
S':'
asbag57
(g78
g59
NtRp6417
(dp6418
g62
(dp6419
sg71
g6404
sg64
(lp6420
g57
(g58
g59
NtRp6421
(dp6422
g62
(dp6423
g70
I5
ssg71
g6417
sg64
(lp6424
S"<open file '/Users/ianaboneva/Dropbox/DePaul/CSC 438 - Web Applications/web2py/applications/Book_Shelf_copy/sessions/127.0.0.1-eeba29a1-713d-4626-a1ad-4627ea1d2e7a', mode 'rb+' at 0x109f3d1e0>"
p6425
asbasbasbag57
(g73
g59
NtRp6426
(dp6427
g62
(dp6428
sg71
g3707
sg64
(lp6429
g57
(g78
g59
NtRp6430
(dp6431
g62
(dp6432
g82
g83
ssg71
g6426
sg64
(lp6433
S'session_filename'
p6434
asbag57
(g78
g59
NtRp6435
(dp6436
g62
(dp6437
g89
g90
ssg71
g6426
sg64
(lp6438
S':'
asbag57
(g78
g59
NtRp6439
(dp6440
g62
(dp6441
sg71
g6426
sg64
(lp6442
g57
(g58
g59
NtRp6443
(dp6444
g62
(dp6445
g70
I5
ssg71
g6439
sg64
(lp6446
S'/Users/ianaboneva/Dropbox/DePaul/CSC 438 - Web Applications/web2py/applications/Book_Shelf_copy/sessions/127.0.0.1-eeba29a1-713d-4626-a1ad-4627ea1d2e7a'
p6447
asbasbasbag57
(g73
g59
NtRp6448
(dp6449
g62
(dp6450
sg71
g3707
sg64
(lp6451
g57
(g78
g59
NtRp6452
(dp6453
g62
(dp6454
g82
g83
ssg71
g6448
sg64
(lp6455
S'session_id'
p6456
asbag57
(g78
g59
NtRp6457
(dp6458
g62
(dp6459
g89
g90
ssg71
g6448
sg64
(lp6460
S':'
asbag57
(g78
g59
NtRp6461
(dp6462
g62
(dp6463
sg71
g6448
sg64
(lp6464
g57
(g58
g59
NtRp6465
(dp6466
g62
(dp6467
g70
I5
ssg71
g6461
sg64
(lp6468
S'127.0.0.1-eeba29a1-713d-4626-a1ad-4627ea1d2e7a'
p6469
asbasbasbag57
(g73
g59
NtRp6470
(dp6471
g62
(dp6472
sg71
g3707
sg64
(lp6473
g57
(g78
g59
NtRp6474
(dp6475
g62
(dp6476
g82
g83
ssg71
g6470
sg64
(lp6477
S'session_id_name'
p6478
asbag57
(g78
g59
NtRp6479
(dp6480
g62
(dp6481
g89
g90
ssg71
g6470
sg64
(lp6482
S':'
asbag57
(g78
g59
NtRp6483
(dp6484
g62
(dp6485
sg71
g6470
sg64
(lp6486
g57
(g58
g59
NtRp6487
(dp6488
g62
(dp6489
g70
I5
ssg71
g6483
sg64
(lp6490
g3764
asbasbasbag57
(g73
g59
NtRp6491
(dp6492
g62
(dp6493
sg71
g3707
sg64
(lp6494
g57
(g78
g59
NtRp6495
(dp6496
g62
(dp6497
g82
g83
ssg71
g6491
sg64
(lp6498
S'session_locked'
p6499
asbag57
(g78
g59
NtRp6500
(dp6501
g62
(dp6502
g89
g90
ssg71
g6491
sg64
(lp6503
S':'
asbag57
(g78
g59
NtRp6504
(dp6505
g62
(dp6506
sg71
g6491
sg64
(lp6507
g57
(g58
g59
NtRp6508
(dp6509
g62
(dp6510
g70
I5
ssg71
g6504
sg64
(lp6511
g1875
asbasbasbag57
(g73
g59
NtRp6512
(dp6513
g62
(dp6514
sg71
g3707
sg64
(lp6515
g57
(g78
g59
NtRp6516
(dp6517
g62
(dp6518
g82
g83
ssg71
g6512
sg64
(lp6519
S'session_new'
p6520
asbag57
(g78
g59
NtRp6521
(dp6522
g62
(dp6523
g89
g90
ssg71
g6512
sg64
(lp6524
S':'
asbag57
(g78
g59
NtRp6525
(dp6526
g62
(dp6527
sg71
g6512
sg64
(lp6528
g57
(g58
g59
NtRp6529
(dp6530
g62
(dp6531
g70
I5
ssg71
g6525
sg64
(lp6532
g100
asbasbasbag57
(g73
g59
NtRp6533
(dp6534
g62
(dp6535
sg71
g3707
sg64
(lp6536
g57
(g78
g59
NtRp6537
(dp6538
g62
(dp6539
g82
g83
ssg71
g6533
sg64
(lp6540
S'status'
p6541
asbag57
(g78
g59
NtRp6542
(dp6543
g62
(dp6544
g89
g90
ssg71
g6533
sg64
(lp6545
S':'
asbag57
(g78
g59
NtRp6546
(dp6547
g62
(dp6548
sg71
g6533
sg64
(lp6549
g57
(g58
g59
NtRp6550
(dp6551
g62
(dp6552
g70
I5
ssg71
g6546
sg64
(lp6553
S'200'
p6554
asbasbasbag57
(g73
g59
NtRp6555
(dp6556
g62
(dp6557
sg71
g3707
sg64
(lp6558
g57
(g78
g59
NtRp6559
(dp6560
g62
(dp6561
g82
g83
ssg71
g6555
sg64
(lp6562
S'subtitle'
p6563
asbag57
(g78
g59
NtRp6564
(dp6565
g62
(dp6566
g89
g90
ssg71
g6555
sg64
(lp6567
S':'
asbag57
(g78
g59
NtRp6568
(dp6569
g62
(dp6570
sg71
g6555
sg64
(lp6571
g57
(g58
g59
NtRp6572
(dp6573
g62
(dp6574
g70
I5
ssg71
g6568
sg64
(lp6575
g4368
(S's\r\x00\x00\x00customize me!'
tRp6576
asbasbasbag57
(g73
g59
NtRp6577
(dp6578
g62
(dp6579
sg71
g3707
sg64
(lp6580
g57
(g78
g59
NtRp6581
(dp6582
g62
(dp6583
g82
g83
ssg71
g6577
sg64
(lp6584
S'title'
p6585
asbag57
(g78
g59
NtRp6586
(dp6587
g62
(dp6588
g89
g90
ssg71
g6577
sg64
(lp6589
S':'
asbag57
(g78
g59
NtRp6590
(dp6591
g62
(dp6592
sg71
g6577
sg64
(lp6593
g57
(g58
g59
NtRp6594
(dp6595
g62
(dp6596
g70
I5
ssg71
g6590
sg64
(lp6597
S'Book Shelf Copy'
p6598
asbasbasbag57
(g73
g59
NtRp6599
(dp6600
g62
(dp6601
sg71
g3707
sg64
(lp6602
g57
(g78
g59
NtRp6603
(dp6604
g62
(dp6605
g82
g83
ssg71
g6599
sg64
(lp6606
g2560
asbag57
(g78
g59
NtRp6607
(dp6608
g62
(dp6609
g89
g90
ssg71
g6599
sg64
(lp6610
S':'
asbag57
(g78
g59
NtRp6611
(dp6612
g62
(dp6613
sg71
g6599
sg64
(lp6614
g57
(g58
g59
NtRp6615
(dp6616
g62
(dp6617
g70
I5
ssg71
g6611
sg64
(lp6618
g2573
asbasbasbag57
(g73
g59
NtRp6619
(dp6620
g62
(dp6621
sg71
g3707
sg64
(lp6622
g57
(g78
g59
NtRp6623
(dp6624
g62
(dp6625
g82
g83
ssg71
g6619
sg64
(lp6626
S'view'
p6627
asbag57
(g78
g59
NtRp6628
(dp6629
g62
(dp6630
g89
g90
ssg71
g6619
sg64
(lp6631
S':'
asbag57
(g78
g59
NtRp6632
(dp6633
g62
(dp6634
sg71
g6619
sg64
(lp6635
g57
(g58
g59
NtRp6636
(dp6637
g62
(dp6638
g70
I5
ssg71
g6632
sg64
(lp6639
S'default/book_shelf.html'
p6640
asbasbasbasbasbsS'locals'
p6641
(dp6642
S'self'
p6643
S"<Row {'modified_by': 2, 'update_record': <functi...ete_record': <function <lambda> at 0x109f582a8>}>"
p6644
sS'm'
S'None'
p6645
sS'key'
p6646
S"'Title'"
p6647
sssS'traceback'
p6648
S'Traceback (most recent call last):\n  File "/Users/ianaboneva/Dropbox/DePaul/CSC 438 - Web Applications/web2py/gluon/restricted.py", line 205, in restricted\n    exec ccode in environment\n  File "/Users/ianaboneva/Dropbox/DePaul/CSC 438 - Web Applications/web2py/applications/Book_Shelf_copy/views/default/book_shelf.html", line 94, in <module>\n  File "/Users/ianaboneva/Dropbox/DePaul/CSC 438 - Web Applications/web2py/gluon/dal.py", line 5657, in __getattr__\n    return self[key]\n  File "/Users/ianaboneva/Dropbox/DePaul/CSC 438 - Web Applications/web2py/gluon/dal.py", line 5648, in __getitem__\n    return dict.__getitem__(self, key)\nKeyError: \'Title\'\n'
p6649
s.