(dp1
S'output'
p2
S"<type 'exceptions.IndentationError'> unindent does not match any outer indentation level (default.py, line 15)"
p3
sS'layer'
p4
S'/Users/ianaboneva/Dropbox/DePaul/CSC 438 - Web Applications/web2py/applications/Book_Shelf_copy/controllers/default.py'
p5
sS'code'
p6
S'# -*- coding: utf-8 -*-\n# this file is released under public domain and you can use without limitations\n\n#########################################################################\n## This is a samples controller\n## - index is the default action of any application\n## - user is required for authentication and authorization\n## - download is for downloading files uploaded in the db (does streaming)\n## - call exposes all registered services (none by default)\n#########################################################################\n\ndef index():\n\tshelves = db(db.Book_Shelf.created_by==auth.user.id).select()\n    \n    response.flash = "Welcome to Book Shelf!"\n    return dict(message=T(\'Hello Readers!\'))\n\n@auth.requires_login()\ndef create_user_profile():\n    form = SQLFORM(db.User_Profile)\n    if form.process().accepted:\n        session.flash = "Form Accepted"\n        redirect(URL(\'user_profile\'))\n    else:\n        response.flash= "This is completely wrong you weiner..TRY AGAIN!"\n    return locals()\n\n@auth.requires_login() \ndef update_user_profile():\n    record = db.User_Profile(request.args(0)) or redirect (URL(\'index\'))\n    if (auth.user.id!=record.created_by):\n        session.flash = \'access denied\'\n        redirect(URL(\'index\'))\n    form = SQLFORM(db.User_Profile, record)\n    if form.process().accepted:\n        session.flash = "Form Accepted"\n        redirect(URL(\'user_profile\'))\n    else:\n        response.flash= "This is completely wrong you weiner..TRY AGAIN!"\n    return locals()\n      \n@auth.requires_login() \ndef user_profile():\n    profiles = db(db.User_Profile.created_by==auth.user.id).select()\n    return locals()\n\n@auth.requires_login() \ndef create_book_profile():\n    form = SQLFORM(db.Book_Profile)\n    if form.process().accepted:\n        session.flash = "Form Accepted"\n        redirect(URL(\'book_profile\'))\n    else:\n        response.flash= "This is completely wrong you weiner..TRY AGAIN!"\n    return locals()\n  \n@auth.requires_login() \ndef update_book_profile():\n    record = db.Book_Profile(request.args(0)) or redirect (URL(\'index\'))\n    form = SQLFORM(db.Book_Profile, record)\n    if form.process().accepted:\n        session.flash = "Form Accepted"\n        redirect(URL(\'book_profile\'))\n    else:\n        response.flash= "This is completely wrong you weiner..TRY AGAIN!"\n    return locals()\n      \ndef book_profile():\n    book = db.Book_Profile(request.args(0)) or redirect (URL(\'index\'))\n    return locals()\n\n@auth.requires_login() \ndef create_book_shelf():\n    form = SQLFORM(db.Book_Shelf)\n    if form.process().accepted:\n        session.flash = "Form Accepted"\n    else:\n        response.flash = "WRONG!"\n    return locals()\n\n@auth.requires_login() \ndef update_book_shelf():\n    return locals()\n    \n@auth.requires_login()      \ndef book_shelf():\n    shelves = db(db.Book_Shelf.created_by==auth.user.id).select()\n    return locals()\n \n@auth.requires_login()    \ndef comments():\n    return locals()\n \n@auth.requires_login()    \ndef reviews():\n    return locals()\n\n\ndef user():\n    """\n    exposes:\n    http://..../[app]/default/user/login\n    http://..../[app]/default/user/logout\n    http://..../[app]/default/user/register\n    http://..../[app]/default/user/profile\n    http://..../[app]/default/user/retrieve_password\n    http://..../[app]/default/user/change_password\n    use @auth.requires_login()\n        @auth.requires_membership(\'group name\')\n        @auth.requires_permission(\'read\',\'table name\',record_id)\n    to decorate functions that need access control\n    """\n    return dict(form=auth())\n\ndef download():\n    """\n    allows downloading of uploaded files\n    http://..../[app]/default/download/[filename]\n    """\n    return response.download(request,db)\n\n\ndef call():\n    """\n    exposes services. for example:\n    http://..../[app]/default/call/jsonrpc\n    decorate with @services.jsonrpc the functions to expose\n    supports xml, json, xmlrpc, jsonrpc, amfrpc, rss, csv\n    """\n    return service()\n\n\n@auth.requires_signature()\ndef data():\n    """\n    http://..../[app]/default/data/tables\n    http://..../[app]/default/data/create/[table]\n    http://..../[app]/default/data/read/[table]/[id]\n    http://..../[app]/default/data/update/[table]/[id]\n    http://..../[app]/default/data/delete/[table]/[id]\n    http://..../[app]/default/data/select/[table]\n    http://..../[app]/default/data/search/[table]\n    but URLs must be signed, i.e. linked with\n      A(\'table\',_href=URL(\'data/tables\',user_signature=True))\n    or with the signed load operator\n      LOAD(\'default\',\'data.load\',args=\'tables\',ajax=True,user_signature=True)\n    """\n    return dict(form=crud())\n\nresponse._vars=response._caller(index)\n'
p7
sS'snapshot'
p8
(dp9
S'exception'
p10
(dp11
S'__getslice__'
p12
S"<method-wrapper '__getslice__' of exceptions.IndentationError object>"
p13
sS'text'
p14
S'\'    response.flash = "Welcome to Book Shelf!"\\n\''
p15
sS'__str__'
p16
S"<method-wrapper '__str__' of exceptions.IndentationError object>"
p17
sS'__reduce__'
p18
S'<built-in method __reduce__ of exceptions.IndentationError object>'
p19
sS'__dict__'
p20
S'{}'
p21
sS'__sizeof__'
p22
S'<built-in method __sizeof__ of exceptions.IndentationError object>'
p23
sS'__init__'
p24
S"<method-wrapper '__init__' of exceptions.IndentationError object>"
p25
sS'__setattr__'
p26
S"<method-wrapper '__setattr__' of exceptions.IndentationError object>"
p27
sS'__reduce_ex__'
p28
S'<built-in method __reduce_ex__ of exceptions.IndentationError object>'
p29
sS'__new__'
p30
S'<built-in method __new__ of type object>'
p31
sS'__format__'
p32
S'<built-in method __format__ of exceptions.IndentationError object>'
p33
sS'__class__'
p34
S"<type 'exceptions.IndentationError'>"
p35
sS'filename'
p36
S"'/Users/ianaboneva/Dropbox/DePaul/CSC 438 - Web A...plications/Book_Shelf_copy/controllers/default.py'"
p37
sS'lineno'
p38
S'15'
p39
sS'msg'
p40
S"'unindent does not match any outer indentation level'"
p41
sS'__doc__'
p42
S"'Improper indentation.'"
p43
sS'__getitem__'
p44
S"<method-wrapper '__getitem__' of exceptions.IndentationError object>"
p45
sS'__setstate__'
p46
S'<built-in method __setstate__ of exceptions.IndentationError object>'
p47
sS'__getattribute__'
p48
S"<method-wrapper '__getattribute__' of exceptions.IndentationError object>"
p49
sS'print_file_and_line'
p50
S'None'
p51
sS'args'
p52
S'(\'unindent does not match any outer indentation level\', (\'/Users/ianaboneva/Dropbox/DePaul/CSC 438 - Web A...plications/Book_Shelf_copy/controllers/default.py\', 15, 46, \'    response.flash = "Welcome to Book Shelf!"\\n\'))'
p53
sS'__subclasshook__'
p54
S'<built-in method __subclasshook__ of type object>'
p55
sS'offset'
p56
S'46'
p57
sS'__unicode__'
p58
S'<built-in method __unicode__ of exceptions.IndentationError object>'
p59
sS'__delattr__'
p60
S"<method-wrapper '__delattr__' of exceptions.IndentationError object>"
p61
sS'__repr__'
p62
S"<method-wrapper '__repr__' of exceptions.IndentationError object>"
p63
sS'__hash__'
p64
S"<method-wrapper '__hash__' of exceptions.IndentationError object>"
p65
ssS'evalue'
p66
S'unindent does not match any outer indentation level (default.py, line 15)'
p67
sS'request'
p68
ccopy_reg
_reconstructor
p69
(cgluon.html
BEAUTIFY
p70
c__builtin__
object
p71
NtRp72
(dp73
S'attributes'
p74
(dp75
sS'components'
p76
(lp77
g69
(cgluon.html
TABLE
p78
g71
NtRp79
(dp80
g74
(dp81
S'level'
p82
I5
ssS'parent'
p83
Nsg76
(lp84
g69
(cgluon.html
TR
p85
g71
NtRp86
(dp87
g74
(dp88
sg83
g79
sg76
(lp89
g69
(cgluon.html
TD
p90
g71
NtRp91
(dp92
g74
(dp93
S'_style'
p94
S'font-weight:bold;vertical-align:top'
p95
ssg83
g86
sg76
(lp96
S'ajax'
p97
asbag69
(g90
g71
NtRp98
(dp99
g74
(dp100
S'_valign'
p101
S'top'
p102
ssg83
g86
sg76
(lp103
S':'
asbag69
(g90
g71
NtRp104
(dp105
g74
(dp106
sg83
g86
sg76
(lp107
g69
(g70
g71
NtRp108
(dp109
g74
(dp110
g82
I5
ssg83
g104
sg76
(lp111
S'False'
p112
asbasbasbag69
(g85
g71
NtRp113
(dp114
g74
(dp115
sg83
g79
sg76
(lp116
g69
(g90
g71
NtRp117
(dp118
g74
(dp119
g94
g95
ssg83
g113
sg76
(lp120
S'application'
p121
asbag69
(g90
g71
NtRp122
(dp123
g74
(dp124
g101
g102
ssg83
g113
sg76
(lp125
S':'
asbag69
(g90
g71
NtRp126
(dp127
g74
(dp128
sg83
g113
sg76
(lp129
g69
(g70
g71
NtRp130
(dp131
g74
(dp132
g82
I5
ssg83
g126
sg76
(lp133
S'Book_Shelf_copy'
p134
asbasbasbag69
(g85
g71
NtRp135
(dp136
g74
(dp137
sg83
g79
sg76
(lp138
g69
(g90
g71
NtRp139
(dp140
g74
(dp141
g94
g95
ssg83
g135
sg76
(lp142
g52
asbag69
(g90
g71
NtRp143
(dp144
g74
(dp145
g101
g102
ssg83
g135
sg76
(lp146
S':'
asbag69
(g90
g71
NtRp147
(dp148
g74
(dp149
sg83
g135
sg76
(lp150
g69
(g70
g71
NtRp151
(dp152
g74
(dp153
g82
I5
ssg83
g147
sg76
(lp154
g69
(g78
g71
NtRp155
(dp156
g74
(dp157
g82
I4
ssg83
Nsg76
(lp158
sbasbasbasbag69
(g85
g71
NtRp159
(dp160
g74
(dp161
sg83
g79
sg76
(lp162
g69
(g90
g71
NtRp163
(dp164
g74
(dp165
g94
g95
ssg83
g159
sg76
(lp166
S'body'
p167
asbag69
(g90
g71
NtRp168
(dp169
g74
(dp170
g101
g102
ssg83
g159
sg76
(lp171
S':'
asbag69
(g90
g71
NtRp172
(dp173
g74
(dp174
sg83
g159
sg76
(lp175
g69
(g70
g71
NtRp176
(dp177
g74
(dp178
g82
I5
ssg83
g172
sg76
(lp179
S'<cStringIO.StringO object at 0x109f560a0>'
p180
asbasbasbag69
(g85
g71
NtRp181
(dp182
g74
(dp183
sg83
g79
sg76
(lp184
g69
(g90
g71
NtRp185
(dp186
g74
(dp187
g94
g95
ssg83
g181
sg76
(lp188
S'client'
p189
asbag69
(g90
g71
NtRp190
(dp191
g74
(dp192
g101
g102
ssg83
g181
sg76
(lp193
S':'
asbag69
(g90
g71
NtRp194
(dp195
g74
(dp196
sg83
g181
sg76
(lp197
g69
(g70
g71
NtRp198
(dp199
g74
(dp200
g82
I5
ssg83
g194
sg76
(lp201
S'127.0.0.1'
p202
asbasbasbag69
(g85
g71
NtRp203
(dp204
g74
(dp205
sg83
g79
sg76
(lp206
g69
(g90
g71
NtRp207
(dp208
g74
(dp209
g94
g95
ssg83
g203
sg76
(lp210
S'controller'
p211
asbag69
(g90
g71
NtRp212
(dp213
g74
(dp214
g101
g102
ssg83
g203
sg76
(lp215
S':'
asbag69
(g90
g71
NtRp216
(dp217
g74
(dp218
sg83
g203
sg76
(lp219
g69
(g70
g71
NtRp220
(dp221
g74
(dp222
g82
I5
ssg83
g216
sg76
(lp223
S'default'
p224
asbasbasbag69
(g85
g71
NtRp225
(dp226
g74
(dp227
sg83
g79
sg76
(lp228
g69
(g90
g71
NtRp229
(dp230
g74
(dp231
g94
g95
ssg83
g225
sg76
(lp232
S'cookies'
p233
asbag69
(g90
g71
NtRp234
(dp235
g74
(dp236
g101
g102
ssg83
g225
sg76
(lp237
S':'
asbag69
(g90
g71
NtRp238
(dp239
g74
(dp240
sg83
g225
sg76
(lp241
g69
(g70
g71
NtRp242
(dp243
g74
(dp244
g82
I5
ssg83
g238
sg76
(lp245
g69
(g78
g71
NtRp246
(dp247
g74
(dp248
g82
I4
ssg83
Nsg76
(lp249
g69
(g85
g71
NtRp250
(dp251
g74
(dp252
sg83
g246
sg76
(lp253
g69
(g90
g71
NtRp254
(dp255
g74
(dp256
g94
g95
ssg83
g250
sg76
(lp257
S'session_id_admin'
p258
asbag69
(g90
g71
NtRp259
(dp260
g74
(dp261
g101
g102
ssg83
g250
sg76
(lp262
S':'
asbag69
(g90
g71
NtRp263
(dp264
g74
(dp265
sg83
g250
sg76
(lp266
g69
(g70
g71
NtRp267
(dp268
g74
(dp269
g82
I4
ssg83
g263
sg76
(lp270
g69
(g78
g71
NtRp271
(dp272
g74
(dp273
g82
I3
ssg83
Nsg76
(lp274
g69
(g85
g71
NtRp275
(dp276
g74
(dp277
sg83
g271
sg76
(lp278
g69
(g90
g71
NtRp279
(dp280
g74
(dp281
g94
g95
ssg83
g275
sg76
(lp282
S'comment'
p283
asbag69
(g90
g71
NtRp284
(dp285
g74
(dp286
g101
g102
ssg83
g275
sg76
(lp287
S':'
asbag69
(g90
g71
NtRp288
(dp289
g74
(dp290
sg83
g275
sg76
(lp291
g69
(g70
g71
NtRp292
(dp293
g74
(dp294
g82
I3
ssg83
g288
sg76
(lp295
S''
asbasbasbag69
(g85
g71
NtRp296
(dp297
g74
(dp298
sg83
g271
sg76
(lp299
g69
(g90
g71
NtRp300
(dp301
g74
(dp302
g94
g95
ssg83
g296
sg76
(lp303
S'domain'
p304
asbag69
(g90
g71
NtRp305
(dp306
g74
(dp307
g101
g102
ssg83
g296
sg76
(lp308
S':'
asbag69
(g90
g71
NtRp309
(dp310
g74
(dp311
sg83
g296
sg76
(lp312
g69
(g70
g71
NtRp313
(dp314
g74
(dp315
g82
I3
ssg83
g309
sg76
(lp316
S''
asbasbasbag69
(g85
g71
NtRp317
(dp318
g74
(dp319
sg83
g271
sg76
(lp320
g69
(g90
g71
NtRp321
(dp322
g74
(dp323
g94
g95
ssg83
g317
sg76
(lp324
S'expires'
p325
asbag69
(g90
g71
NtRp326
(dp327
g74
(dp328
g101
g102
ssg83
g317
sg76
(lp329
S':'
asbag69
(g90
g71
NtRp330
(dp331
g74
(dp332
sg83
g317
sg76
(lp333
g69
(g70
g71
NtRp334
(dp335
g74
(dp336
g82
I3
ssg83
g330
sg76
(lp337
S''
asbasbasbag69
(g85
g71
NtRp338
(dp339
g74
(dp340
sg83
g271
sg76
(lp341
g69
(g90
g71
NtRp342
(dp343
g74
(dp344
g94
g95
ssg83
g338
sg76
(lp345
S'httponly'
p346
asbag69
(g90
g71
NtRp347
(dp348
g74
(dp349
g101
g102
ssg83
g338
sg76
(lp350
S':'
asbag69
(g90
g71
NtRp351
(dp352
g74
(dp353
sg83
g338
sg76
(lp354
g69
(g70
g71
NtRp355
(dp356
g74
(dp357
g82
I3
ssg83
g351
sg76
(lp358
S''
asbasbasbag69
(g85
g71
NtRp359
(dp360
g74
(dp361
sg83
g271
sg76
(lp362
g69
(g90
g71
NtRp363
(dp364
g74
(dp365
g94
g95
ssg83
g359
sg76
(lp366
S'max-age'
p367
asbag69
(g90
g71
NtRp368
(dp369
g74
(dp370
g101
g102
ssg83
g359
sg76
(lp371
S':'
asbag69
(g90
g71
NtRp372
(dp373
g74
(dp374
sg83
g359
sg76
(lp375
g69
(g70
g71
NtRp376
(dp377
g74
(dp378
g82
I3
ssg83
g372
sg76
(lp379
S''
asbasbasbag69
(g85
g71
NtRp380
(dp381
g74
(dp382
sg83
g271
sg76
(lp383
g69
(g90
g71
NtRp384
(dp385
g74
(dp386
g94
g95
ssg83
g380
sg76
(lp387
S'path'
p388
asbag69
(g90
g71
NtRp389
(dp390
g74
(dp391
g101
g102
ssg83
g380
sg76
(lp392
S':'
asbag69
(g90
g71
NtRp393
(dp394
g74
(dp395
sg83
g380
sg76
(lp396
g69
(g70
g71
NtRp397
(dp398
g74
(dp399
g82
I3
ssg83
g393
sg76
(lp400
S''
asbasbasbag69
(g85
g71
NtRp401
(dp402
g74
(dp403
sg83
g271
sg76
(lp404
g69
(g90
g71
NtRp405
(dp406
g74
(dp407
g94
g95
ssg83
g401
sg76
(lp408
S'secure'
p409
asbag69
(g90
g71
NtRp410
(dp411
g74
(dp412
g101
g102
ssg83
g401
sg76
(lp413
S':'
asbag69
(g90
g71
NtRp414
(dp415
g74
(dp416
sg83
g401
sg76
(lp417
g69
(g70
g71
NtRp418
(dp419
g74
(dp420
g82
I3
ssg83
g414
sg76
(lp421
S''
asbasbasbag69
(g85
g71
NtRp422
(dp423
g74
(dp424
sg83
g271
sg76
(lp425
g69
(g90
g71
NtRp426
(dp427
g74
(dp428
g94
g95
ssg83
g422
sg76
(lp429
S'version'
p430
asbag69
(g90
g71
NtRp431
(dp432
g74
(dp433
g101
g102
ssg83
g422
sg76
(lp434
S':'
asbag69
(g90
g71
NtRp435
(dp436
g74
(dp437
sg83
g422
sg76
(lp438
g69
(g70
g71
NtRp439
(dp440
g74
(dp441
g82
I3
ssg83
g435
sg76
(lp442
S''
asbasbasbasbasbasbasbag69
(g85
g71
NtRp443
(dp444
g74
(dp445
sg83
g246
sg76
(lp446
g69
(g90
g71
NtRp447
(dp448
g74
(dp449
g94
g95
ssg83
g443
sg76
(lp450
S'session_id_book_shelf_copy'
p451
asbag69
(g90
g71
NtRp452
(dp453
g74
(dp454
g101
g102
ssg83
g443
sg76
(lp455
S':'
asbag69
(g90
g71
NtRp456
(dp457
g74
(dp458
sg83
g443
sg76
(lp459
g69
(g70
g71
NtRp460
(dp461
g74
(dp462
g82
I4
ssg83
g456
sg76
(lp463
g69
(g78
g71
NtRp464
(dp465
g74
(dp466
g82
I3
ssg83
Nsg76
(lp467
g69
(g85
g71
NtRp468
(dp469
g74
(dp470
sg83
g464
sg76
(lp471
g69
(g90
g71
NtRp472
(dp473
g74
(dp474
g94
g95
ssg83
g468
sg76
(lp475
g283
asbag69
(g90
g71
NtRp476
(dp477
g74
(dp478
g101
g102
ssg83
g468
sg76
(lp479
S':'
asbag69
(g90
g71
NtRp480
(dp481
g74
(dp482
sg83
g468
sg76
(lp483
g69
(g70
g71
NtRp484
(dp485
g74
(dp486
g82
I3
ssg83
g480
sg76
(lp487
S''
asbasbasbag69
(g85
g71
NtRp488
(dp489
g74
(dp490
sg83
g464
sg76
(lp491
g69
(g90
g71
NtRp492
(dp493
g74
(dp494
g94
g95
ssg83
g488
sg76
(lp495
g304
asbag69
(g90
g71
NtRp496
(dp497
g74
(dp498
g101
g102
ssg83
g488
sg76
(lp499
S':'
asbag69
(g90
g71
NtRp500
(dp501
g74
(dp502
sg83
g488
sg76
(lp503
g69
(g70
g71
NtRp504
(dp505
g74
(dp506
g82
I3
ssg83
g500
sg76
(lp507
S''
asbasbasbag69
(g85
g71
NtRp508
(dp509
g74
(dp510
sg83
g464
sg76
(lp511
g69
(g90
g71
NtRp512
(dp513
g74
(dp514
g94
g95
ssg83
g508
sg76
(lp515
g325
asbag69
(g90
g71
NtRp516
(dp517
g74
(dp518
g101
g102
ssg83
g508
sg76
(lp519
S':'
asbag69
(g90
g71
NtRp520
(dp521
g74
(dp522
sg83
g508
sg76
(lp523
g69
(g70
g71
NtRp524
(dp525
g74
(dp526
g82
I3
ssg83
g520
sg76
(lp527
S''
asbasbasbag69
(g85
g71
NtRp528
(dp529
g74
(dp530
sg83
g464
sg76
(lp531
g69
(g90
g71
NtRp532
(dp533
g74
(dp534
g94
g95
ssg83
g528
sg76
(lp535
g346
asbag69
(g90
g71
NtRp536
(dp537
g74
(dp538
g101
g102
ssg83
g528
sg76
(lp539
S':'
asbag69
(g90
g71
NtRp540
(dp541
g74
(dp542
sg83
g528
sg76
(lp543
g69
(g70
g71
NtRp544
(dp545
g74
(dp546
g82
I3
ssg83
g540
sg76
(lp547
S''
asbasbasbag69
(g85
g71
NtRp548
(dp549
g74
(dp550
sg83
g464
sg76
(lp551
g69
(g90
g71
NtRp552
(dp553
g74
(dp554
g94
g95
ssg83
g548
sg76
(lp555
g367
asbag69
(g90
g71
NtRp556
(dp557
g74
(dp558
g101
g102
ssg83
g548
sg76
(lp559
S':'
asbag69
(g90
g71
NtRp560
(dp561
g74
(dp562
sg83
g548
sg76
(lp563
g69
(g70
g71
NtRp564
(dp565
g74
(dp566
g82
I3
ssg83
g560
sg76
(lp567
S''
asbasbasbag69
(g85
g71
NtRp568
(dp569
g74
(dp570
sg83
g464
sg76
(lp571
g69
(g90
g71
NtRp572
(dp573
g74
(dp574
g94
g95
ssg83
g568
sg76
(lp575
g388
asbag69
(g90
g71
NtRp576
(dp577
g74
(dp578
g101
g102
ssg83
g568
sg76
(lp579
S':'
asbag69
(g90
g71
NtRp580
(dp581
g74
(dp582
sg83
g568
sg76
(lp583
g69
(g70
g71
NtRp584
(dp585
g74
(dp586
g82
I3
ssg83
g580
sg76
(lp587
S''
asbasbasbag69
(g85
g71
NtRp588
(dp589
g74
(dp590
sg83
g464
sg76
(lp591
g69
(g90
g71
NtRp592
(dp593
g74
(dp594
g94
g95
ssg83
g588
sg76
(lp595
g409
asbag69
(g90
g71
NtRp596
(dp597
g74
(dp598
g101
g102
ssg83
g588
sg76
(lp599
S':'
asbag69
(g90
g71
NtRp600
(dp601
g74
(dp602
sg83
g588
sg76
(lp603
g69
(g70
g71
NtRp604
(dp605
g74
(dp606
g82
I3
ssg83
g600
sg76
(lp607
S''
asbasbasbag69
(g85
g71
NtRp608
(dp609
g74
(dp610
sg83
g464
sg76
(lp611
g69
(g90
g71
NtRp612
(dp613
g74
(dp614
g94
g95
ssg83
g608
sg76
(lp615
g430
asbag69
(g90
g71
NtRp616
(dp617
g74
(dp618
g101
g102
ssg83
g608
sg76
(lp619
S':'
asbag69
(g90
g71
NtRp620
(dp621
g74
(dp622
sg83
g608
sg76
(lp623
g69
(g70
g71
NtRp624
(dp625
g74
(dp626
g82
I3
ssg83
g620
sg76
(lp627
S''
asbasbasbasbasbasbasbag69
(g85
g71
NtRp628
(dp629
g74
(dp630
sg83
g246
sg76
(lp631
g69
(g90
g71
NtRp632
(dp633
g74
(dp634
g94
g95
ssg83
g628
sg76
(lp635
S'session_id_todolist2'
p636
asbag69
(g90
g71
NtRp637
(dp638
g74
(dp639
g101
g102
ssg83
g628
sg76
(lp640
S':'
asbag69
(g90
g71
NtRp641
(dp642
g74
(dp643
sg83
g628
sg76
(lp644
g69
(g70
g71
NtRp645
(dp646
g74
(dp647
g82
I4
ssg83
g641
sg76
(lp648
g69
(g78
g71
NtRp649
(dp650
g74
(dp651
g82
I3
ssg83
Nsg76
(lp652
g69
(g85
g71
NtRp653
(dp654
g74
(dp655
sg83
g649
sg76
(lp656
g69
(g90
g71
NtRp657
(dp658
g74
(dp659
g94
g95
ssg83
g653
sg76
(lp660
g283
asbag69
(g90
g71
NtRp661
(dp662
g74
(dp663
g101
g102
ssg83
g653
sg76
(lp664
S':'
asbag69
(g90
g71
NtRp665
(dp666
g74
(dp667
sg83
g653
sg76
(lp668
g69
(g70
g71
NtRp669
(dp670
g74
(dp671
g82
I3
ssg83
g665
sg76
(lp672
S''
asbasbasbag69
(g85
g71
NtRp673
(dp674
g74
(dp675
sg83
g649
sg76
(lp676
g69
(g90
g71
NtRp677
(dp678
g74
(dp679
g94
g95
ssg83
g673
sg76
(lp680
g304
asbag69
(g90
g71
NtRp681
(dp682
g74
(dp683
g101
g102
ssg83
g673
sg76
(lp684
S':'
asbag69
(g90
g71
NtRp685
(dp686
g74
(dp687
sg83
g673
sg76
(lp688
g69
(g70
g71
NtRp689
(dp690
g74
(dp691
g82
I3
ssg83
g685
sg76
(lp692
S''
asbasbasbag69
(g85
g71
NtRp693
(dp694
g74
(dp695
sg83
g649
sg76
(lp696
g69
(g90
g71
NtRp697
(dp698
g74
(dp699
g94
g95
ssg83
g693
sg76
(lp700
g325
asbag69
(g90
g71
NtRp701
(dp702
g74
(dp703
g101
g102
ssg83
g693
sg76
(lp704
S':'
asbag69
(g90
g71
NtRp705
(dp706
g74
(dp707
sg83
g693
sg76
(lp708
g69
(g70
g71
NtRp709
(dp710
g74
(dp711
g82
I3
ssg83
g705
sg76
(lp712
S''
asbasbasbag69
(g85
g71
NtRp713
(dp714
g74
(dp715
sg83
g649
sg76
(lp716
g69
(g90
g71
NtRp717
(dp718
g74
(dp719
g94
g95
ssg83
g713
sg76
(lp720
g346
asbag69
(g90
g71
NtRp721
(dp722
g74
(dp723
g101
g102
ssg83
g713
sg76
(lp724
S':'
asbag69
(g90
g71
NtRp725
(dp726
g74
(dp727
sg83
g713
sg76
(lp728
g69
(g70
g71
NtRp729
(dp730
g74
(dp731
g82
I3
ssg83
g725
sg76
(lp732
S''
asbasbasbag69
(g85
g71
NtRp733
(dp734
g74
(dp735
sg83
g649
sg76
(lp736
g69
(g90
g71
NtRp737
(dp738
g74
(dp739
g94
g95
ssg83
g733
sg76
(lp740
g367
asbag69
(g90
g71
NtRp741
(dp742
g74
(dp743
g101
g102
ssg83
g733
sg76
(lp744
S':'
asbag69
(g90
g71
NtRp745
(dp746
g74
(dp747
sg83
g733
sg76
(lp748
g69
(g70
g71
NtRp749
(dp750
g74
(dp751
g82
I3
ssg83
g745
sg76
(lp752
S''
asbasbasbag69
(g85
g71
NtRp753
(dp754
g74
(dp755
sg83
g649
sg76
(lp756
g69
(g90
g71
NtRp757
(dp758
g74
(dp759
g94
g95
ssg83
g753
sg76
(lp760
g388
asbag69
(g90
g71
NtRp761
(dp762
g74
(dp763
g101
g102
ssg83
g753
sg76
(lp764
S':'
asbag69
(g90
g71
NtRp765
(dp766
g74
(dp767
sg83
g753
sg76
(lp768
g69
(g70
g71
NtRp769
(dp770
g74
(dp771
g82
I3
ssg83
g765
sg76
(lp772
S''
asbasbasbag69
(g85
g71
NtRp773
(dp774
g74
(dp775
sg83
g649
sg76
(lp776
g69
(g90
g71
NtRp777
(dp778
g74
(dp779
g94
g95
ssg83
g773
sg76
(lp780
g409
asbag69
(g90
g71
NtRp781
(dp782
g74
(dp783
g101
g102
ssg83
g773
sg76
(lp784
S':'
asbag69
(g90
g71
NtRp785
(dp786
g74
(dp787
sg83
g773
sg76
(lp788
g69
(g70
g71
NtRp789
(dp790
g74
(dp791
g82
I3
ssg83
g785
sg76
(lp792
S''
asbasbasbag69
(g85
g71
NtRp793
(dp794
g74
(dp795
sg83
g649
sg76
(lp796
g69
(g90
g71
NtRp797
(dp798
g74
(dp799
g94
g95
ssg83
g793
sg76
(lp800
g430
asbag69
(g90
g71
NtRp801
(dp802
g74
(dp803
g101
g102
ssg83
g793
sg76
(lp804
S':'
asbag69
(g90
g71
NtRp805
(dp806
g74
(dp807
sg83
g793
sg76
(lp808
g69
(g70
g71
NtRp809
(dp810
g74
(dp811
g82
I3
ssg83
g805
sg76
(lp812
S''
asbasbasbasbasbasbasbag69
(g85
g71
NtRp813
(dp814
g74
(dp815
sg83
g246
sg76
(lp816
g69
(g90
g71
NtRp817
(dp818
g74
(dp819
g94
g95
ssg83
g813
sg76
(lp820
S'session_id_welcome'
p821
asbag69
(g90
g71
NtRp822
(dp823
g74
(dp824
g101
g102
ssg83
g813
sg76
(lp825
S':'
asbag69
(g90
g71
NtRp826
(dp827
g74
(dp828
sg83
g813
sg76
(lp829
g69
(g70
g71
NtRp830
(dp831
g74
(dp832
g82
I4
ssg83
g826
sg76
(lp833
g69
(g78
g71
NtRp834
(dp835
g74
(dp836
g82
I3
ssg83
Nsg76
(lp837
g69
(g85
g71
NtRp838
(dp839
g74
(dp840
sg83
g834
sg76
(lp841
g69
(g90
g71
NtRp842
(dp843
g74
(dp844
g94
g95
ssg83
g838
sg76
(lp845
g283
asbag69
(g90
g71
NtRp846
(dp847
g74
(dp848
g101
g102
ssg83
g838
sg76
(lp849
S':'
asbag69
(g90
g71
NtRp850
(dp851
g74
(dp852
sg83
g838
sg76
(lp853
g69
(g70
g71
NtRp854
(dp855
g74
(dp856
g82
I3
ssg83
g850
sg76
(lp857
S''
asbasbasbag69
(g85
g71
NtRp858
(dp859
g74
(dp860
sg83
g834
sg76
(lp861
g69
(g90
g71
NtRp862
(dp863
g74
(dp864
g94
g95
ssg83
g858
sg76
(lp865
g304
asbag69
(g90
g71
NtRp866
(dp867
g74
(dp868
g101
g102
ssg83
g858
sg76
(lp869
S':'
asbag69
(g90
g71
NtRp870
(dp871
g74
(dp872
sg83
g858
sg76
(lp873
g69
(g70
g71
NtRp874
(dp875
g74
(dp876
g82
I3
ssg83
g870
sg76
(lp877
S''
asbasbasbag69
(g85
g71
NtRp878
(dp879
g74
(dp880
sg83
g834
sg76
(lp881
g69
(g90
g71
NtRp882
(dp883
g74
(dp884
g94
g95
ssg83
g878
sg76
(lp885
g325
asbag69
(g90
g71
NtRp886
(dp887
g74
(dp888
g101
g102
ssg83
g878
sg76
(lp889
S':'
asbag69
(g90
g71
NtRp890
(dp891
g74
(dp892
sg83
g878
sg76
(lp893
g69
(g70
g71
NtRp894
(dp895
g74
(dp896
g82
I3
ssg83
g890
sg76
(lp897
S''
asbasbasbag69
(g85
g71
NtRp898
(dp899
g74
(dp900
sg83
g834
sg76
(lp901
g69
(g90
g71
NtRp902
(dp903
g74
(dp904
g94
g95
ssg83
g898
sg76
(lp905
g346
asbag69
(g90
g71
NtRp906
(dp907
g74
(dp908
g101
g102
ssg83
g898
sg76
(lp909
S':'
asbag69
(g90
g71
NtRp910
(dp911
g74
(dp912
sg83
g898
sg76
(lp913
g69
(g70
g71
NtRp914
(dp915
g74
(dp916
g82
I3
ssg83
g910
sg76
(lp917
S''
asbasbasbag69
(g85
g71
NtRp918
(dp919
g74
(dp920
sg83
g834
sg76
(lp921
g69
(g90
g71
NtRp922
(dp923
g74
(dp924
g94
g95
ssg83
g918
sg76
(lp925
g367
asbag69
(g90
g71
NtRp926
(dp927
g74
(dp928
g101
g102
ssg83
g918
sg76
(lp929
S':'
asbag69
(g90
g71
NtRp930
(dp931
g74
(dp932
sg83
g918
sg76
(lp933
g69
(g70
g71
NtRp934
(dp935
g74
(dp936
g82
I3
ssg83
g930
sg76
(lp937
S''
asbasbasbag69
(g85
g71
NtRp938
(dp939
g74
(dp940
sg83
g834
sg76
(lp941
g69
(g90
g71
NtRp942
(dp943
g74
(dp944
g94
g95
ssg83
g938
sg76
(lp945
g388
asbag69
(g90
g71
NtRp946
(dp947
g74
(dp948
g101
g102
ssg83
g938
sg76
(lp949
S':'
asbag69
(g90
g71
NtRp950
(dp951
g74
(dp952
sg83
g938
sg76
(lp953
g69
(g70
g71
NtRp954
(dp955
g74
(dp956
g82
I3
ssg83
g950
sg76
(lp957
S''
asbasbasbag69
(g85
g71
NtRp958
(dp959
g74
(dp960
sg83
g834
sg76
(lp961
g69
(g90
g71
NtRp962
(dp963
g74
(dp964
g94
g95
ssg83
g958
sg76
(lp965
g409
asbag69
(g90
g71
NtRp966
(dp967
g74
(dp968
g101
g102
ssg83
g958
sg76
(lp969
S':'
asbag69
(g90
g71
NtRp970
(dp971
g74
(dp972
sg83
g958
sg76
(lp973
g69
(g70
g71
NtRp974
(dp975
g74
(dp976
g82
I3
ssg83
g970
sg76
(lp977
S''
asbasbasbag69
(g85
g71
NtRp978
(dp979
g74
(dp980
sg83
g834
sg76
(lp981
g69
(g90
g71
NtRp982
(dp983
g74
(dp984
g94
g95
ssg83
g978
sg76
(lp985
g430
asbag69
(g90
g71
NtRp986
(dp987
g74
(dp988
g101
g102
ssg83
g978
sg76
(lp989
S':'
asbag69
(g90
g71
NtRp990
(dp991
g74
(dp992
sg83
g978
sg76
(lp993
g69
(g70
g71
NtRp994
(dp995
g74
(dp996
g82
I3
ssg83
g990
sg76
(lp997
S''
asbasbasbasbasbasbasbasbasbasbasbag69
(g85
g71
NtRp998
(dp999
g74
(dp1000
sg83
g79
sg76
(lp1001
g69
(g90
g71
NtRp1002
(dp1003
g74
(dp1004
g94
g95
ssg83
g998
sg76
(lp1005
S'env'
p1006
asbag69
(g90
g71
NtRp1007
(dp1008
g74
(dp1009
g101
g102
ssg83
g998
sg76
(lp1010
S':'
asbag69
(g90
g71
NtRp1011
(dp1012
g74
(dp1013
sg83
g998
sg76
(lp1014
g69
(g70
g71
NtRp1015
(dp1016
g74
(dp1017
g82
I5
ssg83
g1011
sg76
(lp1018
g69
(g78
g71
NtRp1019
(dp1020
g74
(dp1021
g82
I4
ssg83
Nsg76
(lp1022
g69
(g85
g71
NtRp1023
(dp1024
g74
(dp1025
sg83
g1019
sg76
(lp1026
g69
(g90
g71
NtRp1027
(dp1028
g74
(dp1029
g94
g95
ssg83
g1023
sg76
(lp1030
S'app_folders'
p1031
asbag69
(g90
g71
NtRp1032
(dp1033
g74
(dp1034
g101
g102
ssg83
g1023
sg76
(lp1035
S':'
asbag69
(g90
g71
NtRp1036
(dp1037
g74
(dp1038
sg83
g1023
sg76
(lp1039
g69
(g70
g71
NtRp1040
(dp1041
g74
(dp1042
g82
I4
ssg83
g1036
sg76
(lp1043
S"set(['/Users/ianaboneva/Dropbox/DePaul/CSC 438 - Web Applications/web2py/applications/ToDoList2/', '/Users/ianaboneva/Dropbox/DePaul/CSC 438 - Web Applications/web2py/applications/welcome/', '/Users/ianaboneva/Dropbox/DePaul/CSC 438 - Web Applications/web2py/applications/admin/', '/Users/ianaboneva/Dropbox/DePaul/CSC 438 - Web Applications/web2py/applications/Book_Shelf_copy/'])"
p1044
asbasbasbag69
(g85
g71
NtRp1045
(dp1046
g74
(dp1047
sg83
g1019
sg76
(lp1048
g69
(g90
g71
NtRp1049
(dp1050
g74
(dp1051
g94
g95
ssg83
g1045
sg76
(lp1052
S'applications_parent'
p1053
asbag69
(g90
g71
NtRp1054
(dp1055
g74
(dp1056
g101
g102
ssg83
g1045
sg76
(lp1057
S':'
asbag69
(g90
g71
NtRp1058
(dp1059
g74
(dp1060
sg83
g1045
sg76
(lp1061
g69
(g70
g71
NtRp1062
(dp1063
g74
(dp1064
g82
I4
ssg83
g1058
sg76
(lp1065
S'/Users/ianaboneva/Dropbox/DePaul/CSC 438 - Web Applications/web2py'
p1066
asbasbasbag69
(g85
g71
NtRp1067
(dp1068
g74
(dp1069
sg83
g1019
sg76
(lp1070
g69
(g90
g71
NtRp1071
(dp1072
g74
(dp1073
g94
g95
ssg83
g1067
sg76
(lp1074
S'cmd_args'
p1075
asbag69
(g90
g71
NtRp1076
(dp1077
g74
(dp1078
g101
g102
ssg83
g1067
sg76
(lp1079
S':'
asbag69
(g90
g71
NtRp1080
(dp1081
g74
(dp1082
sg83
g1067
sg76
(lp1083
g69
(g70
g71
NtRp1084
(dp1085
g74
(dp1086
g82
I4
ssg83
g1080
sg76
(lp1087
g69
(g78
g71
NtRp1088
(dp1089
g74
(dp1090
g82
I3
ssg83
Nsg76
(lp1091
sbasbasbasbag69
(g85
g71
NtRp1092
(dp1093
g74
(dp1094
sg83
g1019
sg76
(lp1095
g69
(g90
g71
NtRp1096
(dp1097
g74
(dp1098
g94
g95
ssg83
g1092
sg76
(lp1099
S'cmd_options'
p1100
asbag69
(g90
g71
NtRp1101
(dp1102
g74
(dp1103
g101
g102
ssg83
g1092
sg76
(lp1104
S':'
asbag69
(g90
g71
NtRp1105
(dp1106
g74
(dp1107
sg83
g1092
sg76
(lp1108
g69
(g70
g71
NtRp1109
(dp1110
g74
(dp1111
g82
I4
ssg83
g1105
sg76
(lp1112
S"<Values at 0x104fc1b00: {'verbose': False, 'ip': '127.0.0.1', 'shutdown_timeout': 5, 'taskbar': False, 'nocron': False, 'pid_filename': 'httpserver.pid', 'maxthreads': None, 'softcron': False, 'server_name': 'Iana-Bonevas-MacBook-Pro.local', 'bpython': False, 'nogui': False, 'port': 8000, 'extcron': False, 'debuglevel': 30, 'test': None, 'folder': '/Users/ianaboneva/Dropbox/DePaul/CSC 438 - Web Applications/web2py', 'config': '', 'import_models': False, 'winservice': '', 'shell': None, 'run': '', 'log_filename': 'httpserver.log', 'args': [''], 'socket_timeout': 5, 'ssl_ca_certificate': None, 'scheduler': None, 'profiler_filename': None, 'ssl_private_key': '', 'password': '<ask>', 'request_queue_size': 5, 'ssl_certificate': '', 'cronjob': False, 'numthreads': None, 'quiet': False, 'interfaces': None, 'minthreads': None, 'timeout': 10, 'plain': False, 'nobanner': False}>"
p1113
asbasbasbag69
(g85
g71
NtRp1114
(dp1115
g74
(dp1116
sg83
g1019
sg76
(lp1117
g69
(g90
g71
NtRp1118
(dp1119
g74
(dp1120
g94
g95
ssg83
g1114
sg76
(lp1121
S'db_sessions'
p1122
asbag69
(g90
g71
NtRp1123
(dp1124
g74
(dp1125
g101
g102
ssg83
g1114
sg76
(lp1126
S':'
asbag69
(g90
g71
NtRp1127
(dp1128
g74
(dp1129
sg83
g1114
sg76
(lp1130
g69
(g70
g71
NtRp1131
(dp1132
g74
(dp1133
g82
I4
ssg83
g1127
sg76
(lp1134
S'set([])'
p1135
asbasbasbag69
(g85
g71
NtRp1136
(dp1137
g74
(dp1138
sg83
g1019
sg76
(lp1139
g69
(g90
g71
NtRp1140
(dp1141
g74
(dp1142
g94
g95
ssg83
g1136
sg76
(lp1143
S'debugging'
p1144
asbag69
(g90
g71
NtRp1145
(dp1146
g74
(dp1147
g101
g102
ssg83
g1136
sg76
(lp1148
S':'
asbag69
(g90
g71
NtRp1149
(dp1150
g74
(dp1151
sg83
g1136
sg76
(lp1152
g69
(g70
g71
NtRp1153
(dp1154
g74
(dp1155
g82
I4
ssg83
g1149
sg76
(lp1156
g112
asbasbasbag69
(g85
g71
NtRp1157
(dp1158
g74
(dp1159
sg83
g1019
sg76
(lp1160
g69
(g90
g71
NtRp1161
(dp1162
g74
(dp1163
g94
g95
ssg83
g1157
sg76
(lp1164
S'gluon_parent'
p1165
asbag69
(g90
g71
NtRp1166
(dp1167
g74
(dp1168
g101
g102
ssg83
g1157
sg76
(lp1169
S':'
asbag69
(g90
g71
NtRp1170
(dp1171
g74
(dp1172
sg83
g1157
sg76
(lp1173
g69
(g70
g71
NtRp1174
(dp1175
g74
(dp1176
g82
I4
ssg83
g1170
sg76
(lp1177
S'/Users/ianaboneva/Dropbox/DePaul/CSC 438 - Web Applications/web2py'
p1178
asbasbasbag69
(g85
g71
NtRp1179
(dp1180
g74
(dp1181
sg83
g1019
sg76
(lp1182
g69
(g90
g71
NtRp1183
(dp1184
g74
(dp1185
g94
g95
ssg83
g1179
sg76
(lp1186
S'http_accept'
p1187
asbag69
(g90
g71
NtRp1188
(dp1189
g74
(dp1190
g101
g102
ssg83
g1179
sg76
(lp1191
S':'
asbag69
(g90
g71
NtRp1192
(dp1193
g74
(dp1194
sg83
g1179
sg76
(lp1195
g69
(g70
g71
NtRp1196
(dp1197
g74
(dp1198
g82
I4
ssg83
g1192
sg76
(lp1199
S'text/html,application/xhtml+xml,application/xml;q=0.9,*/*;q=0.8'
p1200
asbasbasbag69
(g85
g71
NtRp1201
(dp1202
g74
(dp1203
sg83
g1019
sg76
(lp1204
g69
(g90
g71
NtRp1205
(dp1206
g74
(dp1207
g94
g95
ssg83
g1201
sg76
(lp1208
S'http_accept_charset'
p1209
asbag69
(g90
g71
NtRp1210
(dp1211
g74
(dp1212
g101
g102
ssg83
g1201
sg76
(lp1213
S':'
asbag69
(g90
g71
NtRp1214
(dp1215
g74
(dp1216
sg83
g1201
sg76
(lp1217
g69
(g70
g71
NtRp1218
(dp1219
g74
(dp1220
g82
I4
ssg83
g1214
sg76
(lp1221
S'ISO-8859-1,utf-8;q=0.7,*;q=0.3'
p1222
asbasbasbag69
(g85
g71
NtRp1223
(dp1224
g74
(dp1225
sg83
g1019
sg76
(lp1226
g69
(g90
g71
NtRp1227
(dp1228
g74
(dp1229
g94
g95
ssg83
g1223
sg76
(lp1230
S'http_accept_encoding'
p1231
asbag69
(g90
g71
NtRp1232
(dp1233
g74
(dp1234
g101
g102
ssg83
g1223
sg76
(lp1235
S':'
asbag69
(g90
g71
NtRp1236
(dp1237
g74
(dp1238
sg83
g1223
sg76
(lp1239
g69
(g70
g71
NtRp1240
(dp1241
g74
(dp1242
g82
I4
ssg83
g1236
sg76
(lp1243
S'gzip,deflate,sdch'
p1244
asbasbasbag69
(g85
g71
NtRp1245
(dp1246
g74
(dp1247
sg83
g1019
sg76
(lp1248
g69
(g90
g71
NtRp1249
(dp1250
g74
(dp1251
g94
g95
ssg83
g1245
sg76
(lp1252
S'http_accept_language'
p1253
asbag69
(g90
g71
NtRp1254
(dp1255
g74
(dp1256
g101
g102
ssg83
g1245
sg76
(lp1257
S':'
asbag69
(g90
g71
NtRp1258
(dp1259
g74
(dp1260
sg83
g1245
sg76
(lp1261
g69
(g70
g71
NtRp1262
(dp1263
g74
(dp1264
g82
I4
ssg83
g1258
sg76
(lp1265
S'en-US,en;q=0.8'
p1266
asbasbasbag69
(g85
g71
NtRp1267
(dp1268
g74
(dp1269
sg83
g1019
sg76
(lp1270
g69
(g90
g71
NtRp1271
(dp1272
g74
(dp1273
g94
g95
ssg83
g1267
sg76
(lp1274
S'http_cache_control'
p1275
asbag69
(g90
g71
NtRp1276
(dp1277
g74
(dp1278
g101
g102
ssg83
g1267
sg76
(lp1279
S':'
asbag69
(g90
g71
NtRp1280
(dp1281
g74
(dp1282
sg83
g1267
sg76
(lp1283
g69
(g70
g71
NtRp1284
(dp1285
g74
(dp1286
g82
I4
ssg83
g1280
sg76
(lp1287
S'max-age=0'
p1288
asbasbasbag69
(g85
g71
NtRp1289
(dp1290
g74
(dp1291
sg83
g1019
sg76
(lp1292
g69
(g90
g71
NtRp1293
(dp1294
g74
(dp1295
g94
g95
ssg83
g1289
sg76
(lp1296
S'http_connection'
p1297
asbag69
(g90
g71
NtRp1298
(dp1299
g74
(dp1300
g101
g102
ssg83
g1289
sg76
(lp1301
S':'
asbag69
(g90
g71
NtRp1302
(dp1303
g74
(dp1304
sg83
g1289
sg76
(lp1305
g69
(g70
g71
NtRp1306
(dp1307
g74
(dp1308
g82
I4
ssg83
g1302
sg76
(lp1309
S'keep-alive'
p1310
asbasbasbag69
(g85
g71
NtRp1311
(dp1312
g74
(dp1313
sg83
g1019
sg76
(lp1314
g69
(g90
g71
NtRp1315
(dp1316
g74
(dp1317
g94
g95
ssg83
g1311
sg76
(lp1318
S'http_cookie'
p1319
asbag69
(g90
g71
NtRp1320
(dp1321
g74
(dp1322
g101
g102
ssg83
g1311
sg76
(lp1323
S':'
asbag69
(g90
g71
NtRp1324
(dp1325
g74
(dp1326
sg83
g1311
sg76
(lp1327
g69
(g70
g71
NtRp1328
(dp1329
g74
(dp1330
g82
I4
ssg83
g1324
sg76
(lp1331
S'session_id_welcome=127.0.0.1-bffe8a2c-7cac-4fda-8379-2a112ae00c58; session_id_admin=127.0.0.1-4c04cc91-8b55-4bcd-8835-a51019000e30; session_id_todolist2=127.0.0.1-477221c7-510b-4aa7-b5d2-77bae14bca92; session_id_book_shelf_copy=127.0.0.1-eeba29a1-713d-4626-a1ad-4627ea1d2e7a'
p1332
asbasbasbag69
(g85
g71
NtRp1333
(dp1334
g74
(dp1335
sg83
g1019
sg76
(lp1336
g69
(g90
g71
NtRp1337
(dp1338
g74
(dp1339
g94
g95
ssg83
g1333
sg76
(lp1340
S'http_host'
p1341
asbag69
(g90
g71
NtRp1342
(dp1343
g74
(dp1344
g101
g102
ssg83
g1333
sg76
(lp1345
S':'
asbag69
(g90
g71
NtRp1346
(dp1347
g74
(dp1348
sg83
g1333
sg76
(lp1349
g69
(g70
g71
NtRp1350
(dp1351
g74
(dp1352
g82
I4
ssg83
g1346
sg76
(lp1353
S'127.0.0.1:8000'
p1354
asbasbasbag69
(g85
g71
NtRp1355
(dp1356
g74
(dp1357
sg83
g1019
sg76
(lp1358
g69
(g90
g71
NtRp1359
(dp1360
g74
(dp1361
g94
g95
ssg83
g1355
sg76
(lp1362
S'http_referer'
p1363
asbag69
(g90
g71
NtRp1364
(dp1365
g74
(dp1366
g101
g102
ssg83
g1355
sg76
(lp1367
S':'
asbag69
(g90
g71
NtRp1368
(dp1369
g74
(dp1370
sg83
g1355
sg76
(lp1371
g69
(g70
g71
NtRp1372
(dp1373
g74
(dp1374
g82
I4
ssg83
g1368
sg76
(lp1375
S'http://127.0.0.1:8000/Book_Shelf_copy/default/book_profile/2'
p1376
asbasbasbag69
(g85
g71
NtRp1377
(dp1378
g74
(dp1379
sg83
g1019
sg76
(lp1380
g69
(g90
g71
NtRp1381
(dp1382
g74
(dp1383
g94
g95
ssg83
g1377
sg76
(lp1384
S'http_user_agent'
p1385
asbag69
(g90
g71
NtRp1386
(dp1387
g74
(dp1388
g101
g102
ssg83
g1377
sg76
(lp1389
S':'
asbag69
(g90
g71
NtRp1390
(dp1391
g74
(dp1392
sg83
g1377
sg76
(lp1393
g69
(g70
g71
NtRp1394
(dp1395
g74
(dp1396
g82
I4
ssg83
g1390
sg76
(lp1397
S'Mozilla/5.0 (Macintosh; Intel Mac OS X 10_7_4) AppleWebKit/536.5 (KHTML, like Gecko) Chrome/19.0.1084.53 Safari/536.5'
p1398
asbasbasbag69
(g85
g71
NtRp1399
(dp1400
g74
(dp1401
sg83
g1019
sg76
(lp1402
g69
(g90
g71
NtRp1403
(dp1404
g74
(dp1405
g94
g95
ssg83
g1399
sg76
(lp1406
S'is_jython'
p1407
asbag69
(g90
g71
NtRp1408
(dp1409
g74
(dp1410
g101
g102
ssg83
g1399
sg76
(lp1411
S':'
asbag69
(g90
g71
NtRp1412
(dp1413
g74
(dp1414
sg83
g1399
sg76
(lp1415
g69
(g70
g71
NtRp1416
(dp1417
g74
(dp1418
g82
I4
ssg83
g1412
sg76
(lp1419
g112
asbasbasbag69
(g85
g71
NtRp1420
(dp1421
g74
(dp1422
sg83
g1019
sg76
(lp1423
g69
(g90
g71
NtRp1424
(dp1425
g74
(dp1426
g94
g95
ssg83
g1420
sg76
(lp1427
S'is_pypy'
p1428
asbag69
(g90
g71
NtRp1429
(dp1430
g74
(dp1431
g101
g102
ssg83
g1420
sg76
(lp1432
S':'
asbag69
(g90
g71
NtRp1433
(dp1434
g74
(dp1435
sg83
g1420
sg76
(lp1436
g69
(g70
g71
NtRp1437
(dp1438
g74
(dp1439
g82
I4
ssg83
g1433
sg76
(lp1440
g112
asbasbasbag69
(g85
g71
NtRp1441
(dp1442
g74
(dp1443
sg83
g1019
sg76
(lp1444
g69
(g90
g71
NtRp1445
(dp1446
g74
(dp1447
g94
g95
ssg83
g1441
sg76
(lp1448
S'path_info'
p1449
asbag69
(g90
g71
NtRp1450
(dp1451
g74
(dp1452
g101
g102
ssg83
g1441
sg76
(lp1453
S':'
asbag69
(g90
g71
NtRp1454
(dp1455
g74
(dp1456
sg83
g1441
sg76
(lp1457
g69
(g70
g71
NtRp1458
(dp1459
g74
(dp1460
g82
I4
ssg83
g1454
sg76
(lp1461
S'/Book_Shelf_copy/default/index'
p1462
asbasbasbag69
(g85
g71
NtRp1463
(dp1464
g74
(dp1465
sg83
g1019
sg76
(lp1466
g69
(g90
g71
NtRp1467
(dp1468
g74
(dp1469
g94
g95
ssg83
g1463
sg76
(lp1470
S'query_string'
p1471
asbag69
(g90
g71
NtRp1472
(dp1473
g74
(dp1474
g101
g102
ssg83
g1463
sg76
(lp1475
S':'
asbag69
(g90
g71
NtRp1476
(dp1477
g74
(dp1478
sg83
g1463
sg76
(lp1479
g69
(g70
g71
NtRp1480
(dp1481
g74
(dp1482
g82
I4
ssg83
g1476
sg76
(lp1483
S''
asbasbasbag69
(g85
g71
NtRp1484
(dp1485
g74
(dp1486
sg83
g1019
sg76
(lp1487
g69
(g90
g71
NtRp1488
(dp1489
g74
(dp1490
g94
g95
ssg83
g1484
sg76
(lp1491
S'remote_addr'
p1492
asbag69
(g90
g71
NtRp1493
(dp1494
g74
(dp1495
g101
g102
ssg83
g1484
sg76
(lp1496
S':'
asbag69
(g90
g71
NtRp1497
(dp1498
g74
(dp1499
sg83
g1484
sg76
(lp1500
g69
(g70
g71
NtRp1501
(dp1502
g74
(dp1503
g82
I4
ssg83
g1497
sg76
(lp1504
g202
asbasbasbag69
(g85
g71
NtRp1505
(dp1506
g74
(dp1507
sg83
g1019
sg76
(lp1508
g69
(g90
g71
NtRp1509
(dp1510
g74
(dp1511
g94
g95
ssg83
g1505
sg76
(lp1512
S'remote_port'
p1513
asbag69
(g90
g71
NtRp1514
(dp1515
g74
(dp1516
g101
g102
ssg83
g1505
sg76
(lp1517
S':'
asbag69
(g90
g71
NtRp1518
(dp1519
g74
(dp1520
sg83
g1505
sg76
(lp1521
g69
(g70
g71
NtRp1522
(dp1523
g74
(dp1524
g82
I4
ssg83
g1518
sg76
(lp1525
S'53895'
p1526
asbasbasbag69
(g85
g71
NtRp1527
(dp1528
g74
(dp1529
sg83
g1019
sg76
(lp1530
g69
(g90
g71
NtRp1531
(dp1532
g74
(dp1533
g94
g95
ssg83
g1527
sg76
(lp1534
S'request_method'
p1535
asbag69
(g90
g71
NtRp1536
(dp1537
g74
(dp1538
g101
g102
ssg83
g1527
sg76
(lp1539
S':'
asbag69
(g90
g71
NtRp1540
(dp1541
g74
(dp1542
sg83
g1527
sg76
(lp1543
g69
(g70
g71
NtRp1544
(dp1545
g74
(dp1546
g82
I4
ssg83
g1540
sg76
(lp1547
S'GET'
p1548
asbasbasbag69
(g85
g71
NtRp1549
(dp1550
g74
(dp1551
sg83
g1019
sg76
(lp1552
g69
(g90
g71
NtRp1553
(dp1554
g74
(dp1555
g94
g95
ssg83
g1549
sg76
(lp1556
S'script_name'
p1557
asbag69
(g90
g71
NtRp1558
(dp1559
g74
(dp1560
g101
g102
ssg83
g1549
sg76
(lp1561
S':'
asbag69
(g90
g71
NtRp1562
(dp1563
g74
(dp1564
sg83
g1549
sg76
(lp1565
g69
(g70
g71
NtRp1566
(dp1567
g74
(dp1568
g82
I4
ssg83
g1562
sg76
(lp1569
S''
asbasbasbag69
(g85
g71
NtRp1570
(dp1571
g74
(dp1572
sg83
g1019
sg76
(lp1573
g69
(g90
g71
NtRp1574
(dp1575
g74
(dp1576
g94
g95
ssg83
g1570
sg76
(lp1577
S'server_name'
p1578
asbag69
(g90
g71
NtRp1579
(dp1580
g74
(dp1581
g101
g102
ssg83
g1570
sg76
(lp1582
S':'
asbag69
(g90
g71
NtRp1583
(dp1584
g74
(dp1585
sg83
g1570
sg76
(lp1586
g69
(g70
g71
NtRp1587
(dp1588
g74
(dp1589
g82
I4
ssg83
g1583
sg76
(lp1590
S'Iana-Bonevas-MacBook-Pro.local'
p1591
asbasbasbag69
(g85
g71
NtRp1592
(dp1593
g74
(dp1594
sg83
g1019
sg76
(lp1595
g69
(g90
g71
NtRp1596
(dp1597
g74
(dp1598
g94
g95
ssg83
g1592
sg76
(lp1599
S'server_port'
p1600
asbag69
(g90
g71
NtRp1601
(dp1602
g74
(dp1603
g101
g102
ssg83
g1592
sg76
(lp1604
S':'
asbag69
(g90
g71
NtRp1605
(dp1606
g74
(dp1607
sg83
g1592
sg76
(lp1608
g69
(g70
g71
NtRp1609
(dp1610
g74
(dp1611
g82
I4
ssg83
g1605
sg76
(lp1612
S'8000'
p1613
asbasbasbag69
(g85
g71
NtRp1614
(dp1615
g74
(dp1616
sg83
g1019
sg76
(lp1617
g69
(g90
g71
NtRp1618
(dp1619
g74
(dp1620
g94
g95
ssg83
g1614
sg76
(lp1621
S'server_protocol'
p1622
asbag69
(g90
g71
NtRp1623
(dp1624
g74
(dp1625
g101
g102
ssg83
g1614
sg76
(lp1626
S':'
asbag69
(g90
g71
NtRp1627
(dp1628
g74
(dp1629
sg83
g1614
sg76
(lp1630
g69
(g70
g71
NtRp1631
(dp1632
g74
(dp1633
g82
I4
ssg83
g1627
sg76
(lp1634
S'HTTP/1.1'
p1635
asbasbasbag69
(g85
g71
NtRp1636
(dp1637
g74
(dp1638
sg83
g1019
sg76
(lp1639
g69
(g90
g71
NtRp1640
(dp1641
g74
(dp1642
g94
g95
ssg83
g1636
sg76
(lp1643
S'server_software'
p1644
asbag69
(g90
g71
NtRp1645
(dp1646
g74
(dp1647
g101
g102
ssg83
g1636
sg76
(lp1648
S':'
asbag69
(g90
g71
NtRp1649
(dp1650
g74
(dp1651
sg83
g1636
sg76
(lp1652
g69
(g70
g71
NtRp1653
(dp1654
g74
(dp1655
g82
I4
ssg83
g1649
sg76
(lp1656
S'Rocket 1.2.4'
p1657
asbasbasbag69
(g85
g71
NtRp1658
(dp1659
g74
(dp1660
sg83
g1019
sg76
(lp1661
g69
(g90
g71
NtRp1662
(dp1663
g74
(dp1664
g94
g95
ssg83
g1658
sg76
(lp1665
S'web2py_crontype'
p1666
asbag69
(g90
g71
NtRp1667
(dp1668
g74
(dp1669
g101
g102
ssg83
g1658
sg76
(lp1670
S':'
asbag69
(g90
g71
NtRp1671
(dp1672
g74
(dp1673
sg83
g1658
sg76
(lp1674
g69
(g70
g71
NtRp1675
(dp1676
g74
(dp1677
g82
I4
ssg83
g1671
sg76
(lp1678
S'hard'
p1679
asbasbasbag69
(g85
g71
NtRp1680
(dp1681
g74
(dp1682
sg83
g1019
sg76
(lp1683
g69
(g90
g71
NtRp1684
(dp1685
g74
(dp1686
g94
g95
ssg83
g1680
sg76
(lp1687
S'web2py_path'
p1688
asbag69
(g90
g71
NtRp1689
(dp1690
g74
(dp1691
g101
g102
ssg83
g1680
sg76
(lp1692
S':'
asbag69
(g90
g71
NtRp1693
(dp1694
g74
(dp1695
sg83
g1680
sg76
(lp1696
g69
(g70
g71
NtRp1697
(dp1698
g74
(dp1699
g82
I4
ssg83
g1693
sg76
(lp1700
g1066
asbasbasbag69
(g85
g71
NtRp1701
(dp1702
g74
(dp1703
sg83
g1019
sg76
(lp1704
g69
(g90
g71
NtRp1705
(dp1706
g74
(dp1707
g94
g95
ssg83
g1701
sg76
(lp1708
S'web2py_version'
p1709
asbag69
(g90
g71
NtRp1710
(dp1711
g74
(dp1712
g101
g102
ssg83
g1701
sg76
(lp1713
S':'
asbag69
(g90
g71
NtRp1714
(dp1715
g74
(dp1716
sg83
g1701
sg76
(lp1717
g69
(g70
g71
NtRp1718
(dp1719
g74
(dp1720
g82
I4
ssg83
g1714
sg76
(lp1721
g69
(g78
g71
NtRp1722
(dp1723
g74
(dp1724
g82
I3
ssg83
Nsg76
(lp1725
g69
(g85
g71
NtRp1726
(dp1727
g74
(dp1728
sg83
g1722
sg76
(lp1729
g69
(g90
g71
NtRp1730
(dp1731
g74
(dp1732
sg83
g1726
sg76
(lp1733
g69
(g70
g71
NtRp1734
(dp1735
g74
(dp1736
g82
I3
ssg83
g1730
sg76
(lp1737
S'1'
asbasbasbag69
(g85
g71
NtRp1738
(dp1739
g74
(dp1740
sg83
g1722
sg76
(lp1741
g69
(g90
g71
NtRp1742
(dp1743
g74
(dp1744
sg83
g1738
sg76
(lp1745
g69
(g70
g71
NtRp1746
(dp1747
g74
(dp1748
g82
I3
ssg83
g1742
sg76
(lp1749
S'99'
p1750
asbasbasbag69
(g85
g71
NtRp1751
(dp1752
g74
(dp1753
sg83
g1722
sg76
(lp1754
g69
(g90
g71
NtRp1755
(dp1756
g74
(dp1757
sg83
g1751
sg76
(lp1758
g69
(g70
g71
NtRp1759
(dp1760
g74
(dp1761
g82
I3
ssg83
g1755
sg76
(lp1762
S'7'
asbasbasbag69
(g85
g71
NtRp1763
(dp1764
g74
(dp1765
sg83
g1722
sg76
(lp1766
g69
(g90
g71
NtRp1767
(dp1768
g74
(dp1769
sg83
g1763
sg76
(lp1770
g69
(g70
g71
NtRp1771
(dp1772
g74
(dp1773
g82
I3
ssg83
g1767
sg76
(lp1774
S'datetime.datetime(2012, 3, 4, 22, 12, 8)'
p1775
asbasbasbag69
(g85
g71
NtRp1776
(dp1777
g74
(dp1778
sg83
g1722
sg76
(lp1779
g69
(g90
g71
NtRp1780
(dp1781
g74
(dp1782
sg83
g1776
sg76
(lp1783
g69
(g70
g71
NtRp1784
(dp1785
g74
(dp1786
g82
I3
ssg83
g1780
sg76
(lp1787
S'stable'
p1788
asbasbasbasbasbasbasbag69
(g85
g71
NtRp1789
(dp1790
g74
(dp1791
sg83
g1019
sg76
(lp1792
g69
(g90
g71
NtRp1793
(dp1794
g74
(dp1795
g94
g95
ssg83
g1789
sg76
(lp1796
S'wsgi_errors'
p1797
asbag69
(g90
g71
NtRp1798
(dp1799
g74
(dp1800
g101
g102
ssg83
g1789
sg76
(lp1801
S':'
asbag69
(g90
g71
NtRp1802
(dp1803
g74
(dp1804
sg83
g1789
sg76
(lp1805
g69
(g70
g71
NtRp1806
(dp1807
g74
(dp1808
g82
I4
ssg83
g1802
sg76
(lp1809
S"<open file '<stderr>', mode 'w' at 0x104484270>"
p1810
asbasbasbag69
(g85
g71
NtRp1811
(dp1812
g74
(dp1813
sg83
g1019
sg76
(lp1814
g69
(g90
g71
NtRp1815
(dp1816
g74
(dp1817
g94
g95
ssg83
g1811
sg76
(lp1818
S'wsgi_file_wrapper'
p1819
asbag69
(g90
g71
NtRp1820
(dp1821
g74
(dp1822
g101
g102
ssg83
g1811
sg76
(lp1823
S':'
asbag69
(g90
g71
NtRp1824
(dp1825
g74
(dp1826
sg83
g1811
sg76
(lp1827
g69
(g70
g71
NtRp1828
(dp1829
g74
(dp1830
g82
I4
ssg83
g1824
sg76
(lp1831
S'<class wsgiref.util.FileWrapper at 0x104ebdf58>'
p1832
asbasbasbag69
(g85
g71
NtRp1833
(dp1834
g74
(dp1835
sg83
g1019
sg76
(lp1836
g69
(g90
g71
NtRp1837
(dp1838
g74
(dp1839
g94
g95
ssg83
g1833
sg76
(lp1840
S'wsgi_input'
p1841
asbag69
(g90
g71
NtRp1842
(dp1843
g74
(dp1844
g101
g102
ssg83
g1833
sg76
(lp1845
S':'
asbag69
(g90
g71
NtRp1846
(dp1847
g74
(dp1848
sg83
g1833
sg76
(lp1849
g69
(g70
g71
NtRp1850
(dp1851
g74
(dp1852
g82
I4
ssg83
g1846
sg76
(lp1853
S'<socket._fileobject object at 0x109f82c50>'
p1854
asbasbasbag69
(g85
g71
NtRp1855
(dp1856
g74
(dp1857
sg83
g1019
sg76
(lp1858
g69
(g90
g71
NtRp1859
(dp1860
g74
(dp1861
g94
g95
ssg83
g1855
sg76
(lp1862
S'wsgi_multiprocess'
p1863
asbag69
(g90
g71
NtRp1864
(dp1865
g74
(dp1866
g101
g102
ssg83
g1855
sg76
(lp1867
S':'
asbag69
(g90
g71
NtRp1868
(dp1869
g74
(dp1870
sg83
g1855
sg76
(lp1871
g69
(g70
g71
NtRp1872
(dp1873
g74
(dp1874
g82
I4
ssg83
g1868
sg76
(lp1875
g112
asbasbasbag69
(g85
g71
NtRp1876
(dp1877
g74
(dp1878
sg83
g1019
sg76
(lp1879
g69
(g90
g71
NtRp1880
(dp1881
g74
(dp1882
g94
g95
ssg83
g1876
sg76
(lp1883
S'wsgi_multithread'
p1884
asbag69
(g90
g71
NtRp1885
(dp1886
g74
(dp1887
g101
g102
ssg83
g1876
sg76
(lp1888
S':'
asbag69
(g90
g71
NtRp1889
(dp1890
g74
(dp1891
sg83
g1876
sg76
(lp1892
g69
(g70
g71
NtRp1893
(dp1894
g74
(dp1895
g82
I4
ssg83
g1889
sg76
(lp1896
S'True'
p1897
asbasbasbag69
(g85
g71
NtRp1898
(dp1899
g74
(dp1900
sg83
g1019
sg76
(lp1901
g69
(g90
g71
NtRp1902
(dp1903
g74
(dp1904
g94
g95
ssg83
g1898
sg76
(lp1905
S'wsgi_run_once'
p1906
asbag69
(g90
g71
NtRp1907
(dp1908
g74
(dp1909
g101
g102
ssg83
g1898
sg76
(lp1910
S':'
asbag69
(g90
g71
NtRp1911
(dp1912
g74
(dp1913
sg83
g1898
sg76
(lp1914
g69
(g70
g71
NtRp1915
(dp1916
g74
(dp1917
g82
I4
ssg83
g1911
sg76
(lp1918
g112
asbasbasbag69
(g85
g71
NtRp1919
(dp1920
g74
(dp1921
sg83
g1019
sg76
(lp1922
g69
(g90
g71
NtRp1923
(dp1924
g74
(dp1925
g94
g95
ssg83
g1919
sg76
(lp1926
S'wsgi_url_scheme'
p1927
asbag69
(g90
g71
NtRp1928
(dp1929
g74
(dp1930
g101
g102
ssg83
g1919
sg76
(lp1931
S':'
asbag69
(g90
g71
NtRp1932
(dp1933
g74
(dp1934
sg83
g1919
sg76
(lp1935
g69
(g70
g71
NtRp1936
(dp1937
g74
(dp1938
g82
I4
ssg83
g1932
sg76
(lp1939
S'http'
p1940
asbasbasbag69
(g85
g71
NtRp1941
(dp1942
g74
(dp1943
sg83
g1019
sg76
(lp1944
g69
(g90
g71
NtRp1945
(dp1946
g74
(dp1947
g94
g95
ssg83
g1941
sg76
(lp1948
S'wsgi_version'
p1949
asbag69
(g90
g71
NtRp1950
(dp1951
g74
(dp1952
g101
g102
ssg83
g1941
sg76
(lp1953
S':'
asbag69
(g90
g71
NtRp1954
(dp1955
g74
(dp1956
sg83
g1941
sg76
(lp1957
g69
(g70
g71
NtRp1958
(dp1959
g74
(dp1960
g82
I4
ssg83
g1954
sg76
(lp1961
g69
(g78
g71
NtRp1962
(dp1963
g74
(dp1964
g82
I3
ssg83
Nsg76
(lp1965
g69
(g85
g71
NtRp1966
(dp1967
g74
(dp1968
sg83
g1962
sg76
(lp1969
g69
(g90
g71
NtRp1970
(dp1971
g74
(dp1972
sg83
g1966
sg76
(lp1973
g69
(g70
g71
NtRp1974
(dp1975
g74
(dp1976
g82
I3
ssg83
g1970
sg76
(lp1977
S'1'
asbasbasbag69
(g85
g71
NtRp1978
(dp1979
g74
(dp1980
sg83
g1962
sg76
(lp1981
g69
(g90
g71
NtRp1982
(dp1983
g74
(dp1984
sg83
g1978
sg76
(lp1985
g69
(g70
g71
NtRp1986
(dp1987
g74
(dp1988
g82
I3
ssg83
g1982
sg76
(lp1989
S'0'
asbasbasbasbasbasbasbasbasbasbasbag69
(g85
g71
NtRp1990
(dp1991
g74
(dp1992
sg83
g79
sg76
(lp1993
g69
(g90
g71
NtRp1994
(dp1995
g74
(dp1996
g94
g95
ssg83
g1990
sg76
(lp1997
S'extension'
p1998
asbag69
(g90
g71
NtRp1999
(dp2000
g74
(dp2001
g101
g102
ssg83
g1990
sg76
(lp2002
S':'
asbag69
(g90
g71
NtRp2003
(dp2004
g74
(dp2005
sg83
g1990
sg76
(lp2006
g69
(g70
g71
NtRp2007
(dp2008
g74
(dp2009
g82
I5
ssg83
g2003
sg76
(lp2010
S'html'
p2011
asbasbasbag69
(g85
g71
NtRp2012
(dp2013
g74
(dp2014
sg83
g79
sg76
(lp2015
g69
(g90
g71
NtRp2016
(dp2017
g74
(dp2018
g94
g95
ssg83
g2012
sg76
(lp2019
S'folder'
p2020
asbag69
(g90
g71
NtRp2021
(dp2022
g74
(dp2023
g101
g102
ssg83
g2012
sg76
(lp2024
S':'
asbag69
(g90
g71
NtRp2025
(dp2026
g74
(dp2027
sg83
g2012
sg76
(lp2028
g69
(g70
g71
NtRp2029
(dp2030
g74
(dp2031
g82
I5
ssg83
g2025
sg76
(lp2032
S'/Users/ianaboneva/Dropbox/DePaul/CSC 438 - Web Applications/web2py/applications/Book_Shelf_copy/'
p2033
asbasbasbag69
(g85
g71
NtRp2034
(dp2035
g74
(dp2036
sg83
g79
sg76
(lp2037
g69
(g90
g71
NtRp2038
(dp2039
g74
(dp2040
g94
g95
ssg83
g2034
sg76
(lp2041
S'function'
p2042
asbag69
(g90
g71
NtRp2043
(dp2044
g74
(dp2045
g101
g102
ssg83
g2034
sg76
(lp2046
S':'
asbag69
(g90
g71
NtRp2047
(dp2048
g74
(dp2049
sg83
g2034
sg76
(lp2050
g69
(g70
g71
NtRp2051
(dp2052
g74
(dp2053
g82
I5
ssg83
g2047
sg76
(lp2054
S'index'
p2055
asbasbasbag69
(g85
g71
NtRp2056
(dp2057
g74
(dp2058
sg83
g79
sg76
(lp2059
g69
(g90
g71
NtRp2060
(dp2061
g74
(dp2062
g94
g95
ssg83
g2056
sg76
(lp2063
S'get_vars'
p2064
asbag69
(g90
g71
NtRp2065
(dp2066
g74
(dp2067
g101
g102
ssg83
g2056
sg76
(lp2068
S':'
asbag69
(g90
g71
NtRp2069
(dp2070
g74
(dp2071
sg83
g2056
sg76
(lp2072
g69
(g70
g71
NtRp2073
(dp2074
g74
(dp2075
g82
I5
ssg83
g2069
sg76
(lp2076
g69
(g78
g71
NtRp2077
(dp2078
g74
(dp2079
g82
I4
ssg83
Nsg76
(lp2080
sbasbasbasbag69
(g85
g71
NtRp2081
(dp2082
g74
(dp2083
sg83
g79
sg76
(lp2084
g69
(g90
g71
NtRp2085
(dp2086
g74
(dp2087
g94
g95
ssg83
g2081
sg76
(lp2088
S'global_settings'
p2089
asbag69
(g90
g71
NtRp2090
(dp2091
g74
(dp2092
g101
g102
ssg83
g2081
sg76
(lp2093
S':'
asbag69
(g90
g71
NtRp2094
(dp2095
g74
(dp2096
sg83
g2081
sg76
(lp2097
g69
(g70
g71
NtRp2098
(dp2099
g74
(dp2100
g82
I5
ssg83
g2094
sg76
(lp2101
g69
(g78
g71
NtRp2102
(dp2103
g74
(dp2104
g82
I4
ssg83
Nsg76
(lp2105
g69
(g85
g71
NtRp2106
(dp2107
g74
(dp2108
sg83
g2102
sg76
(lp2109
g69
(g90
g71
NtRp2110
(dp2111
g74
(dp2112
g94
g95
ssg83
g2106
sg76
(lp2113
g1031
asbag69
(g90
g71
NtRp2114
(dp2115
g74
(dp2116
g101
g102
ssg83
g2106
sg76
(lp2117
S':'
asbag69
(g90
g71
NtRp2118
(dp2119
g74
(dp2120
sg83
g2106
sg76
(lp2121
g69
(g70
g71
NtRp2122
(dp2123
g74
(dp2124
g82
I4
ssg83
g2118
sg76
(lp2125
S"set(['/Users/ianaboneva/Dropbox/DePaul/CSC 438 - Web Applications/web2py/applications/ToDoList2/', '/Users/ianaboneva/Dropbox/DePaul/CSC 438 - Web Applications/web2py/applications/welcome/', '/Users/ianaboneva/Dropbox/DePaul/CSC 438 - Web Applications/web2py/applications/admin/', '/Users/ianaboneva/Dropbox/DePaul/CSC 438 - Web Applications/web2py/applications/Book_Shelf_copy/'])"
p2126
asbasbasbag69
(g85
g71
NtRp2127
(dp2128
g74
(dp2129
sg83
g2102
sg76
(lp2130
g69
(g90
g71
NtRp2131
(dp2132
g74
(dp2133
g94
g95
ssg83
g2127
sg76
(lp2134
g1053
asbag69
(g90
g71
NtRp2135
(dp2136
g74
(dp2137
g101
g102
ssg83
g2127
sg76
(lp2138
S':'
asbag69
(g90
g71
NtRp2139
(dp2140
g74
(dp2141
sg83
g2127
sg76
(lp2142
g69
(g70
g71
NtRp2143
(dp2144
g74
(dp2145
g82
I4
ssg83
g2139
sg76
(lp2146
g1066
asbasbasbag69
(g85
g71
NtRp2147
(dp2148
g74
(dp2149
sg83
g2102
sg76
(lp2150
g69
(g90
g71
NtRp2151
(dp2152
g74
(dp2153
g94
g95
ssg83
g2147
sg76
(lp2154
g1075
asbag69
(g90
g71
NtRp2155
(dp2156
g74
(dp2157
g101
g102
ssg83
g2147
sg76
(lp2158
S':'
asbag69
(g90
g71
NtRp2159
(dp2160
g74
(dp2161
sg83
g2147
sg76
(lp2162
g69
(g70
g71
NtRp2163
(dp2164
g74
(dp2165
g82
I4
ssg83
g2159
sg76
(lp2166
g69
(g78
g71
NtRp2167
(dp2168
g74
(dp2169
g82
I3
ssg83
Nsg76
(lp2170
sbasbasbasbag69
(g85
g71
NtRp2171
(dp2172
g74
(dp2173
sg83
g2102
sg76
(lp2174
g69
(g90
g71
NtRp2175
(dp2176
g74
(dp2177
g94
g95
ssg83
g2171
sg76
(lp2178
g1100
asbag69
(g90
g71
NtRp2179
(dp2180
g74
(dp2181
g101
g102
ssg83
g2171
sg76
(lp2182
S':'
asbag69
(g90
g71
NtRp2183
(dp2184
g74
(dp2185
sg83
g2171
sg76
(lp2186
g69
(g70
g71
NtRp2187
(dp2188
g74
(dp2189
g82
I4
ssg83
g2183
sg76
(lp2190
S"<Values at 0x104fc1b00: {'verbose': False, 'ip': '127.0.0.1', 'shutdown_timeout': 5, 'taskbar': False, 'nocron': False, 'pid_filename': 'httpserver.pid', 'maxthreads': None, 'softcron': False, 'server_name': 'Iana-Bonevas-MacBook-Pro.local', 'bpython': False, 'nogui': False, 'port': 8000, 'extcron': False, 'debuglevel': 30, 'test': None, 'folder': '/Users/ianaboneva/Dropbox/DePaul/CSC 438 - Web Applications/web2py', 'config': '', 'import_models': False, 'winservice': '', 'shell': None, 'run': '', 'log_filename': 'httpserver.log', 'args': [''], 'socket_timeout': 5, 'ssl_ca_certificate': None, 'scheduler': None, 'profiler_filename': None, 'ssl_private_key': '', 'password': '<ask>', 'request_queue_size': 5, 'ssl_certificate': '', 'cronjob': False, 'numthreads': None, 'quiet': False, 'interfaces': None, 'minthreads': None, 'timeout': 10, 'plain': False, 'nobanner': False}>"
p2191
asbasbasbag69
(g85
g71
NtRp2192
(dp2193
g74
(dp2194
sg83
g2102
sg76
(lp2195
g69
(g90
g71
NtRp2196
(dp2197
g74
(dp2198
g94
g95
ssg83
g2192
sg76
(lp2199
g1122
asbag69
(g90
g71
NtRp2200
(dp2201
g74
(dp2202
g101
g102
ssg83
g2192
sg76
(lp2203
S':'
asbag69
(g90
g71
NtRp2204
(dp2205
g74
(dp2206
sg83
g2192
sg76
(lp2207
g69
(g70
g71
NtRp2208
(dp2209
g74
(dp2210
g82
I4
ssg83
g2204
sg76
(lp2211
S'set([])'
p2212
asbasbasbag69
(g85
g71
NtRp2213
(dp2214
g74
(dp2215
sg83
g2102
sg76
(lp2216
g69
(g90
g71
NtRp2217
(dp2218
g74
(dp2219
g94
g95
ssg83
g2213
sg76
(lp2220
g1144
asbag69
(g90
g71
NtRp2221
(dp2222
g74
(dp2223
g101
g102
ssg83
g2213
sg76
(lp2224
S':'
asbag69
(g90
g71
NtRp2225
(dp2226
g74
(dp2227
sg83
g2213
sg76
(lp2228
g69
(g70
g71
NtRp2229
(dp2230
g74
(dp2231
g82
I4
ssg83
g2225
sg76
(lp2232
g112
asbasbasbag69
(g85
g71
NtRp2233
(dp2234
g74
(dp2235
sg83
g2102
sg76
(lp2236
g69
(g90
g71
NtRp2237
(dp2238
g74
(dp2239
g94
g95
ssg83
g2233
sg76
(lp2240
g1165
asbag69
(g90
g71
NtRp2241
(dp2242
g74
(dp2243
g101
g102
ssg83
g2233
sg76
(lp2244
S':'
asbag69
(g90
g71
NtRp2245
(dp2246
g74
(dp2247
sg83
g2233
sg76
(lp2248
g69
(g70
g71
NtRp2249
(dp2250
g74
(dp2251
g82
I4
ssg83
g2245
sg76
(lp2252
g1178
asbasbasbag69
(g85
g71
NtRp2253
(dp2254
g74
(dp2255
sg83
g2102
sg76
(lp2256
g69
(g90
g71
NtRp2257
(dp2258
g74
(dp2259
g94
g95
ssg83
g2253
sg76
(lp2260
g1407
asbag69
(g90
g71
NtRp2261
(dp2262
g74
(dp2263
g101
g102
ssg83
g2253
sg76
(lp2264
S':'
asbag69
(g90
g71
NtRp2265
(dp2266
g74
(dp2267
sg83
g2253
sg76
(lp2268
g69
(g70
g71
NtRp2269
(dp2270
g74
(dp2271
g82
I4
ssg83
g2265
sg76
(lp2272
g112
asbasbasbag69
(g85
g71
NtRp2273
(dp2274
g74
(dp2275
sg83
g2102
sg76
(lp2276
g69
(g90
g71
NtRp2277
(dp2278
g74
(dp2279
g94
g95
ssg83
g2273
sg76
(lp2280
g1428
asbag69
(g90
g71
NtRp2281
(dp2282
g74
(dp2283
g101
g102
ssg83
g2273
sg76
(lp2284
S':'
asbag69
(g90
g71
NtRp2285
(dp2286
g74
(dp2287
sg83
g2273
sg76
(lp2288
g69
(g70
g71
NtRp2289
(dp2290
g74
(dp2291
g82
I4
ssg83
g2285
sg76
(lp2292
g112
asbasbasbag69
(g85
g71
NtRp2293
(dp2294
g74
(dp2295
sg83
g2102
sg76
(lp2296
g69
(g90
g71
NtRp2297
(dp2298
g74
(dp2299
g94
g95
ssg83
g2293
sg76
(lp2300
g1666
asbag69
(g90
g71
NtRp2301
(dp2302
g74
(dp2303
g101
g102
ssg83
g2293
sg76
(lp2304
S':'
asbag69
(g90
g71
NtRp2305
(dp2306
g74
(dp2307
sg83
g2293
sg76
(lp2308
g69
(g70
g71
NtRp2309
(dp2310
g74
(dp2311
g82
I4
ssg83
g2305
sg76
(lp2312
g1679
asbasbasbag69
(g85
g71
NtRp2313
(dp2314
g74
(dp2315
sg83
g2102
sg76
(lp2316
g69
(g90
g71
NtRp2317
(dp2318
g74
(dp2319
g94
g95
ssg83
g2313
sg76
(lp2320
g1709
asbag69
(g90
g71
NtRp2321
(dp2322
g74
(dp2323
g101
g102
ssg83
g2313
sg76
(lp2324
S':'
asbag69
(g90
g71
NtRp2325
(dp2326
g74
(dp2327
sg83
g2313
sg76
(lp2328
g69
(g70
g71
NtRp2329
(dp2330
g74
(dp2331
g82
I4
ssg83
g2325
sg76
(lp2332
g69
(g78
g71
NtRp2333
(dp2334
g74
(dp2335
g82
I3
ssg83
Nsg76
(lp2336
g69
(g85
g71
NtRp2337
(dp2338
g74
(dp2339
sg83
g2333
sg76
(lp2340
g69
(g90
g71
NtRp2341
(dp2342
g74
(dp2343
sg83
g2337
sg76
(lp2344
g69
(g70
g71
NtRp2345
(dp2346
g74
(dp2347
g82
I3
ssg83
g2341
sg76
(lp2348
S'1'
asbasbasbag69
(g85
g71
NtRp2349
(dp2350
g74
(dp2351
sg83
g2333
sg76
(lp2352
g69
(g90
g71
NtRp2353
(dp2354
g74
(dp2355
sg83
g2349
sg76
(lp2356
g69
(g70
g71
NtRp2357
(dp2358
g74
(dp2359
g82
I3
ssg83
g2353
sg76
(lp2360
S'99'
p2361
asbasbasbag69
(g85
g71
NtRp2362
(dp2363
g74
(dp2364
sg83
g2333
sg76
(lp2365
g69
(g90
g71
NtRp2366
(dp2367
g74
(dp2368
sg83
g2362
sg76
(lp2369
g69
(g70
g71
NtRp2370
(dp2371
g74
(dp2372
g82
I3
ssg83
g2366
sg76
(lp2373
S'7'
asbasbasbag69
(g85
g71
NtRp2374
(dp2375
g74
(dp2376
sg83
g2333
sg76
(lp2377
g69
(g90
g71
NtRp2378
(dp2379
g74
(dp2380
sg83
g2374
sg76
(lp2381
g69
(g70
g71
NtRp2382
(dp2383
g74
(dp2384
g82
I3
ssg83
g2378
sg76
(lp2385
S'datetime.datetime(2012, 3, 4, 22, 12, 8)'
p2386
asbasbasbag69
(g85
g71
NtRp2387
(dp2388
g74
(dp2389
sg83
g2333
sg76
(lp2390
g69
(g90
g71
NtRp2391
(dp2392
g74
(dp2393
sg83
g2387
sg76
(lp2394
g69
(g70
g71
NtRp2395
(dp2396
g74
(dp2397
g82
I3
ssg83
g2391
sg76
(lp2398
g1788
asbasbasbasbasbasbasbasbasbasbasbag69
(g85
g71
NtRp2399
(dp2400
g74
(dp2401
sg83
g79
sg76
(lp2402
g69
(g90
g71
NtRp2403
(dp2404
g74
(dp2405
g94
g95
ssg83
g2399
sg76
(lp2406
S'is_https'
p2407
asbag69
(g90
g71
NtRp2408
(dp2409
g74
(dp2410
g101
g102
ssg83
g2399
sg76
(lp2411
S':'
asbag69
(g90
g71
NtRp2412
(dp2413
g74
(dp2414
sg83
g2399
sg76
(lp2415
g69
(g70
g71
NtRp2416
(dp2417
g74
(dp2418
g82
I5
ssg83
g2412
sg76
(lp2419
g112
asbasbasbag69
(g85
g71
NtRp2420
(dp2421
g74
(dp2422
sg83
g79
sg76
(lp2423
g69
(g90
g71
NtRp2424
(dp2425
g74
(dp2426
g94
g95
ssg83
g2420
sg76
(lp2427
S'is_local'
p2428
asbag69
(g90
g71
NtRp2429
(dp2430
g74
(dp2431
g101
g102
ssg83
g2420
sg76
(lp2432
S':'
asbag69
(g90
g71
NtRp2433
(dp2434
g74
(dp2435
sg83
g2420
sg76
(lp2436
g69
(g70
g71
NtRp2437
(dp2438
g74
(dp2439
g82
I5
ssg83
g2433
sg76
(lp2440
g1897
asbasbasbag69
(g85
g71
NtRp2441
(dp2442
g74
(dp2443
sg83
g79
sg76
(lp2444
g69
(g90
g71
NtRp2445
(dp2446
g74
(dp2447
g94
g95
ssg83
g2441
sg76
(lp2448
S'is_restful'
p2449
asbag69
(g90
g71
NtRp2450
(dp2451
g74
(dp2452
g101
g102
ssg83
g2441
sg76
(lp2453
S':'
asbag69
(g90
g71
NtRp2454
(dp2455
g74
(dp2456
sg83
g2441
sg76
(lp2457
g69
(g70
g71
NtRp2458
(dp2459
g74
(dp2460
g82
I5
ssg83
g2454
sg76
(lp2461
g112
asbasbasbag69
(g85
g71
NtRp2462
(dp2463
g74
(dp2464
sg83
g79
sg76
(lp2465
g69
(g90
g71
NtRp2466
(dp2467
g74
(dp2468
g94
g95
ssg83
g2462
sg76
(lp2469
S'now'
p2470
asbag69
(g90
g71
NtRp2471
(dp2472
g74
(dp2473
g101
g102
ssg83
g2462
sg76
(lp2474
S':'
asbag69
(g90
g71
NtRp2475
(dp2476
g74
(dp2477
sg83
g2462
sg76
(lp2478
g69
(g70
g71
NtRp2479
(dp2480
g74
(dp2481
g82
I5
ssg83
g2475
sg76
(lp2482
S'datetime.datetime(2012, 6, 3, 17, 49, 31, 773493)'
p2483
asbasbasbag69
(g85
g71
NtRp2484
(dp2485
g74
(dp2486
sg83
g79
sg76
(lp2487
g69
(g90
g71
NtRp2488
(dp2489
g74
(dp2490
g94
g95
ssg83
g2484
sg76
(lp2491
S'post_vars'
p2492
asbag69
(g90
g71
NtRp2493
(dp2494
g74
(dp2495
g101
g102
ssg83
g2484
sg76
(lp2496
S':'
asbag69
(g90
g71
NtRp2497
(dp2498
g74
(dp2499
sg83
g2484
sg76
(lp2500
g69
(g70
g71
NtRp2501
(dp2502
g74
(dp2503
g82
I5
ssg83
g2497
sg76
(lp2504
g69
(g78
g71
NtRp2505
(dp2506
g74
(dp2507
g82
I4
ssg83
Nsg76
(lp2508
sbasbasbasbag69
(g85
g71
NtRp2509
(dp2510
g74
(dp2511
sg83
g79
sg76
(lp2512
g69
(g90
g71
NtRp2513
(dp2514
g74
(dp2515
g94
g95
ssg83
g2509
sg76
(lp2516
S'url'
p2517
asbag69
(g90
g71
NtRp2518
(dp2519
g74
(dp2520
g101
g102
ssg83
g2509
sg76
(lp2521
S':'
asbag69
(g90
g71
NtRp2522
(dp2523
g74
(dp2524
sg83
g2509
sg76
(lp2525
g69
(g70
g71
NtRp2526
(dp2527
g74
(dp2528
g82
I5
ssg83
g2522
sg76
(lp2529
S'/Book_Shelf_copy/default/index'
p2530
asbasbasbag69
(g85
g71
NtRp2531
(dp2532
g74
(dp2533
sg83
g79
sg76
(lp2534
g69
(g90
g71
NtRp2535
(dp2536
g74
(dp2537
g94
g95
ssg83
g2531
sg76
(lp2538
S'utcnow'
p2539
asbag69
(g90
g71
NtRp2540
(dp2541
g74
(dp2542
g101
g102
ssg83
g2531
sg76
(lp2543
S':'
asbag69
(g90
g71
NtRp2544
(dp2545
g74
(dp2546
sg83
g2531
sg76
(lp2547
g69
(g70
g71
NtRp2548
(dp2549
g74
(dp2550
g82
I5
ssg83
g2544
sg76
(lp2551
S'datetime.datetime(2012, 6, 3, 22, 49, 31, 773516)'
p2552
asbasbasbag69
(g85
g71
NtRp2553
(dp2554
g74
(dp2555
sg83
g79
sg76
(lp2556
g69
(g90
g71
NtRp2557
(dp2558
g74
(dp2559
g94
g95
ssg83
g2553
sg76
(lp2560
S'uuid'
p2561
asbag69
(g90
g71
NtRp2562
(dp2563
g74
(dp2564
g101
g102
ssg83
g2553
sg76
(lp2565
S':'
asbag69
(g90
g71
NtRp2566
(dp2567
g74
(dp2568
sg83
g2553
sg76
(lp2569
g69
(g70
g71
NtRp2570
(dp2571
g74
(dp2572
g82
I5
ssg83
g2566
sg76
(lp2573
S'Book_Shelf_copy/127.0.0.1.2012-06-03.17-49-31.4917ccb8-1d50-4726-a417-31895d37aacb'
p2574
asbasbasbag69
(g85
g71
NtRp2575
(dp2576
g74
(dp2577
sg83
g79
sg76
(lp2578
g69
(g90
g71
NtRp2579
(dp2580
g74
(dp2581
g94
g95
ssg83
g2575
sg76
(lp2582
S'vars'
p2583
asbag69
(g90
g71
NtRp2584
(dp2585
g74
(dp2586
g101
g102
ssg83
g2575
sg76
(lp2587
S':'
asbag69
(g90
g71
NtRp2588
(dp2589
g74
(dp2590
sg83
g2575
sg76
(lp2591
g69
(g70
g71
NtRp2592
(dp2593
g74
(dp2594
g82
I5
ssg83
g2588
sg76
(lp2595
g69
(g78
g71
NtRp2596
(dp2597
g74
(dp2598
g82
I4
ssg83
Nsg76
(lp2599
sbasbasbasbag69
(g85
g71
NtRp2600
(dp2601
g74
(dp2602
sg83
g79
sg76
(lp2603
g69
(g90
g71
NtRp2604
(dp2605
g74
(dp2606
g94
g95
ssg83
g2600
sg76
(lp2607
S'wsgi'
p2608
asbag69
(g90
g71
NtRp2609
(dp2610
g74
(dp2611
g101
g102
ssg83
g2600
sg76
(lp2612
S':'
asbag69
(g90
g71
NtRp2613
(dp2614
g74
(dp2615
sg83
g2600
sg76
(lp2616
g69
(g70
g71
NtRp2617
(dp2618
g74
(dp2619
g82
I5
ssg83
g2613
sg76
(lp2620
g69
(g78
g71
NtRp2621
(dp2622
g74
(dp2623
g82
I4
ssg83
Nsg76
(lp2624
g69
(g85
g71
NtRp2625
(dp2626
g74
(dp2627
sg83
g2621
sg76
(lp2628
g69
(g90
g71
NtRp2629
(dp2630
g74
(dp2631
g94
g95
ssg83
g2625
sg76
(lp2632
S'environ'
p2633
asbag69
(g90
g71
NtRp2634
(dp2635
g74
(dp2636
g101
g102
ssg83
g2625
sg76
(lp2637
S':'
asbag69
(g90
g71
NtRp2638
(dp2639
g74
(dp2640
sg83
g2625
sg76
(lp2641
g69
(g70
g71
NtRp2642
(dp2643
g74
(dp2644
g82
I4
ssg83
g2638
sg76
(lp2645
g69
(g78
g71
NtRp2646
(dp2647
g74
(dp2648
g82
I3
ssg83
Nsg76
(lp2649
g69
(g85
g71
NtRp2650
(dp2651
g74
(dp2652
sg83
g2646
sg76
(lp2653
g69
(g90
g71
NtRp2654
(dp2655
g74
(dp2656
g94
g95
ssg83
g2650
sg76
(lp2657
S'HTTP_ACCEPT'
p2658
asbag69
(g90
g71
NtRp2659
(dp2660
g74
(dp2661
g101
g102
ssg83
g2650
sg76
(lp2662
S':'
asbag69
(g90
g71
NtRp2663
(dp2664
g74
(dp2665
sg83
g2650
sg76
(lp2666
g69
(g70
g71
NtRp2667
(dp2668
g74
(dp2669
g82
I3
ssg83
g2663
sg76
(lp2670
g1200
asbasbasbag69
(g85
g71
NtRp2671
(dp2672
g74
(dp2673
sg83
g2646
sg76
(lp2674
g69
(g90
g71
NtRp2675
(dp2676
g74
(dp2677
g94
g95
ssg83
g2671
sg76
(lp2678
S'HTTP_ACCEPT_CHARSET'
p2679
asbag69
(g90
g71
NtRp2680
(dp2681
g74
(dp2682
g101
g102
ssg83
g2671
sg76
(lp2683
S':'
asbag69
(g90
g71
NtRp2684
(dp2685
g74
(dp2686
sg83
g2671
sg76
(lp2687
g69
(g70
g71
NtRp2688
(dp2689
g74
(dp2690
g82
I3
ssg83
g2684
sg76
(lp2691
g1222
asbasbasbag69
(g85
g71
NtRp2692
(dp2693
g74
(dp2694
sg83
g2646
sg76
(lp2695
g69
(g90
g71
NtRp2696
(dp2697
g74
(dp2698
g94
g95
ssg83
g2692
sg76
(lp2699
S'HTTP_ACCEPT_ENCODING'
p2700
asbag69
(g90
g71
NtRp2701
(dp2702
g74
(dp2703
g101
g102
ssg83
g2692
sg76
(lp2704
S':'
asbag69
(g90
g71
NtRp2705
(dp2706
g74
(dp2707
sg83
g2692
sg76
(lp2708
g69
(g70
g71
NtRp2709
(dp2710
g74
(dp2711
g82
I3
ssg83
g2705
sg76
(lp2712
g1244
asbasbasbag69
(g85
g71
NtRp2713
(dp2714
g74
(dp2715
sg83
g2646
sg76
(lp2716
g69
(g90
g71
NtRp2717
(dp2718
g74
(dp2719
g94
g95
ssg83
g2713
sg76
(lp2720
S'HTTP_ACCEPT_LANGUAGE'
p2721
asbag69
(g90
g71
NtRp2722
(dp2723
g74
(dp2724
g101
g102
ssg83
g2713
sg76
(lp2725
S':'
asbag69
(g90
g71
NtRp2726
(dp2727
g74
(dp2728
sg83
g2713
sg76
(lp2729
g69
(g70
g71
NtRp2730
(dp2731
g74
(dp2732
g82
I3
ssg83
g2726
sg76
(lp2733
g1266
asbasbasbag69
(g85
g71
NtRp2734
(dp2735
g74
(dp2736
sg83
g2646
sg76
(lp2737
g69
(g90
g71
NtRp2738
(dp2739
g74
(dp2740
g94
g95
ssg83
g2734
sg76
(lp2741
S'HTTP_CACHE_CONTROL'
p2742
asbag69
(g90
g71
NtRp2743
(dp2744
g74
(dp2745
g101
g102
ssg83
g2734
sg76
(lp2746
S':'
asbag69
(g90
g71
NtRp2747
(dp2748
g74
(dp2749
sg83
g2734
sg76
(lp2750
g69
(g70
g71
NtRp2751
(dp2752
g74
(dp2753
g82
I3
ssg83
g2747
sg76
(lp2754
g1288
asbasbasbag69
(g85
g71
NtRp2755
(dp2756
g74
(dp2757
sg83
g2646
sg76
(lp2758
g69
(g90
g71
NtRp2759
(dp2760
g74
(dp2761
g94
g95
ssg83
g2755
sg76
(lp2762
S'HTTP_CONNECTION'
p2763
asbag69
(g90
g71
NtRp2764
(dp2765
g74
(dp2766
g101
g102
ssg83
g2755
sg76
(lp2767
S':'
asbag69
(g90
g71
NtRp2768
(dp2769
g74
(dp2770
sg83
g2755
sg76
(lp2771
g69
(g70
g71
NtRp2772
(dp2773
g74
(dp2774
g82
I3
ssg83
g2768
sg76
(lp2775
g1310
asbasbasbag69
(g85
g71
NtRp2776
(dp2777
g74
(dp2778
sg83
g2646
sg76
(lp2779
g69
(g90
g71
NtRp2780
(dp2781
g74
(dp2782
g94
g95
ssg83
g2776
sg76
(lp2783
S'HTTP_COOKIE'
p2784
asbag69
(g90
g71
NtRp2785
(dp2786
g74
(dp2787
g101
g102
ssg83
g2776
sg76
(lp2788
S':'
asbag69
(g90
g71
NtRp2789
(dp2790
g74
(dp2791
sg83
g2776
sg76
(lp2792
g69
(g70
g71
NtRp2793
(dp2794
g74
(dp2795
g82
I3
ssg83
g2789
sg76
(lp2796
g1332
asbasbasbag69
(g85
g71
NtRp2797
(dp2798
g74
(dp2799
sg83
g2646
sg76
(lp2800
g69
(g90
g71
NtRp2801
(dp2802
g74
(dp2803
g94
g95
ssg83
g2797
sg76
(lp2804
S'HTTP_HOST'
p2805
asbag69
(g90
g71
NtRp2806
(dp2807
g74
(dp2808
g101
g102
ssg83
g2797
sg76
(lp2809
S':'
asbag69
(g90
g71
NtRp2810
(dp2811
g74
(dp2812
sg83
g2797
sg76
(lp2813
g69
(g70
g71
NtRp2814
(dp2815
g74
(dp2816
g82
I3
ssg83
g2810
sg76
(lp2817
g1354
asbasbasbag69
(g85
g71
NtRp2818
(dp2819
g74
(dp2820
sg83
g2646
sg76
(lp2821
g69
(g90
g71
NtRp2822
(dp2823
g74
(dp2824
g94
g95
ssg83
g2818
sg76
(lp2825
S'HTTP_REFERER'
p2826
asbag69
(g90
g71
NtRp2827
(dp2828
g74
(dp2829
g101
g102
ssg83
g2818
sg76
(lp2830
S':'
asbag69
(g90
g71
NtRp2831
(dp2832
g74
(dp2833
sg83
g2818
sg76
(lp2834
g69
(g70
g71
NtRp2835
(dp2836
g74
(dp2837
g82
I3
ssg83
g2831
sg76
(lp2838
g1376
asbasbasbag69
(g85
g71
NtRp2839
(dp2840
g74
(dp2841
sg83
g2646
sg76
(lp2842
g69
(g90
g71
NtRp2843
(dp2844
g74
(dp2845
g94
g95
ssg83
g2839
sg76
(lp2846
S'HTTP_USER_AGENT'
p2847
asbag69
(g90
g71
NtRp2848
(dp2849
g74
(dp2850
g101
g102
ssg83
g2839
sg76
(lp2851
S':'
asbag69
(g90
g71
NtRp2852
(dp2853
g74
(dp2854
sg83
g2839
sg76
(lp2855
g69
(g70
g71
NtRp2856
(dp2857
g74
(dp2858
g82
I3
ssg83
g2852
sg76
(lp2859
g1398
asbasbasbag69
(g85
g71
NtRp2860
(dp2861
g74
(dp2862
sg83
g2646
sg76
(lp2863
g69
(g90
g71
NtRp2864
(dp2865
g74
(dp2866
g94
g95
ssg83
g2860
sg76
(lp2867
S'PATH_INFO'
p2868
asbag69
(g90
g71
NtRp2869
(dp2870
g74
(dp2871
g101
g102
ssg83
g2860
sg76
(lp2872
S':'
asbag69
(g90
g71
NtRp2873
(dp2874
g74
(dp2875
sg83
g2860
sg76
(lp2876
g69
(g70
g71
NtRp2877
(dp2878
g74
(dp2879
g82
I3
ssg83
g2873
sg76
(lp2880
g1462
asbasbasbag69
(g85
g71
NtRp2881
(dp2882
g74
(dp2883
sg83
g2646
sg76
(lp2884
g69
(g90
g71
NtRp2885
(dp2886
g74
(dp2887
g94
g95
ssg83
g2881
sg76
(lp2888
S'QUERY_STRING'
p2889
asbag69
(g90
g71
NtRp2890
(dp2891
g74
(dp2892
g101
g102
ssg83
g2881
sg76
(lp2893
S':'
asbag69
(g90
g71
NtRp2894
(dp2895
g74
(dp2896
sg83
g2881
sg76
(lp2897
g69
(g70
g71
NtRp2898
(dp2899
g74
(dp2900
g82
I3
ssg83
g2894
sg76
(lp2901
S''
asbasbasbag69
(g85
g71
NtRp2902
(dp2903
g74
(dp2904
sg83
g2646
sg76
(lp2905
g69
(g90
g71
NtRp2906
(dp2907
g74
(dp2908
g94
g95
ssg83
g2902
sg76
(lp2909
S'REMOTE_ADDR'
p2910
asbag69
(g90
g71
NtRp2911
(dp2912
g74
(dp2913
g101
g102
ssg83
g2902
sg76
(lp2914
S':'
asbag69
(g90
g71
NtRp2915
(dp2916
g74
(dp2917
sg83
g2902
sg76
(lp2918
g69
(g70
g71
NtRp2919
(dp2920
g74
(dp2921
g82
I3
ssg83
g2915
sg76
(lp2922
g202
asbasbasbag69
(g85
g71
NtRp2923
(dp2924
g74
(dp2925
sg83
g2646
sg76
(lp2926
g69
(g90
g71
NtRp2927
(dp2928
g74
(dp2929
g94
g95
ssg83
g2923
sg76
(lp2930
S'REMOTE_PORT'
p2931
asbag69
(g90
g71
NtRp2932
(dp2933
g74
(dp2934
g101
g102
ssg83
g2923
sg76
(lp2935
S':'
asbag69
(g90
g71
NtRp2936
(dp2937
g74
(dp2938
sg83
g2923
sg76
(lp2939
g69
(g70
g71
NtRp2940
(dp2941
g74
(dp2942
g82
I3
ssg83
g2936
sg76
(lp2943
g1526
asbasbasbag69
(g85
g71
NtRp2944
(dp2945
g74
(dp2946
sg83
g2646
sg76
(lp2947
g69
(g90
g71
NtRp2948
(dp2949
g74
(dp2950
g94
g95
ssg83
g2944
sg76
(lp2951
S'REQUEST_METHOD'
p2952
asbag69
(g90
g71
NtRp2953
(dp2954
g74
(dp2955
g101
g102
ssg83
g2944
sg76
(lp2956
S':'
asbag69
(g90
g71
NtRp2957
(dp2958
g74
(dp2959
sg83
g2944
sg76
(lp2960
g69
(g70
g71
NtRp2961
(dp2962
g74
(dp2963
g82
I3
ssg83
g2957
sg76
(lp2964
g1548
asbasbasbag69
(g85
g71
NtRp2965
(dp2966
g74
(dp2967
sg83
g2646
sg76
(lp2968
g69
(g90
g71
NtRp2969
(dp2970
g74
(dp2971
g94
g95
ssg83
g2965
sg76
(lp2972
S'SCRIPT_NAME'
p2973
asbag69
(g90
g71
NtRp2974
(dp2975
g74
(dp2976
g101
g102
ssg83
g2965
sg76
(lp2977
S':'
asbag69
(g90
g71
NtRp2978
(dp2979
g74
(dp2980
sg83
g2965
sg76
(lp2981
g69
(g70
g71
NtRp2982
(dp2983
g74
(dp2984
g82
I3
ssg83
g2978
sg76
(lp2985
S''
asbasbasbag69
(g85
g71
NtRp2986
(dp2987
g74
(dp2988
sg83
g2646
sg76
(lp2989
g69
(g90
g71
NtRp2990
(dp2991
g74
(dp2992
g94
g95
ssg83
g2986
sg76
(lp2993
S'SERVER_NAME'
p2994
asbag69
(g90
g71
NtRp2995
(dp2996
g74
(dp2997
g101
g102
ssg83
g2986
sg76
(lp2998
S':'
asbag69
(g90
g71
NtRp2999
(dp3000
g74
(dp3001
sg83
g2986
sg76
(lp3002
g69
(g70
g71
NtRp3003
(dp3004
g74
(dp3005
g82
I3
ssg83
g2999
sg76
(lp3006
g1591
asbasbasbag69
(g85
g71
NtRp3007
(dp3008
g74
(dp3009
sg83
g2646
sg76
(lp3010
g69
(g90
g71
NtRp3011
(dp3012
g74
(dp3013
g94
g95
ssg83
g3007
sg76
(lp3014
S'SERVER_PORT'
p3015
asbag69
(g90
g71
NtRp3016
(dp3017
g74
(dp3018
g101
g102
ssg83
g3007
sg76
(lp3019
S':'
asbag69
(g90
g71
NtRp3020
(dp3021
g74
(dp3022
sg83
g3007
sg76
(lp3023
g69
(g70
g71
NtRp3024
(dp3025
g74
(dp3026
g82
I3
ssg83
g3020
sg76
(lp3027
g1613
asbasbasbag69
(g85
g71
NtRp3028
(dp3029
g74
(dp3030
sg83
g2646
sg76
(lp3031
g69
(g90
g71
NtRp3032
(dp3033
g74
(dp3034
g94
g95
ssg83
g3028
sg76
(lp3035
S'SERVER_PROTOCOL'
p3036
asbag69
(g90
g71
NtRp3037
(dp3038
g74
(dp3039
g101
g102
ssg83
g3028
sg76
(lp3040
S':'
asbag69
(g90
g71
NtRp3041
(dp3042
g74
(dp3043
sg83
g3028
sg76
(lp3044
g69
(g70
g71
NtRp3045
(dp3046
g74
(dp3047
g82
I3
ssg83
g3041
sg76
(lp3048
g1635
asbasbasbag69
(g85
g71
NtRp3049
(dp3050
g74
(dp3051
sg83
g2646
sg76
(lp3052
g69
(g90
g71
NtRp3053
(dp3054
g74
(dp3055
g94
g95
ssg83
g3049
sg76
(lp3056
S'SERVER_SOFTWARE'
p3057
asbag69
(g90
g71
NtRp3058
(dp3059
g74
(dp3060
g101
g102
ssg83
g3049
sg76
(lp3061
S':'
asbag69
(g90
g71
NtRp3062
(dp3063
g74
(dp3064
sg83
g3049
sg76
(lp3065
g69
(g70
g71
NtRp3066
(dp3067
g74
(dp3068
g82
I3
ssg83
g3062
sg76
(lp3069
g1657
asbasbasbag69
(g85
g71
NtRp3070
(dp3071
g74
(dp3072
sg83
g2646
sg76
(lp3073
g69
(g90
g71
NtRp3074
(dp3075
g74
(dp3076
g94
g95
ssg83
g3070
sg76
(lp3077
S'wsgi.errors'
p3078
asbag69
(g90
g71
NtRp3079
(dp3080
g74
(dp3081
g101
g102
ssg83
g3070
sg76
(lp3082
S':'
asbag69
(g90
g71
NtRp3083
(dp3084
g74
(dp3085
sg83
g3070
sg76
(lp3086
g69
(g70
g71
NtRp3087
(dp3088
g74
(dp3089
g82
I3
ssg83
g3083
sg76
(lp3090
S"<open file '<stderr>', mode 'w' at 0x104484270>"
p3091
asbasbasbag69
(g85
g71
NtRp3092
(dp3093
g74
(dp3094
sg83
g2646
sg76
(lp3095
g69
(g90
g71
NtRp3096
(dp3097
g74
(dp3098
g94
g95
ssg83
g3092
sg76
(lp3099
S'wsgi.file_wrapper'
p3100
asbag69
(g90
g71
NtRp3101
(dp3102
g74
(dp3103
g101
g102
ssg83
g3092
sg76
(lp3104
S':'
asbag69
(g90
g71
NtRp3105
(dp3106
g74
(dp3107
sg83
g3092
sg76
(lp3108
g69
(g70
g71
NtRp3109
(dp3110
g74
(dp3111
g82
I3
ssg83
g3105
sg76
(lp3112
S'<class wsgiref.util.FileWrapper at 0x104ebdf58>'
p3113
asbasbasbag69
(g85
g71
NtRp3114
(dp3115
g74
(dp3116
sg83
g2646
sg76
(lp3117
g69
(g90
g71
NtRp3118
(dp3119
g74
(dp3120
g94
g95
ssg83
g3114
sg76
(lp3121
S'wsgi.input'
p3122
asbag69
(g90
g71
NtRp3123
(dp3124
g74
(dp3125
g101
g102
ssg83
g3114
sg76
(lp3126
S':'
asbag69
(g90
g71
NtRp3127
(dp3128
g74
(dp3129
sg83
g3114
sg76
(lp3130
g69
(g70
g71
NtRp3131
(dp3132
g74
(dp3133
g82
I3
ssg83
g3127
sg76
(lp3134
S'<cStringIO.StringO object at 0x109f560a0>'
p3135
asbasbasbag69
(g85
g71
NtRp3136
(dp3137
g74
(dp3138
sg83
g2646
sg76
(lp3139
g69
(g90
g71
NtRp3140
(dp3141
g74
(dp3142
g94
g95
ssg83
g3136
sg76
(lp3143
S'wsgi.multiprocess'
p3144
asbag69
(g90
g71
NtRp3145
(dp3146
g74
(dp3147
g101
g102
ssg83
g3136
sg76
(lp3148
S':'
asbag69
(g90
g71
NtRp3149
(dp3150
g74
(dp3151
sg83
g3136
sg76
(lp3152
g69
(g70
g71
NtRp3153
(dp3154
g74
(dp3155
g82
I3
ssg83
g3149
sg76
(lp3156
g112
asbasbasbag69
(g85
g71
NtRp3157
(dp3158
g74
(dp3159
sg83
g2646
sg76
(lp3160
g69
(g90
g71
NtRp3161
(dp3162
g74
(dp3163
g94
g95
ssg83
g3157
sg76
(lp3164
S'wsgi.multithread'
p3165
asbag69
(g90
g71
NtRp3166
(dp3167
g74
(dp3168
g101
g102
ssg83
g3157
sg76
(lp3169
S':'
asbag69
(g90
g71
NtRp3170
(dp3171
g74
(dp3172
sg83
g3157
sg76
(lp3173
g69
(g70
g71
NtRp3174
(dp3175
g74
(dp3176
g82
I3
ssg83
g3170
sg76
(lp3177
g1897
asbasbasbag69
(g85
g71
NtRp3178
(dp3179
g74
(dp3180
sg83
g2646
sg76
(lp3181
g69
(g90
g71
NtRp3182
(dp3183
g74
(dp3184
g94
g95
ssg83
g3178
sg76
(lp3185
S'wsgi.run_once'
p3186
asbag69
(g90
g71
NtRp3187
(dp3188
g74
(dp3189
g101
g102
ssg83
g3178
sg76
(lp3190
S':'
asbag69
(g90
g71
NtRp3191
(dp3192
g74
(dp3193
sg83
g3178
sg76
(lp3194
g69
(g70
g71
NtRp3195
(dp3196
g74
(dp3197
g82
I3
ssg83
g3191
sg76
(lp3198
g112
asbasbasbag69
(g85
g71
NtRp3199
(dp3200
g74
(dp3201
sg83
g2646
sg76
(lp3202
g69
(g90
g71
NtRp3203
(dp3204
g74
(dp3205
g94
g95
ssg83
g3199
sg76
(lp3206
S'wsgi.url_scheme'
p3207
asbag69
(g90
g71
NtRp3208
(dp3209
g74
(dp3210
g101
g102
ssg83
g3199
sg76
(lp3211
S':'
asbag69
(g90
g71
NtRp3212
(dp3213
g74
(dp3214
sg83
g3199
sg76
(lp3215
g69
(g70
g71
NtRp3216
(dp3217
g74
(dp3218
g82
I3
ssg83
g3212
sg76
(lp3219
g1940
asbasbasbag69
(g85
g71
NtRp3220
(dp3221
g74
(dp3222
sg83
g2646
sg76
(lp3223
g69
(g90
g71
NtRp3224
(dp3225
g74
(dp3226
g94
g95
ssg83
g3220
sg76
(lp3227
S'wsgi.version'
p3228
asbag69
(g90
g71
NtRp3229
(dp3230
g74
(dp3231
g101
g102
ssg83
g3220
sg76
(lp3232
S':'
asbag69
(g90
g71
NtRp3233
(dp3234
g74
(dp3235
sg83
g3220
sg76
(lp3236
g69
(g70
g71
NtRp3237
(dp3238
g74
(dp3239
g82
I3
ssg83
g3233
sg76
(lp3240
S'1'
asbasbasbasbasbasbasbasbasbasbasbasbasbsS'frames'
p3241
(lp3242
(dp3243
S'file'
p3244
S'/Users/ianaboneva/Dropbox/DePaul/CSC 438 - Web Applications/web2py/gluon/restricted.py'
p3245
sS'dump'
p3246
(dp3247
S'code'
p3248
S"'# -*- coding: utf-8 -*-\\n# this file is released ...=crud())\\n\\nresponse._vars=response._caller(index)\\n'"
p3249
sS'layer'
p3250
S"'/Users/ianaboneva/Dropbox/DePaul/CSC 438 - Web A...plications/Book_Shelf_copy/controllers/default.py'"
p3251
sS'global compile2'
p3252
S'<function compile2>'
p3253
sS'ccode'
p3254
S'undefined'
p3255
ssS'lnum'
p3256
I204
sS'lines'
p3257
(dp3258
I199
S"    environment['__name__'] = '__restricted__'"
p3259
sI200
S'    try:'
p3260
sI201
S'        if type(code) == types.CodeType:'
p3261
sI202
S'            ccode = code'
p3262
sI203
S'        else:'
p3263
sI204
S'            ccode = compile2(code,layer)'
p3264
sI205
S'        exec ccode in environment'
p3265
sI206
S'    except HTTP:'
p3266
sI207
S'        raise'
p3267
sI208
S'    except RestrictedError:'
p3268
ssS'call'
p3269
S"(code='# -*- coding: utf-8 -*-\\n# this file is released ...=crud())\\n\\nresponse._vars=response._caller(index)\\n', environment={'A': <class 'gluon.html.A'>, 'Auth': <class 'gluon.tools.Auth'>, 'B': <class 'gluon.html.B'>, 'BEAUTIFY': <class 'gluon.html.BEAUTIFY'>, 'BODY': <class 'gluon.html.BODY'>, 'BR': <class 'gluon.html.BR'>, 'BUTTON': <class 'gluon.html.BUTTON'>, 'CAT': <class 'gluon.html.CAT'>, 'CENTER': <class 'gluon.html.CENTER'>, 'CLEANUP': <class 'gluon.validators.CLEANUP'>, ...}, layer='/Users/ianaboneva/Dropbox/DePaul/CSC 438 - Web A...plications/Book_Shelf_copy/controllers/default.py')"
p3270
sS'func'
p3271
S'restricted'
p3272
sa(dp3273
g3244
S'/Users/ianaboneva/Dropbox/DePaul/CSC 438 - Web Applications/web2py/gluon/restricted.py'
p3274
sg3246
(dp3275
S'builtincompile'
p3276
S'<built-in function compile>'
p3277
sS'code'
p3278
S"'# -*- coding: utf-8 -*-\\n# this file is released ...=crud())\\n\\nresponse._vars=response._caller(index)\\n'"
p3279
sS'code.rstrip'
p3280
S'<built-in method rstrip of str object>'
p3281
sS').replace'
p3282
g3255
sS'layer'
p3283
S"'/Users/ianaboneva/Dropbox/DePaul/CSC 438 - Web A...plications/Book_Shelf_copy/controllers/default.py'"
p3284
ssg3256
I189
sg3257
(dp3285
I192
S'    """'
p3286
sI193
S'    runs code in environment and returns the output. if an exception occurs'
p3287
sI184
S''
sI185
S'def compile2(code,layer):'
p3288
sI186
S'    """'
p3289
sI187
S"    The +'\\n' is necessary else compile fails when code ends in a comment."
p3290
sI188
S'    """'
p3291
sI189
S"    return compile(code.rstrip().replace('\\r\\n','\\n')+'\\n', layer, 'exec')"
p3292
sI190
S''
sI191
S"def restricted(code, environment=None, layer='Unknown'):"
p3293
ssg3269
S"(code='# -*- coding: utf-8 -*-\\n# this file is released ...=crud())\\n\\nresponse._vars=response._caller(index)\\n', layer='/Users/ianaboneva/Dropbox/DePaul/CSC 438 - Web A...plications/Book_Shelf_copy/controllers/default.py')"
p3294
sg3271
S'compile2'
p3295
sasS'pyver'
p3296
S'Python 2.7.1: /usr/bin/python'
p3297
sS'session'
p3298
g69
(g70
g71
NtRp3299
(dp3300
g74
(dp3301
sg76
(lp3302
g69
(g78
g71
NtRp3303
(dp3304
g74
(dp3305
g82
I5
ssg83
Nsg76
(lp3306
g69
(g85
g71
NtRp3307
(dp3308
g74
(dp3309
sg83
g3303
sg76
(lp3310
g69
(g90
g71
NtRp3311
(dp3312
g74
(dp3313
g94
g95
ssg83
g3307
sg76
(lp3314
S'auth'
p3315
asbag69
(g90
g71
NtRp3316
(dp3317
g74
(dp3318
g101
g102
ssg83
g3307
sg76
(lp3319
S':'
asbag69
(g90
g71
NtRp3320
(dp3321
g74
(dp3322
sg83
g3307
sg76
(lp3323
g69
(g70
g71
NtRp3324
(dp3325
g74
(dp3326
g82
I5
ssg83
g3320
sg76
(lp3327
g69
(g78
g71
NtRp3328
(dp3329
g74
(dp3330
g82
I4
ssg83
Nsg76
(lp3331
g69
(g85
g71
NtRp3332
(dp3333
g74
(dp3334
sg83
g3328
sg76
(lp3335
g69
(g90
g71
NtRp3336
(dp3337
g74
(dp3338
g94
g95
ssg83
g3332
sg76
(lp3339
S'expiration'
p3340
asbag69
(g90
g71
NtRp3341
(dp3342
g74
(dp3343
g101
g102
ssg83
g3332
sg76
(lp3344
S':'
asbag69
(g90
g71
NtRp3345
(dp3346
g74
(dp3347
sg83
g3332
sg76
(lp3348
g69
(g70
g71
NtRp3349
(dp3350
g74
(dp3351
g82
I4
ssg83
g3345
sg76
(lp3352
S'3600'
p3353
asbasbasbag69
(g85
g71
NtRp3354
(dp3355
g74
(dp3356
sg83
g3328
sg76
(lp3357
g69
(g90
g71
NtRp3358
(dp3359
g74
(dp3360
g94
g95
ssg83
g3354
sg76
(lp3361
S'hmac_key'
p3362
asbag69
(g90
g71
NtRp3363
(dp3364
g74
(dp3365
g101
g102
ssg83
g3354
sg76
(lp3366
S':'
asbag69
(g90
g71
NtRp3367
(dp3368
g74
(dp3369
sg83
g3354
sg76
(lp3370
g69
(g70
g71
NtRp3371
(dp3372
g74
(dp3373
g82
I4
ssg83
g3367
sg76
(lp3374
S'6d65ccff-e9f9-4a04-a10d-f39c9767a83a'
p3375
asbasbasbag69
(g85
g71
NtRp3376
(dp3377
g74
(dp3378
sg83
g3328
sg76
(lp3379
g69
(g90
g71
NtRp3380
(dp3381
g74
(dp3382
g94
g95
ssg83
g3376
sg76
(lp3383
S'last_visit'
p3384
asbag69
(g90
g71
NtRp3385
(dp3386
g74
(dp3387
g101
g102
ssg83
g3376
sg76
(lp3388
S':'
asbag69
(g90
g71
NtRp3389
(dp3390
g74
(dp3391
sg83
g3376
sg76
(lp3392
g69
(g70
g71
NtRp3393
(dp3394
g74
(dp3395
g82
I4
ssg83
g3389
sg76
(lp3396
S'datetime.datetime(2012, 6, 3, 17, 45, 46, 615021)'
p3397
asbasbasbag69
(g85
g71
NtRp3398
(dp3399
g74
(dp3400
sg83
g3328
sg76
(lp3401
g69
(g90
g71
NtRp3402
(dp3403
g74
(dp3404
g94
g95
ssg83
g3398
sg76
(lp3405
S'remember'
p3406
asbag69
(g90
g71
NtRp3407
(dp3408
g74
(dp3409
g101
g102
ssg83
g3398
sg76
(lp3410
S':'
asbag69
(g90
g71
NtRp3411
(dp3412
g74
(dp3413
sg83
g3398
sg76
(lp3414
g69
(g70
g71
NtRp3415
(dp3416
g74
(dp3417
g82
I4
ssg83
g3411
sg76
(lp3418
g112
asbasbasbag69
(g85
g71
NtRp3419
(dp3420
g74
(dp3421
sg83
g3328
sg76
(lp3422
g69
(g90
g71
NtRp3423
(dp3424
g74
(dp3425
g94
g95
ssg83
g3419
sg76
(lp3426
S'user'
p3427
asbag69
(g90
g71
NtRp3428
(dp3429
g74
(dp3430
g101
g102
ssg83
g3419
sg76
(lp3431
S':'
asbag69
(g90
g71
NtRp3432
(dp3433
g74
(dp3434
sg83
g3419
sg76
(lp3435
g69
(g70
g71
NtRp3436
(dp3437
g74
(dp3438
g82
I4
ssg83
g3432
sg76
(lp3439
g69
(g78
g71
NtRp3440
(dp3441
g74
(dp3442
g82
I3
ssg83
Nsg76
(lp3443
g69
(g85
g71
NtRp3444
(dp3445
g74
(dp3446
sg83
g3440
sg76
(lp3447
g69
(g90
g71
NtRp3448
(dp3449
g74
(dp3450
g94
g95
ssg83
g3444
sg76
(lp3451
S'email'
p3452
asbag69
(g90
g71
NtRp3453
(dp3454
g74
(dp3455
g101
g102
ssg83
g3444
sg76
(lp3456
S':'
asbag69
(g90
g71
NtRp3457
(dp3458
g74
(dp3459
sg83
g3444
sg76
(lp3460
g69
(g70
g71
NtRp3461
(dp3462
g74
(dp3463
g82
I3
ssg83
g3457
sg76
(lp3464
S'haha@haha.com'
p3465
asbasbasbag69
(g85
g71
NtRp3466
(dp3467
g74
(dp3468
sg83
g3440
sg76
(lp3469
g69
(g90
g71
NtRp3470
(dp3471
g74
(dp3472
g94
g95
ssg83
g3466
sg76
(lp3473
S'first_name'
p3474
asbag69
(g90
g71
NtRp3475
(dp3476
g74
(dp3477
g101
g102
ssg83
g3466
sg76
(lp3478
S':'
asbag69
(g90
g71
NtRp3479
(dp3480
g74
(dp3481
sg83
g3466
sg76
(lp3482
g69
(g70
g71
NtRp3483
(dp3484
g74
(dp3485
g82
I3
ssg83
g3479
sg76
(lp3486
S'Iana'
p3487
asbasbasbag69
(g85
g71
NtRp3488
(dp3489
g74
(dp3490
sg83
g3440
sg76
(lp3491
g69
(g90
g71
NtRp3492
(dp3493
g74
(dp3494
g94
g95
ssg83
g3488
sg76
(lp3495
S'id'
p3496
asbag69
(g90
g71
NtRp3497
(dp3498
g74
(dp3499
g101
g102
ssg83
g3488
sg76
(lp3500
S':'
asbag69
(g90
g71
NtRp3501
(dp3502
g74
(dp3503
sg83
g3488
sg76
(lp3504
g69
(g70
g71
NtRp3505
(dp3506
g74
(dp3507
g82
I3
ssg83
g3501
sg76
(lp3508
S'2'
asbasbasbag69
(g85
g71
NtRp3509
(dp3510
g74
(dp3511
sg83
g3440
sg76
(lp3512
g69
(g90
g71
NtRp3513
(dp3514
g74
(dp3515
g94
g95
ssg83
g3509
sg76
(lp3516
S'last_name'
p3517
asbag69
(g90
g71
NtRp3518
(dp3519
g74
(dp3520
g101
g102
ssg83
g3509
sg76
(lp3521
S':'
asbag69
(g90
g71
NtRp3522
(dp3523
g74
(dp3524
sg83
g3509
sg76
(lp3525
g69
(g70
g71
NtRp3526
(dp3527
g74
(dp3528
g82
I3
ssg83
g3522
sg76
(lp3529
S'Boneva'
p3530
asbasbasbag69
(g85
g71
NtRp3531
(dp3532
g74
(dp3533
sg83
g3440
sg76
(lp3534
g69
(g90
g71
NtRp3535
(dp3536
g74
(dp3537
g94
g95
ssg83
g3531
sg76
(lp3538
S'password'
p3539
asbag69
(g90
g71
NtRp3540
(dp3541
g74
(dp3542
g101
g102
ssg83
g3531
sg76
(lp3543
S':'
asbag69
(g90
g71
NtRp3544
(dp3545
g74
(dp3546
sg83
g3531
sg76
(lp3547
g69
(g70
g71
NtRp3548
(dp3549
g74
(dp3550
g82
I3
ssg83
g3544
sg76
(lp3551
S'be570e8e7b9bbc17c5aecccf653fd3d3'
p3552
asbasbasbag69
(g85
g71
NtRp3553
(dp3554
g74
(dp3555
sg83
g3440
sg76
(lp3556
g69
(g90
g71
NtRp3557
(dp3558
g74
(dp3559
g94
g95
ssg83
g3553
sg76
(lp3560
S'registration_id'
p3561
asbag69
(g90
g71
NtRp3562
(dp3563
g74
(dp3564
g101
g102
ssg83
g3553
sg76
(lp3565
S':'
asbag69
(g90
g71
NtRp3566
(dp3567
g74
(dp3568
sg83
g3553
sg76
(lp3569
g69
(g70
g71
NtRp3570
(dp3571
g74
(dp3572
g82
I3
ssg83
g3566
sg76
(lp3573
S''
asbasbasbag69
(g85
g71
NtRp3574
(dp3575
g74
(dp3576
sg83
g3440
sg76
(lp3577
g69
(g90
g71
NtRp3578
(dp3579
g74
(dp3580
g94
g95
ssg83
g3574
sg76
(lp3581
S'registration_key'
p3582
asbag69
(g90
g71
NtRp3583
(dp3584
g74
(dp3585
g101
g102
ssg83
g3574
sg76
(lp3586
S':'
asbag69
(g90
g71
NtRp3587
(dp3588
g74
(dp3589
sg83
g3574
sg76
(lp3590
g69
(g70
g71
NtRp3591
(dp3592
g74
(dp3593
g82
I3
ssg83
g3587
sg76
(lp3594
S''
asbasbasbag69
(g85
g71
NtRp3595
(dp3596
g74
(dp3597
sg83
g3440
sg76
(lp3598
g69
(g90
g71
NtRp3599
(dp3600
g74
(dp3601
g94
g95
ssg83
g3595
sg76
(lp3602
S'reset_password_key'
p3603
asbag69
(g90
g71
NtRp3604
(dp3605
g74
(dp3606
g101
g102
ssg83
g3595
sg76
(lp3607
S':'
asbag69
(g90
g71
NtRp3608
(dp3609
g74
(dp3610
sg83
g3595
sg76
(lp3611
g69
(g70
g71
NtRp3612
(dp3613
g74
(dp3614
g82
I3
ssg83
g3608
sg76
(lp3615
S''
asbasbasbasbasbasbasbag69
(g85
g71
NtRp3616
(dp3617
g74
(dp3618
sg83
g3328
sg76
(lp3619
g69
(g90
g71
NtRp3620
(dp3621
g74
(dp3622
g94
g95
ssg83
g3616
sg76
(lp3623
S'user_groups'
p3624
asbag69
(g90
g71
NtRp3625
(dp3626
g74
(dp3627
g101
g102
ssg83
g3616
sg76
(lp3628
S':'
asbag69
(g90
g71
NtRp3629
(dp3630
g74
(dp3631
sg83
g3616
sg76
(lp3632
g69
(g70
g71
NtRp3633
(dp3634
g74
(dp3635
g82
I4
ssg83
g3629
sg76
(lp3636
g69
(g78
g71
NtRp3637
(dp3638
g74
(dp3639
g82
I3
ssg83
Nsg76
(lp3640
g69
(g85
g71
NtRp3641
(dp3642
g74
(dp3643
sg83
g3637
sg76
(lp3644
g69
(g90
g71
NtRp3645
(dp3646
g74
(dp3647
g94
g95
ssg83
g3641
sg76
(lp3648
S'2'
asbag69
(g90
g71
NtRp3649
(dp3650
g74
(dp3651
g101
g102
ssg83
g3641
sg76
(lp3652
S':'
asbag69
(g90
g71
NtRp3653
(dp3654
g74
(dp3655
sg83
g3641
sg76
(lp3656
g69
(g70
g71
NtRp3657
(dp3658
g74
(dp3659
g82
I3
ssg83
g3653
sg76
(lp3660
S'user_2'
p3661
asbasbasbasbasbasbasbasbasbasbasbag69
(g85
g71
NtRp3662
(dp3663
g74
(dp3664
sg83
g3303
sg76
(lp3665
g69
(g90
g71
NtRp3666
(dp3667
g74
(dp3668
g94
g95
ssg83
g3662
sg76
(lp3669
S'last_query'
p3670
asbag69
(g90
g71
NtRp3671
(dp3672
g74
(dp3673
g101
g102
ssg83
g3662
sg76
(lp3674
S':'
asbag69
(g90
g71
NtRp3675
(dp3676
g74
(dp3677
sg83
g3662
sg76
(lp3678
g69
(g70
g71
NtRp3679
(dp3680
g74
(dp3681
g82
I5
ssg83
g3675
sg76
(lp3682
S'db.Book_Profile.id>0'
p3683
asbasbasbasbasbsS'etype'
p3684
S"<type 'exceptions.IndentationError'>"
p3685
sS'date'
p3686
S'Sun Jun  3 17:49:31 2012'
p3687
sS'response'
p3688
g69
(g70
g71
NtRp3689
(dp3690
g74
(dp3691
sg76
(lp3692
g69
(g78
g71
NtRp3693
(dp3694
g74
(dp3695
g82
I5
ssg83
Nsg76
(lp3696
g69
(g85
g71
NtRp3697
(dp3698
g74
(dp3699
sg83
g3693
sg76
(lp3700
g69
(g90
g71
NtRp3701
(dp3702
g74
(dp3703
g94
g95
ssg83
g3697
sg76
(lp3704
g167
asbag69
(g90
g71
NtRp3705
(dp3706
g74
(dp3707
g101
g102
ssg83
g3697
sg76
(lp3708
S':'
asbag69
(g90
g71
NtRp3709
(dp3710
g74
(dp3711
sg83
g3697
sg76
(lp3712
g69
(g70
g71
NtRp3713
(dp3714
g74
(dp3715
g82
I5
ssg83
g3709
sg76
(lp3716
S'<cStringIO.StringO object at 0x109f56d18>'
p3717
asbasbasbag69
(g85
g71
NtRp3718
(dp3719
g74
(dp3720
sg83
g3693
sg76
(lp3721
g69
(g90
g71
NtRp3722
(dp3723
g74
(dp3724
g94
g95
ssg83
g3718
sg76
(lp3725
g233
asbag69
(g90
g71
NtRp3726
(dp3727
g74
(dp3728
g101
g102
ssg83
g3718
sg76
(lp3729
S':'
asbag69
(g90
g71
NtRp3730
(dp3731
g74
(dp3732
sg83
g3718
sg76
(lp3733
g69
(g70
g71
NtRp3734
(dp3735
g74
(dp3736
g82
I5
ssg83
g3730
sg76
(lp3737
g69
(g78
g71
NtRp3738
(dp3739
g74
(dp3740
g82
I4
ssg83
Nsg76
(lp3741
g69
(g85
g71
NtRp3742
(dp3743
g74
(dp3744
sg83
g3738
sg76
(lp3745
g69
(g90
g71
NtRp3746
(dp3747
g74
(dp3748
g94
g95
ssg83
g3742
sg76
(lp3749
S'session_id_book_shelf_copy'
p3750
asbag69
(g90
g71
NtRp3751
(dp3752
g74
(dp3753
g101
g102
ssg83
g3742
sg76
(lp3754
S':'
asbag69
(g90
g71
NtRp3755
(dp3756
g74
(dp3757
sg83
g3742
sg76
(lp3758
g69
(g70
g71
NtRp3759
(dp3760
g74
(dp3761
g82
I4
ssg83
g3755
sg76
(lp3762
g69
(g78
g71
NtRp3763
(dp3764
g74
(dp3765
g82
I3
ssg83
Nsg76
(lp3766
g69
(g85
g71
NtRp3767
(dp3768
g74
(dp3769
sg83
g3763
sg76
(lp3770
g69
(g90
g71
NtRp3771
(dp3772
g74
(dp3773
g94
g95
ssg83
g3767
sg76
(lp3774
g283
asbag69
(g90
g71
NtRp3775
(dp3776
g74
(dp3777
g101
g102
ssg83
g3767
sg76
(lp3778
S':'
asbag69
(g90
g71
NtRp3779
(dp3780
g74
(dp3781
sg83
g3767
sg76
(lp3782
g69
(g70
g71
NtRp3783
(dp3784
g74
(dp3785
g82
I3
ssg83
g3779
sg76
(lp3786
S''
asbasbasbag69
(g85
g71
NtRp3787
(dp3788
g74
(dp3789
sg83
g3763
sg76
(lp3790
g69
(g90
g71
NtRp3791
(dp3792
g74
(dp3793
g94
g95
ssg83
g3787
sg76
(lp3794
g304
asbag69
(g90
g71
NtRp3795
(dp3796
g74
(dp3797
g101
g102
ssg83
g3787
sg76
(lp3798
S':'
asbag69
(g90
g71
NtRp3799
(dp3800
g74
(dp3801
sg83
g3787
sg76
(lp3802
g69
(g70
g71
NtRp3803
(dp3804
g74
(dp3805
g82
I3
ssg83
g3799
sg76
(lp3806
S''
asbasbasbag69
(g85
g71
NtRp3807
(dp3808
g74
(dp3809
sg83
g3763
sg76
(lp3810
g69
(g90
g71
NtRp3811
(dp3812
g74
(dp3813
g94
g95
ssg83
g3807
sg76
(lp3814
g325
asbag69
(g90
g71
NtRp3815
(dp3816
g74
(dp3817
g101
g102
ssg83
g3807
sg76
(lp3818
S':'
asbag69
(g90
g71
NtRp3819
(dp3820
g74
(dp3821
sg83
g3807
sg76
(lp3822
g69
(g70
g71
NtRp3823
(dp3824
g74
(dp3825
g82
I3
ssg83
g3819
sg76
(lp3826
S''
asbasbasbag69
(g85
g71
NtRp3827
(dp3828
g74
(dp3829
sg83
g3763
sg76
(lp3830
g69
(g90
g71
NtRp3831
(dp3832
g74
(dp3833
g94
g95
ssg83
g3827
sg76
(lp3834
g346
asbag69
(g90
g71
NtRp3835
(dp3836
g74
(dp3837
g101
g102
ssg83
g3827
sg76
(lp3838
S':'
asbag69
(g90
g71
NtRp3839
(dp3840
g74
(dp3841
sg83
g3827
sg76
(lp3842
g69
(g70
g71
NtRp3843
(dp3844
g74
(dp3845
g82
I3
ssg83
g3839
sg76
(lp3846
S''
asbasbasbag69
(g85
g71
NtRp3847
(dp3848
g74
(dp3849
sg83
g3763
sg76
(lp3850
g69
(g90
g71
NtRp3851
(dp3852
g74
(dp3853
g94
g95
ssg83
g3847
sg76
(lp3854
g367
asbag69
(g90
g71
NtRp3855
(dp3856
g74
(dp3857
g101
g102
ssg83
g3847
sg76
(lp3858
S':'
asbag69
(g90
g71
NtRp3859
(dp3860
g74
(dp3861
sg83
g3847
sg76
(lp3862
g69
(g70
g71
NtRp3863
(dp3864
g74
(dp3865
g82
I3
ssg83
g3859
sg76
(lp3866
S''
asbasbasbag69
(g85
g71
NtRp3867
(dp3868
g74
(dp3869
sg83
g3763
sg76
(lp3870
g69
(g90
g71
NtRp3871
(dp3872
g74
(dp3873
g94
g95
ssg83
g3867
sg76
(lp3874
g388
asbag69
(g90
g71
NtRp3875
(dp3876
g74
(dp3877
g101
g102
ssg83
g3867
sg76
(lp3878
S':'
asbag69
(g90
g71
NtRp3879
(dp3880
g74
(dp3881
sg83
g3867
sg76
(lp3882
g69
(g70
g71
NtRp3883
(dp3884
g74
(dp3885
g82
I3
ssg83
g3879
sg76
(lp3886
S'/'
asbasbasbag69
(g85
g71
NtRp3887
(dp3888
g74
(dp3889
sg83
g3763
sg76
(lp3890
g69
(g90
g71
NtRp3891
(dp3892
g74
(dp3893
g94
g95
ssg83
g3887
sg76
(lp3894
g409
asbag69
(g90
g71
NtRp3895
(dp3896
g74
(dp3897
g101
g102
ssg83
g3887
sg76
(lp3898
S':'
asbag69
(g90
g71
NtRp3899
(dp3900
g74
(dp3901
sg83
g3887
sg76
(lp3902
g69
(g70
g71
NtRp3903
(dp3904
g74
(dp3905
g82
I3
ssg83
g3899
sg76
(lp3906
S''
asbasbasbag69
(g85
g71
NtRp3907
(dp3908
g74
(dp3909
sg83
g3763
sg76
(lp3910
g69
(g90
g71
NtRp3911
(dp3912
g74
(dp3913
g94
g95
ssg83
g3907
sg76
(lp3914
g430
asbag69
(g90
g71
NtRp3915
(dp3916
g74
(dp3917
g101
g102
ssg83
g3907
sg76
(lp3918
S':'
asbag69
(g90
g71
NtRp3919
(dp3920
g74
(dp3921
sg83
g3907
sg76
(lp3922
g69
(g70
g71
NtRp3923
(dp3924
g74
(dp3925
g82
I3
ssg83
g3919
sg76
(lp3926
S''
asbasbasbasbasbasbasbasbasbasbasbag69
(g85
g71
NtRp3927
(dp3928
g74
(dp3929
sg83
g3693
sg76
(lp3930
g69
(g90
g71
NtRp3931
(dp3932
g74
(dp3933
g94
g95
ssg83
g3927
sg76
(lp3934
S'delimiters'
p3935
asbag69
(g90
g71
NtRp3936
(dp3937
g74
(dp3938
g101
g102
ssg83
g3927
sg76
(lp3939
S':'
asbag69
(g90
g71
NtRp3940
(dp3941
g74
(dp3942
sg83
g3927
sg76
(lp3943
g69
(g70
g71
NtRp3944
(dp3945
g74
(dp3946
g82
I5
ssg83
g3940
sg76
(lp3947
g69
(g78
g71
NtRp3948
(dp3949
g74
(dp3950
g82
I4
ssg83
Nsg76
(lp3951
g69
(g85
g71
NtRp3952
(dp3953
g74
(dp3954
sg83
g3948
sg76
(lp3955
g69
(g90
g71
NtRp3956
(dp3957
g74
(dp3958
sg83
g3952
sg76
(lp3959
g69
(g70
g71
NtRp3960
(dp3961
g74
(dp3962
g82
I4
ssg83
g3956
sg76
(lp3963
S'{{'
p3964
asbasbasbag69
(g85
g71
NtRp3965
(dp3966
g74
(dp3967
sg83
g3948
sg76
(lp3968
g69
(g90
g71
NtRp3969
(dp3970
g74
(dp3971
sg83
g3965
sg76
(lp3972
g69
(g70
g71
NtRp3973
(dp3974
g74
(dp3975
g82
I4
ssg83
g3969
sg76
(lp3976
S'}}'
p3977
asbasbasbasbasbasbasbag69
(g85
g71
NtRp3978
(dp3979
g74
(dp3980
sg83
g3693
sg76
(lp3981
g69
(g90
g71
NtRp3982
(dp3983
g74
(dp3984
g94
g95
ssg83
g3978
sg76
(lp3985
S'files'
p3986
asbag69
(g90
g71
NtRp3987
(dp3988
g74
(dp3989
g101
g102
ssg83
g3978
sg76
(lp3990
S':'
asbag69
(g90
g71
NtRp3991
(dp3992
g74
(dp3993
sg83
g3978
sg76
(lp3994
g69
(g70
g71
NtRp3995
(dp3996
g74
(dp3997
g82
I5
ssg83
g3991
sg76
(lp3998
g69
(g78
g71
NtRp3999
(dp4000
g74
(dp4001
g82
I4
ssg83
Nsg76
(lp4002
sbasbasbasbag69
(g85
g71
NtRp4003
(dp4004
g74
(dp4005
sg83
g3693
sg76
(lp4006
g69
(g90
g71
NtRp4007
(dp4008
g74
(dp4009
g94
g95
ssg83
g4003
sg76
(lp4010
S'flash'
p4011
asbag69
(g90
g71
NtRp4012
(dp4013
g74
(dp4014
g101
g102
ssg83
g4003
sg76
(lp4015
S':'
asbag69
(g90
g71
NtRp4016
(dp4017
g74
(dp4018
sg83
g4003
sg76
(lp4019
g69
(g70
g71
NtRp4020
(dp4021
g74
(dp4022
g82
I5
ssg83
g4016
sg76
(lp4023
S''
asbasbasbag69
(g85
g71
NtRp4024
(dp4025
g74
(dp4026
sg83
g3693
sg76
(lp4027
g69
(g90
g71
NtRp4028
(dp4029
g74
(dp4030
g94
g95
ssg83
g4024
sg76
(lp4031
S'generic_patterns'
p4032
asbag69
(g90
g71
NtRp4033
(dp4034
g74
(dp4035
g101
g102
ssg83
g4024
sg76
(lp4036
S':'
asbag69
(g90
g71
NtRp4037
(dp4038
g74
(dp4039
sg83
g4024
sg76
(lp4040
g69
(g70
g71
NtRp4041
(dp4042
g74
(dp4043
g82
I5
ssg83
g4037
sg76
(lp4044
g69
(g78
g71
NtRp4045
(dp4046
g74
(dp4047
g82
I4
ssg83
Nsg76
(lp4048
g69
(g85
g71
NtRp4049
(dp4050
g74
(dp4051
sg83
g4045
sg76
(lp4052
g69
(g90
g71
NtRp4053
(dp4054
g74
(dp4055
sg83
g4049
sg76
(lp4056
g69
(g70
g71
NtRp4057
(dp4058
g74
(dp4059
g82
I4
ssg83
g4053
sg76
(lp4060
S'*'
asbasbasbasbasbasbasbag69
(g85
g71
NtRp4061
(dp4062
g74
(dp4063
sg83
g3693
sg76
(lp4064
g69
(g90
g71
NtRp4065
(dp4066
g74
(dp4067
g94
g95
ssg83
g4061
sg76
(lp4068
S'headers'
p4069
asbag69
(g90
g71
NtRp4070
(dp4071
g74
(dp4072
g101
g102
ssg83
g4061
sg76
(lp4073
S':'
asbag69
(g90
g71
NtRp4074
(dp4075
g74
(dp4076
sg83
g4061
sg76
(lp4077
g69
(g70
g71
NtRp4078
(dp4079
g74
(dp4080
g82
I5
ssg83
g4074
sg76
(lp4081
g69
(g78
g71
NtRp4082
(dp4083
g74
(dp4084
g82
I4
ssg83
Nsg76
(lp4085
g69
(g85
g71
NtRp4086
(dp4087
g74
(dp4088
sg83
g4082
sg76
(lp4089
g69
(g90
g71
NtRp4090
(dp4091
g74
(dp4092
g94
g95
ssg83
g4086
sg76
(lp4093
S'Cache-Control'
p4094
asbag69
(g90
g71
NtRp4095
(dp4096
g74
(dp4097
g101
g102
ssg83
g4086
sg76
(lp4098
S':'
asbag69
(g90
g71
NtRp4099
(dp4100
g74
(dp4101
sg83
g4086
sg76
(lp4102
g69
(g70
g71
NtRp4103
(dp4104
g74
(dp4105
g82
I4
ssg83
g4099
sg76
(lp4106
S'no-store, no-cache, must-revalidate, post-check=0, pre-check=0'
p4107
asbasbasbag69
(g85
g71
NtRp4108
(dp4109
g74
(dp4110
sg83
g4082
sg76
(lp4111
g69
(g90
g71
NtRp4112
(dp4113
g74
(dp4114
g94
g95
ssg83
g4108
sg76
(lp4115
S'Content-Type'
p4116
asbag69
(g90
g71
NtRp4117
(dp4118
g74
(dp4119
g101
g102
ssg83
g4108
sg76
(lp4120
S':'
asbag69
(g90
g71
NtRp4121
(dp4122
g74
(dp4123
sg83
g4108
sg76
(lp4124
g69
(g70
g71
NtRp4125
(dp4126
g74
(dp4127
g82
I4
ssg83
g4121
sg76
(lp4128
S'text/html; charset=utf-8'
p4129
asbasbasbag69
(g85
g71
NtRp4130
(dp4131
g74
(dp4132
sg83
g4082
sg76
(lp4133
g69
(g90
g71
NtRp4134
(dp4135
g74
(dp4136
g94
g95
ssg83
g4130
sg76
(lp4137
S'Expires'
p4138
asbag69
(g90
g71
NtRp4139
(dp4140
g74
(dp4141
g101
g102
ssg83
g4130
sg76
(lp4142
S':'
asbag69
(g90
g71
NtRp4143
(dp4144
g74
(dp4145
sg83
g4130
sg76
(lp4146
g69
(g70
g71
NtRp4147
(dp4148
g74
(dp4149
g82
I4
ssg83
g4143
sg76
(lp4150
S'Sun, 03 Jun 2012 22:49:31 GMT'
p4151
asbasbasbag69
(g85
g71
NtRp4152
(dp4153
g74
(dp4154
sg83
g4082
sg76
(lp4155
g69
(g90
g71
NtRp4156
(dp4157
g74
(dp4158
g94
g95
ssg83
g4152
sg76
(lp4159
S'Pragma'
p4160
asbag69
(g90
g71
NtRp4161
(dp4162
g74
(dp4163
g101
g102
ssg83
g4152
sg76
(lp4164
S':'
asbag69
(g90
g71
NtRp4165
(dp4166
g74
(dp4167
sg83
g4152
sg76
(lp4168
g69
(g70
g71
NtRp4169
(dp4170
g74
(dp4171
g82
I4
ssg83
g4165
sg76
(lp4172
S'no-cache'
p4173
asbasbasbag69
(g85
g71
NtRp4174
(dp4175
g74
(dp4176
sg83
g4082
sg76
(lp4177
g69
(g90
g71
NtRp4178
(dp4179
g74
(dp4180
g94
g95
ssg83
g4174
sg76
(lp4181
S'X-Powered-By'
p4182
asbag69
(g90
g71
NtRp4183
(dp4184
g74
(dp4185
g101
g102
ssg83
g4174
sg76
(lp4186
S':'
asbag69
(g90
g71
NtRp4187
(dp4188
g74
(dp4189
sg83
g4174
sg76
(lp4190
g69
(g70
g71
NtRp4191
(dp4192
g74
(dp4193
g82
I4
ssg83
g4187
sg76
(lp4194
S'web2py'
p4195
asbasbasbasbasbasbasbag69
(g85
g71
NtRp4196
(dp4197
g74
(dp4198
sg83
g3693
sg76
(lp4199
g69
(g90
g71
NtRp4200
(dp4201
g74
(dp4202
g94
g95
ssg83
g4196
sg76
(lp4203
S'menu'
p4204
asbag69
(g90
g71
NtRp4205
(dp4206
g74
(dp4207
g101
g102
ssg83
g4196
sg76
(lp4208
S':'
asbag69
(g90
g71
NtRp4209
(dp4210
g74
(dp4211
sg83
g4196
sg76
(lp4212
g69
(g70
g71
NtRp4213
(dp4214
g74
(dp4215
g82
I5
ssg83
g4209
sg76
(lp4216
g69
(g78
g71
NtRp4217
(dp4218
g74
(dp4219
g82
I4
ssg83
Nsg76
(lp4220
g69
(g85
g71
NtRp4221
(dp4222
g74
(dp4223
sg83
g4217
sg76
(lp4224
g69
(g90
g71
NtRp4225
(dp4226
g74
(dp4227
sg83
g4221
sg76
(lp4228
g69
(g70
g71
NtRp4229
(dp4230
g74
(dp4231
g82
I4
ssg83
g4225
sg76
(lp4232
g69
(g78
g71
NtRp4233
(dp4234
g74
(dp4235
g82
I3
ssg83
Nsg76
(lp4236
g69
(g85
g71
NtRp4237
(dp4238
g74
(dp4239
sg83
g4233
sg76
(lp4240
g69
(g90
g71
NtRp4241
(dp4242
g74
(dp4243
sg83
g4237
sg76
(lp4244
g69
(g70
g71
NtRp4245
(dp4246
g74
(dp4247
g82
I3
ssg83
g4241
sg76
(lp4248
cgluon.languages
lazyT_unpickle
p4249
(S't\x04\x00\x00\x00Home'
tRp4250
asbasbasbag69
(g85
g71
NtRp4251
(dp4252
g74
(dp4253
sg83
g4233
sg76
(lp4254
g69
(g90
g71
NtRp4255
(dp4256
g74
(dp4257
sg83
g4251
sg76
(lp4258
g69
(g70
g71
NtRp4259
(dp4260
g74
(dp4261
g82
I3
ssg83
g4255
sg76
(lp4262
g112
asbasbasbag69
(g85
g71
NtRp4263
(dp4264
g74
(dp4265
sg83
g4233
sg76
(lp4266
g69
(g90
g71
NtRp4267
(dp4268
g74
(dp4269
sg83
g4263
sg76
(lp4270
g69
(g70
g71
NtRp4271
(dp4272
g74
(dp4273
g82
I3
ssg83
g4267
sg76
(lp4274
S'/Book_Shelf_copy/default/index'
p4275
asbasbasbag69
(g85
g71
NtRp4276
(dp4277
g74
(dp4278
sg83
g4233
sg76
(lp4279
g69
(g90
g71
NtRp4280
(dp4281
g74
(dp4282
sg83
g4276
sg76
(lp4283
g69
(g70
g71
NtRp4284
(dp4285
g74
(dp4286
g82
I3
ssg83
g4280
sg76
(lp4287
g69
(g78
g71
NtRp4288
(dp4289
g74
(dp4290
g82
I2
ssg83
Nsg76
(lp4291
sbasbasbasbasbasbasbasbag69
(g85
g71
NtRp4292
(dp4293
g74
(dp4294
sg83
g4217
sg76
(lp4295
g69
(g90
g71
NtRp4296
(dp4297
g74
(dp4298
sg83
g4292
sg76
(lp4299
g69
(g70
g71
NtRp4300
(dp4301
g74
(dp4302
g82
I4
ssg83
g4296
sg76
(lp4303
g69
(g78
g71
NtRp4304
(dp4305
g74
(dp4306
g82
I3
ssg83
Nsg76
(lp4307
g69
(g85
g71
NtRp4308
(dp4309
g74
(dp4310
sg83
g4304
sg76
(lp4311
g69
(g90
g71
NtRp4312
(dp4313
g74
(dp4314
sg83
g4308
sg76
(lp4315
g69
(g70
g71
NtRp4316
(dp4317
g74
(dp4318
g82
I3
ssg83
g4312
sg76
(lp4319
g4249
(S's\x0c\x00\x00\x00User Profile'
tRp4320
asbasbasbag69
(g85
g71
NtRp4321
(dp4322
g74
(dp4323
sg83
g4304
sg76
(lp4324
g69
(g90
g71
NtRp4325
(dp4326
g74
(dp4327
sg83
g4321
sg76
(lp4328
g69
(g70
g71
NtRp4329
(dp4330
g74
(dp4331
g82
I3
ssg83
g4325
sg76
(lp4332
g112
asbasbasbag69
(g85
g71
NtRp4333
(dp4334
g74
(dp4335
sg83
g4304
sg76
(lp4336
g69
(g90
g71
NtRp4337
(dp4338
g74
(dp4339
sg83
g4333
sg76
(lp4340
g69
(g70
g71
NtRp4341
(dp4342
g74
(dp4343
g82
I3
ssg83
g4337
sg76
(lp4344
S'None'
p4345
asbasbasbag69
(g85
g71
NtRp4346
(dp4347
g74
(dp4348
sg83
g4304
sg76
(lp4349
g69
(g90
g71
NtRp4350
(dp4351
g74
(dp4352
sg83
g4346
sg76
(lp4353
g69
(g70
g71
NtRp4354
(dp4355
g74
(dp4356
g82
I3
ssg83
g4350
sg76
(lp4357
g69
(g78
g71
NtRp4358
(dp4359
g74
(dp4360
g82
I2
ssg83
Nsg76
(lp4361
g69
(g85
g71
NtRp4362
(dp4363
g74
(dp4364
sg83
g4358
sg76
(lp4365
g69
(g90
g71
NtRp4366
(dp4367
g74
(dp4368
sg83
g4362
sg76
(lp4369
g69
(g70
g71
NtRp4370
(dp4371
g74
(dp4372
g82
I2
ssg83
g4366
sg76
(lp4373
g69
(g78
g71
NtRp4374
(dp4375
g74
(dp4376
g82
I1
ssg83
Nsg76
(lp4377
g69
(g85
g71
NtRp4378
(dp4379
g74
(dp4380
sg83
g4374
sg76
(lp4381
g69
(g90
g71
NtRp4382
(dp4383
g74
(dp4384
sg83
g4378
sg76
(lp4385
g69
(g70
g71
NtRp4386
(dp4387
g74
(dp4388
g82
I1
ssg83
g4382
sg76
(lp4389
g4249
(S's\x0c\x00\x00\x00User Profile'
tRp4390
asbasbasbag69
(g85
g71
NtRp4391
(dp4392
g74
(dp4393
sg83
g4374
sg76
(lp4394
g69
(g90
g71
NtRp4395
(dp4396
g74
(dp4397
sg83
g4391
sg76
(lp4398
g69
(g70
g71
NtRp4399
(dp4400
g74
(dp4401
g82
I1
ssg83
g4395
sg76
(lp4402
I00
asbasbasbag69
(g85
g71
NtRp4403
(dp4404
g74
(dp4405
sg83
g4374
sg76
(lp4406
g69
(g90
g71
NtRp4407
(dp4408
g74
(dp4409
sg83
g4403
sg76
(lp4410
g69
(g70
g71
NtRp4411
(dp4412
g74
(dp4413
g82
I1
ssg83
g4407
sg76
(lp4414
S'/Book_Shelf_copy/default/user_profile'
p4415
asbasbasbasbasbasbasbag69
(g85
g71
NtRp4416
(dp4417
g74
(dp4418
sg83
g4358
sg76
(lp4419
g69
(g90
g71
NtRp4420
(dp4421
g74
(dp4422
sg83
g4416
sg76
(lp4423
g69
(g70
g71
NtRp4424
(dp4425
g74
(dp4426
g82
I2
ssg83
g4420
sg76
(lp4427
g69
(g78
g71
NtRp4428
(dp4429
g74
(dp4430
g82
I1
ssg83
Nsg76
(lp4431
g69
(g85
g71
NtRp4432
(dp4433
g74
(dp4434
sg83
g4428
sg76
(lp4435
g69
(g90
g71
NtRp4436
(dp4437
g74
(dp4438
sg83
g4432
sg76
(lp4439
g69
(g70
g71
NtRp4440
(dp4441
g74
(dp4442
g82
I1
ssg83
g4436
sg76
(lp4443
g4249
(S's\x13\x00\x00\x00Create User Profile'
tRp4444
asbasbasbag69
(g85
g71
NtRp4445
(dp4446
g74
(dp4447
sg83
g4428
sg76
(lp4448
g69
(g90
g71
NtRp4449
(dp4450
g74
(dp4451
sg83
g4445
sg76
(lp4452
g69
(g70
g71
NtRp4453
(dp4454
g74
(dp4455
g82
I1
ssg83
g4449
sg76
(lp4456
I00
asbasbasbag69
(g85
g71
NtRp4457
(dp4458
g74
(dp4459
sg83
g4428
sg76
(lp4460
g69
(g90
g71
NtRp4461
(dp4462
g74
(dp4463
sg83
g4457
sg76
(lp4464
g69
(g70
g71
NtRp4465
(dp4466
g74
(dp4467
g82
I1
ssg83
g4461
sg76
(lp4468
S'/Book_Shelf_copy/default/create_user_profile'
p4469
asbasbasbasbasbasbasbag69
(g85
g71
NtRp4470
(dp4471
g74
(dp4472
sg83
g4358
sg76
(lp4473
g69
(g90
g71
NtRp4474
(dp4475
g74
(dp4476
sg83
g4470
sg76
(lp4477
g69
(g70
g71
NtRp4478
(dp4479
g74
(dp4480
g82
I2
ssg83
g4474
sg76
(lp4481
g69
(g78
g71
NtRp4482
(dp4483
g74
(dp4484
g82
I1
ssg83
Nsg76
(lp4485
g69
(g85
g71
NtRp4486
(dp4487
g74
(dp4488
sg83
g4482
sg76
(lp4489
g69
(g90
g71
NtRp4490
(dp4491
g74
(dp4492
sg83
g4486
sg76
(lp4493
g69
(g70
g71
NtRp4494
(dp4495
g74
(dp4496
g82
I1
ssg83
g4490
sg76
(lp4497
g4249
(S's\x13\x00\x00\x00Update User Profile'
tRp4498
asbasbasbag69
(g85
g71
NtRp4499
(dp4500
g74
(dp4501
sg83
g4482
sg76
(lp4502
g69
(g90
g71
NtRp4503
(dp4504
g74
(dp4505
sg83
g4499
sg76
(lp4506
g69
(g70
g71
NtRp4507
(dp4508
g74
(dp4509
g82
I1
ssg83
g4503
sg76
(lp4510
I00
asbasbasbag69
(g85
g71
NtRp4511
(dp4512
g74
(dp4513
sg83
g4482
sg76
(lp4514
g69
(g90
g71
NtRp4515
(dp4516
g74
(dp4517
sg83
g4511
sg76
(lp4518
g69
(g70
g71
NtRp4519
(dp4520
g74
(dp4521
g82
I1
ssg83
g4515
sg76
(lp4522
S'/Book_Shelf_copy/default/update_user_profile'
p4523
asbasbasbasbasbasbasbasbasbasbasbasbasbasbasbag69
(g85
g71
NtRp4524
(dp4525
g74
(dp4526
sg83
g4217
sg76
(lp4527
g69
(g90
g71
NtRp4528
(dp4529
g74
(dp4530
sg83
g4524
sg76
(lp4531
g69
(g70
g71
NtRp4532
(dp4533
g74
(dp4534
g82
I4
ssg83
g4528
sg76
(lp4535
g69
(g78
g71
NtRp4536
(dp4537
g74
(dp4538
g82
I3
ssg83
Nsg76
(lp4539
g69
(g85
g71
NtRp4540
(dp4541
g74
(dp4542
sg83
g4536
sg76
(lp4543
g69
(g90
g71
NtRp4544
(dp4545
g74
(dp4546
sg83
g4540
sg76
(lp4547
g69
(g70
g71
NtRp4548
(dp4549
g74
(dp4550
g82
I3
ssg83
g4544
sg76
(lp4551
g4249
(S't\x04\x00\x00\x00Book'
tRp4552
asbasbasbag69
(g85
g71
NtRp4553
(dp4554
g74
(dp4555
sg83
g4536
sg76
(lp4556
g69
(g90
g71
NtRp4557
(dp4558
g74
(dp4559
sg83
g4553
sg76
(lp4560
g69
(g70
g71
NtRp4561
(dp4562
g74
(dp4563
g82
I3
ssg83
g4557
sg76
(lp4564
g112
asbasbasbag69
(g85
g71
NtRp4565
(dp4566
g74
(dp4567
sg83
g4536
sg76
(lp4568
g69
(g90
g71
NtRp4569
(dp4570
g74
(dp4571
sg83
g4565
sg76
(lp4572
g69
(g70
g71
NtRp4573
(dp4574
g74
(dp4575
g82
I3
ssg83
g4569
sg76
(lp4576
S'None'
p4577
asbasbasbag69
(g85
g71
NtRp4578
(dp4579
g74
(dp4580
sg83
g4536
sg76
(lp4581
g69
(g90
g71
NtRp4582
(dp4583
g74
(dp4584
sg83
g4578
sg76
(lp4585
g69
(g70
g71
NtRp4586
(dp4587
g74
(dp4588
g82
I3
ssg83
g4582
sg76
(lp4589
g69
(g78
g71
NtRp4590
(dp4591
g74
(dp4592
g82
I2
ssg83
Nsg76
(lp4593
g69
(g85
g71
NtRp4594
(dp4595
g74
(dp4596
sg83
g4590
sg76
(lp4597
g69
(g90
g71
NtRp4598
(dp4599
g74
(dp4600
sg83
g4594
sg76
(lp4601
g69
(g70
g71
NtRp4602
(dp4603
g74
(dp4604
g82
I2
ssg83
g4598
sg76
(lp4605
g69
(g78
g71
NtRp4606
(dp4607
g74
(dp4608
g82
I1
ssg83
Nsg76
(lp4609
g69
(g85
g71
NtRp4610
(dp4611
g74
(dp4612
sg83
g4606
sg76
(lp4613
g69
(g90
g71
NtRp4614
(dp4615
g74
(dp4616
sg83
g4610
sg76
(lp4617
g69
(g70
g71
NtRp4618
(dp4619
g74
(dp4620
g82
I1
ssg83
g4614
sg76
(lp4621
g4249
(S's\x0c\x00\x00\x00Book Profile'
tRp4622
asbasbasbag69
(g85
g71
NtRp4623
(dp4624
g74
(dp4625
sg83
g4606
sg76
(lp4626
g69
(g90
g71
NtRp4627
(dp4628
g74
(dp4629
sg83
g4623
sg76
(lp4630
g69
(g70
g71
NtRp4631
(dp4632
g74
(dp4633
g82
I1
ssg83
g4627
sg76
(lp4634
I00
asbasbasbag69
(g85
g71
NtRp4635
(dp4636
g74
(dp4637
sg83
g4606
sg76
(lp4638
g69
(g90
g71
NtRp4639
(dp4640
g74
(dp4641
sg83
g4635
sg76
(lp4642
g69
(g70
g71
NtRp4643
(dp4644
g74
(dp4645
g82
I1
ssg83
g4639
sg76
(lp4646
S'/Book_Shelf_copy/default/book_profile'
p4647
asbasbasbasbasbasbasbag69
(g85
g71
NtRp4648
(dp4649
g74
(dp4650
sg83
g4590
sg76
(lp4651
g69
(g90
g71
NtRp4652
(dp4653
g74
(dp4654
sg83
g4648
sg76
(lp4655
g69
(g70
g71
NtRp4656
(dp4657
g74
(dp4658
g82
I2
ssg83
g4652
sg76
(lp4659
g69
(g78
g71
NtRp4660
(dp4661
g74
(dp4662
g82
I1
ssg83
Nsg76
(lp4663
g69
(g85
g71
NtRp4664
(dp4665
g74
(dp4666
sg83
g4660
sg76
(lp4667
g69
(g90
g71
NtRp4668
(dp4669
g74
(dp4670
sg83
g4664
sg76
(lp4671
g69
(g70
g71
NtRp4672
(dp4673
g74
(dp4674
g82
I1
ssg83
g4668
sg76
(lp4675
g4249
(S's\x13\x00\x00\x00Create Book Profile'
tRp4676
asbasbasbag69
(g85
g71
NtRp4677
(dp4678
g74
(dp4679
sg83
g4660
sg76
(lp4680
g69
(g90
g71
NtRp4681
(dp4682
g74
(dp4683
sg83
g4677
sg76
(lp4684
g69
(g70
g71
NtRp4685
(dp4686
g74
(dp4687
g82
I1
ssg83
g4681
sg76
(lp4688
I00
asbasbasbag69
(g85
g71
NtRp4689
(dp4690
g74
(dp4691
sg83
g4660
sg76
(lp4692
g69
(g90
g71
NtRp4693
(dp4694
g74
(dp4695
sg83
g4689
sg76
(lp4696
g69
(g70
g71
NtRp4697
(dp4698
g74
(dp4699
g82
I1
ssg83
g4693
sg76
(lp4700
S'/Book_Shelf_copy/default/create_book_profile'
p4701
asbasbasbasbasbasbasbag69
(g85
g71
NtRp4702
(dp4703
g74
(dp4704
sg83
g4590
sg76
(lp4705
g69
(g90
g71
NtRp4706
(dp4707
g74
(dp4708
sg83
g4702
sg76
(lp4709
g69
(g70
g71
NtRp4710
(dp4711
g74
(dp4712
g82
I2
ssg83
g4706
sg76
(lp4713
g69
(g78
g71
NtRp4714
(dp4715
g74
(dp4716
g82
I1
ssg83
Nsg76
(lp4717
g69
(g85
g71
NtRp4718
(dp4719
g74
(dp4720
sg83
g4714
sg76
(lp4721
g69
(g90
g71
NtRp4722
(dp4723
g74
(dp4724
sg83
g4718
sg76
(lp4725
g69
(g70
g71
NtRp4726
(dp4727
g74
(dp4728
g82
I1
ssg83
g4722
sg76
(lp4729
g4249
(S's\x13\x00\x00\x00Update Book Profile'
tRp4730
asbasbasbag69
(g85
g71
NtRp4731
(dp4732
g74
(dp4733
sg83
g4714
sg76
(lp4734
g69
(g90
g71
NtRp4735
(dp4736
g74
(dp4737
sg83
g4731
sg76
(lp4738
g69
(g70
g71
NtRp4739
(dp4740
g74
(dp4741
g82
I1
ssg83
g4735
sg76
(lp4742
I00
asbasbasbag69
(g85
g71
NtRp4743
(dp4744
g74
(dp4745
sg83
g4714
sg76
(lp4746
g69
(g90
g71
NtRp4747
(dp4748
g74
(dp4749
sg83
g4743
sg76
(lp4750
g69
(g70
g71
NtRp4751
(dp4752
g74
(dp4753
g82
I1
ssg83
g4747
sg76
(lp4754
S'/Book_Shelf_copy/default/update_book_profile'
p4755
asbasbasbasbasbasbasbasbasbasbasbasbasbasbasbag69
(g85
g71
NtRp4756
(dp4757
g74
(dp4758
sg83
g4217
sg76
(lp4759
g69
(g90
g71
NtRp4760
(dp4761
g74
(dp4762
sg83
g4756
sg76
(lp4763
g69
(g70
g71
NtRp4764
(dp4765
g74
(dp4766
g82
I4
ssg83
g4760
sg76
(lp4767
g69
(g78
g71
NtRp4768
(dp4769
g74
(dp4770
g82
I3
ssg83
Nsg76
(lp4771
g69
(g85
g71
NtRp4772
(dp4773
g74
(dp4774
sg83
g4768
sg76
(lp4775
g69
(g90
g71
NtRp4776
(dp4777
g74
(dp4778
sg83
g4772
sg76
(lp4779
g69
(g70
g71
NtRp4780
(dp4781
g74
(dp4782
g82
I3
ssg83
g4776
sg76
(lp4783
g4249
(S's\n\x00\x00\x00Book Shelf'
tRp4784
asbasbasbag69
(g85
g71
NtRp4785
(dp4786
g74
(dp4787
sg83
g4768
sg76
(lp4788
g69
(g90
g71
NtRp4789
(dp4790
g74
(dp4791
sg83
g4785
sg76
(lp4792
g69
(g70
g71
NtRp4793
(dp4794
g74
(dp4795
g82
I3
ssg83
g4789
sg76
(lp4796
g112
asbasbasbag69
(g85
g71
NtRp4797
(dp4798
g74
(dp4799
sg83
g4768
sg76
(lp4800
g69
(g90
g71
NtRp4801
(dp4802
g74
(dp4803
sg83
g4797
sg76
(lp4804
g69
(g70
g71
NtRp4805
(dp4806
g74
(dp4807
g82
I3
ssg83
g4801
sg76
(lp4808
S'None'
p4809
asbasbasbag69
(g85
g71
NtRp4810
(dp4811
g74
(dp4812
sg83
g4768
sg76
(lp4813
g69
(g90
g71
NtRp4814
(dp4815
g74
(dp4816
sg83
g4810
sg76
(lp4817
g69
(g70
g71
NtRp4818
(dp4819
g74
(dp4820
g82
I3
ssg83
g4814
sg76
(lp4821
g69
(g78
g71
NtRp4822
(dp4823
g74
(dp4824
g82
I2
ssg83
Nsg76
(lp4825
g69
(g85
g71
NtRp4826
(dp4827
g74
(dp4828
sg83
g4822
sg76
(lp4829
g69
(g90
g71
NtRp4830
(dp4831
g74
(dp4832
sg83
g4826
sg76
(lp4833
g69
(g70
g71
NtRp4834
(dp4835
g74
(dp4836
g82
I2
ssg83
g4830
sg76
(lp4837
g69
(g78
g71
NtRp4838
(dp4839
g74
(dp4840
g82
I1
ssg83
Nsg76
(lp4841
g69
(g85
g71
NtRp4842
(dp4843
g74
(dp4844
sg83
g4838
sg76
(lp4845
g69
(g90
g71
NtRp4846
(dp4847
g74
(dp4848
sg83
g4842
sg76
(lp4849
g69
(g70
g71
NtRp4850
(dp4851
g74
(dp4852
g82
I1
ssg83
g4846
sg76
(lp4853
g4249
(S's\n\x00\x00\x00Book Shelf'
tRp4854
asbasbasbag69
(g85
g71
NtRp4855
(dp4856
g74
(dp4857
sg83
g4838
sg76
(lp4858
g69
(g90
g71
NtRp4859
(dp4860
g74
(dp4861
sg83
g4855
sg76
(lp4862
g69
(g70
g71
NtRp4863
(dp4864
g74
(dp4865
g82
I1
ssg83
g4859
sg76
(lp4866
I00
asbasbasbag69
(g85
g71
NtRp4867
(dp4868
g74
(dp4869
sg83
g4838
sg76
(lp4870
g69
(g90
g71
NtRp4871
(dp4872
g74
(dp4873
sg83
g4867
sg76
(lp4874
g69
(g70
g71
NtRp4875
(dp4876
g74
(dp4877
g82
I1
ssg83
g4871
sg76
(lp4878
S'/Book_Shelf_copy/default/book_shelf'
p4879
asbasbasbasbasbasbasbag69
(g85
g71
NtRp4880
(dp4881
g74
(dp4882
sg83
g4822
sg76
(lp4883
g69
(g90
g71
NtRp4884
(dp4885
g74
(dp4886
sg83
g4880
sg76
(lp4887
g69
(g70
g71
NtRp4888
(dp4889
g74
(dp4890
g82
I2
ssg83
g4884
sg76
(lp4891
g69
(g78
g71
NtRp4892
(dp4893
g74
(dp4894
g82
I1
ssg83
Nsg76
(lp4895
g69
(g85
g71
NtRp4896
(dp4897
g74
(dp4898
sg83
g4892
sg76
(lp4899
g69
(g90
g71
NtRp4900
(dp4901
g74
(dp4902
sg83
g4896
sg76
(lp4903
g69
(g70
g71
NtRp4904
(dp4905
g74
(dp4906
g82
I1
ssg83
g4900
sg76
(lp4907
g4249
(S's\x11\x00\x00\x00Create Book Shelf'
tRp4908
asbasbasbag69
(g85
g71
NtRp4909
(dp4910
g74
(dp4911
sg83
g4892
sg76
(lp4912
g69
(g90
g71
NtRp4913
(dp4914
g74
(dp4915
sg83
g4909
sg76
(lp4916
g69
(g70
g71
NtRp4917
(dp4918
g74
(dp4919
g82
I1
ssg83
g4913
sg76
(lp4920
I00
asbasbasbag69
(g85
g71
NtRp4921
(dp4922
g74
(dp4923
sg83
g4892
sg76
(lp4924
g69
(g90
g71
NtRp4925
(dp4926
g74
(dp4927
sg83
g4921
sg76
(lp4928
g69
(g70
g71
NtRp4929
(dp4930
g74
(dp4931
g82
I1
ssg83
g4925
sg76
(lp4932
S'/Book_Shelf_copy/default/create_book_shelf'
p4933
asbasbasbasbasbasbasbag69
(g85
g71
NtRp4934
(dp4935
g74
(dp4936
sg83
g4822
sg76
(lp4937
g69
(g90
g71
NtRp4938
(dp4939
g74
(dp4940
sg83
g4934
sg76
(lp4941
g69
(g70
g71
NtRp4942
(dp4943
g74
(dp4944
g82
I2
ssg83
g4938
sg76
(lp4945
g69
(g78
g71
NtRp4946
(dp4947
g74
(dp4948
g82
I1
ssg83
Nsg76
(lp4949
g69
(g85
g71
NtRp4950
(dp4951
g74
(dp4952
sg83
g4946
sg76
(lp4953
g69
(g90
g71
NtRp4954
(dp4955
g74
(dp4956
sg83
g4950
sg76
(lp4957
g69
(g70
g71
NtRp4958
(dp4959
g74
(dp4960
g82
I1
ssg83
g4954
sg76
(lp4961
g4249
(S's\x11\x00\x00\x00Update Book Shelf'
tRp4962
asbasbasbag69
(g85
g71
NtRp4963
(dp4964
g74
(dp4965
sg83
g4946
sg76
(lp4966
g69
(g90
g71
NtRp4967
(dp4968
g74
(dp4969
sg83
g4963
sg76
(lp4970
g69
(g70
g71
NtRp4971
(dp4972
g74
(dp4973
g82
I1
ssg83
g4967
sg76
(lp4974
I00
asbasbasbag69
(g85
g71
NtRp4975
(dp4976
g74
(dp4977
sg83
g4946
sg76
(lp4978
g69
(g90
g71
NtRp4979
(dp4980
g74
(dp4981
sg83
g4975
sg76
(lp4982
g69
(g70
g71
NtRp4983
(dp4984
g74
(dp4985
g82
I1
ssg83
g4979
sg76
(lp4986
S'/Book_Shelf_copy/default/update_book_shelf'
p4987
asbasbasbasbasbasbasbasbasbasbasbasbasbasbasbag69
(g85
g71
NtRp4988
(dp4989
g74
(dp4990
sg83
g4217
sg76
(lp4991
g69
(g90
g71
NtRp4992
(dp4993
g74
(dp4994
sg83
g4988
sg76
(lp4995
g69
(g70
g71
NtRp4996
(dp4997
g74
(dp4998
g82
I4
ssg83
g4992
sg76
(lp4999
g69
(g78
g71
NtRp5000
(dp5001
g74
(dp5002
g82
I3
ssg83
Nsg76
(lp5003
g69
(g85
g71
NtRp5004
(dp5005
g74
(dp5006
sg83
g5000
sg76
(lp5007
g69
(g90
g71
NtRp5008
(dp5009
g74
(dp5010
sg83
g5004
sg76
(lp5011
g69
(g70
g71
NtRp5012
(dp5013
g74
(dp5014
g82
I3
ssg83
g5008
sg76
(lp5015
g69
(cgluon.html
SPAN
p5016
g71
NtRp5017
(dp5018
g74
(dp5019
g94
S'color:yellow'
p5020
ssg83
Nsg76
(lp5021
g4195
asbasbasbasbag69
(g85
g71
NtRp5022
(dp5023
g74
(dp5024
sg83
g5000
sg76
(lp5025
g69
(g90
g71
NtRp5026
(dp5027
g74
(dp5028
sg83
g5022
sg76
(lp5029
g69
(g70
g71
NtRp5030
(dp5031
g74
(dp5032
g82
I3
ssg83
g5026
sg76
(lp5033
g112
asbasbasbag69
(g85
g71
NtRp5034
(dp5035
g74
(dp5036
sg83
g5000
sg76
(lp5037
g69
(g90
g71
NtRp5038
(dp5039
g74
(dp5040
sg83
g5034
sg76
(lp5041
g69
(g70
g71
NtRp5042
(dp5043
g74
(dp5044
g82
I3
ssg83
g5038
sg76
(lp5045
S'None'
p5046
asbasbasbag69
(g85
g71
NtRp5047
(dp5048
g74
(dp5049
sg83
g5000
sg76
(lp5050
g69
(g90
g71
NtRp5051
(dp5052
g74
(dp5053
sg83
g5047
sg76
(lp5054
g69
(g70
g71
NtRp5055
(dp5056
g74
(dp5057
g82
I3
ssg83
g5051
sg76
(lp5058
g69
(g78
g71
NtRp5059
(dp5060
g74
(dp5061
g82
I2
ssg83
Nsg76
(lp5062
g69
(g85
g71
NtRp5063
(dp5064
g74
(dp5065
sg83
g5059
sg76
(lp5066
g69
(g90
g71
NtRp5067
(dp5068
g74
(dp5069
sg83
g5063
sg76
(lp5070
g69
(g70
g71
NtRp5071
(dp5072
g74
(dp5073
g82
I2
ssg83
g5067
sg76
(lp5074
g69
(g78
g71
NtRp5075
(dp5076
g74
(dp5077
g82
I1
ssg83
Nsg76
(lp5078
g69
(g85
g71
NtRp5079
(dp5080
g74
(dp5081
sg83
g5075
sg76
(lp5082
g69
(g90
g71
NtRp5083
(dp5084
g74
(dp5085
sg83
g5079
sg76
(lp5086
g69
(g70
g71
NtRp5087
(dp5088
g74
(dp5089
g82
I1
ssg83
g5083
sg76
(lp5090
g4249
(S's\x08\x00\x00\x00My Sites'
tRp5091
asbasbasbag69
(g85
g71
NtRp5092
(dp5093
g74
(dp5094
sg83
g5075
sg76
(lp5095
g69
(g90
g71
NtRp5096
(dp5097
g74
(dp5098
sg83
g5092
sg76
(lp5099
g69
(g70
g71
NtRp5100
(dp5101
g74
(dp5102
g82
I1
ssg83
g5096
sg76
(lp5103
I00
asbasbasbag69
(g85
g71
NtRp5104
(dp5105
g74
(dp5106
sg83
g5075
sg76
(lp5107
g69
(g90
g71
NtRp5108
(dp5109
g74
(dp5110
sg83
g5104
sg76
(lp5111
g69
(g70
g71
NtRp5112
(dp5113
g74
(dp5114
g82
I1
ssg83
g5108
sg76
(lp5115
S'/admin/default/site'
p5116
asbasbasbasbasbasbasbag69
(g85
g71
NtRp5117
(dp5118
g74
(dp5119
sg83
g5059
sg76
(lp5120
g69
(g90
g71
NtRp5121
(dp5122
g74
(dp5123
sg83
g5117
sg76
(lp5124
g69
(g70
g71
NtRp5125
(dp5126
g74
(dp5127
g82
I2
ssg83
g5121
sg76
(lp5128
g69
(g78
g71
NtRp5129
(dp5130
g74
(dp5131
g82
I1
ssg83
Nsg76
(lp5132
g69
(g85
g71
NtRp5133
(dp5134
g74
(dp5135
sg83
g5129
sg76
(lp5136
g69
(g90
g71
NtRp5137
(dp5138
g74
(dp5139
sg83
g5133
sg76
(lp5140
g69
(g70
g71
NtRp5141
(dp5142
g74
(dp5143
g82
I1
ssg83
g5137
sg76
(lp5144
g4249
(S's\x08\x00\x00\x00This App'
tRp5145
asbasbasbag69
(g85
g71
NtRp5146
(dp5147
g74
(dp5148
sg83
g5129
sg76
(lp5149
g69
(g90
g71
NtRp5150
(dp5151
g74
(dp5152
sg83
g5146
sg76
(lp5153
g69
(g70
g71
NtRp5154
(dp5155
g74
(dp5156
g82
I1
ssg83
g5150
sg76
(lp5157
I00
asbasbasbag69
(g85
g71
NtRp5158
(dp5159
g74
(dp5160
sg83
g5129
sg76
(lp5161
g69
(g90
g71
NtRp5162
(dp5163
g74
(dp5164
sg83
g5158
sg76
(lp5165
g69
(g70
g71
NtRp5166
(dp5167
g74
(dp5168
g82
I1
ssg83
g5162
sg76
(lp5169
S'/admin/default/design/Book_Shelf_copy'
p5170
asbasbasbag69
(g85
g71
NtRp5171
(dp5172
g74
(dp5173
sg83
g5129
sg76
(lp5174
g69
(g90
g71
NtRp5175
(dp5176
g74
(dp5177
sg83
g5171
sg76
(lp5178
g69
(g70
g71
NtRp5179
(dp5180
g74
(dp5181
g82
I1
ssg83
g5175
sg76
(lp5182
(lp5183
(g4249
(S't\n\x00\x00\x00Controller'
tRp5184
I00
S'/admin/default/edit/Book_Shelf_copy/controllers/default.py'
tp5185
a(g4249
(S't\x04\x00\x00\x00View'
tRp5186
I00
S'/admin/default/edit/Book_Shelf_copy/views/default/index.html'
tp5187
a(g4249
(S't\x06\x00\x00\x00Layout'
tRp5188
I00
S'/admin/default/edit/Book_Shelf_copy/views/layout.html'
tp5189
a(g4249
(S't\n\x00\x00\x00Stylesheet'
tRp5190
I00
S'/admin/default/edit/Book_Shelf_copy/static/css/web2py.css'
tp5191
a(g4249
(S's\x08\x00\x00\x00DB Model'
tRp5192
I00
S'/admin/default/edit/Book_Shelf_copy/models/db.py'
tp5193
a(g4249
(S's\n\x00\x00\x00Menu Model'
tRp5194
I00
S'/admin/default/edit/Book_Shelf_copy/models/menu.py'
tp5195
a(g4249
(S't\x08\x00\x00\x00Database'
tRp5196
I00
S'/Book_Shelf_copy/appadmin/index'
tp5197
a(g4249
(S't\x06\x00\x00\x00Errors'
tRp5198
I00
S'/admin/default/errors/Book_Shelf_copy'
tp5199
a(g4249
(S't\x05\x00\x00\x00About'
tRp5200
I00
S'/admin/default/about/Book_Shelf_copy'
tp5201
aasbasbasbasbasbasbasbag69
(g85
g71
NtRp5202
(dp5203
g74
(dp5204
sg83
g5059
sg76
(lp5205
g69
(g90
g71
NtRp5206
(dp5207
g74
(dp5208
sg83
g5202
sg76
(lp5209
g69
(g70
g71
NtRp5210
(dp5211
g74
(dp5212
g82
I2
ssg83
g5206
sg76
(lp5213
g69
(g78
g71
NtRp5214
(dp5215
g74
(dp5216
g82
I1
ssg83
Nsg76
(lp5217
g69
(g85
g71
NtRp5218
(dp5219
g74
(dp5220
sg83
g5214
sg76
(lp5221
g69
(g90
g71
NtRp5222
(dp5223
g74
(dp5224
sg83
g5218
sg76
(lp5225
g69
(g70
g71
NtRp5226
(dp5227
g74
(dp5228
g82
I1
ssg83
g5222
sg76
(lp5229
S'web2py.com'
p5230
asbasbasbag69
(g85
g71
NtRp5231
(dp5232
g74
(dp5233
sg83
g5214
sg76
(lp5234
g69
(g90
g71
NtRp5235
(dp5236
g74
(dp5237
sg83
g5231
sg76
(lp5238
g69
(g70
g71
NtRp5239
(dp5240
g74
(dp5241
g82
I1
ssg83
g5235
sg76
(lp5242
I00
asbasbasbag69
(g85
g71
NtRp5243
(dp5244
g74
(dp5245
sg83
g5214
sg76
(lp5246
g69
(g90
g71
NtRp5247
(dp5248
g74
(dp5249
sg83
g5243
sg76
(lp5250
g69
(g70
g71
NtRp5251
(dp5252
g74
(dp5253
g82
I1
ssg83
g5247
sg76
(lp5254
S'http://www.web2py.com'
p5255
asbasbasbag69
(g85
g71
NtRp5256
(dp5257
g74
(dp5258
sg83
g5214
sg76
(lp5259
g69
(g90
g71
NtRp5260
(dp5261
g74
(dp5262
sg83
g5256
sg76
(lp5263
g69
(g70
g71
NtRp5264
(dp5265
g74
(dp5266
g82
I1
ssg83
g5260
sg76
(lp5267
(lp5268
(g4249
(S't\x08\x00\x00\x00Download'
tRp5269
I00
S'http://www.web2py.com/examples/default/download'
p5270
tp5271
a(g4249
(S't\x07\x00\x00\x00Support'
tRp5272
I00
S'http://www.web2py.com/examples/default/support'
p5273
tp5274
a(g4249
(S't\x04\x00\x00\x00Demo'
tRp5275
I00
S'http://web2py.com/demo_admin'
p5276
tp5277
a(g4249
(S's\x0e\x00\x00\x00Quick Examples'
tRp5278
I00
S'http://web2py.com/examples/default/examples'
p5279
tp5280
a(g4249
(S't\x03\x00\x00\x00FAQ'
tRp5281
I00
S'http://web2py.com/AlterEgo'
p5282
tp5283
a(g4249
(S't\x06\x00\x00\x00Videos'
tRp5284
I00
S'http://www.web2py.com/examples/default/videos/'
p5285
tp5286
a(g4249
(S's\x11\x00\x00\x00Free Applications'
tRp5287
I00
S'http://web2py.com/appliances'
p5288
tp5289
a(g4249
(S't\x07\x00\x00\x00Plugins'
tRp5290
I00
S'http://web2py.com/plugins'
p5291
tp5292
a(g4249
(S't\x07\x00\x00\x00Layouts'
tRp5293
I00
S'http://web2py.com/layouts'
p5294
tp5295
a(g4249
(S't\x07\x00\x00\x00Recipes'
tRp5296
I00
S'http://web2pyslices.com/'
p5297
tp5298
a(g4249
(S't\x08\x00\x00\x00Semantic'
tRp5299
I00
S'http://web2py.com/semantic'
p5300
tp5301
aasbasbasbasbasbasbasbag69
(g85
g71
NtRp5302
(dp5303
g74
(dp5304
sg83
g5059
sg76
(lp5305
g69
(g90
g71
NtRp5306
(dp5307
g74
(dp5308
sg83
g5302
sg76
(lp5309
g69
(g70
g71
NtRp5310
(dp5311
g74
(dp5312
g82
I2
ssg83
g5306
sg76
(lp5313
g69
(g78
g71
NtRp5314
(dp5315
g74
(dp5316
g82
I1
ssg83
Nsg76
(lp5317
g69
(g85
g71
NtRp5318
(dp5319
g74
(dp5320
sg83
g5314
sg76
(lp5321
g69
(g90
g71
NtRp5322
(dp5323
g74
(dp5324
sg83
g5318
sg76
(lp5325
g69
(g70
g71
NtRp5326
(dp5327
g74
(dp5328
g82
I1
ssg83
g5322
sg76
(lp5329
g4249
(S't\r\x00\x00\x00Documentation'
tRp5330
asbasbasbag69
(g85
g71
NtRp5331
(dp5332
g74
(dp5333
sg83
g5314
sg76
(lp5334
g69
(g90
g71
NtRp5335
(dp5336
g74
(dp5337
sg83
g5331
sg76
(lp5338
g69
(g70
g71
NtRp5339
(dp5340
g74
(dp5341
g82
I1
ssg83
g5335
sg76
(lp5342
I00
asbasbasbag69
(g85
g71
NtRp5343
(dp5344
g74
(dp5345
sg83
g5314
sg76
(lp5346
g69
(g90
g71
NtRp5347
(dp5348
g74
(dp5349
sg83
g5343
sg76
(lp5350
g69
(g70
g71
NtRp5351
(dp5352
g74
(dp5353
g82
I1
ssg83
g5347
sg76
(lp5354
S'http://www.web2py.com/book'
p5355
asbasbasbag69
(g85
g71
NtRp5356
(dp5357
g74
(dp5358
sg83
g5314
sg76
(lp5359
g69
(g90
g71
NtRp5360
(dp5361
g74
(dp5362
sg83
g5356
sg76
(lp5363
g69
(g70
g71
NtRp5364
(dp5365
g74
(dp5366
g82
I1
ssg83
g5360
sg76
(lp5367
(lp5368
(g4249
(S't\x07\x00\x00\x00Preface'
tRp5369
I00
S'http://www.web2py.com/book/default/chapter/00'
p5370
tp5371
a(g4249
(S't\x0c\x00\x00\x00Introduction'
tRp5372
I00
S'http://www.web2py.com/book/default/chapter/01'
p5373
tp5374
a(g4249
(S't\x06\x00\x00\x00Python'
tRp5375
I00
S'http://www.web2py.com/book/default/chapter/02'
p5376
tp5377
a(g4249
(S't\x08\x00\x00\x00Overview'
tRp5378
I00
S'http://www.web2py.com/book/default/chapter/03'
p5379
tp5380
a(g4249
(S's\x08\x00\x00\x00The Core'
tRp5381
I00
S'http://www.web2py.com/book/default/chapter/04'
p5382
tp5383
a(g4249
(S's\t\x00\x00\x00The Views'
tRp5384
I00
S'http://www.web2py.com/book/default/chapter/05'
p5385
tp5386
a(g4249
(S't\x08\x00\x00\x00Database'
tRp5387
I00
S'http://www.web2py.com/book/default/chapter/06'
p5388
tp5389
a(g4249
(S's\x14\x00\x00\x00Forms and Validators'
tRp5390
I00
S'http://www.web2py.com/book/default/chapter/07'
p5391
tp5392
a(g4249
(S's\r\x00\x00\x00Email and SMS'
tRp5393
I00
S'http://www.web2py.com/book/default/chapter/08'
p5394
tp5395
a(g4249
(S's\x0e\x00\x00\x00Access Control'
tRp5396
I00
S'http://www.web2py.com/book/default/chapter/09'
p5397
tp5398
a(g4249
(S't\x08\x00\x00\x00Services'
tRp5399
I00
S'http://www.web2py.com/book/default/chapter/10'
p5400
tp5401
a(g4249
(S's\x0c\x00\x00\x00Ajax Recipes'
tRp5402
I00
S'http://www.web2py.com/book/default/chapter/11'
p5403
tp5404
a(g4249
(S's\x16\x00\x00\x00Components and Plugins'
tRp5405
I00
S'http://www.web2py.com/book/default/chapter/12'
p5406
tp5407
a(g4249
(S's\x12\x00\x00\x00Deployment Recipes'
tRp5408
I00
S'http://www.web2py.com/book/default/chapter/13'
p5409
tp5410
a(g4249
(S's\r\x00\x00\x00Other Recipes'
tRp5411
I00
S'http://www.web2py.com/book/default/chapter/14'
p5412
tp5413
a(g4249
(S's\r\x00\x00\x00Buy this book'
tRp5414
I00
S'http://stores.lulu.com/web2py'
p5415
tp5416
aasbasbasbasbasbasbasbag69
(g85
g71
NtRp5417
(dp5418
g74
(dp5419
sg83
g5059
sg76
(lp5420
g69
(g90
g71
NtRp5421
(dp5422
g74
(dp5423
sg83
g5417
sg76
(lp5424
g69
(g70
g71
NtRp5425
(dp5426
g74
(dp5427
g82
I2
ssg83
g5421
sg76
(lp5428
g69
(g78
g71
NtRp5429
(dp5430
g74
(dp5431
g82
I1
ssg83
Nsg76
(lp5432
g69
(g85
g71
NtRp5433
(dp5434
g74
(dp5435
sg83
g5429
sg76
(lp5436
g69
(g90
g71
NtRp5437
(dp5438
g74
(dp5439
sg83
g5433
sg76
(lp5440
g69
(g70
g71
NtRp5441
(dp5442
g74
(dp5443
g82
I1
ssg83
g5437
sg76
(lp5444
g4249
(S't\t\x00\x00\x00Community'
tRp5445
asbasbasbag69
(g85
g71
NtRp5446
(dp5447
g74
(dp5448
sg83
g5429
sg76
(lp5449
g69
(g90
g71
NtRp5450
(dp5451
g74
(dp5452
sg83
g5446
sg76
(lp5453
g69
(g70
g71
NtRp5454
(dp5455
g74
(dp5456
g82
I1
ssg83
g5450
sg76
(lp5457
I00
asbasbasbag69
(g85
g71
NtRp5458
(dp5459
g74
(dp5460
sg83
g5429
sg76
(lp5461
g69
(g90
g71
NtRp5462
(dp5463
g74
(dp5464
sg83
g5458
sg76
(lp5465
g69
(g70
g71
NtRp5466
(dp5467
g74
(dp5468
g82
I1
ssg83
g5462
sg76
(lp5469
Nasbasbasbag69
(g85
g71
NtRp5470
(dp5471
g74
(dp5472
sg83
g5429
sg76
(lp5473
g69
(g90
g71
NtRp5474
(dp5475
g74
(dp5476
sg83
g5470
sg76
(lp5477
g69
(g70
g71
NtRp5478
(dp5479
g74
(dp5480
g82
I1
ssg83
g5474
sg76
(lp5481
(lp5482
(g4249
(S't\x06\x00\x00\x00Groups'
tRp5483
I00
S'http://www.web2py.com/examples/default/usergroups'
p5484
tp5485
a(g4249
(S't\x07\x00\x00\x00Twitter'
tRp5486
I00
S'http://twitter.com/web2py'
p5487
tp5488
a(g4249
(S's\t\x00\x00\x00Live Chat'
tRp5489
I00
S'http://webchat.freenode.net/?channels=web2py'
p5490
tp5491
aasbasbasbasbasbasbasbag69
(g85
g71
NtRp5492
(dp5493
g74
(dp5494
sg83
g5059
sg76
(lp5495
g69
(g90
g71
NtRp5496
(dp5497
g74
(dp5498
sg83
g5492
sg76
(lp5499
g69
(g70
g71
NtRp5500
(dp5501
g74
(dp5502
g82
I2
ssg83
g5496
sg76
(lp5503
g69
(g78
g71
NtRp5504
(dp5505
g74
(dp5506
g82
I1
ssg83
Nsg76
(lp5507
g69
(g85
g71
NtRp5508
(dp5509
g74
(dp5510
sg83
g5504
sg76
(lp5511
g69
(g90
g71
NtRp5512
(dp5513
g74
(dp5514
sg83
g5508
sg76
(lp5515
g69
(g70
g71
NtRp5516
(dp5517
g74
(dp5518
g82
I1
ssg83
g5512
sg76
(lp5519
g4249
(S't\x07\x00\x00\x00Plugins'
tRp5520
asbasbasbag69
(g85
g71
NtRp5521
(dp5522
g74
(dp5523
sg83
g5504
sg76
(lp5524
g69
(g90
g71
NtRp5525
(dp5526
g74
(dp5527
sg83
g5521
sg76
(lp5528
g69
(g70
g71
NtRp5529
(dp5530
g74
(dp5531
g82
I1
ssg83
g5525
sg76
(lp5532
I00
asbasbasbag69
(g85
g71
NtRp5533
(dp5534
g74
(dp5535
sg83
g5504
sg76
(lp5536
g69
(g90
g71
NtRp5537
(dp5538
g74
(dp5539
sg83
g5533
sg76
(lp5540
g69
(g70
g71
NtRp5541
(dp5542
g74
(dp5543
g82
I1
ssg83
g5537
sg76
(lp5544
Nasbasbasbag69
(g85
g71
NtRp5545
(dp5546
g74
(dp5547
sg83
g5504
sg76
(lp5548
g69
(g90
g71
NtRp5549
(dp5550
g74
(dp5551
sg83
g5545
sg76
(lp5552
g69
(g70
g71
NtRp5553
(dp5554
g74
(dp5555
g82
I1
ssg83
g5549
sg76
(lp5556
(lp5557
(S'plugin_wiki'
p5558
I00
S'http://web2py.com/examples/default/download'
p5559
tp5560
a(g4249
(S's\r\x00\x00\x00Other Plugins'
tRp5561
I00
g5291
tp5562
a(g4249
(S's\x0e\x00\x00\x00Layout Plugins'
tRp5563
I00
g5294
tp5564
aasbasbasbasbasbasbasbasbasbasbasbasbasbasbasbasbasbasbasbag69
(g85
g71
NtRp5565
(dp5566
g74
(dp5567
sg83
g3693
sg76
(lp5568
g69
(g90
g71
NtRp5569
(dp5570
g74
(dp5571
g94
g95
ssg83
g5565
sg76
(lp5572
S'meta'
p5573
asbag69
(g90
g71
NtRp5574
(dp5575
g74
(dp5576
g101
g102
ssg83
g5565
sg76
(lp5577
S':'
asbag69
(g90
g71
NtRp5578
(dp5579
g74
(dp5580
sg83
g5565
sg76
(lp5581
g69
(g70
g71
NtRp5582
(dp5583
g74
(dp5584
g82
I5
ssg83
g5578
sg76
(lp5585
g69
(g78
g71
NtRp5586
(dp5587
g74
(dp5588
g82
I4
ssg83
Nsg76
(lp5589
g69
(g85
g71
NtRp5590
(dp5591
g74
(dp5592
sg83
g5586
sg76
(lp5593
g69
(g90
g71
NtRp5594
(dp5595
g74
(dp5596
g94
g95
ssg83
g5590
sg76
(lp5597
S'author'
p5598
asbag69
(g90
g71
NtRp5599
(dp5600
g74
(dp5601
g101
g102
ssg83
g5590
sg76
(lp5602
S':'
asbag69
(g90
g71
NtRp5603
(dp5604
g74
(dp5605
sg83
g5590
sg76
(lp5606
g69
(g70
g71
NtRp5607
(dp5608
g74
(dp5609
g82
I4
ssg83
g5603
sg76
(lp5610
S'Your Name <you@example.com>'
p5611
asbasbasbag69
(g85
g71
NtRp5612
(dp5613
g74
(dp5614
sg83
g5586
sg76
(lp5615
g69
(g90
g71
NtRp5616
(dp5617
g74
(dp5618
g94
g95
ssg83
g5612
sg76
(lp5619
S'copyright'
p5620
asbag69
(g90
g71
NtRp5621
(dp5622
g74
(dp5623
g101
g102
ssg83
g5612
sg76
(lp5624
S':'
asbag69
(g90
g71
NtRp5625
(dp5626
g74
(dp5627
sg83
g5612
sg76
(lp5628
g69
(g70
g71
NtRp5629
(dp5630
g74
(dp5631
g82
I4
ssg83
g5625
sg76
(lp5632
S'Copyright 2011'
p5633
asbasbasbag69
(g85
g71
NtRp5634
(dp5635
g74
(dp5636
sg83
g5586
sg76
(lp5637
g69
(g90
g71
NtRp5638
(dp5639
g74
(dp5640
g94
g95
ssg83
g5634
sg76
(lp5641
S'description'
p5642
asbag69
(g90
g71
NtRp5643
(dp5644
g74
(dp5645
g101
g102
ssg83
g5634
sg76
(lp5646
S':'
asbag69
(g90
g71
NtRp5647
(dp5648
g74
(dp5649
sg83
g5634
sg76
(lp5650
g69
(g70
g71
NtRp5651
(dp5652
g74
(dp5653
g82
I4
ssg83
g5647
sg76
(lp5654
S'a cool new app'
p5655
asbasbasbag69
(g85
g71
NtRp5656
(dp5657
g74
(dp5658
sg83
g5586
sg76
(lp5659
g69
(g90
g71
NtRp5660
(dp5661
g74
(dp5662
g94
g95
ssg83
g5656
sg76
(lp5663
S'generator'
p5664
asbag69
(g90
g71
NtRp5665
(dp5666
g74
(dp5667
g101
g102
ssg83
g5656
sg76
(lp5668
S':'
asbag69
(g90
g71
NtRp5669
(dp5670
g74
(dp5671
sg83
g5656
sg76
(lp5672
g69
(g70
g71
NtRp5673
(dp5674
g74
(dp5675
g82
I4
ssg83
g5669
sg76
(lp5676
S'Web2py Web Framework'
p5677
asbasbasbag69
(g85
g71
NtRp5678
(dp5679
g74
(dp5680
sg83
g5586
sg76
(lp5681
g69
(g90
g71
NtRp5682
(dp5683
g74
(dp5684
g94
g95
ssg83
g5678
sg76
(lp5685
S'keywords'
p5686
asbag69
(g90
g71
NtRp5687
(dp5688
g74
(dp5689
g101
g102
ssg83
g5678
sg76
(lp5690
S':'
asbag69
(g90
g71
NtRp5691
(dp5692
g74
(dp5693
sg83
g5678
sg76
(lp5694
g69
(g70
g71
NtRp5695
(dp5696
g74
(dp5697
g82
I4
ssg83
g5691
sg76
(lp5698
S'web2py, python, framework'
p5699
asbasbasbasbasbasbasbag69
(g85
g71
NtRp5700
(dp5701
g74
(dp5702
sg83
g3693
sg76
(lp5703
g69
(g90
g71
NtRp5704
(dp5705
g74
(dp5706
g94
g95
ssg83
g5700
sg76
(lp5707
S'postprocessing'
p5708
asbag69
(g90
g71
NtRp5709
(dp5710
g74
(dp5711
g101
g102
ssg83
g5700
sg76
(lp5712
S':'
asbag69
(g90
g71
NtRp5713
(dp5714
g74
(dp5715
sg83
g5700
sg76
(lp5716
g69
(g70
g71
NtRp5717
(dp5718
g74
(dp5719
g82
I5
ssg83
g5713
sg76
(lp5720
g69
(g78
g71
NtRp5721
(dp5722
g74
(dp5723
g82
I4
ssg83
Nsg76
(lp5724
sbasbasbasbag69
(g85
g71
NtRp5725
(dp5726
g74
(dp5727
sg83
g3693
sg76
(lp5728
g69
(g90
g71
NtRp5729
(dp5730
g74
(dp5731
g94
g95
ssg83
g5725
sg76
(lp5732
S'session_file'
p5733
asbag69
(g90
g71
NtRp5734
(dp5735
g74
(dp5736
g101
g102
ssg83
g5725
sg76
(lp5737
S':'
asbag69
(g90
g71
NtRp5738
(dp5739
g74
(dp5740
sg83
g5725
sg76
(lp5741
g69
(g70
g71
NtRp5742
(dp5743
g74
(dp5744
g82
I5
ssg83
g5738
sg76
(lp5745
S"<open file '/Users/ianaboneva/Dropbox/DePaul/CSC 438 - Web Applications/web2py/applications/Book_Shelf_copy/sessions/127.0.0.1-eeba29a1-713d-4626-a1ad-4627ea1d2e7a', mode 'rb+' at 0x109b37810>"
p5746
asbasbasbag69
(g85
g71
NtRp5747
(dp5748
g74
(dp5749
sg83
g3693
sg76
(lp5750
g69
(g90
g71
NtRp5751
(dp5752
g74
(dp5753
g94
g95
ssg83
g5747
sg76
(lp5754
S'session_filename'
p5755
asbag69
(g90
g71
NtRp5756
(dp5757
g74
(dp5758
g101
g102
ssg83
g5747
sg76
(lp5759
S':'
asbag69
(g90
g71
NtRp5760
(dp5761
g74
(dp5762
sg83
g5747
sg76
(lp5763
g69
(g70
g71
NtRp5764
(dp5765
g74
(dp5766
g82
I5
ssg83
g5760
sg76
(lp5767
S'/Users/ianaboneva/Dropbox/DePaul/CSC 438 - Web Applications/web2py/applications/Book_Shelf_copy/sessions/127.0.0.1-eeba29a1-713d-4626-a1ad-4627ea1d2e7a'
p5768
asbasbasbag69
(g85
g71
NtRp5769
(dp5770
g74
(dp5771
sg83
g3693
sg76
(lp5772
g69
(g90
g71
NtRp5773
(dp5774
g74
(dp5775
g94
g95
ssg83
g5769
sg76
(lp5776
S'session_id'
p5777
asbag69
(g90
g71
NtRp5778
(dp5779
g74
(dp5780
g101
g102
ssg83
g5769
sg76
(lp5781
S':'
asbag69
(g90
g71
NtRp5782
(dp5783
g74
(dp5784
sg83
g5769
sg76
(lp5785
g69
(g70
g71
NtRp5786
(dp5787
g74
(dp5788
g82
I5
ssg83
g5782
sg76
(lp5789
S'127.0.0.1-eeba29a1-713d-4626-a1ad-4627ea1d2e7a'
p5790
asbasbasbag69
(g85
g71
NtRp5791
(dp5792
g74
(dp5793
sg83
g3693
sg76
(lp5794
g69
(g90
g71
NtRp5795
(dp5796
g74
(dp5797
g94
g95
ssg83
g5791
sg76
(lp5798
S'session_id_name'
p5799
asbag69
(g90
g71
NtRp5800
(dp5801
g74
(dp5802
g101
g102
ssg83
g5791
sg76
(lp5803
S':'
asbag69
(g90
g71
NtRp5804
(dp5805
g74
(dp5806
sg83
g5791
sg76
(lp5807
g69
(g70
g71
NtRp5808
(dp5809
g74
(dp5810
g82
I5
ssg83
g5804
sg76
(lp5811
g3750
asbasbasbag69
(g85
g71
NtRp5812
(dp5813
g74
(dp5814
sg83
g3693
sg76
(lp5815
g69
(g90
g71
NtRp5816
(dp5817
g74
(dp5818
g94
g95
ssg83
g5812
sg76
(lp5819
S'session_locked'
p5820
asbag69
(g90
g71
NtRp5821
(dp5822
g74
(dp5823
g101
g102
ssg83
g5812
sg76
(lp5824
S':'
asbag69
(g90
g71
NtRp5825
(dp5826
g74
(dp5827
sg83
g5812
sg76
(lp5828
g69
(g70
g71
NtRp5829
(dp5830
g74
(dp5831
g82
I5
ssg83
g5825
sg76
(lp5832
g1897
asbasbasbag69
(g85
g71
NtRp5833
(dp5834
g74
(dp5835
sg83
g3693
sg76
(lp5836
g69
(g90
g71
NtRp5837
(dp5838
g74
(dp5839
g94
g95
ssg83
g5833
sg76
(lp5840
S'session_new'
p5841
asbag69
(g90
g71
NtRp5842
(dp5843
g74
(dp5844
g101
g102
ssg83
g5833
sg76
(lp5845
S':'
asbag69
(g90
g71
NtRp5846
(dp5847
g74
(dp5848
sg83
g5833
sg76
(lp5849
g69
(g70
g71
NtRp5850
(dp5851
g74
(dp5852
g82
I5
ssg83
g5846
sg76
(lp5853
g112
asbasbasbag69
(g85
g71
NtRp5854
(dp5855
g74
(dp5856
sg83
g3693
sg76
(lp5857
g69
(g90
g71
NtRp5858
(dp5859
g74
(dp5860
g94
g95
ssg83
g5854
sg76
(lp5861
S'status'
p5862
asbag69
(g90
g71
NtRp5863
(dp5864
g74
(dp5865
g101
g102
ssg83
g5854
sg76
(lp5866
S':'
asbag69
(g90
g71
NtRp5867
(dp5868
g74
(dp5869
sg83
g5854
sg76
(lp5870
g69
(g70
g71
NtRp5871
(dp5872
g74
(dp5873
g82
I5
ssg83
g5867
sg76
(lp5874
S'200'
p5875
asbasbasbag69
(g85
g71
NtRp5876
(dp5877
g74
(dp5878
sg83
g3693
sg76
(lp5879
g69
(g90
g71
NtRp5880
(dp5881
g74
(dp5882
g94
g95
ssg83
g5876
sg76
(lp5883
S'subtitle'
p5884
asbag69
(g90
g71
NtRp5885
(dp5886
g74
(dp5887
g101
g102
ssg83
g5876
sg76
(lp5888
S':'
asbag69
(g90
g71
NtRp5889
(dp5890
g74
(dp5891
sg83
g5876
sg76
(lp5892
g69
(g70
g71
NtRp5893
(dp5894
g74
(dp5895
g82
I5
ssg83
g5889
sg76
(lp5896
g4249
(S's\r\x00\x00\x00customize me!'
tRp5897
asbasbasbag69
(g85
g71
NtRp5898
(dp5899
g74
(dp5900
sg83
g3693
sg76
(lp5901
g69
(g90
g71
NtRp5902
(dp5903
g74
(dp5904
g94
g95
ssg83
g5898
sg76
(lp5905
S'title'
p5906
asbag69
(g90
g71
NtRp5907
(dp5908
g74
(dp5909
g101
g102
ssg83
g5898
sg76
(lp5910
S':'
asbag69
(g90
g71
NtRp5911
(dp5912
g74
(dp5913
sg83
g5898
sg76
(lp5914
g69
(g70
g71
NtRp5915
(dp5916
g74
(dp5917
g82
I5
ssg83
g5911
sg76
(lp5918
S'Book Shelf Copy'
p5919
asbasbasbag69
(g85
g71
NtRp5920
(dp5921
g74
(dp5922
sg83
g3693
sg76
(lp5923
g69
(g90
g71
NtRp5924
(dp5925
g74
(dp5926
g94
g95
ssg83
g5920
sg76
(lp5927
g2561
asbag69
(g90
g71
NtRp5928
(dp5929
g74
(dp5930
g101
g102
ssg83
g5920
sg76
(lp5931
S':'
asbag69
(g90
g71
NtRp5932
(dp5933
g74
(dp5934
sg83
g5920
sg76
(lp5935
g69
(g70
g71
NtRp5936
(dp5937
g74
(dp5938
g82
I5
ssg83
g5932
sg76
(lp5939
g2574
asbasbasbag69
(g85
g71
NtRp5940
(dp5941
g74
(dp5942
sg83
g3693
sg76
(lp5943
g69
(g90
g71
NtRp5944
(dp5945
g74
(dp5946
g94
g95
ssg83
g5940
sg76
(lp5947
S'view'
p5948
asbag69
(g90
g71
NtRp5949
(dp5950
g74
(dp5951
g101
g102
ssg83
g5940
sg76
(lp5952
S':'
asbag69
(g90
g71
NtRp5953
(dp5954
g74
(dp5955
sg83
g5940
sg76
(lp5956
g69
(g70
g71
NtRp5957
(dp5958
g74
(dp5959
g82
I5
ssg83
g5953
sg76
(lp5960
S'default/index.html'
p5961
asbasbasbasbasbsS'locals'
p5962
(dp5963
g4
S"'/Users/ianaboneva/Dropbox/DePaul/CSC 438 - Web A...plications/Book_Shelf_copy/controllers/default.py'"
p5964
sg6
S"'# -*- coding: utf-8 -*-\\n# this file is released ...=crud())\\n\\nresponse._vars=response._caller(index)\\n'"
p5965
sssS'traceback'
p5966
S'Traceback (most recent call last):\n  File "/Users/ianaboneva/Dropbox/DePaul/CSC 438 - Web Applications/web2py/gluon/restricted.py", line 204, in restricted\n    ccode = compile2(code,layer)\n  File "/Users/ianaboneva/Dropbox/DePaul/CSC 438 - Web Applications/web2py/gluon/restricted.py", line 189, in compile2\n    return compile(code.rstrip().replace(\'\\r\\n\',\'\\n\')+\'\\n\', layer, \'exec\')\n  File "/Users/ianaboneva/Dropbox/DePaul/CSC 438 - Web Applications/web2py/applications/Book_Shelf_copy/controllers/default.py", line 15\n    response.flash = "Welcome to Book Shelf!"\n                                            ^\nIndentationError: unindent does not match any outer indentation level\n'
p5967
s.