(dp1
S'output'
p2
S"<type 'exceptions.IndentationError'> expected an indented block (default.py, line 92)"
p3
sS'layer'
p4
S'/Users/ianaboneva/Dropbox/DePaul/CSC 438 - Web Applications/web2py/applications/Book_Shelf_copy/controllers/default.py'
p5
sS'code'
p6
S'# -*- coding: utf-8 -*-\n# this file is released under public domain and you can use without limitations\n\n#########################################################################\n## This is a samples controller\n## - index is the default action of any application\n## - user is required for authentication and authorization\n## - download is for downloading files uploaded in the db (does streaming)\n## - call exposes all registered services (none by default)\n#########################################################################\n\ndef index():\n    shelves = db(db.Book_Shelf.created_by==auth.user.id).select()\n    return locals()\n\n@auth.requires_login()\ndef create_user_profile():\n    form = SQLFORM(db.User_Profile)\n    if form.process().accepted:\n        session.flash = "Form Accepted"\n        redirect(URL(\'user_profile\'))\n    else:\n        response.flash= "This is completely wrong you weiner..TRY AGAIN!"\n    return locals()\n\n@auth.requires_login() \ndef update_user_profile():\n    record = db.User_Profile(request.args(0)) or redirect (URL(\'index\'))\n    if (auth.user.id!=record.created_by):\n        session.flash = \'access denied\'\n        redirect(URL(\'index\'))\n    form = SQLFORM(db.User_Profile, record)\n    if form.process().accepted:\n        session.flash = "Form Accepted"\n        redirect(URL(\'user_profile\'))\n    else:\n        response.flash= "This is completely wrong you weiner..TRY AGAIN!"\n    return locals()\n      \n@auth.requires_login() \ndef user_profile():\n    profiles = db(db.User_Profile.created_by==auth.user.id).select()\n    return locals()\n\n@auth.requires_login() \ndef create_book_profile():\n    form = SQLFORM(db.Book_Profile)\n    if form.process().accepted:\n        session.flash = "Form Accepted"\n        redirect(URL(\'book_profile\'))\n    else:\n        response.flash= "This is completely wrong you weiner..TRY AGAIN!"\n    return locals()\n  \n@auth.requires_login() \ndef update_book_profile():\n    record = db.Book_Profile(request.args(0)) or redirect (URL(\'index\'))\n    form = SQLFORM(db.Book_Profile, record)\n    if form.process().accepted:\n        session.flash = "Form Accepted"\n        redirect(URL(\'book_profile\'))\n    else:\n        response.flash= "This is completely wrong you weiner..TRY AGAIN!"\n    return locals()\n      \ndef book_profile():\n    book = db.Book_Profile(request.args(0)) or redirect (URL(\'index\'))\n    return locals()\n\n@auth.requires_login() \ndef create_book_shelf():\n    form = SQLFORM(db.Book_Shelf)\n    if form.process().accepted:\n        session.flash = "Form Accepted"\n    else:\n        response.flash = "WRONG!"\n    return locals()\n\n@auth.requires_login() \ndef update_book_shelf():\n    record = db.Book_Shelf(request.args(0)) or redirect (URL(\'index\'))\n    form = SQLFORM(db.Book_Shelf, record)\n    if form.process().accepted:\n        session.flash = "Form Accepted"\n        redirect(URL(\'book_shelf\'))\n    else:\n        response.flash= "This is completely wrong you weiner..TRY AGAIN!"\n    return locals()\n    \n@auth.requires_login()      \ndef book_shelf():\n<<<<<<< HEAD\n    shelves = db(db.Book_Shelf.created_by==auth.user.id).select()\n=======\n    shelf = db.Book_Shelf(request.args(0)) or redirect (URL(\'index\'))\n    books = db(db.Book_Shelf_Items.Book_Shelf_id==request.args(0)).select()\n    form = SQLFORM(db.Book_Shelf_Items)\n    if form.process().accepted:\n        session.flash = "Form Accepted"\n    else:\n        response.flash = "WRONG!"\n>>>>>>> Book profile\n    return locals()\n \n@auth.requires_login()    \ndef comments():\n    return locals()\n \n@auth.requires_login()    \ndef reviews():\n    return locals()\n\n\ndef user():\n    """\n    exposes:\n    http://..../[app]/default/user/login\n    http://..../[app]/default/user/logout\n    http://..../[app]/default/user/register\n    http://..../[app]/default/user/profile\n    http://..../[app]/default/user/retrieve_password\n    http://..../[app]/default/user/change_password\n    use @auth.requires_login()\n        @auth.requires_membership(\'group name\')\n        @auth.requires_permission(\'read\',\'table name\',record_id)\n    to decorate functions that need access control\n    """\n    return dict(form=auth())\n\ndef download():\n    """\n    allows downloading of uploaded files\n    http://..../[app]/default/download/[filename]\n    """\n    return response.download(request,db)\n\n\ndef call():\n    """\n    exposes services. for example:\n    http://..../[app]/default/call/jsonrpc\n    decorate with @services.jsonrpc the functions to expose\n    supports xml, json, xmlrpc, jsonrpc, amfrpc, rss, csv\n    """\n    return service()\n\n\n@auth.requires_signature()\ndef data():\n    """\n    http://..../[app]/default/data/tables\n    http://..../[app]/default/data/create/[table]\n    http://..../[app]/default/data/read/[table]/[id]\n    http://..../[app]/default/data/update/[table]/[id]\n    http://..../[app]/default/data/delete/[table]/[id]\n    http://..../[app]/default/data/select/[table]\n    http://..../[app]/default/data/search/[table]\n    but URLs must be signed, i.e. linked with\n      A(\'table\',_href=URL(\'data/tables\',user_signature=True))\n    or with the signed load operator\n      LOAD(\'default\',\'data.load\',args=\'tables\',ajax=True,user_signature=True)\n    """\n    return dict(form=crud())\n\nresponse._vars=response._caller(index)\n'
p7
sS'snapshot'
p8
(dp9
S'exception'
p10
(dp11
S'__getslice__'
p12
S"<method-wrapper '__getslice__' of exceptions.IndentationError object>"
p13
sS'text'
p14
S"'<<<<<<< HEAD\\n'"
p15
sS'__str__'
p16
S"<method-wrapper '__str__' of exceptions.IndentationError object>"
p17
sS'__reduce__'
p18
S'<built-in method __reduce__ of exceptions.IndentationError object>'
p19
sS'__dict__'
p20
S'{}'
p21
sS'__sizeof__'
p22
S'<built-in method __sizeof__ of exceptions.IndentationError object>'
p23
sS'__init__'
p24
S"<method-wrapper '__init__' of exceptions.IndentationError object>"
p25
sS'__setattr__'
p26
S"<method-wrapper '__setattr__' of exceptions.IndentationError object>"
p27
sS'__reduce_ex__'
p28
S'<built-in method __reduce_ex__ of exceptions.IndentationError object>'
p29
sS'__new__'
p30
S'<built-in method __new__ of type object>'
p31
sS'__format__'
p32
S'<built-in method __format__ of exceptions.IndentationError object>'
p33
sS'__class__'
p34
S"<type 'exceptions.IndentationError'>"
p35
sS'filename'
p36
S"'/Users/ianaboneva/Dropbox/DePaul/CSC 438 - Web A...plications/Book_Shelf_copy/controllers/default.py'"
p37
sS'lineno'
p38
S'92'
p39
sS'msg'
p40
S"'expected an indented block'"
p41
sS'__doc__'
p42
S"'Improper indentation.'"
p43
sS'__getitem__'
p44
S"<method-wrapper '__getitem__' of exceptions.IndentationError object>"
p45
sS'__setstate__'
p46
S'<built-in method __setstate__ of exceptions.IndentationError object>'
p47
sS'__getattribute__'
p48
S"<method-wrapper '__getattribute__' of exceptions.IndentationError object>"
p49
sS'print_file_and_line'
p50
S'None'
p51
sS'args'
p52
S"('expected an indented block', ('/Users/ianaboneva/Dropbox/DePaul/CSC 438 - Web A...plications/Book_Shelf_copy/controllers/default.py', 92, 2, '<<<<<<< HEAD\\n'))"
p53
sS'__subclasshook__'
p54
S'<built-in method __subclasshook__ of type object>'
p55
sS'offset'
p56
S'2'
sS'__unicode__'
p57
S'<built-in method __unicode__ of exceptions.IndentationError object>'
p58
sS'__delattr__'
p59
S"<method-wrapper '__delattr__' of exceptions.IndentationError object>"
p60
sS'__repr__'
p61
S"<method-wrapper '__repr__' of exceptions.IndentationError object>"
p62
sS'__hash__'
p63
S"<method-wrapper '__hash__' of exceptions.IndentationError object>"
p64
ssS'evalue'
p65
S'expected an indented block (default.py, line 92)'
p66
sS'request'
p67
ccopy_reg
_reconstructor
p68
(cgluon.html
BEAUTIFY
p69
c__builtin__
object
p70
NtRp71
(dp72
S'attributes'
p73
(dp74
sS'components'
p75
(lp76
g68
(cgluon.html
TABLE
p77
g70
NtRp78
(dp79
g73
(dp80
S'level'
p81
I5
ssS'parent'
p82
Nsg75
(lp83
g68
(cgluon.html
TR
p84
g70
NtRp85
(dp86
g73
(dp87
sg82
g78
sg75
(lp88
g68
(cgluon.html
TD
p89
g70
NtRp90
(dp91
g73
(dp92
S'_style'
p93
S'font-weight:bold;vertical-align:top'
p94
ssg82
g85
sg75
(lp95
S'ajax'
p96
asbag68
(g89
g70
NtRp97
(dp98
g73
(dp99
S'_valign'
p100
S'top'
p101
ssg82
g85
sg75
(lp102
S':'
asbag68
(g89
g70
NtRp103
(dp104
g73
(dp105
sg82
g85
sg75
(lp106
g68
(g69
g70
NtRp107
(dp108
g73
(dp109
g81
I5
ssg82
g103
sg75
(lp110
S'False'
p111
asbasbasbag68
(g84
g70
NtRp112
(dp113
g73
(dp114
sg82
g78
sg75
(lp115
g68
(g89
g70
NtRp116
(dp117
g73
(dp118
g93
g94
ssg82
g112
sg75
(lp119
S'application'
p120
asbag68
(g89
g70
NtRp121
(dp122
g73
(dp123
g100
g101
ssg82
g112
sg75
(lp124
S':'
asbag68
(g89
g70
NtRp125
(dp126
g73
(dp127
sg82
g112
sg75
(lp128
g68
(g69
g70
NtRp129
(dp130
g73
(dp131
g81
I5
ssg82
g125
sg75
(lp132
S'Book_Shelf_copy'
p133
asbasbasbag68
(g84
g70
NtRp134
(dp135
g73
(dp136
sg82
g78
sg75
(lp137
g68
(g89
g70
NtRp138
(dp139
g73
(dp140
g93
g94
ssg82
g134
sg75
(lp141
g52
asbag68
(g89
g70
NtRp142
(dp143
g73
(dp144
g100
g101
ssg82
g134
sg75
(lp145
S':'
asbag68
(g89
g70
NtRp146
(dp147
g73
(dp148
sg82
g134
sg75
(lp149
g68
(g69
g70
NtRp150
(dp151
g73
(dp152
g81
I5
ssg82
g146
sg75
(lp153
g68
(g77
g70
NtRp154
(dp155
g73
(dp156
g81
I4
ssg82
Nsg75
(lp157
sbasbasbasbag68
(g84
g70
NtRp158
(dp159
g73
(dp160
sg82
g78
sg75
(lp161
g68
(g89
g70
NtRp162
(dp163
g73
(dp164
g93
g94
ssg82
g158
sg75
(lp165
S'body'
p166
asbag68
(g89
g70
NtRp167
(dp168
g73
(dp169
g100
g101
ssg82
g158
sg75
(lp170
S':'
asbag68
(g89
g70
NtRp171
(dp172
g73
(dp173
sg82
g158
sg75
(lp174
g68
(g69
g70
NtRp175
(dp176
g73
(dp177
g81
I5
ssg82
g171
sg75
(lp178
S'<cStringIO.StringO object at 0x109a41420>'
p179
asbasbasbag68
(g84
g70
NtRp180
(dp181
g73
(dp182
sg82
g78
sg75
(lp183
g68
(g89
g70
NtRp184
(dp185
g73
(dp186
g93
g94
ssg82
g180
sg75
(lp187
S'client'
p188
asbag68
(g89
g70
NtRp189
(dp190
g73
(dp191
g100
g101
ssg82
g180
sg75
(lp192
S':'
asbag68
(g89
g70
NtRp193
(dp194
g73
(dp195
sg82
g180
sg75
(lp196
g68
(g69
g70
NtRp197
(dp198
g73
(dp199
g81
I5
ssg82
g193
sg75
(lp200
S'127.0.0.1'
p201
asbasbasbag68
(g84
g70
NtRp202
(dp203
g73
(dp204
sg82
g78
sg75
(lp205
g68
(g89
g70
NtRp206
(dp207
g73
(dp208
g93
g94
ssg82
g202
sg75
(lp209
S'controller'
p210
asbag68
(g89
g70
NtRp211
(dp212
g73
(dp213
g100
g101
ssg82
g202
sg75
(lp214
S':'
asbag68
(g89
g70
NtRp215
(dp216
g73
(dp217
sg82
g202
sg75
(lp218
g68
(g69
g70
NtRp219
(dp220
g73
(dp221
g81
I5
ssg82
g215
sg75
(lp222
S'default'
p223
asbasbasbag68
(g84
g70
NtRp224
(dp225
g73
(dp226
sg82
g78
sg75
(lp227
g68
(g89
g70
NtRp228
(dp229
g73
(dp230
g93
g94
ssg82
g224
sg75
(lp231
S'cookies'
p232
asbag68
(g89
g70
NtRp233
(dp234
g73
(dp235
g100
g101
ssg82
g224
sg75
(lp236
S':'
asbag68
(g89
g70
NtRp237
(dp238
g73
(dp239
sg82
g224
sg75
(lp240
g68
(g69
g70
NtRp241
(dp242
g73
(dp243
g81
I5
ssg82
g237
sg75
(lp244
g68
(g77
g70
NtRp245
(dp246
g73
(dp247
g81
I4
ssg82
Nsg75
(lp248
g68
(g84
g70
NtRp249
(dp250
g73
(dp251
sg82
g245
sg75
(lp252
g68
(g89
g70
NtRp253
(dp254
g73
(dp255
g93
g94
ssg82
g249
sg75
(lp256
S'session_id_admin'
p257
asbag68
(g89
g70
NtRp258
(dp259
g73
(dp260
g100
g101
ssg82
g249
sg75
(lp261
S':'
asbag68
(g89
g70
NtRp262
(dp263
g73
(dp264
sg82
g249
sg75
(lp265
g68
(g69
g70
NtRp266
(dp267
g73
(dp268
g81
I4
ssg82
g262
sg75
(lp269
g68
(g77
g70
NtRp270
(dp271
g73
(dp272
g81
I3
ssg82
Nsg75
(lp273
g68
(g84
g70
NtRp274
(dp275
g73
(dp276
sg82
g270
sg75
(lp277
g68
(g89
g70
NtRp278
(dp279
g73
(dp280
g93
g94
ssg82
g274
sg75
(lp281
S'comment'
p282
asbag68
(g89
g70
NtRp283
(dp284
g73
(dp285
g100
g101
ssg82
g274
sg75
(lp286
S':'
asbag68
(g89
g70
NtRp287
(dp288
g73
(dp289
sg82
g274
sg75
(lp290
g68
(g69
g70
NtRp291
(dp292
g73
(dp293
g81
I3
ssg82
g287
sg75
(lp294
S''
asbasbasbag68
(g84
g70
NtRp295
(dp296
g73
(dp297
sg82
g270
sg75
(lp298
g68
(g89
g70
NtRp299
(dp300
g73
(dp301
g93
g94
ssg82
g295
sg75
(lp302
S'domain'
p303
asbag68
(g89
g70
NtRp304
(dp305
g73
(dp306
g100
g101
ssg82
g295
sg75
(lp307
S':'
asbag68
(g89
g70
NtRp308
(dp309
g73
(dp310
sg82
g295
sg75
(lp311
g68
(g69
g70
NtRp312
(dp313
g73
(dp314
g81
I3
ssg82
g308
sg75
(lp315
S''
asbasbasbag68
(g84
g70
NtRp316
(dp317
g73
(dp318
sg82
g270
sg75
(lp319
g68
(g89
g70
NtRp320
(dp321
g73
(dp322
g93
g94
ssg82
g316
sg75
(lp323
S'expires'
p324
asbag68
(g89
g70
NtRp325
(dp326
g73
(dp327
g100
g101
ssg82
g316
sg75
(lp328
S':'
asbag68
(g89
g70
NtRp329
(dp330
g73
(dp331
sg82
g316
sg75
(lp332
g68
(g69
g70
NtRp333
(dp334
g73
(dp335
g81
I3
ssg82
g329
sg75
(lp336
S''
asbasbasbag68
(g84
g70
NtRp337
(dp338
g73
(dp339
sg82
g270
sg75
(lp340
g68
(g89
g70
NtRp341
(dp342
g73
(dp343
g93
g94
ssg82
g337
sg75
(lp344
S'httponly'
p345
asbag68
(g89
g70
NtRp346
(dp347
g73
(dp348
g100
g101
ssg82
g337
sg75
(lp349
S':'
asbag68
(g89
g70
NtRp350
(dp351
g73
(dp352
sg82
g337
sg75
(lp353
g68
(g69
g70
NtRp354
(dp355
g73
(dp356
g81
I3
ssg82
g350
sg75
(lp357
S''
asbasbasbag68
(g84
g70
NtRp358
(dp359
g73
(dp360
sg82
g270
sg75
(lp361
g68
(g89
g70
NtRp362
(dp363
g73
(dp364
g93
g94
ssg82
g358
sg75
(lp365
S'max-age'
p366
asbag68
(g89
g70
NtRp367
(dp368
g73
(dp369
g100
g101
ssg82
g358
sg75
(lp370
S':'
asbag68
(g89
g70
NtRp371
(dp372
g73
(dp373
sg82
g358
sg75
(lp374
g68
(g69
g70
NtRp375
(dp376
g73
(dp377
g81
I3
ssg82
g371
sg75
(lp378
S''
asbasbasbag68
(g84
g70
NtRp379
(dp380
g73
(dp381
sg82
g270
sg75
(lp382
g68
(g89
g70
NtRp383
(dp384
g73
(dp385
g93
g94
ssg82
g379
sg75
(lp386
S'path'
p387
asbag68
(g89
g70
NtRp388
(dp389
g73
(dp390
g100
g101
ssg82
g379
sg75
(lp391
S':'
asbag68
(g89
g70
NtRp392
(dp393
g73
(dp394
sg82
g379
sg75
(lp395
g68
(g69
g70
NtRp396
(dp397
g73
(dp398
g81
I3
ssg82
g392
sg75
(lp399
S''
asbasbasbag68
(g84
g70
NtRp400
(dp401
g73
(dp402
sg82
g270
sg75
(lp403
g68
(g89
g70
NtRp404
(dp405
g73
(dp406
g93
g94
ssg82
g400
sg75
(lp407
S'secure'
p408
asbag68
(g89
g70
NtRp409
(dp410
g73
(dp411
g100
g101
ssg82
g400
sg75
(lp412
S':'
asbag68
(g89
g70
NtRp413
(dp414
g73
(dp415
sg82
g400
sg75
(lp416
g68
(g69
g70
NtRp417
(dp418
g73
(dp419
g81
I3
ssg82
g413
sg75
(lp420
S''
asbasbasbag68
(g84
g70
NtRp421
(dp422
g73
(dp423
sg82
g270
sg75
(lp424
g68
(g89
g70
NtRp425
(dp426
g73
(dp427
g93
g94
ssg82
g421
sg75
(lp428
S'version'
p429
asbag68
(g89
g70
NtRp430
(dp431
g73
(dp432
g100
g101
ssg82
g421
sg75
(lp433
S':'
asbag68
(g89
g70
NtRp434
(dp435
g73
(dp436
sg82
g421
sg75
(lp437
g68
(g69
g70
NtRp438
(dp439
g73
(dp440
g81
I3
ssg82
g434
sg75
(lp441
S''
asbasbasbasbasbasbasbag68
(g84
g70
NtRp442
(dp443
g73
(dp444
sg82
g245
sg75
(lp445
g68
(g89
g70
NtRp446
(dp447
g73
(dp448
g93
g94
ssg82
g442
sg75
(lp449
S'session_id_book_shelf_copy'
p450
asbag68
(g89
g70
NtRp451
(dp452
g73
(dp453
g100
g101
ssg82
g442
sg75
(lp454
S':'
asbag68
(g89
g70
NtRp455
(dp456
g73
(dp457
sg82
g442
sg75
(lp458
g68
(g69
g70
NtRp459
(dp460
g73
(dp461
g81
I4
ssg82
g455
sg75
(lp462
g68
(g77
g70
NtRp463
(dp464
g73
(dp465
g81
I3
ssg82
Nsg75
(lp466
g68
(g84
g70
NtRp467
(dp468
g73
(dp469
sg82
g463
sg75
(lp470
g68
(g89
g70
NtRp471
(dp472
g73
(dp473
g93
g94
ssg82
g467
sg75
(lp474
g282
asbag68
(g89
g70
NtRp475
(dp476
g73
(dp477
g100
g101
ssg82
g467
sg75
(lp478
S':'
asbag68
(g89
g70
NtRp479
(dp480
g73
(dp481
sg82
g467
sg75
(lp482
g68
(g69
g70
NtRp483
(dp484
g73
(dp485
g81
I3
ssg82
g479
sg75
(lp486
S''
asbasbasbag68
(g84
g70
NtRp487
(dp488
g73
(dp489
sg82
g463
sg75
(lp490
g68
(g89
g70
NtRp491
(dp492
g73
(dp493
g93
g94
ssg82
g487
sg75
(lp494
g303
asbag68
(g89
g70
NtRp495
(dp496
g73
(dp497
g100
g101
ssg82
g487
sg75
(lp498
S':'
asbag68
(g89
g70
NtRp499
(dp500
g73
(dp501
sg82
g487
sg75
(lp502
g68
(g69
g70
NtRp503
(dp504
g73
(dp505
g81
I3
ssg82
g499
sg75
(lp506
S''
asbasbasbag68
(g84
g70
NtRp507
(dp508
g73
(dp509
sg82
g463
sg75
(lp510
g68
(g89
g70
NtRp511
(dp512
g73
(dp513
g93
g94
ssg82
g507
sg75
(lp514
g324
asbag68
(g89
g70
NtRp515
(dp516
g73
(dp517
g100
g101
ssg82
g507
sg75
(lp518
S':'
asbag68
(g89
g70
NtRp519
(dp520
g73
(dp521
sg82
g507
sg75
(lp522
g68
(g69
g70
NtRp523
(dp524
g73
(dp525
g81
I3
ssg82
g519
sg75
(lp526
S''
asbasbasbag68
(g84
g70
NtRp527
(dp528
g73
(dp529
sg82
g463
sg75
(lp530
g68
(g89
g70
NtRp531
(dp532
g73
(dp533
g93
g94
ssg82
g527
sg75
(lp534
g345
asbag68
(g89
g70
NtRp535
(dp536
g73
(dp537
g100
g101
ssg82
g527
sg75
(lp538
S':'
asbag68
(g89
g70
NtRp539
(dp540
g73
(dp541
sg82
g527
sg75
(lp542
g68
(g69
g70
NtRp543
(dp544
g73
(dp545
g81
I3
ssg82
g539
sg75
(lp546
S''
asbasbasbag68
(g84
g70
NtRp547
(dp548
g73
(dp549
sg82
g463
sg75
(lp550
g68
(g89
g70
NtRp551
(dp552
g73
(dp553
g93
g94
ssg82
g547
sg75
(lp554
g366
asbag68
(g89
g70
NtRp555
(dp556
g73
(dp557
g100
g101
ssg82
g547
sg75
(lp558
S':'
asbag68
(g89
g70
NtRp559
(dp560
g73
(dp561
sg82
g547
sg75
(lp562
g68
(g69
g70
NtRp563
(dp564
g73
(dp565
g81
I3
ssg82
g559
sg75
(lp566
S''
asbasbasbag68
(g84
g70
NtRp567
(dp568
g73
(dp569
sg82
g463
sg75
(lp570
g68
(g89
g70
NtRp571
(dp572
g73
(dp573
g93
g94
ssg82
g567
sg75
(lp574
g387
asbag68
(g89
g70
NtRp575
(dp576
g73
(dp577
g100
g101
ssg82
g567
sg75
(lp578
S':'
asbag68
(g89
g70
NtRp579
(dp580
g73
(dp581
sg82
g567
sg75
(lp582
g68
(g69
g70
NtRp583
(dp584
g73
(dp585
g81
I3
ssg82
g579
sg75
(lp586
S''
asbasbasbag68
(g84
g70
NtRp587
(dp588
g73
(dp589
sg82
g463
sg75
(lp590
g68
(g89
g70
NtRp591
(dp592
g73
(dp593
g93
g94
ssg82
g587
sg75
(lp594
g408
asbag68
(g89
g70
NtRp595
(dp596
g73
(dp597
g100
g101
ssg82
g587
sg75
(lp598
S':'
asbag68
(g89
g70
NtRp599
(dp600
g73
(dp601
sg82
g587
sg75
(lp602
g68
(g69
g70
NtRp603
(dp604
g73
(dp605
g81
I3
ssg82
g599
sg75
(lp606
S''
asbasbasbag68
(g84
g70
NtRp607
(dp608
g73
(dp609
sg82
g463
sg75
(lp610
g68
(g89
g70
NtRp611
(dp612
g73
(dp613
g93
g94
ssg82
g607
sg75
(lp614
g429
asbag68
(g89
g70
NtRp615
(dp616
g73
(dp617
g100
g101
ssg82
g607
sg75
(lp618
S':'
asbag68
(g89
g70
NtRp619
(dp620
g73
(dp621
sg82
g607
sg75
(lp622
g68
(g69
g70
NtRp623
(dp624
g73
(dp625
g81
I3
ssg82
g619
sg75
(lp626
S''
asbasbasbasbasbasbasbag68
(g84
g70
NtRp627
(dp628
g73
(dp629
sg82
g245
sg75
(lp630
g68
(g89
g70
NtRp631
(dp632
g73
(dp633
g93
g94
ssg82
g627
sg75
(lp634
S'session_id_todolist2'
p635
asbag68
(g89
g70
NtRp636
(dp637
g73
(dp638
g100
g101
ssg82
g627
sg75
(lp639
S':'
asbag68
(g89
g70
NtRp640
(dp641
g73
(dp642
sg82
g627
sg75
(lp643
g68
(g69
g70
NtRp644
(dp645
g73
(dp646
g81
I4
ssg82
g640
sg75
(lp647
g68
(g77
g70
NtRp648
(dp649
g73
(dp650
g81
I3
ssg82
Nsg75
(lp651
g68
(g84
g70
NtRp652
(dp653
g73
(dp654
sg82
g648
sg75
(lp655
g68
(g89
g70
NtRp656
(dp657
g73
(dp658
g93
g94
ssg82
g652
sg75
(lp659
g282
asbag68
(g89
g70
NtRp660
(dp661
g73
(dp662
g100
g101
ssg82
g652
sg75
(lp663
S':'
asbag68
(g89
g70
NtRp664
(dp665
g73
(dp666
sg82
g652
sg75
(lp667
g68
(g69
g70
NtRp668
(dp669
g73
(dp670
g81
I3
ssg82
g664
sg75
(lp671
S''
asbasbasbag68
(g84
g70
NtRp672
(dp673
g73
(dp674
sg82
g648
sg75
(lp675
g68
(g89
g70
NtRp676
(dp677
g73
(dp678
g93
g94
ssg82
g672
sg75
(lp679
g303
asbag68
(g89
g70
NtRp680
(dp681
g73
(dp682
g100
g101
ssg82
g672
sg75
(lp683
S':'
asbag68
(g89
g70
NtRp684
(dp685
g73
(dp686
sg82
g672
sg75
(lp687
g68
(g69
g70
NtRp688
(dp689
g73
(dp690
g81
I3
ssg82
g684
sg75
(lp691
S''
asbasbasbag68
(g84
g70
NtRp692
(dp693
g73
(dp694
sg82
g648
sg75
(lp695
g68
(g89
g70
NtRp696
(dp697
g73
(dp698
g93
g94
ssg82
g692
sg75
(lp699
g324
asbag68
(g89
g70
NtRp700
(dp701
g73
(dp702
g100
g101
ssg82
g692
sg75
(lp703
S':'
asbag68
(g89
g70
NtRp704
(dp705
g73
(dp706
sg82
g692
sg75
(lp707
g68
(g69
g70
NtRp708
(dp709
g73
(dp710
g81
I3
ssg82
g704
sg75
(lp711
S''
asbasbasbag68
(g84
g70
NtRp712
(dp713
g73
(dp714
sg82
g648
sg75
(lp715
g68
(g89
g70
NtRp716
(dp717
g73
(dp718
g93
g94
ssg82
g712
sg75
(lp719
g345
asbag68
(g89
g70
NtRp720
(dp721
g73
(dp722
g100
g101
ssg82
g712
sg75
(lp723
S':'
asbag68
(g89
g70
NtRp724
(dp725
g73
(dp726
sg82
g712
sg75
(lp727
g68
(g69
g70
NtRp728
(dp729
g73
(dp730
g81
I3
ssg82
g724
sg75
(lp731
S''
asbasbasbag68
(g84
g70
NtRp732
(dp733
g73
(dp734
sg82
g648
sg75
(lp735
g68
(g89
g70
NtRp736
(dp737
g73
(dp738
g93
g94
ssg82
g732
sg75
(lp739
g366
asbag68
(g89
g70
NtRp740
(dp741
g73
(dp742
g100
g101
ssg82
g732
sg75
(lp743
S':'
asbag68
(g89
g70
NtRp744
(dp745
g73
(dp746
sg82
g732
sg75
(lp747
g68
(g69
g70
NtRp748
(dp749
g73
(dp750
g81
I3
ssg82
g744
sg75
(lp751
S''
asbasbasbag68
(g84
g70
NtRp752
(dp753
g73
(dp754
sg82
g648
sg75
(lp755
g68
(g89
g70
NtRp756
(dp757
g73
(dp758
g93
g94
ssg82
g752
sg75
(lp759
g387
asbag68
(g89
g70
NtRp760
(dp761
g73
(dp762
g100
g101
ssg82
g752
sg75
(lp763
S':'
asbag68
(g89
g70
NtRp764
(dp765
g73
(dp766
sg82
g752
sg75
(lp767
g68
(g69
g70
NtRp768
(dp769
g73
(dp770
g81
I3
ssg82
g764
sg75
(lp771
S''
asbasbasbag68
(g84
g70
NtRp772
(dp773
g73
(dp774
sg82
g648
sg75
(lp775
g68
(g89
g70
NtRp776
(dp777
g73
(dp778
g93
g94
ssg82
g772
sg75
(lp779
g408
asbag68
(g89
g70
NtRp780
(dp781
g73
(dp782
g100
g101
ssg82
g772
sg75
(lp783
S':'
asbag68
(g89
g70
NtRp784
(dp785
g73
(dp786
sg82
g772
sg75
(lp787
g68
(g69
g70
NtRp788
(dp789
g73
(dp790
g81
I3
ssg82
g784
sg75
(lp791
S''
asbasbasbag68
(g84
g70
NtRp792
(dp793
g73
(dp794
sg82
g648
sg75
(lp795
g68
(g89
g70
NtRp796
(dp797
g73
(dp798
g93
g94
ssg82
g792
sg75
(lp799
g429
asbag68
(g89
g70
NtRp800
(dp801
g73
(dp802
g100
g101
ssg82
g792
sg75
(lp803
S':'
asbag68
(g89
g70
NtRp804
(dp805
g73
(dp806
sg82
g792
sg75
(lp807
g68
(g69
g70
NtRp808
(dp809
g73
(dp810
g81
I3
ssg82
g804
sg75
(lp811
S''
asbasbasbasbasbasbasbag68
(g84
g70
NtRp812
(dp813
g73
(dp814
sg82
g245
sg75
(lp815
g68
(g89
g70
NtRp816
(dp817
g73
(dp818
g93
g94
ssg82
g812
sg75
(lp819
S'session_id_welcome'
p820
asbag68
(g89
g70
NtRp821
(dp822
g73
(dp823
g100
g101
ssg82
g812
sg75
(lp824
S':'
asbag68
(g89
g70
NtRp825
(dp826
g73
(dp827
sg82
g812
sg75
(lp828
g68
(g69
g70
NtRp829
(dp830
g73
(dp831
g81
I4
ssg82
g825
sg75
(lp832
g68
(g77
g70
NtRp833
(dp834
g73
(dp835
g81
I3
ssg82
Nsg75
(lp836
g68
(g84
g70
NtRp837
(dp838
g73
(dp839
sg82
g833
sg75
(lp840
g68
(g89
g70
NtRp841
(dp842
g73
(dp843
g93
g94
ssg82
g837
sg75
(lp844
g282
asbag68
(g89
g70
NtRp845
(dp846
g73
(dp847
g100
g101
ssg82
g837
sg75
(lp848
S':'
asbag68
(g89
g70
NtRp849
(dp850
g73
(dp851
sg82
g837
sg75
(lp852
g68
(g69
g70
NtRp853
(dp854
g73
(dp855
g81
I3
ssg82
g849
sg75
(lp856
S''
asbasbasbag68
(g84
g70
NtRp857
(dp858
g73
(dp859
sg82
g833
sg75
(lp860
g68
(g89
g70
NtRp861
(dp862
g73
(dp863
g93
g94
ssg82
g857
sg75
(lp864
g303
asbag68
(g89
g70
NtRp865
(dp866
g73
(dp867
g100
g101
ssg82
g857
sg75
(lp868
S':'
asbag68
(g89
g70
NtRp869
(dp870
g73
(dp871
sg82
g857
sg75
(lp872
g68
(g69
g70
NtRp873
(dp874
g73
(dp875
g81
I3
ssg82
g869
sg75
(lp876
S''
asbasbasbag68
(g84
g70
NtRp877
(dp878
g73
(dp879
sg82
g833
sg75
(lp880
g68
(g89
g70
NtRp881
(dp882
g73
(dp883
g93
g94
ssg82
g877
sg75
(lp884
g324
asbag68
(g89
g70
NtRp885
(dp886
g73
(dp887
g100
g101
ssg82
g877
sg75
(lp888
S':'
asbag68
(g89
g70
NtRp889
(dp890
g73
(dp891
sg82
g877
sg75
(lp892
g68
(g69
g70
NtRp893
(dp894
g73
(dp895
g81
I3
ssg82
g889
sg75
(lp896
S''
asbasbasbag68
(g84
g70
NtRp897
(dp898
g73
(dp899
sg82
g833
sg75
(lp900
g68
(g89
g70
NtRp901
(dp902
g73
(dp903
g93
g94
ssg82
g897
sg75
(lp904
g345
asbag68
(g89
g70
NtRp905
(dp906
g73
(dp907
g100
g101
ssg82
g897
sg75
(lp908
S':'
asbag68
(g89
g70
NtRp909
(dp910
g73
(dp911
sg82
g897
sg75
(lp912
g68
(g69
g70
NtRp913
(dp914
g73
(dp915
g81
I3
ssg82
g909
sg75
(lp916
S''
asbasbasbag68
(g84
g70
NtRp917
(dp918
g73
(dp919
sg82
g833
sg75
(lp920
g68
(g89
g70
NtRp921
(dp922
g73
(dp923
g93
g94
ssg82
g917
sg75
(lp924
g366
asbag68
(g89
g70
NtRp925
(dp926
g73
(dp927
g100
g101
ssg82
g917
sg75
(lp928
S':'
asbag68
(g89
g70
NtRp929
(dp930
g73
(dp931
sg82
g917
sg75
(lp932
g68
(g69
g70
NtRp933
(dp934
g73
(dp935
g81
I3
ssg82
g929
sg75
(lp936
S''
asbasbasbag68
(g84
g70
NtRp937
(dp938
g73
(dp939
sg82
g833
sg75
(lp940
g68
(g89
g70
NtRp941
(dp942
g73
(dp943
g93
g94
ssg82
g937
sg75
(lp944
g387
asbag68
(g89
g70
NtRp945
(dp946
g73
(dp947
g100
g101
ssg82
g937
sg75
(lp948
S':'
asbag68
(g89
g70
NtRp949
(dp950
g73
(dp951
sg82
g937
sg75
(lp952
g68
(g69
g70
NtRp953
(dp954
g73
(dp955
g81
I3
ssg82
g949
sg75
(lp956
S''
asbasbasbag68
(g84
g70
NtRp957
(dp958
g73
(dp959
sg82
g833
sg75
(lp960
g68
(g89
g70
NtRp961
(dp962
g73
(dp963
g93
g94
ssg82
g957
sg75
(lp964
g408
asbag68
(g89
g70
NtRp965
(dp966
g73
(dp967
g100
g101
ssg82
g957
sg75
(lp968
S':'
asbag68
(g89
g70
NtRp969
(dp970
g73
(dp971
sg82
g957
sg75
(lp972
g68
(g69
g70
NtRp973
(dp974
g73
(dp975
g81
I3
ssg82
g969
sg75
(lp976
S''
asbasbasbag68
(g84
g70
NtRp977
(dp978
g73
(dp979
sg82
g833
sg75
(lp980
g68
(g89
g70
NtRp981
(dp982
g73
(dp983
g93
g94
ssg82
g977
sg75
(lp984
g429
asbag68
(g89
g70
NtRp985
(dp986
g73
(dp987
g100
g101
ssg82
g977
sg75
(lp988
S':'
asbag68
(g89
g70
NtRp989
(dp990
g73
(dp991
sg82
g977
sg75
(lp992
g68
(g69
g70
NtRp993
(dp994
g73
(dp995
g81
I3
ssg82
g989
sg75
(lp996
S''
asbasbasbasbasbasbasbasbasbasbasbag68
(g84
g70
NtRp997
(dp998
g73
(dp999
sg82
g78
sg75
(lp1000
g68
(g89
g70
NtRp1001
(dp1002
g73
(dp1003
g93
g94
ssg82
g997
sg75
(lp1004
S'env'
p1005
asbag68
(g89
g70
NtRp1006
(dp1007
g73
(dp1008
g100
g101
ssg82
g997
sg75
(lp1009
S':'
asbag68
(g89
g70
NtRp1010
(dp1011
g73
(dp1012
sg82
g997
sg75
(lp1013
g68
(g69
g70
NtRp1014
(dp1015
g73
(dp1016
g81
I5
ssg82
g1010
sg75
(lp1017
g68
(g77
g70
NtRp1018
(dp1019
g73
(dp1020
g81
I4
ssg82
Nsg75
(lp1021
g68
(g84
g70
NtRp1022
(dp1023
g73
(dp1024
sg82
g1018
sg75
(lp1025
g68
(g89
g70
NtRp1026
(dp1027
g73
(dp1028
g93
g94
ssg82
g1022
sg75
(lp1029
S'app_folders'
p1030
asbag68
(g89
g70
NtRp1031
(dp1032
g73
(dp1033
g100
g101
ssg82
g1022
sg75
(lp1034
S':'
asbag68
(g89
g70
NtRp1035
(dp1036
g73
(dp1037
sg82
g1022
sg75
(lp1038
g68
(g69
g70
NtRp1039
(dp1040
g73
(dp1041
g81
I4
ssg82
g1035
sg75
(lp1042
S"set(['/Users/ianaboneva/Dropbox/DePaul/CSC 438 - Web Applications/web2py/applications/ToDoList2/', '/Users/ianaboneva/Dropbox/DePaul/CSC 438 - Web Applications/web2py/applications/welcome/', '/Users/ianaboneva/Dropbox/DePaul/CSC 438 - Web Applications/web2py/applications/admin/', '/Users/ianaboneva/Dropbox/DePaul/CSC 438 - Web Applications/web2py/applications/Book_Shelf_copy/'])"
p1043
asbasbasbag68
(g84
g70
NtRp1044
(dp1045
g73
(dp1046
sg82
g1018
sg75
(lp1047
g68
(g89
g70
NtRp1048
(dp1049
g73
(dp1050
g93
g94
ssg82
g1044
sg75
(lp1051
S'applications_parent'
p1052
asbag68
(g89
g70
NtRp1053
(dp1054
g73
(dp1055
g100
g101
ssg82
g1044
sg75
(lp1056
S':'
asbag68
(g89
g70
NtRp1057
(dp1058
g73
(dp1059
sg82
g1044
sg75
(lp1060
g68
(g69
g70
NtRp1061
(dp1062
g73
(dp1063
g81
I4
ssg82
g1057
sg75
(lp1064
S'/Users/ianaboneva/Dropbox/DePaul/CSC 438 - Web Applications/web2py'
p1065
asbasbasbag68
(g84
g70
NtRp1066
(dp1067
g73
(dp1068
sg82
g1018
sg75
(lp1069
g68
(g89
g70
NtRp1070
(dp1071
g73
(dp1072
g93
g94
ssg82
g1066
sg75
(lp1073
S'cmd_args'
p1074
asbag68
(g89
g70
NtRp1075
(dp1076
g73
(dp1077
g100
g101
ssg82
g1066
sg75
(lp1078
S':'
asbag68
(g89
g70
NtRp1079
(dp1080
g73
(dp1081
sg82
g1066
sg75
(lp1082
g68
(g69
g70
NtRp1083
(dp1084
g73
(dp1085
g81
I4
ssg82
g1079
sg75
(lp1086
g68
(g77
g70
NtRp1087
(dp1088
g73
(dp1089
g81
I3
ssg82
Nsg75
(lp1090
sbasbasbasbag68
(g84
g70
NtRp1091
(dp1092
g73
(dp1093
sg82
g1018
sg75
(lp1094
g68
(g89
g70
NtRp1095
(dp1096
g73
(dp1097
g93
g94
ssg82
g1091
sg75
(lp1098
S'cmd_options'
p1099
asbag68
(g89
g70
NtRp1100
(dp1101
g73
(dp1102
g100
g101
ssg82
g1091
sg75
(lp1103
S':'
asbag68
(g89
g70
NtRp1104
(dp1105
g73
(dp1106
sg82
g1091
sg75
(lp1107
g68
(g69
g70
NtRp1108
(dp1109
g73
(dp1110
g81
I4
ssg82
g1104
sg75
(lp1111
S"<Values at 0x104fc1b00: {'verbose': False, 'ip': '127.0.0.1', 'shutdown_timeout': 5, 'taskbar': False, 'nocron': False, 'pid_filename': 'httpserver.pid', 'maxthreads': None, 'softcron': False, 'server_name': 'Iana-Bonevas-MacBook-Pro.local', 'bpython': False, 'nogui': False, 'port': 8000, 'extcron': False, 'debuglevel': 30, 'test': None, 'folder': '/Users/ianaboneva/Dropbox/DePaul/CSC 438 - Web Applications/web2py', 'config': '', 'import_models': False, 'winservice': '', 'shell': None, 'run': '', 'log_filename': 'httpserver.log', 'args': [''], 'socket_timeout': 5, 'ssl_ca_certificate': None, 'scheduler': None, 'profiler_filename': None, 'ssl_private_key': '', 'password': '<ask>', 'request_queue_size': 5, 'ssl_certificate': '', 'cronjob': False, 'numthreads': None, 'quiet': False, 'interfaces': None, 'minthreads': None, 'timeout': 10, 'plain': False, 'nobanner': False}>"
p1112
asbasbasbag68
(g84
g70
NtRp1113
(dp1114
g73
(dp1115
sg82
g1018
sg75
(lp1116
g68
(g89
g70
NtRp1117
(dp1118
g73
(dp1119
g93
g94
ssg82
g1113
sg75
(lp1120
S'db_sessions'
p1121
asbag68
(g89
g70
NtRp1122
(dp1123
g73
(dp1124
g100
g101
ssg82
g1113
sg75
(lp1125
S':'
asbag68
(g89
g70
NtRp1126
(dp1127
g73
(dp1128
sg82
g1113
sg75
(lp1129
g68
(g69
g70
NtRp1130
(dp1131
g73
(dp1132
g81
I4
ssg82
g1126
sg75
(lp1133
S'set([])'
p1134
asbasbasbag68
(g84
g70
NtRp1135
(dp1136
g73
(dp1137
sg82
g1018
sg75
(lp1138
g68
(g89
g70
NtRp1139
(dp1140
g73
(dp1141
g93
g94
ssg82
g1135
sg75
(lp1142
S'debugging'
p1143
asbag68
(g89
g70
NtRp1144
(dp1145
g73
(dp1146
g100
g101
ssg82
g1135
sg75
(lp1147
S':'
asbag68
(g89
g70
NtRp1148
(dp1149
g73
(dp1150
sg82
g1135
sg75
(lp1151
g68
(g69
g70
NtRp1152
(dp1153
g73
(dp1154
g81
I4
ssg82
g1148
sg75
(lp1155
g111
asbasbasbag68
(g84
g70
NtRp1156
(dp1157
g73
(dp1158
sg82
g1018
sg75
(lp1159
g68
(g89
g70
NtRp1160
(dp1161
g73
(dp1162
g93
g94
ssg82
g1156
sg75
(lp1163
S'gluon_parent'
p1164
asbag68
(g89
g70
NtRp1165
(dp1166
g73
(dp1167
g100
g101
ssg82
g1156
sg75
(lp1168
S':'
asbag68
(g89
g70
NtRp1169
(dp1170
g73
(dp1171
sg82
g1156
sg75
(lp1172
g68
(g69
g70
NtRp1173
(dp1174
g73
(dp1175
g81
I4
ssg82
g1169
sg75
(lp1176
S'/Users/ianaboneva/Dropbox/DePaul/CSC 438 - Web Applications/web2py'
p1177
asbasbasbag68
(g84
g70
NtRp1178
(dp1179
g73
(dp1180
sg82
g1018
sg75
(lp1181
g68
(g89
g70
NtRp1182
(dp1183
g73
(dp1184
g93
g94
ssg82
g1178
sg75
(lp1185
S'http_accept'
p1186
asbag68
(g89
g70
NtRp1187
(dp1188
g73
(dp1189
g100
g101
ssg82
g1178
sg75
(lp1190
S':'
asbag68
(g89
g70
NtRp1191
(dp1192
g73
(dp1193
sg82
g1178
sg75
(lp1194
g68
(g69
g70
NtRp1195
(dp1196
g73
(dp1197
g81
I4
ssg82
g1191
sg75
(lp1198
S'text/html,application/xhtml+xml,application/xml;q=0.9,*/*;q=0.8'
p1199
asbasbasbag68
(g84
g70
NtRp1200
(dp1201
g73
(dp1202
sg82
g1018
sg75
(lp1203
g68
(g89
g70
NtRp1204
(dp1205
g73
(dp1206
g93
g94
ssg82
g1200
sg75
(lp1207
S'http_accept_charset'
p1208
asbag68
(g89
g70
NtRp1209
(dp1210
g73
(dp1211
g100
g101
ssg82
g1200
sg75
(lp1212
S':'
asbag68
(g89
g70
NtRp1213
(dp1214
g73
(dp1215
sg82
g1200
sg75
(lp1216
g68
(g69
g70
NtRp1217
(dp1218
g73
(dp1219
g81
I4
ssg82
g1213
sg75
(lp1220
S'ISO-8859-1,utf-8;q=0.7,*;q=0.3'
p1221
asbasbasbag68
(g84
g70
NtRp1222
(dp1223
g73
(dp1224
sg82
g1018
sg75
(lp1225
g68
(g89
g70
NtRp1226
(dp1227
g73
(dp1228
g93
g94
ssg82
g1222
sg75
(lp1229
S'http_accept_encoding'
p1230
asbag68
(g89
g70
NtRp1231
(dp1232
g73
(dp1233
g100
g101
ssg82
g1222
sg75
(lp1234
S':'
asbag68
(g89
g70
NtRp1235
(dp1236
g73
(dp1237
sg82
g1222
sg75
(lp1238
g68
(g69
g70
NtRp1239
(dp1240
g73
(dp1241
g81
I4
ssg82
g1235
sg75
(lp1242
S'gzip,deflate,sdch'
p1243
asbasbasbag68
(g84
g70
NtRp1244
(dp1245
g73
(dp1246
sg82
g1018
sg75
(lp1247
g68
(g89
g70
NtRp1248
(dp1249
g73
(dp1250
g93
g94
ssg82
g1244
sg75
(lp1251
S'http_accept_language'
p1252
asbag68
(g89
g70
NtRp1253
(dp1254
g73
(dp1255
g100
g101
ssg82
g1244
sg75
(lp1256
S':'
asbag68
(g89
g70
NtRp1257
(dp1258
g73
(dp1259
sg82
g1244
sg75
(lp1260
g68
(g69
g70
NtRp1261
(dp1262
g73
(dp1263
g81
I4
ssg82
g1257
sg75
(lp1264
S'en-US,en;q=0.8'
p1265
asbasbasbag68
(g84
g70
NtRp1266
(dp1267
g73
(dp1268
sg82
g1018
sg75
(lp1269
g68
(g89
g70
NtRp1270
(dp1271
g73
(dp1272
g93
g94
ssg82
g1266
sg75
(lp1273
S'http_cache_control'
p1274
asbag68
(g89
g70
NtRp1275
(dp1276
g73
(dp1277
g100
g101
ssg82
g1266
sg75
(lp1278
S':'
asbag68
(g89
g70
NtRp1279
(dp1280
g73
(dp1281
sg82
g1266
sg75
(lp1282
g68
(g69
g70
NtRp1283
(dp1284
g73
(dp1285
g81
I4
ssg82
g1279
sg75
(lp1286
S'max-age=0'
p1287
asbasbasbag68
(g84
g70
NtRp1288
(dp1289
g73
(dp1290
sg82
g1018
sg75
(lp1291
g68
(g89
g70
NtRp1292
(dp1293
g73
(dp1294
g93
g94
ssg82
g1288
sg75
(lp1295
S'http_connection'
p1296
asbag68
(g89
g70
NtRp1297
(dp1298
g73
(dp1299
g100
g101
ssg82
g1288
sg75
(lp1300
S':'
asbag68
(g89
g70
NtRp1301
(dp1302
g73
(dp1303
sg82
g1288
sg75
(lp1304
g68
(g69
g70
NtRp1305
(dp1306
g73
(dp1307
g81
I4
ssg82
g1301
sg75
(lp1308
S'keep-alive'
p1309
asbasbasbag68
(g84
g70
NtRp1310
(dp1311
g73
(dp1312
sg82
g1018
sg75
(lp1313
g68
(g89
g70
NtRp1314
(dp1315
g73
(dp1316
g93
g94
ssg82
g1310
sg75
(lp1317
S'http_cookie'
p1318
asbag68
(g89
g70
NtRp1319
(dp1320
g73
(dp1321
g100
g101
ssg82
g1310
sg75
(lp1322
S':'
asbag68
(g89
g70
NtRp1323
(dp1324
g73
(dp1325
sg82
g1310
sg75
(lp1326
g68
(g69
g70
NtRp1327
(dp1328
g73
(dp1329
g81
I4
ssg82
g1323
sg75
(lp1330
S'session_id_welcome=127.0.0.1-bffe8a2c-7cac-4fda-8379-2a112ae00c58; session_id_todolist2=127.0.0.1-477221c7-510b-4aa7-b5d2-77bae14bca92; session_id_book_shelf_copy=127.0.0.1-eeba29a1-713d-4626-a1ad-4627ea1d2e7a; session_id_admin=127.0.0.1-4c04cc91-8b55-4bcd-8835-a51019000e30'
p1331
asbasbasbag68
(g84
g70
NtRp1332
(dp1333
g73
(dp1334
sg82
g1018
sg75
(lp1335
g68
(g89
g70
NtRp1336
(dp1337
g73
(dp1338
g93
g94
ssg82
g1332
sg75
(lp1339
S'http_host'
p1340
asbag68
(g89
g70
NtRp1341
(dp1342
g73
(dp1343
g100
g101
ssg82
g1332
sg75
(lp1344
S':'
asbag68
(g89
g70
NtRp1345
(dp1346
g73
(dp1347
sg82
g1332
sg75
(lp1348
g68
(g69
g70
NtRp1349
(dp1350
g73
(dp1351
g81
I4
ssg82
g1345
sg75
(lp1352
S'127.0.0.1:8000'
p1353
asbasbasbag68
(g84
g70
NtRp1354
(dp1355
g73
(dp1356
sg82
g1018
sg75
(lp1357
g68
(g89
g70
NtRp1358
(dp1359
g73
(dp1360
g93
g94
ssg82
g1354
sg75
(lp1361
S'http_user_agent'
p1362
asbag68
(g89
g70
NtRp1363
(dp1364
g73
(dp1365
g100
g101
ssg82
g1354
sg75
(lp1366
S':'
asbag68
(g89
g70
NtRp1367
(dp1368
g73
(dp1369
sg82
g1354
sg75
(lp1370
g68
(g69
g70
NtRp1371
(dp1372
g73
(dp1373
g81
I4
ssg82
g1367
sg75
(lp1374
S'Mozilla/5.0 (Macintosh; Intel Mac OS X 10_7_4) AppleWebKit/536.5 (KHTML, like Gecko) Chrome/19.0.1084.53 Safari/536.5'
p1375
asbasbasbag68
(g84
g70
NtRp1376
(dp1377
g73
(dp1378
sg82
g1018
sg75
(lp1379
g68
(g89
g70
NtRp1380
(dp1381
g73
(dp1382
g93
g94
ssg82
g1376
sg75
(lp1383
S'is_jython'
p1384
asbag68
(g89
g70
NtRp1385
(dp1386
g73
(dp1387
g100
g101
ssg82
g1376
sg75
(lp1388
S':'
asbag68
(g89
g70
NtRp1389
(dp1390
g73
(dp1391
sg82
g1376
sg75
(lp1392
g68
(g69
g70
NtRp1393
(dp1394
g73
(dp1395
g81
I4
ssg82
g1389
sg75
(lp1396
g111
asbasbasbag68
(g84
g70
NtRp1397
(dp1398
g73
(dp1399
sg82
g1018
sg75
(lp1400
g68
(g89
g70
NtRp1401
(dp1402
g73
(dp1403
g93
g94
ssg82
g1397
sg75
(lp1404
S'is_pypy'
p1405
asbag68
(g89
g70
NtRp1406
(dp1407
g73
(dp1408
g100
g101
ssg82
g1397
sg75
(lp1409
S':'
asbag68
(g89
g70
NtRp1410
(dp1411
g73
(dp1412
sg82
g1397
sg75
(lp1413
g68
(g69
g70
NtRp1414
(dp1415
g73
(dp1416
g81
I4
ssg82
g1410
sg75
(lp1417
g111
asbasbasbag68
(g84
g70
NtRp1418
(dp1419
g73
(dp1420
sg82
g1018
sg75
(lp1421
g68
(g89
g70
NtRp1422
(dp1423
g73
(dp1424
g93
g94
ssg82
g1418
sg75
(lp1425
S'path_info'
p1426
asbag68
(g89
g70
NtRp1427
(dp1428
g73
(dp1429
g100
g101
ssg82
g1418
sg75
(lp1430
S':'
asbag68
(g89
g70
NtRp1431
(dp1432
g73
(dp1433
sg82
g1418
sg75
(lp1434
g68
(g69
g70
NtRp1435
(dp1436
g73
(dp1437
g81
I4
ssg82
g1431
sg75
(lp1438
S'/Book_Shelf_copy/default/index'
p1439
asbasbasbag68
(g84
g70
NtRp1440
(dp1441
g73
(dp1442
sg82
g1018
sg75
(lp1443
g68
(g89
g70
NtRp1444
(dp1445
g73
(dp1446
g93
g94
ssg82
g1440
sg75
(lp1447
S'query_string'
p1448
asbag68
(g89
g70
NtRp1449
(dp1450
g73
(dp1451
g100
g101
ssg82
g1440
sg75
(lp1452
S':'
asbag68
(g89
g70
NtRp1453
(dp1454
g73
(dp1455
sg82
g1440
sg75
(lp1456
g68
(g69
g70
NtRp1457
(dp1458
g73
(dp1459
g81
I4
ssg82
g1453
sg75
(lp1460
S''
asbasbasbag68
(g84
g70
NtRp1461
(dp1462
g73
(dp1463
sg82
g1018
sg75
(lp1464
g68
(g89
g70
NtRp1465
(dp1466
g73
(dp1467
g93
g94
ssg82
g1461
sg75
(lp1468
S'remote_addr'
p1469
asbag68
(g89
g70
NtRp1470
(dp1471
g73
(dp1472
g100
g101
ssg82
g1461
sg75
(lp1473
S':'
asbag68
(g89
g70
NtRp1474
(dp1475
g73
(dp1476
sg82
g1461
sg75
(lp1477
g68
(g69
g70
NtRp1478
(dp1479
g73
(dp1480
g81
I4
ssg82
g1474
sg75
(lp1481
g201
asbasbasbag68
(g84
g70
NtRp1482
(dp1483
g73
(dp1484
sg82
g1018
sg75
(lp1485
g68
(g89
g70
NtRp1486
(dp1487
g73
(dp1488
g93
g94
ssg82
g1482
sg75
(lp1489
S'remote_port'
p1490
asbag68
(g89
g70
NtRp1491
(dp1492
g73
(dp1493
g100
g101
ssg82
g1482
sg75
(lp1494
S':'
asbag68
(g89
g70
NtRp1495
(dp1496
g73
(dp1497
sg82
g1482
sg75
(lp1498
g68
(g69
g70
NtRp1499
(dp1500
g73
(dp1501
g81
I4
ssg82
g1495
sg75
(lp1502
S'54422'
p1503
asbasbasbag68
(g84
g70
NtRp1504
(dp1505
g73
(dp1506
sg82
g1018
sg75
(lp1507
g68
(g89
g70
NtRp1508
(dp1509
g73
(dp1510
g93
g94
ssg82
g1504
sg75
(lp1511
S'request_method'
p1512
asbag68
(g89
g70
NtRp1513
(dp1514
g73
(dp1515
g100
g101
ssg82
g1504
sg75
(lp1516
S':'
asbag68
(g89
g70
NtRp1517
(dp1518
g73
(dp1519
sg82
g1504
sg75
(lp1520
g68
(g69
g70
NtRp1521
(dp1522
g73
(dp1523
g81
I4
ssg82
g1517
sg75
(lp1524
S'GET'
p1525
asbasbasbag68
(g84
g70
NtRp1526
(dp1527
g73
(dp1528
sg82
g1018
sg75
(lp1529
g68
(g89
g70
NtRp1530
(dp1531
g73
(dp1532
g93
g94
ssg82
g1526
sg75
(lp1533
S'script_name'
p1534
asbag68
(g89
g70
NtRp1535
(dp1536
g73
(dp1537
g100
g101
ssg82
g1526
sg75
(lp1538
S':'
asbag68
(g89
g70
NtRp1539
(dp1540
g73
(dp1541
sg82
g1526
sg75
(lp1542
g68
(g69
g70
NtRp1543
(dp1544
g73
(dp1545
g81
I4
ssg82
g1539
sg75
(lp1546
S''
asbasbasbag68
(g84
g70
NtRp1547
(dp1548
g73
(dp1549
sg82
g1018
sg75
(lp1550
g68
(g89
g70
NtRp1551
(dp1552
g73
(dp1553
g93
g94
ssg82
g1547
sg75
(lp1554
S'server_name'
p1555
asbag68
(g89
g70
NtRp1556
(dp1557
g73
(dp1558
g100
g101
ssg82
g1547
sg75
(lp1559
S':'
asbag68
(g89
g70
NtRp1560
(dp1561
g73
(dp1562
sg82
g1547
sg75
(lp1563
g68
(g69
g70
NtRp1564
(dp1565
g73
(dp1566
g81
I4
ssg82
g1560
sg75
(lp1567
S'Iana-Bonevas-MacBook-Pro.local'
p1568
asbasbasbag68
(g84
g70
NtRp1569
(dp1570
g73
(dp1571
sg82
g1018
sg75
(lp1572
g68
(g89
g70
NtRp1573
(dp1574
g73
(dp1575
g93
g94
ssg82
g1569
sg75
(lp1576
S'server_port'
p1577
asbag68
(g89
g70
NtRp1578
(dp1579
g73
(dp1580
g100
g101
ssg82
g1569
sg75
(lp1581
S':'
asbag68
(g89
g70
NtRp1582
(dp1583
g73
(dp1584
sg82
g1569
sg75
(lp1585
g68
(g69
g70
NtRp1586
(dp1587
g73
(dp1588
g81
I4
ssg82
g1582
sg75
(lp1589
S'8000'
p1590
asbasbasbag68
(g84
g70
NtRp1591
(dp1592
g73
(dp1593
sg82
g1018
sg75
(lp1594
g68
(g89
g70
NtRp1595
(dp1596
g73
(dp1597
g93
g94
ssg82
g1591
sg75
(lp1598
S'server_protocol'
p1599
asbag68
(g89
g70
NtRp1600
(dp1601
g73
(dp1602
g100
g101
ssg82
g1591
sg75
(lp1603
S':'
asbag68
(g89
g70
NtRp1604
(dp1605
g73
(dp1606
sg82
g1591
sg75
(lp1607
g68
(g69
g70
NtRp1608
(dp1609
g73
(dp1610
g81
I4
ssg82
g1604
sg75
(lp1611
S'HTTP/1.1'
p1612
asbasbasbag68
(g84
g70
NtRp1613
(dp1614
g73
(dp1615
sg82
g1018
sg75
(lp1616
g68
(g89
g70
NtRp1617
(dp1618
g73
(dp1619
g93
g94
ssg82
g1613
sg75
(lp1620
S'server_software'
p1621
asbag68
(g89
g70
NtRp1622
(dp1623
g73
(dp1624
g100
g101
ssg82
g1613
sg75
(lp1625
S':'
asbag68
(g89
g70
NtRp1626
(dp1627
g73
(dp1628
sg82
g1613
sg75
(lp1629
g68
(g69
g70
NtRp1630
(dp1631
g73
(dp1632
g81
I4
ssg82
g1626
sg75
(lp1633
S'Rocket 1.2.4'
p1634
asbasbasbag68
(g84
g70
NtRp1635
(dp1636
g73
(dp1637
sg82
g1018
sg75
(lp1638
g68
(g89
g70
NtRp1639
(dp1640
g73
(dp1641
g93
g94
ssg82
g1635
sg75
(lp1642
S'web2py_crontype'
p1643
asbag68
(g89
g70
NtRp1644
(dp1645
g73
(dp1646
g100
g101
ssg82
g1635
sg75
(lp1647
S':'
asbag68
(g89
g70
NtRp1648
(dp1649
g73
(dp1650
sg82
g1635
sg75
(lp1651
g68
(g69
g70
NtRp1652
(dp1653
g73
(dp1654
g81
I4
ssg82
g1648
sg75
(lp1655
S'hard'
p1656
asbasbasbag68
(g84
g70
NtRp1657
(dp1658
g73
(dp1659
sg82
g1018
sg75
(lp1660
g68
(g89
g70
NtRp1661
(dp1662
g73
(dp1663
g93
g94
ssg82
g1657
sg75
(lp1664
S'web2py_path'
p1665
asbag68
(g89
g70
NtRp1666
(dp1667
g73
(dp1668
g100
g101
ssg82
g1657
sg75
(lp1669
S':'
asbag68
(g89
g70
NtRp1670
(dp1671
g73
(dp1672
sg82
g1657
sg75
(lp1673
g68
(g69
g70
NtRp1674
(dp1675
g73
(dp1676
g81
I4
ssg82
g1670
sg75
(lp1677
g1065
asbasbasbag68
(g84
g70
NtRp1678
(dp1679
g73
(dp1680
sg82
g1018
sg75
(lp1681
g68
(g89
g70
NtRp1682
(dp1683
g73
(dp1684
g93
g94
ssg82
g1678
sg75
(lp1685
S'web2py_version'
p1686
asbag68
(g89
g70
NtRp1687
(dp1688
g73
(dp1689
g100
g101
ssg82
g1678
sg75
(lp1690
S':'
asbag68
(g89
g70
NtRp1691
(dp1692
g73
(dp1693
sg82
g1678
sg75
(lp1694
g68
(g69
g70
NtRp1695
(dp1696
g73
(dp1697
g81
I4
ssg82
g1691
sg75
(lp1698
g68
(g77
g70
NtRp1699
(dp1700
g73
(dp1701
g81
I3
ssg82
Nsg75
(lp1702
g68
(g84
g70
NtRp1703
(dp1704
g73
(dp1705
sg82
g1699
sg75
(lp1706
g68
(g89
g70
NtRp1707
(dp1708
g73
(dp1709
sg82
g1703
sg75
(lp1710
g68
(g69
g70
NtRp1711
(dp1712
g73
(dp1713
g81
I3
ssg82
g1707
sg75
(lp1714
S'1'
asbasbasbag68
(g84
g70
NtRp1715
(dp1716
g73
(dp1717
sg82
g1699
sg75
(lp1718
g68
(g89
g70
NtRp1719
(dp1720
g73
(dp1721
sg82
g1715
sg75
(lp1722
g68
(g69
g70
NtRp1723
(dp1724
g73
(dp1725
g81
I3
ssg82
g1719
sg75
(lp1726
S'99'
p1727
asbasbasbag68
(g84
g70
NtRp1728
(dp1729
g73
(dp1730
sg82
g1699
sg75
(lp1731
g68
(g89
g70
NtRp1732
(dp1733
g73
(dp1734
sg82
g1728
sg75
(lp1735
g68
(g69
g70
NtRp1736
(dp1737
g73
(dp1738
g81
I3
ssg82
g1732
sg75
(lp1739
S'7'
asbasbasbag68
(g84
g70
NtRp1740
(dp1741
g73
(dp1742
sg82
g1699
sg75
(lp1743
g68
(g89
g70
NtRp1744
(dp1745
g73
(dp1746
sg82
g1740
sg75
(lp1747
g68
(g69
g70
NtRp1748
(dp1749
g73
(dp1750
g81
I3
ssg82
g1744
sg75
(lp1751
S'datetime.datetime(2012, 3, 4, 22, 12, 8)'
p1752
asbasbasbag68
(g84
g70
NtRp1753
(dp1754
g73
(dp1755
sg82
g1699
sg75
(lp1756
g68
(g89
g70
NtRp1757
(dp1758
g73
(dp1759
sg82
g1753
sg75
(lp1760
g68
(g69
g70
NtRp1761
(dp1762
g73
(dp1763
g81
I3
ssg82
g1757
sg75
(lp1764
S'stable'
p1765
asbasbasbasbasbasbasbag68
(g84
g70
NtRp1766
(dp1767
g73
(dp1768
sg82
g1018
sg75
(lp1769
g68
(g89
g70
NtRp1770
(dp1771
g73
(dp1772
g93
g94
ssg82
g1766
sg75
(lp1773
S'wsgi_errors'
p1774
asbag68
(g89
g70
NtRp1775
(dp1776
g73
(dp1777
g100
g101
ssg82
g1766
sg75
(lp1778
S':'
asbag68
(g89
g70
NtRp1779
(dp1780
g73
(dp1781
sg82
g1766
sg75
(lp1782
g68
(g69
g70
NtRp1783
(dp1784
g73
(dp1785
g81
I4
ssg82
g1779
sg75
(lp1786
S"<open file '<stderr>', mode 'w' at 0x104484270>"
p1787
asbasbasbag68
(g84
g70
NtRp1788
(dp1789
g73
(dp1790
sg82
g1018
sg75
(lp1791
g68
(g89
g70
NtRp1792
(dp1793
g73
(dp1794
g93
g94
ssg82
g1788
sg75
(lp1795
S'wsgi_file_wrapper'
p1796
asbag68
(g89
g70
NtRp1797
(dp1798
g73
(dp1799
g100
g101
ssg82
g1788
sg75
(lp1800
S':'
asbag68
(g89
g70
NtRp1801
(dp1802
g73
(dp1803
sg82
g1788
sg75
(lp1804
g68
(g69
g70
NtRp1805
(dp1806
g73
(dp1807
g81
I4
ssg82
g1801
sg75
(lp1808
S'<class wsgiref.util.FileWrapper at 0x104ebdf58>'
p1809
asbasbasbag68
(g84
g70
NtRp1810
(dp1811
g73
(dp1812
sg82
g1018
sg75
(lp1813
g68
(g89
g70
NtRp1814
(dp1815
g73
(dp1816
g93
g94
ssg82
g1810
sg75
(lp1817
S'wsgi_input'
p1818
asbag68
(g89
g70
NtRp1819
(dp1820
g73
(dp1821
g100
g101
ssg82
g1810
sg75
(lp1822
S':'
asbag68
(g89
g70
NtRp1823
(dp1824
g73
(dp1825
sg82
g1810
sg75
(lp1826
g68
(g69
g70
NtRp1827
(dp1828
g73
(dp1829
g81
I4
ssg82
g1823
sg75
(lp1830
S'<socket._fileobject object at 0x109f74e50>'
p1831
asbasbasbag68
(g84
g70
NtRp1832
(dp1833
g73
(dp1834
sg82
g1018
sg75
(lp1835
g68
(g89
g70
NtRp1836
(dp1837
g73
(dp1838
g93
g94
ssg82
g1832
sg75
(lp1839
S'wsgi_multiprocess'
p1840
asbag68
(g89
g70
NtRp1841
(dp1842
g73
(dp1843
g100
g101
ssg82
g1832
sg75
(lp1844
S':'
asbag68
(g89
g70
NtRp1845
(dp1846
g73
(dp1847
sg82
g1832
sg75
(lp1848
g68
(g69
g70
NtRp1849
(dp1850
g73
(dp1851
g81
I4
ssg82
g1845
sg75
(lp1852
g111
asbasbasbag68
(g84
g70
NtRp1853
(dp1854
g73
(dp1855
sg82
g1018
sg75
(lp1856
g68
(g89
g70
NtRp1857
(dp1858
g73
(dp1859
g93
g94
ssg82
g1853
sg75
(lp1860
S'wsgi_multithread'
p1861
asbag68
(g89
g70
NtRp1862
(dp1863
g73
(dp1864
g100
g101
ssg82
g1853
sg75
(lp1865
S':'
asbag68
(g89
g70
NtRp1866
(dp1867
g73
(dp1868
sg82
g1853
sg75
(lp1869
g68
(g69
g70
NtRp1870
(dp1871
g73
(dp1872
g81
I4
ssg82
g1866
sg75
(lp1873
S'True'
p1874
asbasbasbag68
(g84
g70
NtRp1875
(dp1876
g73
(dp1877
sg82
g1018
sg75
(lp1878
g68
(g89
g70
NtRp1879
(dp1880
g73
(dp1881
g93
g94
ssg82
g1875
sg75
(lp1882
S'wsgi_run_once'
p1883
asbag68
(g89
g70
NtRp1884
(dp1885
g73
(dp1886
g100
g101
ssg82
g1875
sg75
(lp1887
S':'
asbag68
(g89
g70
NtRp1888
(dp1889
g73
(dp1890
sg82
g1875
sg75
(lp1891
g68
(g69
g70
NtRp1892
(dp1893
g73
(dp1894
g81
I4
ssg82
g1888
sg75
(lp1895
g111
asbasbasbag68
(g84
g70
NtRp1896
(dp1897
g73
(dp1898
sg82
g1018
sg75
(lp1899
g68
(g89
g70
NtRp1900
(dp1901
g73
(dp1902
g93
g94
ssg82
g1896
sg75
(lp1903
S'wsgi_url_scheme'
p1904
asbag68
(g89
g70
NtRp1905
(dp1906
g73
(dp1907
g100
g101
ssg82
g1896
sg75
(lp1908
S':'
asbag68
(g89
g70
NtRp1909
(dp1910
g73
(dp1911
sg82
g1896
sg75
(lp1912
g68
(g69
g70
NtRp1913
(dp1914
g73
(dp1915
g81
I4
ssg82
g1909
sg75
(lp1916
S'http'
p1917
asbasbasbag68
(g84
g70
NtRp1918
(dp1919
g73
(dp1920
sg82
g1018
sg75
(lp1921
g68
(g89
g70
NtRp1922
(dp1923
g73
(dp1924
g93
g94
ssg82
g1918
sg75
(lp1925
S'wsgi_version'
p1926
asbag68
(g89
g70
NtRp1927
(dp1928
g73
(dp1929
g100
g101
ssg82
g1918
sg75
(lp1930
S':'
asbag68
(g89
g70
NtRp1931
(dp1932
g73
(dp1933
sg82
g1918
sg75
(lp1934
g68
(g69
g70
NtRp1935
(dp1936
g73
(dp1937
g81
I4
ssg82
g1931
sg75
(lp1938
g68
(g77
g70
NtRp1939
(dp1940
g73
(dp1941
g81
I3
ssg82
Nsg75
(lp1942
g68
(g84
g70
NtRp1943
(dp1944
g73
(dp1945
sg82
g1939
sg75
(lp1946
g68
(g89
g70
NtRp1947
(dp1948
g73
(dp1949
sg82
g1943
sg75
(lp1950
g68
(g69
g70
NtRp1951
(dp1952
g73
(dp1953
g81
I3
ssg82
g1947
sg75
(lp1954
S'1'
asbasbasbag68
(g84
g70
NtRp1955
(dp1956
g73
(dp1957
sg82
g1939
sg75
(lp1958
g68
(g89
g70
NtRp1959
(dp1960
g73
(dp1961
sg82
g1955
sg75
(lp1962
g68
(g69
g70
NtRp1963
(dp1964
g73
(dp1965
g81
I3
ssg82
g1959
sg75
(lp1966
S'0'
asbasbasbasbasbasbasbasbasbasbasbag68
(g84
g70
NtRp1967
(dp1968
g73
(dp1969
sg82
g78
sg75
(lp1970
g68
(g89
g70
NtRp1971
(dp1972
g73
(dp1973
g93
g94
ssg82
g1967
sg75
(lp1974
S'extension'
p1975
asbag68
(g89
g70
NtRp1976
(dp1977
g73
(dp1978
g100
g101
ssg82
g1967
sg75
(lp1979
S':'
asbag68
(g89
g70
NtRp1980
(dp1981
g73
(dp1982
sg82
g1967
sg75
(lp1983
g68
(g69
g70
NtRp1984
(dp1985
g73
(dp1986
g81
I5
ssg82
g1980
sg75
(lp1987
S'html'
p1988
asbasbasbag68
(g84
g70
NtRp1989
(dp1990
g73
(dp1991
sg82
g78
sg75
(lp1992
g68
(g89
g70
NtRp1993
(dp1994
g73
(dp1995
g93
g94
ssg82
g1989
sg75
(lp1996
S'folder'
p1997
asbag68
(g89
g70
NtRp1998
(dp1999
g73
(dp2000
g100
g101
ssg82
g1989
sg75
(lp2001
S':'
asbag68
(g89
g70
NtRp2002
(dp2003
g73
(dp2004
sg82
g1989
sg75
(lp2005
g68
(g69
g70
NtRp2006
(dp2007
g73
(dp2008
g81
I5
ssg82
g2002
sg75
(lp2009
S'/Users/ianaboneva/Dropbox/DePaul/CSC 438 - Web Applications/web2py/applications/Book_Shelf_copy/'
p2010
asbasbasbag68
(g84
g70
NtRp2011
(dp2012
g73
(dp2013
sg82
g78
sg75
(lp2014
g68
(g89
g70
NtRp2015
(dp2016
g73
(dp2017
g93
g94
ssg82
g2011
sg75
(lp2018
S'function'
p2019
asbag68
(g89
g70
NtRp2020
(dp2021
g73
(dp2022
g100
g101
ssg82
g2011
sg75
(lp2023
S':'
asbag68
(g89
g70
NtRp2024
(dp2025
g73
(dp2026
sg82
g2011
sg75
(lp2027
g68
(g69
g70
NtRp2028
(dp2029
g73
(dp2030
g81
I5
ssg82
g2024
sg75
(lp2031
S'index'
p2032
asbasbasbag68
(g84
g70
NtRp2033
(dp2034
g73
(dp2035
sg82
g78
sg75
(lp2036
g68
(g89
g70
NtRp2037
(dp2038
g73
(dp2039
g93
g94
ssg82
g2033
sg75
(lp2040
S'get_vars'
p2041
asbag68
(g89
g70
NtRp2042
(dp2043
g73
(dp2044
g100
g101
ssg82
g2033
sg75
(lp2045
S':'
asbag68
(g89
g70
NtRp2046
(dp2047
g73
(dp2048
sg82
g2033
sg75
(lp2049
g68
(g69
g70
NtRp2050
(dp2051
g73
(dp2052
g81
I5
ssg82
g2046
sg75
(lp2053
g68
(g77
g70
NtRp2054
(dp2055
g73
(dp2056
g81
I4
ssg82
Nsg75
(lp2057
sbasbasbasbag68
(g84
g70
NtRp2058
(dp2059
g73
(dp2060
sg82
g78
sg75
(lp2061
g68
(g89
g70
NtRp2062
(dp2063
g73
(dp2064
g93
g94
ssg82
g2058
sg75
(lp2065
S'global_settings'
p2066
asbag68
(g89
g70
NtRp2067
(dp2068
g73
(dp2069
g100
g101
ssg82
g2058
sg75
(lp2070
S':'
asbag68
(g89
g70
NtRp2071
(dp2072
g73
(dp2073
sg82
g2058
sg75
(lp2074
g68
(g69
g70
NtRp2075
(dp2076
g73
(dp2077
g81
I5
ssg82
g2071
sg75
(lp2078
g68
(g77
g70
NtRp2079
(dp2080
g73
(dp2081
g81
I4
ssg82
Nsg75
(lp2082
g68
(g84
g70
NtRp2083
(dp2084
g73
(dp2085
sg82
g2079
sg75
(lp2086
g68
(g89
g70
NtRp2087
(dp2088
g73
(dp2089
g93
g94
ssg82
g2083
sg75
(lp2090
g1030
asbag68
(g89
g70
NtRp2091
(dp2092
g73
(dp2093
g100
g101
ssg82
g2083
sg75
(lp2094
S':'
asbag68
(g89
g70
NtRp2095
(dp2096
g73
(dp2097
sg82
g2083
sg75
(lp2098
g68
(g69
g70
NtRp2099
(dp2100
g73
(dp2101
g81
I4
ssg82
g2095
sg75
(lp2102
S"set(['/Users/ianaboneva/Dropbox/DePaul/CSC 438 - Web Applications/web2py/applications/ToDoList2/', '/Users/ianaboneva/Dropbox/DePaul/CSC 438 - Web Applications/web2py/applications/welcome/', '/Users/ianaboneva/Dropbox/DePaul/CSC 438 - Web Applications/web2py/applications/admin/', '/Users/ianaboneva/Dropbox/DePaul/CSC 438 - Web Applications/web2py/applications/Book_Shelf_copy/'])"
p2103
asbasbasbag68
(g84
g70
NtRp2104
(dp2105
g73
(dp2106
sg82
g2079
sg75
(lp2107
g68
(g89
g70
NtRp2108
(dp2109
g73
(dp2110
g93
g94
ssg82
g2104
sg75
(lp2111
g1052
asbag68
(g89
g70
NtRp2112
(dp2113
g73
(dp2114
g100
g101
ssg82
g2104
sg75
(lp2115
S':'
asbag68
(g89
g70
NtRp2116
(dp2117
g73
(dp2118
sg82
g2104
sg75
(lp2119
g68
(g69
g70
NtRp2120
(dp2121
g73
(dp2122
g81
I4
ssg82
g2116
sg75
(lp2123
g1065
asbasbasbag68
(g84
g70
NtRp2124
(dp2125
g73
(dp2126
sg82
g2079
sg75
(lp2127
g68
(g89
g70
NtRp2128
(dp2129
g73
(dp2130
g93
g94
ssg82
g2124
sg75
(lp2131
g1074
asbag68
(g89
g70
NtRp2132
(dp2133
g73
(dp2134
g100
g101
ssg82
g2124
sg75
(lp2135
S':'
asbag68
(g89
g70
NtRp2136
(dp2137
g73
(dp2138
sg82
g2124
sg75
(lp2139
g68
(g69
g70
NtRp2140
(dp2141
g73
(dp2142
g81
I4
ssg82
g2136
sg75
(lp2143
g68
(g77
g70
NtRp2144
(dp2145
g73
(dp2146
g81
I3
ssg82
Nsg75
(lp2147
sbasbasbasbag68
(g84
g70
NtRp2148
(dp2149
g73
(dp2150
sg82
g2079
sg75
(lp2151
g68
(g89
g70
NtRp2152
(dp2153
g73
(dp2154
g93
g94
ssg82
g2148
sg75
(lp2155
g1099
asbag68
(g89
g70
NtRp2156
(dp2157
g73
(dp2158
g100
g101
ssg82
g2148
sg75
(lp2159
S':'
asbag68
(g89
g70
NtRp2160
(dp2161
g73
(dp2162
sg82
g2148
sg75
(lp2163
g68
(g69
g70
NtRp2164
(dp2165
g73
(dp2166
g81
I4
ssg82
g2160
sg75
(lp2167
S"<Values at 0x104fc1b00: {'verbose': False, 'ip': '127.0.0.1', 'shutdown_timeout': 5, 'taskbar': False, 'nocron': False, 'pid_filename': 'httpserver.pid', 'maxthreads': None, 'softcron': False, 'server_name': 'Iana-Bonevas-MacBook-Pro.local', 'bpython': False, 'nogui': False, 'port': 8000, 'extcron': False, 'debuglevel': 30, 'test': None, 'folder': '/Users/ianaboneva/Dropbox/DePaul/CSC 438 - Web Applications/web2py', 'config': '', 'import_models': False, 'winservice': '', 'shell': None, 'run': '', 'log_filename': 'httpserver.log', 'args': [''], 'socket_timeout': 5, 'ssl_ca_certificate': None, 'scheduler': None, 'profiler_filename': None, 'ssl_private_key': '', 'password': '<ask>', 'request_queue_size': 5, 'ssl_certificate': '', 'cronjob': False, 'numthreads': None, 'quiet': False, 'interfaces': None, 'minthreads': None, 'timeout': 10, 'plain': False, 'nobanner': False}>"
p2168
asbasbasbag68
(g84
g70
NtRp2169
(dp2170
g73
(dp2171
sg82
g2079
sg75
(lp2172
g68
(g89
g70
NtRp2173
(dp2174
g73
(dp2175
g93
g94
ssg82
g2169
sg75
(lp2176
g1121
asbag68
(g89
g70
NtRp2177
(dp2178
g73
(dp2179
g100
g101
ssg82
g2169
sg75
(lp2180
S':'
asbag68
(g89
g70
NtRp2181
(dp2182
g73
(dp2183
sg82
g2169
sg75
(lp2184
g68
(g69
g70
NtRp2185
(dp2186
g73
(dp2187
g81
I4
ssg82
g2181
sg75
(lp2188
S'set([])'
p2189
asbasbasbag68
(g84
g70
NtRp2190
(dp2191
g73
(dp2192
sg82
g2079
sg75
(lp2193
g68
(g89
g70
NtRp2194
(dp2195
g73
(dp2196
g93
g94
ssg82
g2190
sg75
(lp2197
g1143
asbag68
(g89
g70
NtRp2198
(dp2199
g73
(dp2200
g100
g101
ssg82
g2190
sg75
(lp2201
S':'
asbag68
(g89
g70
NtRp2202
(dp2203
g73
(dp2204
sg82
g2190
sg75
(lp2205
g68
(g69
g70
NtRp2206
(dp2207
g73
(dp2208
g81
I4
ssg82
g2202
sg75
(lp2209
g111
asbasbasbag68
(g84
g70
NtRp2210
(dp2211
g73
(dp2212
sg82
g2079
sg75
(lp2213
g68
(g89
g70
NtRp2214
(dp2215
g73
(dp2216
g93
g94
ssg82
g2210
sg75
(lp2217
g1164
asbag68
(g89
g70
NtRp2218
(dp2219
g73
(dp2220
g100
g101
ssg82
g2210
sg75
(lp2221
S':'
asbag68
(g89
g70
NtRp2222
(dp2223
g73
(dp2224
sg82
g2210
sg75
(lp2225
g68
(g69
g70
NtRp2226
(dp2227
g73
(dp2228
g81
I4
ssg82
g2222
sg75
(lp2229
g1177
asbasbasbag68
(g84
g70
NtRp2230
(dp2231
g73
(dp2232
sg82
g2079
sg75
(lp2233
g68
(g89
g70
NtRp2234
(dp2235
g73
(dp2236
g93
g94
ssg82
g2230
sg75
(lp2237
g1384
asbag68
(g89
g70
NtRp2238
(dp2239
g73
(dp2240
g100
g101
ssg82
g2230
sg75
(lp2241
S':'
asbag68
(g89
g70
NtRp2242
(dp2243
g73
(dp2244
sg82
g2230
sg75
(lp2245
g68
(g69
g70
NtRp2246
(dp2247
g73
(dp2248
g81
I4
ssg82
g2242
sg75
(lp2249
g111
asbasbasbag68
(g84
g70
NtRp2250
(dp2251
g73
(dp2252
sg82
g2079
sg75
(lp2253
g68
(g89
g70
NtRp2254
(dp2255
g73
(dp2256
g93
g94
ssg82
g2250
sg75
(lp2257
g1405
asbag68
(g89
g70
NtRp2258
(dp2259
g73
(dp2260
g100
g101
ssg82
g2250
sg75
(lp2261
S':'
asbag68
(g89
g70
NtRp2262
(dp2263
g73
(dp2264
sg82
g2250
sg75
(lp2265
g68
(g69
g70
NtRp2266
(dp2267
g73
(dp2268
g81
I4
ssg82
g2262
sg75
(lp2269
g111
asbasbasbag68
(g84
g70
NtRp2270
(dp2271
g73
(dp2272
sg82
g2079
sg75
(lp2273
g68
(g89
g70
NtRp2274
(dp2275
g73
(dp2276
g93
g94
ssg82
g2270
sg75
(lp2277
g1643
asbag68
(g89
g70
NtRp2278
(dp2279
g73
(dp2280
g100
g101
ssg82
g2270
sg75
(lp2281
S':'
asbag68
(g89
g70
NtRp2282
(dp2283
g73
(dp2284
sg82
g2270
sg75
(lp2285
g68
(g69
g70
NtRp2286
(dp2287
g73
(dp2288
g81
I4
ssg82
g2282
sg75
(lp2289
g1656
asbasbasbag68
(g84
g70
NtRp2290
(dp2291
g73
(dp2292
sg82
g2079
sg75
(lp2293
g68
(g89
g70
NtRp2294
(dp2295
g73
(dp2296
g93
g94
ssg82
g2290
sg75
(lp2297
g1686
asbag68
(g89
g70
NtRp2298
(dp2299
g73
(dp2300
g100
g101
ssg82
g2290
sg75
(lp2301
S':'
asbag68
(g89
g70
NtRp2302
(dp2303
g73
(dp2304
sg82
g2290
sg75
(lp2305
g68
(g69
g70
NtRp2306
(dp2307
g73
(dp2308
g81
I4
ssg82
g2302
sg75
(lp2309
g68
(g77
g70
NtRp2310
(dp2311
g73
(dp2312
g81
I3
ssg82
Nsg75
(lp2313
g68
(g84
g70
NtRp2314
(dp2315
g73
(dp2316
sg82
g2310
sg75
(lp2317
g68
(g89
g70
NtRp2318
(dp2319
g73
(dp2320
sg82
g2314
sg75
(lp2321
g68
(g69
g70
NtRp2322
(dp2323
g73
(dp2324
g81
I3
ssg82
g2318
sg75
(lp2325
S'1'
asbasbasbag68
(g84
g70
NtRp2326
(dp2327
g73
(dp2328
sg82
g2310
sg75
(lp2329
g68
(g89
g70
NtRp2330
(dp2331
g73
(dp2332
sg82
g2326
sg75
(lp2333
g68
(g69
g70
NtRp2334
(dp2335
g73
(dp2336
g81
I3
ssg82
g2330
sg75
(lp2337
S'99'
p2338
asbasbasbag68
(g84
g70
NtRp2339
(dp2340
g73
(dp2341
sg82
g2310
sg75
(lp2342
g68
(g89
g70
NtRp2343
(dp2344
g73
(dp2345
sg82
g2339
sg75
(lp2346
g68
(g69
g70
NtRp2347
(dp2348
g73
(dp2349
g81
I3
ssg82
g2343
sg75
(lp2350
S'7'
asbasbasbag68
(g84
g70
NtRp2351
(dp2352
g73
(dp2353
sg82
g2310
sg75
(lp2354
g68
(g89
g70
NtRp2355
(dp2356
g73
(dp2357
sg82
g2351
sg75
(lp2358
g68
(g69
g70
NtRp2359
(dp2360
g73
(dp2361
g81
I3
ssg82
g2355
sg75
(lp2362
S'datetime.datetime(2012, 3, 4, 22, 12, 8)'
p2363
asbasbasbag68
(g84
g70
NtRp2364
(dp2365
g73
(dp2366
sg82
g2310
sg75
(lp2367
g68
(g89
g70
NtRp2368
(dp2369
g73
(dp2370
sg82
g2364
sg75
(lp2371
g68
(g69
g70
NtRp2372
(dp2373
g73
(dp2374
g81
I3
ssg82
g2368
sg75
(lp2375
g1765
asbasbasbasbasbasbasbasbasbasbasbag68
(g84
g70
NtRp2376
(dp2377
g73
(dp2378
sg82
g78
sg75
(lp2379
g68
(g89
g70
NtRp2380
(dp2381
g73
(dp2382
g93
g94
ssg82
g2376
sg75
(lp2383
S'is_https'
p2384
asbag68
(g89
g70
NtRp2385
(dp2386
g73
(dp2387
g100
g101
ssg82
g2376
sg75
(lp2388
S':'
asbag68
(g89
g70
NtRp2389
(dp2390
g73
(dp2391
sg82
g2376
sg75
(lp2392
g68
(g69
g70
NtRp2393
(dp2394
g73
(dp2395
g81
I5
ssg82
g2389
sg75
(lp2396
g111
asbasbasbag68
(g84
g70
NtRp2397
(dp2398
g73
(dp2399
sg82
g78
sg75
(lp2400
g68
(g89
g70
NtRp2401
(dp2402
g73
(dp2403
g93
g94
ssg82
g2397
sg75
(lp2404
S'is_local'
p2405
asbag68
(g89
g70
NtRp2406
(dp2407
g73
(dp2408
g100
g101
ssg82
g2397
sg75
(lp2409
S':'
asbag68
(g89
g70
NtRp2410
(dp2411
g73
(dp2412
sg82
g2397
sg75
(lp2413
g68
(g69
g70
NtRp2414
(dp2415
g73
(dp2416
g81
I5
ssg82
g2410
sg75
(lp2417
g1874
asbasbasbag68
(g84
g70
NtRp2418
(dp2419
g73
(dp2420
sg82
g78
sg75
(lp2421
g68
(g89
g70
NtRp2422
(dp2423
g73
(dp2424
g93
g94
ssg82
g2418
sg75
(lp2425
S'is_restful'
p2426
asbag68
(g89
g70
NtRp2427
(dp2428
g73
(dp2429
g100
g101
ssg82
g2418
sg75
(lp2430
S':'
asbag68
(g89
g70
NtRp2431
(dp2432
g73
(dp2433
sg82
g2418
sg75
(lp2434
g68
(g69
g70
NtRp2435
(dp2436
g73
(dp2437
g81
I5
ssg82
g2431
sg75
(lp2438
g111
asbasbasbag68
(g84
g70
NtRp2439
(dp2440
g73
(dp2441
sg82
g78
sg75
(lp2442
g68
(g89
g70
NtRp2443
(dp2444
g73
(dp2445
g93
g94
ssg82
g2439
sg75
(lp2446
S'now'
p2447
asbag68
(g89
g70
NtRp2448
(dp2449
g73
(dp2450
g100
g101
ssg82
g2439
sg75
(lp2451
S':'
asbag68
(g89
g70
NtRp2452
(dp2453
g73
(dp2454
sg82
g2439
sg75
(lp2455
g68
(g69
g70
NtRp2456
(dp2457
g73
(dp2458
g81
I5
ssg82
g2452
sg75
(lp2459
S'datetime.datetime(2012, 6, 3, 18, 26, 41, 61333)'
p2460
asbasbasbag68
(g84
g70
NtRp2461
(dp2462
g73
(dp2463
sg82
g78
sg75
(lp2464
g68
(g89
g70
NtRp2465
(dp2466
g73
(dp2467
g93
g94
ssg82
g2461
sg75
(lp2468
S'post_vars'
p2469
asbag68
(g89
g70
NtRp2470
(dp2471
g73
(dp2472
g100
g101
ssg82
g2461
sg75
(lp2473
S':'
asbag68
(g89
g70
NtRp2474
(dp2475
g73
(dp2476
sg82
g2461
sg75
(lp2477
g68
(g69
g70
NtRp2478
(dp2479
g73
(dp2480
g81
I5
ssg82
g2474
sg75
(lp2481
g68
(g77
g70
NtRp2482
(dp2483
g73
(dp2484
g81
I4
ssg82
Nsg75
(lp2485
sbasbasbasbag68
(g84
g70
NtRp2486
(dp2487
g73
(dp2488
sg82
g78
sg75
(lp2489
g68
(g89
g70
NtRp2490
(dp2491
g73
(dp2492
g93
g94
ssg82
g2486
sg75
(lp2493
S'url'
p2494
asbag68
(g89
g70
NtRp2495
(dp2496
g73
(dp2497
g100
g101
ssg82
g2486
sg75
(lp2498
S':'
asbag68
(g89
g70
NtRp2499
(dp2500
g73
(dp2501
sg82
g2486
sg75
(lp2502
g68
(g69
g70
NtRp2503
(dp2504
g73
(dp2505
g81
I5
ssg82
g2499
sg75
(lp2506
S'/Book_Shelf_copy/default/index'
p2507
asbasbasbag68
(g84
g70
NtRp2508
(dp2509
g73
(dp2510
sg82
g78
sg75
(lp2511
g68
(g89
g70
NtRp2512
(dp2513
g73
(dp2514
g93
g94
ssg82
g2508
sg75
(lp2515
S'utcnow'
p2516
asbag68
(g89
g70
NtRp2517
(dp2518
g73
(dp2519
g100
g101
ssg82
g2508
sg75
(lp2520
S':'
asbag68
(g89
g70
NtRp2521
(dp2522
g73
(dp2523
sg82
g2508
sg75
(lp2524
g68
(g69
g70
NtRp2525
(dp2526
g73
(dp2527
g81
I5
ssg82
g2521
sg75
(lp2528
S'datetime.datetime(2012, 6, 3, 23, 26, 41, 61349)'
p2529
asbasbasbag68
(g84
g70
NtRp2530
(dp2531
g73
(dp2532
sg82
g78
sg75
(lp2533
g68
(g89
g70
NtRp2534
(dp2535
g73
(dp2536
g93
g94
ssg82
g2530
sg75
(lp2537
S'uuid'
p2538
asbag68
(g89
g70
NtRp2539
(dp2540
g73
(dp2541
g100
g101
ssg82
g2530
sg75
(lp2542
S':'
asbag68
(g89
g70
NtRp2543
(dp2544
g73
(dp2545
sg82
g2530
sg75
(lp2546
g68
(g69
g70
NtRp2547
(dp2548
g73
(dp2549
g81
I5
ssg82
g2543
sg75
(lp2550
S'Book_Shelf_copy/127.0.0.1.2012-06-03.18-26-41.c3de1078-b84b-4a10-b576-630de9d3f7a1'
p2551
asbasbasbag68
(g84
g70
NtRp2552
(dp2553
g73
(dp2554
sg82
g78
sg75
(lp2555
g68
(g89
g70
NtRp2556
(dp2557
g73
(dp2558
g93
g94
ssg82
g2552
sg75
(lp2559
S'vars'
p2560
asbag68
(g89
g70
NtRp2561
(dp2562
g73
(dp2563
g100
g101
ssg82
g2552
sg75
(lp2564
S':'
asbag68
(g89
g70
NtRp2565
(dp2566
g73
(dp2567
sg82
g2552
sg75
(lp2568
g68
(g69
g70
NtRp2569
(dp2570
g73
(dp2571
g81
I5
ssg82
g2565
sg75
(lp2572
g68
(g77
g70
NtRp2573
(dp2574
g73
(dp2575
g81
I4
ssg82
Nsg75
(lp2576
sbasbasbasbag68
(g84
g70
NtRp2577
(dp2578
g73
(dp2579
sg82
g78
sg75
(lp2580
g68
(g89
g70
NtRp2581
(dp2582
g73
(dp2583
g93
g94
ssg82
g2577
sg75
(lp2584
S'wsgi'
p2585
asbag68
(g89
g70
NtRp2586
(dp2587
g73
(dp2588
g100
g101
ssg82
g2577
sg75
(lp2589
S':'
asbag68
(g89
g70
NtRp2590
(dp2591
g73
(dp2592
sg82
g2577
sg75
(lp2593
g68
(g69
g70
NtRp2594
(dp2595
g73
(dp2596
g81
I5
ssg82
g2590
sg75
(lp2597
g68
(g77
g70
NtRp2598
(dp2599
g73
(dp2600
g81
I4
ssg82
Nsg75
(lp2601
g68
(g84
g70
NtRp2602
(dp2603
g73
(dp2604
sg82
g2598
sg75
(lp2605
g68
(g89
g70
NtRp2606
(dp2607
g73
(dp2608
g93
g94
ssg82
g2602
sg75
(lp2609
S'environ'
p2610
asbag68
(g89
g70
NtRp2611
(dp2612
g73
(dp2613
g100
g101
ssg82
g2602
sg75
(lp2614
S':'
asbag68
(g89
g70
NtRp2615
(dp2616
g73
(dp2617
sg82
g2602
sg75
(lp2618
g68
(g69
g70
NtRp2619
(dp2620
g73
(dp2621
g81
I4
ssg82
g2615
sg75
(lp2622
g68
(g77
g70
NtRp2623
(dp2624
g73
(dp2625
g81
I3
ssg82
Nsg75
(lp2626
g68
(g84
g70
NtRp2627
(dp2628
g73
(dp2629
sg82
g2623
sg75
(lp2630
g68
(g89
g70
NtRp2631
(dp2632
g73
(dp2633
g93
g94
ssg82
g2627
sg75
(lp2634
S'HTTP_ACCEPT'
p2635
asbag68
(g89
g70
NtRp2636
(dp2637
g73
(dp2638
g100
g101
ssg82
g2627
sg75
(lp2639
S':'
asbag68
(g89
g70
NtRp2640
(dp2641
g73
(dp2642
sg82
g2627
sg75
(lp2643
g68
(g69
g70
NtRp2644
(dp2645
g73
(dp2646
g81
I3
ssg82
g2640
sg75
(lp2647
g1199
asbasbasbag68
(g84
g70
NtRp2648
(dp2649
g73
(dp2650
sg82
g2623
sg75
(lp2651
g68
(g89
g70
NtRp2652
(dp2653
g73
(dp2654
g93
g94
ssg82
g2648
sg75
(lp2655
S'HTTP_ACCEPT_CHARSET'
p2656
asbag68
(g89
g70
NtRp2657
(dp2658
g73
(dp2659
g100
g101
ssg82
g2648
sg75
(lp2660
S':'
asbag68
(g89
g70
NtRp2661
(dp2662
g73
(dp2663
sg82
g2648
sg75
(lp2664
g68
(g69
g70
NtRp2665
(dp2666
g73
(dp2667
g81
I3
ssg82
g2661
sg75
(lp2668
g1221
asbasbasbag68
(g84
g70
NtRp2669
(dp2670
g73
(dp2671
sg82
g2623
sg75
(lp2672
g68
(g89
g70
NtRp2673
(dp2674
g73
(dp2675
g93
g94
ssg82
g2669
sg75
(lp2676
S'HTTP_ACCEPT_ENCODING'
p2677
asbag68
(g89
g70
NtRp2678
(dp2679
g73
(dp2680
g100
g101
ssg82
g2669
sg75
(lp2681
S':'
asbag68
(g89
g70
NtRp2682
(dp2683
g73
(dp2684
sg82
g2669
sg75
(lp2685
g68
(g69
g70
NtRp2686
(dp2687
g73
(dp2688
g81
I3
ssg82
g2682
sg75
(lp2689
g1243
asbasbasbag68
(g84
g70
NtRp2690
(dp2691
g73
(dp2692
sg82
g2623
sg75
(lp2693
g68
(g89
g70
NtRp2694
(dp2695
g73
(dp2696
g93
g94
ssg82
g2690
sg75
(lp2697
S'HTTP_ACCEPT_LANGUAGE'
p2698
asbag68
(g89
g70
NtRp2699
(dp2700
g73
(dp2701
g100
g101
ssg82
g2690
sg75
(lp2702
S':'
asbag68
(g89
g70
NtRp2703
(dp2704
g73
(dp2705
sg82
g2690
sg75
(lp2706
g68
(g69
g70
NtRp2707
(dp2708
g73
(dp2709
g81
I3
ssg82
g2703
sg75
(lp2710
g1265
asbasbasbag68
(g84
g70
NtRp2711
(dp2712
g73
(dp2713
sg82
g2623
sg75
(lp2714
g68
(g89
g70
NtRp2715
(dp2716
g73
(dp2717
g93
g94
ssg82
g2711
sg75
(lp2718
S'HTTP_CACHE_CONTROL'
p2719
asbag68
(g89
g70
NtRp2720
(dp2721
g73
(dp2722
g100
g101
ssg82
g2711
sg75
(lp2723
S':'
asbag68
(g89
g70
NtRp2724
(dp2725
g73
(dp2726
sg82
g2711
sg75
(lp2727
g68
(g69
g70
NtRp2728
(dp2729
g73
(dp2730
g81
I3
ssg82
g2724
sg75
(lp2731
g1287
asbasbasbag68
(g84
g70
NtRp2732
(dp2733
g73
(dp2734
sg82
g2623
sg75
(lp2735
g68
(g89
g70
NtRp2736
(dp2737
g73
(dp2738
g93
g94
ssg82
g2732
sg75
(lp2739
S'HTTP_CONNECTION'
p2740
asbag68
(g89
g70
NtRp2741
(dp2742
g73
(dp2743
g100
g101
ssg82
g2732
sg75
(lp2744
S':'
asbag68
(g89
g70
NtRp2745
(dp2746
g73
(dp2747
sg82
g2732
sg75
(lp2748
g68
(g69
g70
NtRp2749
(dp2750
g73
(dp2751
g81
I3
ssg82
g2745
sg75
(lp2752
g1309
asbasbasbag68
(g84
g70
NtRp2753
(dp2754
g73
(dp2755
sg82
g2623
sg75
(lp2756
g68
(g89
g70
NtRp2757
(dp2758
g73
(dp2759
g93
g94
ssg82
g2753
sg75
(lp2760
S'HTTP_COOKIE'
p2761
asbag68
(g89
g70
NtRp2762
(dp2763
g73
(dp2764
g100
g101
ssg82
g2753
sg75
(lp2765
S':'
asbag68
(g89
g70
NtRp2766
(dp2767
g73
(dp2768
sg82
g2753
sg75
(lp2769
g68
(g69
g70
NtRp2770
(dp2771
g73
(dp2772
g81
I3
ssg82
g2766
sg75
(lp2773
g1331
asbasbasbag68
(g84
g70
NtRp2774
(dp2775
g73
(dp2776
sg82
g2623
sg75
(lp2777
g68
(g89
g70
NtRp2778
(dp2779
g73
(dp2780
g93
g94
ssg82
g2774
sg75
(lp2781
S'HTTP_HOST'
p2782
asbag68
(g89
g70
NtRp2783
(dp2784
g73
(dp2785
g100
g101
ssg82
g2774
sg75
(lp2786
S':'
asbag68
(g89
g70
NtRp2787
(dp2788
g73
(dp2789
sg82
g2774
sg75
(lp2790
g68
(g69
g70
NtRp2791
(dp2792
g73
(dp2793
g81
I3
ssg82
g2787
sg75
(lp2794
g1353
asbasbasbag68
(g84
g70
NtRp2795
(dp2796
g73
(dp2797
sg82
g2623
sg75
(lp2798
g68
(g89
g70
NtRp2799
(dp2800
g73
(dp2801
g93
g94
ssg82
g2795
sg75
(lp2802
S'HTTP_USER_AGENT'
p2803
asbag68
(g89
g70
NtRp2804
(dp2805
g73
(dp2806
g100
g101
ssg82
g2795
sg75
(lp2807
S':'
asbag68
(g89
g70
NtRp2808
(dp2809
g73
(dp2810
sg82
g2795
sg75
(lp2811
g68
(g69
g70
NtRp2812
(dp2813
g73
(dp2814
g81
I3
ssg82
g2808
sg75
(lp2815
g1375
asbasbasbag68
(g84
g70
NtRp2816
(dp2817
g73
(dp2818
sg82
g2623
sg75
(lp2819
g68
(g89
g70
NtRp2820
(dp2821
g73
(dp2822
g93
g94
ssg82
g2816
sg75
(lp2823
S'PATH_INFO'
p2824
asbag68
(g89
g70
NtRp2825
(dp2826
g73
(dp2827
g100
g101
ssg82
g2816
sg75
(lp2828
S':'
asbag68
(g89
g70
NtRp2829
(dp2830
g73
(dp2831
sg82
g2816
sg75
(lp2832
g68
(g69
g70
NtRp2833
(dp2834
g73
(dp2835
g81
I3
ssg82
g2829
sg75
(lp2836
g1439
asbasbasbag68
(g84
g70
NtRp2837
(dp2838
g73
(dp2839
sg82
g2623
sg75
(lp2840
g68
(g89
g70
NtRp2841
(dp2842
g73
(dp2843
g93
g94
ssg82
g2837
sg75
(lp2844
S'QUERY_STRING'
p2845
asbag68
(g89
g70
NtRp2846
(dp2847
g73
(dp2848
g100
g101
ssg82
g2837
sg75
(lp2849
S':'
asbag68
(g89
g70
NtRp2850
(dp2851
g73
(dp2852
sg82
g2837
sg75
(lp2853
g68
(g69
g70
NtRp2854
(dp2855
g73
(dp2856
g81
I3
ssg82
g2850
sg75
(lp2857
S''
asbasbasbag68
(g84
g70
NtRp2858
(dp2859
g73
(dp2860
sg82
g2623
sg75
(lp2861
g68
(g89
g70
NtRp2862
(dp2863
g73
(dp2864
g93
g94
ssg82
g2858
sg75
(lp2865
S'REMOTE_ADDR'
p2866
asbag68
(g89
g70
NtRp2867
(dp2868
g73
(dp2869
g100
g101
ssg82
g2858
sg75
(lp2870
S':'
asbag68
(g89
g70
NtRp2871
(dp2872
g73
(dp2873
sg82
g2858
sg75
(lp2874
g68
(g69
g70
NtRp2875
(dp2876
g73
(dp2877
g81
I3
ssg82
g2871
sg75
(lp2878
g201
asbasbasbag68
(g84
g70
NtRp2879
(dp2880
g73
(dp2881
sg82
g2623
sg75
(lp2882
g68
(g89
g70
NtRp2883
(dp2884
g73
(dp2885
g93
g94
ssg82
g2879
sg75
(lp2886
S'REMOTE_PORT'
p2887
asbag68
(g89
g70
NtRp2888
(dp2889
g73
(dp2890
g100
g101
ssg82
g2879
sg75
(lp2891
S':'
asbag68
(g89
g70
NtRp2892
(dp2893
g73
(dp2894
sg82
g2879
sg75
(lp2895
g68
(g69
g70
NtRp2896
(dp2897
g73
(dp2898
g81
I3
ssg82
g2892
sg75
(lp2899
g1503
asbasbasbag68
(g84
g70
NtRp2900
(dp2901
g73
(dp2902
sg82
g2623
sg75
(lp2903
g68
(g89
g70
NtRp2904
(dp2905
g73
(dp2906
g93
g94
ssg82
g2900
sg75
(lp2907
S'REQUEST_METHOD'
p2908
asbag68
(g89
g70
NtRp2909
(dp2910
g73
(dp2911
g100
g101
ssg82
g2900
sg75
(lp2912
S':'
asbag68
(g89
g70
NtRp2913
(dp2914
g73
(dp2915
sg82
g2900
sg75
(lp2916
g68
(g69
g70
NtRp2917
(dp2918
g73
(dp2919
g81
I3
ssg82
g2913
sg75
(lp2920
g1525
asbasbasbag68
(g84
g70
NtRp2921
(dp2922
g73
(dp2923
sg82
g2623
sg75
(lp2924
g68
(g89
g70
NtRp2925
(dp2926
g73
(dp2927
g93
g94
ssg82
g2921
sg75
(lp2928
S'SCRIPT_NAME'
p2929
asbag68
(g89
g70
NtRp2930
(dp2931
g73
(dp2932
g100
g101
ssg82
g2921
sg75
(lp2933
S':'
asbag68
(g89
g70
NtRp2934
(dp2935
g73
(dp2936
sg82
g2921
sg75
(lp2937
g68
(g69
g70
NtRp2938
(dp2939
g73
(dp2940
g81
I3
ssg82
g2934
sg75
(lp2941
S''
asbasbasbag68
(g84
g70
NtRp2942
(dp2943
g73
(dp2944
sg82
g2623
sg75
(lp2945
g68
(g89
g70
NtRp2946
(dp2947
g73
(dp2948
g93
g94
ssg82
g2942
sg75
(lp2949
S'SERVER_NAME'
p2950
asbag68
(g89
g70
NtRp2951
(dp2952
g73
(dp2953
g100
g101
ssg82
g2942
sg75
(lp2954
S':'
asbag68
(g89
g70
NtRp2955
(dp2956
g73
(dp2957
sg82
g2942
sg75
(lp2958
g68
(g69
g70
NtRp2959
(dp2960
g73
(dp2961
g81
I3
ssg82
g2955
sg75
(lp2962
g1568
asbasbasbag68
(g84
g70
NtRp2963
(dp2964
g73
(dp2965
sg82
g2623
sg75
(lp2966
g68
(g89
g70
NtRp2967
(dp2968
g73
(dp2969
g93
g94
ssg82
g2963
sg75
(lp2970
S'SERVER_PORT'
p2971
asbag68
(g89
g70
NtRp2972
(dp2973
g73
(dp2974
g100
g101
ssg82
g2963
sg75
(lp2975
S':'
asbag68
(g89
g70
NtRp2976
(dp2977
g73
(dp2978
sg82
g2963
sg75
(lp2979
g68
(g69
g70
NtRp2980
(dp2981
g73
(dp2982
g81
I3
ssg82
g2976
sg75
(lp2983
g1590
asbasbasbag68
(g84
g70
NtRp2984
(dp2985
g73
(dp2986
sg82
g2623
sg75
(lp2987
g68
(g89
g70
NtRp2988
(dp2989
g73
(dp2990
g93
g94
ssg82
g2984
sg75
(lp2991
S'SERVER_PROTOCOL'
p2992
asbag68
(g89
g70
NtRp2993
(dp2994
g73
(dp2995
g100
g101
ssg82
g2984
sg75
(lp2996
S':'
asbag68
(g89
g70
NtRp2997
(dp2998
g73
(dp2999
sg82
g2984
sg75
(lp3000
g68
(g69
g70
NtRp3001
(dp3002
g73
(dp3003
g81
I3
ssg82
g2997
sg75
(lp3004
g1612
asbasbasbag68
(g84
g70
NtRp3005
(dp3006
g73
(dp3007
sg82
g2623
sg75
(lp3008
g68
(g89
g70
NtRp3009
(dp3010
g73
(dp3011
g93
g94
ssg82
g3005
sg75
(lp3012
S'SERVER_SOFTWARE'
p3013
asbag68
(g89
g70
NtRp3014
(dp3015
g73
(dp3016
g100
g101
ssg82
g3005
sg75
(lp3017
S':'
asbag68
(g89
g70
NtRp3018
(dp3019
g73
(dp3020
sg82
g3005
sg75
(lp3021
g68
(g69
g70
NtRp3022
(dp3023
g73
(dp3024
g81
I3
ssg82
g3018
sg75
(lp3025
g1634
asbasbasbag68
(g84
g70
NtRp3026
(dp3027
g73
(dp3028
sg82
g2623
sg75
(lp3029
g68
(g89
g70
NtRp3030
(dp3031
g73
(dp3032
g93
g94
ssg82
g3026
sg75
(lp3033
S'wsgi.errors'
p3034
asbag68
(g89
g70
NtRp3035
(dp3036
g73
(dp3037
g100
g101
ssg82
g3026
sg75
(lp3038
S':'
asbag68
(g89
g70
NtRp3039
(dp3040
g73
(dp3041
sg82
g3026
sg75
(lp3042
g68
(g69
g70
NtRp3043
(dp3044
g73
(dp3045
g81
I3
ssg82
g3039
sg75
(lp3046
S"<open file '<stderr>', mode 'w' at 0x104484270>"
p3047
asbasbasbag68
(g84
g70
NtRp3048
(dp3049
g73
(dp3050
sg82
g2623
sg75
(lp3051
g68
(g89
g70
NtRp3052
(dp3053
g73
(dp3054
g93
g94
ssg82
g3048
sg75
(lp3055
S'wsgi.file_wrapper'
p3056
asbag68
(g89
g70
NtRp3057
(dp3058
g73
(dp3059
g100
g101
ssg82
g3048
sg75
(lp3060
S':'
asbag68
(g89
g70
NtRp3061
(dp3062
g73
(dp3063
sg82
g3048
sg75
(lp3064
g68
(g69
g70
NtRp3065
(dp3066
g73
(dp3067
g81
I3
ssg82
g3061
sg75
(lp3068
S'<class wsgiref.util.FileWrapper at 0x104ebdf58>'
p3069
asbasbasbag68
(g84
g70
NtRp3070
(dp3071
g73
(dp3072
sg82
g2623
sg75
(lp3073
g68
(g89
g70
NtRp3074
(dp3075
g73
(dp3076
g93
g94
ssg82
g3070
sg75
(lp3077
S'wsgi.input'
p3078
asbag68
(g89
g70
NtRp3079
(dp3080
g73
(dp3081
g100
g101
ssg82
g3070
sg75
(lp3082
S':'
asbag68
(g89
g70
NtRp3083
(dp3084
g73
(dp3085
sg82
g3070
sg75
(lp3086
g68
(g69
g70
NtRp3087
(dp3088
g73
(dp3089
g81
I3
ssg82
g3083
sg75
(lp3090
S'<cStringIO.StringO object at 0x109a41420>'
p3091
asbasbasbag68
(g84
g70
NtRp3092
(dp3093
g73
(dp3094
sg82
g2623
sg75
(lp3095
g68
(g89
g70
NtRp3096
(dp3097
g73
(dp3098
g93
g94
ssg82
g3092
sg75
(lp3099
S'wsgi.multiprocess'
p3100
asbag68
(g89
g70
NtRp3101
(dp3102
g73
(dp3103
g100
g101
ssg82
g3092
sg75
(lp3104
S':'
asbag68
(g89
g70
NtRp3105
(dp3106
g73
(dp3107
sg82
g3092
sg75
(lp3108
g68
(g69
g70
NtRp3109
(dp3110
g73
(dp3111
g81
I3
ssg82
g3105
sg75
(lp3112
g111
asbasbasbag68
(g84
g70
NtRp3113
(dp3114
g73
(dp3115
sg82
g2623
sg75
(lp3116
g68
(g89
g70
NtRp3117
(dp3118
g73
(dp3119
g93
g94
ssg82
g3113
sg75
(lp3120
S'wsgi.multithread'
p3121
asbag68
(g89
g70
NtRp3122
(dp3123
g73
(dp3124
g100
g101
ssg82
g3113
sg75
(lp3125
S':'
asbag68
(g89
g70
NtRp3126
(dp3127
g73
(dp3128
sg82
g3113
sg75
(lp3129
g68
(g69
g70
NtRp3130
(dp3131
g73
(dp3132
g81
I3
ssg82
g3126
sg75
(lp3133
g1874
asbasbasbag68
(g84
g70
NtRp3134
(dp3135
g73
(dp3136
sg82
g2623
sg75
(lp3137
g68
(g89
g70
NtRp3138
(dp3139
g73
(dp3140
g93
g94
ssg82
g3134
sg75
(lp3141
S'wsgi.run_once'
p3142
asbag68
(g89
g70
NtRp3143
(dp3144
g73
(dp3145
g100
g101
ssg82
g3134
sg75
(lp3146
S':'
asbag68
(g89
g70
NtRp3147
(dp3148
g73
(dp3149
sg82
g3134
sg75
(lp3150
g68
(g69
g70
NtRp3151
(dp3152
g73
(dp3153
g81
I3
ssg82
g3147
sg75
(lp3154
g111
asbasbasbag68
(g84
g70
NtRp3155
(dp3156
g73
(dp3157
sg82
g2623
sg75
(lp3158
g68
(g89
g70
NtRp3159
(dp3160
g73
(dp3161
g93
g94
ssg82
g3155
sg75
(lp3162
S'wsgi.url_scheme'
p3163
asbag68
(g89
g70
NtRp3164
(dp3165
g73
(dp3166
g100
g101
ssg82
g3155
sg75
(lp3167
S':'
asbag68
(g89
g70
NtRp3168
(dp3169
g73
(dp3170
sg82
g3155
sg75
(lp3171
g68
(g69
g70
NtRp3172
(dp3173
g73
(dp3174
g81
I3
ssg82
g3168
sg75
(lp3175
g1917
asbasbasbag68
(g84
g70
NtRp3176
(dp3177
g73
(dp3178
sg82
g2623
sg75
(lp3179
g68
(g89
g70
NtRp3180
(dp3181
g73
(dp3182
g93
g94
ssg82
g3176
sg75
(lp3183
S'wsgi.version'
p3184
asbag68
(g89
g70
NtRp3185
(dp3186
g73
(dp3187
g100
g101
ssg82
g3176
sg75
(lp3188
S':'
asbag68
(g89
g70
NtRp3189
(dp3190
g73
(dp3191
sg82
g3176
sg75
(lp3192
g68
(g69
g70
NtRp3193
(dp3194
g73
(dp3195
g81
I3
ssg82
g3189
sg75
(lp3196
S'1'
asbasbasbasbasbasbasbasbasbasbasbasbasbsS'frames'
p3197
(lp3198
(dp3199
S'file'
p3200
S'/Users/ianaboneva/Dropbox/DePaul/CSC 438 - Web Applications/web2py/gluon/restricted.py'
p3201
sS'dump'
p3202
(dp3203
S'code'
p3204
S"'# -*- coding: utf-8 -*-\\n# this file is released ...=crud())\\n\\nresponse._vars=response._caller(index)\\n'"
p3205
sS'layer'
p3206
S"'/Users/ianaboneva/Dropbox/DePaul/CSC 438 - Web A...plications/Book_Shelf_copy/controllers/default.py'"
p3207
sS'global compile2'
p3208
S'<function compile2>'
p3209
sS'ccode'
p3210
S'undefined'
p3211
ssS'lnum'
p3212
I204
sS'lines'
p3213
(dp3214
I199
S"    environment['__name__'] = '__restricted__'"
p3215
sI200
S'    try:'
p3216
sI201
S'        if type(code) == types.CodeType:'
p3217
sI202
S'            ccode = code'
p3218
sI203
S'        else:'
p3219
sI204
S'            ccode = compile2(code,layer)'
p3220
sI205
S'        exec ccode in environment'
p3221
sI206
S'    except HTTP:'
p3222
sI207
S'        raise'
p3223
sI208
S'    except RestrictedError:'
p3224
ssS'call'
p3225
S"(code='# -*- coding: utf-8 -*-\\n# this file is released ...=crud())\\n\\nresponse._vars=response._caller(index)\\n', environment={'A': <class 'gluon.html.A'>, 'Auth': <class 'gluon.tools.Auth'>, 'B': <class 'gluon.html.B'>, 'BEAUTIFY': <class 'gluon.html.BEAUTIFY'>, 'BODY': <class 'gluon.html.BODY'>, 'BR': <class 'gluon.html.BR'>, 'BUTTON': <class 'gluon.html.BUTTON'>, 'CAT': <class 'gluon.html.CAT'>, 'CENTER': <class 'gluon.html.CENTER'>, 'CLEANUP': <class 'gluon.validators.CLEANUP'>, ...}, layer='/Users/ianaboneva/Dropbox/DePaul/CSC 438 - Web A...plications/Book_Shelf_copy/controllers/default.py')"
p3226
sS'func'
p3227
S'restricted'
p3228
sa(dp3229
g3200
S'/Users/ianaboneva/Dropbox/DePaul/CSC 438 - Web Applications/web2py/gluon/restricted.py'
p3230
sg3202
(dp3231
S'builtincompile'
p3232
S'<built-in function compile>'
p3233
sS'code'
p3234
S"'# -*- coding: utf-8 -*-\\n# this file is released ...=crud())\\n\\nresponse._vars=response._caller(index)\\n'"
p3235
sS'code.rstrip'
p3236
S'<built-in method rstrip of str object>'
p3237
sS').replace'
p3238
g3211
sS'layer'
p3239
S"'/Users/ianaboneva/Dropbox/DePaul/CSC 438 - Web A...plications/Book_Shelf_copy/controllers/default.py'"
p3240
ssg3212
I189
sg3213
(dp3241
I192
S'    """'
p3242
sI193
S'    runs code in environment and returns the output. if an exception occurs'
p3243
sI184
S''
sI185
S'def compile2(code,layer):'
p3244
sI186
S'    """'
p3245
sI187
S"    The +'\\n' is necessary else compile fails when code ends in a comment."
p3246
sI188
S'    """'
p3247
sI189
S"    return compile(code.rstrip().replace('\\r\\n','\\n')+'\\n', layer, 'exec')"
p3248
sI190
S''
sI191
S"def restricted(code, environment=None, layer='Unknown'):"
p3249
ssg3225
S"(code='# -*- coding: utf-8 -*-\\n# this file is released ...=crud())\\n\\nresponse._vars=response._caller(index)\\n', layer='/Users/ianaboneva/Dropbox/DePaul/CSC 438 - Web A...plications/Book_Shelf_copy/controllers/default.py')"
p3250
sg3227
S'compile2'
p3251
sasS'pyver'
p3252
S'Python 2.7.1: /usr/bin/python'
p3253
sS'session'
p3254
g68
(g69
g70
NtRp3255
(dp3256
g73
(dp3257
sg75
(lp3258
g68
(g77
g70
NtRp3259
(dp3260
g73
(dp3261
g81
I5
ssg82
Nsg75
(lp3262
g68
(g84
g70
NtRp3263
(dp3264
g73
(dp3265
sg82
g3259
sg75
(lp3266
g68
(g89
g70
NtRp3267
(dp3268
g73
(dp3269
g93
g94
ssg82
g3263
sg75
(lp3270
S'auth'
p3271
asbag68
(g89
g70
NtRp3272
(dp3273
g73
(dp3274
g100
g101
ssg82
g3263
sg75
(lp3275
S':'
asbag68
(g89
g70
NtRp3276
(dp3277
g73
(dp3278
sg82
g3263
sg75
(lp3279
g68
(g69
g70
NtRp3280
(dp3281
g73
(dp3282
g81
I5
ssg82
g3276
sg75
(lp3283
g68
(g77
g70
NtRp3284
(dp3285
g73
(dp3286
g81
I4
ssg82
Nsg75
(lp3287
g68
(g84
g70
NtRp3288
(dp3289
g73
(dp3290
sg82
g3284
sg75
(lp3291
g68
(g89
g70
NtRp3292
(dp3293
g73
(dp3294
g93
g94
ssg82
g3288
sg75
(lp3295
S'expiration'
p3296
asbag68
(g89
g70
NtRp3297
(dp3298
g73
(dp3299
g100
g101
ssg82
g3288
sg75
(lp3300
S':'
asbag68
(g89
g70
NtRp3301
(dp3302
g73
(dp3303
sg82
g3288
sg75
(lp3304
g68
(g69
g70
NtRp3305
(dp3306
g73
(dp3307
g81
I4
ssg82
g3301
sg75
(lp3308
S'3600'
p3309
asbasbasbag68
(g84
g70
NtRp3310
(dp3311
g73
(dp3312
sg82
g3284
sg75
(lp3313
g68
(g89
g70
NtRp3314
(dp3315
g73
(dp3316
g93
g94
ssg82
g3310
sg75
(lp3317
S'hmac_key'
p3318
asbag68
(g89
g70
NtRp3319
(dp3320
g73
(dp3321
g100
g101
ssg82
g3310
sg75
(lp3322
S':'
asbag68
(g89
g70
NtRp3323
(dp3324
g73
(dp3325
sg82
g3310
sg75
(lp3326
g68
(g69
g70
NtRp3327
(dp3328
g73
(dp3329
g81
I4
ssg82
g3323
sg75
(lp3330
S'6d65ccff-e9f9-4a04-a10d-f39c9767a83a'
p3331
asbasbasbag68
(g84
g70
NtRp3332
(dp3333
g73
(dp3334
sg82
g3284
sg75
(lp3335
g68
(g89
g70
NtRp3336
(dp3337
g73
(dp3338
g93
g94
ssg82
g3332
sg75
(lp3339
S'last_visit'
p3340
asbag68
(g89
g70
NtRp3341
(dp3342
g73
(dp3343
g100
g101
ssg82
g3332
sg75
(lp3344
S':'
asbag68
(g89
g70
NtRp3345
(dp3346
g73
(dp3347
sg82
g3332
sg75
(lp3348
g68
(g69
g70
NtRp3349
(dp3350
g73
(dp3351
g81
I4
ssg82
g3345
sg75
(lp3352
S'datetime.datetime(2012, 6, 3, 18, 22, 52, 19625)'
p3353
asbasbasbag68
(g84
g70
NtRp3354
(dp3355
g73
(dp3356
sg82
g3284
sg75
(lp3357
g68
(g89
g70
NtRp3358
(dp3359
g73
(dp3360
g93
g94
ssg82
g3354
sg75
(lp3361
S'remember'
p3362
asbag68
(g89
g70
NtRp3363
(dp3364
g73
(dp3365
g100
g101
ssg82
g3354
sg75
(lp3366
S':'
asbag68
(g89
g70
NtRp3367
(dp3368
g73
(dp3369
sg82
g3354
sg75
(lp3370
g68
(g69
g70
NtRp3371
(dp3372
g73
(dp3373
g81
I4
ssg82
g3367
sg75
(lp3374
g111
asbasbasbag68
(g84
g70
NtRp3375
(dp3376
g73
(dp3377
sg82
g3284
sg75
(lp3378
g68
(g89
g70
NtRp3379
(dp3380
g73
(dp3381
g93
g94
ssg82
g3375
sg75
(lp3382
S'user'
p3383
asbag68
(g89
g70
NtRp3384
(dp3385
g73
(dp3386
g100
g101
ssg82
g3375
sg75
(lp3387
S':'
asbag68
(g89
g70
NtRp3388
(dp3389
g73
(dp3390
sg82
g3375
sg75
(lp3391
g68
(g69
g70
NtRp3392
(dp3393
g73
(dp3394
g81
I4
ssg82
g3388
sg75
(lp3395
g68
(g77
g70
NtRp3396
(dp3397
g73
(dp3398
g81
I3
ssg82
Nsg75
(lp3399
g68
(g84
g70
NtRp3400
(dp3401
g73
(dp3402
sg82
g3396
sg75
(lp3403
g68
(g89
g70
NtRp3404
(dp3405
g73
(dp3406
g93
g94
ssg82
g3400
sg75
(lp3407
S'email'
p3408
asbag68
(g89
g70
NtRp3409
(dp3410
g73
(dp3411
g100
g101
ssg82
g3400
sg75
(lp3412
S':'
asbag68
(g89
g70
NtRp3413
(dp3414
g73
(dp3415
sg82
g3400
sg75
(lp3416
g68
(g69
g70
NtRp3417
(dp3418
g73
(dp3419
g81
I3
ssg82
g3413
sg75
(lp3420
S'haha@haha.com'
p3421
asbasbasbag68
(g84
g70
NtRp3422
(dp3423
g73
(dp3424
sg82
g3396
sg75
(lp3425
g68
(g89
g70
NtRp3426
(dp3427
g73
(dp3428
g93
g94
ssg82
g3422
sg75
(lp3429
S'first_name'
p3430
asbag68
(g89
g70
NtRp3431
(dp3432
g73
(dp3433
g100
g101
ssg82
g3422
sg75
(lp3434
S':'
asbag68
(g89
g70
NtRp3435
(dp3436
g73
(dp3437
sg82
g3422
sg75
(lp3438
g68
(g69
g70
NtRp3439
(dp3440
g73
(dp3441
g81
I3
ssg82
g3435
sg75
(lp3442
S'Iana'
p3443
asbasbasbag68
(g84
g70
NtRp3444
(dp3445
g73
(dp3446
sg82
g3396
sg75
(lp3447
g68
(g89
g70
NtRp3448
(dp3449
g73
(dp3450
g93
g94
ssg82
g3444
sg75
(lp3451
S'id'
p3452
asbag68
(g89
g70
NtRp3453
(dp3454
g73
(dp3455
g100
g101
ssg82
g3444
sg75
(lp3456
S':'
asbag68
(g89
g70
NtRp3457
(dp3458
g73
(dp3459
sg82
g3444
sg75
(lp3460
g68
(g69
g70
NtRp3461
(dp3462
g73
(dp3463
g81
I3
ssg82
g3457
sg75
(lp3464
S'2'
asbasbasbag68
(g84
g70
NtRp3465
(dp3466
g73
(dp3467
sg82
g3396
sg75
(lp3468
g68
(g89
g70
NtRp3469
(dp3470
g73
(dp3471
g93
g94
ssg82
g3465
sg75
(lp3472
S'last_name'
p3473
asbag68
(g89
g70
NtRp3474
(dp3475
g73
(dp3476
g100
g101
ssg82
g3465
sg75
(lp3477
S':'
asbag68
(g89
g70
NtRp3478
(dp3479
g73
(dp3480
sg82
g3465
sg75
(lp3481
g68
(g69
g70
NtRp3482
(dp3483
g73
(dp3484
g81
I3
ssg82
g3478
sg75
(lp3485
S'Boneva'
p3486
asbasbasbag68
(g84
g70
NtRp3487
(dp3488
g73
(dp3489
sg82
g3396
sg75
(lp3490
g68
(g89
g70
NtRp3491
(dp3492
g73
(dp3493
g93
g94
ssg82
g3487
sg75
(lp3494
S'password'
p3495
asbag68
(g89
g70
NtRp3496
(dp3497
g73
(dp3498
g100
g101
ssg82
g3487
sg75
(lp3499
S':'
asbag68
(g89
g70
NtRp3500
(dp3501
g73
(dp3502
sg82
g3487
sg75
(lp3503
g68
(g69
g70
NtRp3504
(dp3505
g73
(dp3506
g81
I3
ssg82
g3500
sg75
(lp3507
S'be570e8e7b9bbc17c5aecccf653fd3d3'
p3508
asbasbasbag68
(g84
g70
NtRp3509
(dp3510
g73
(dp3511
sg82
g3396
sg75
(lp3512
g68
(g89
g70
NtRp3513
(dp3514
g73
(dp3515
g93
g94
ssg82
g3509
sg75
(lp3516
S'registration_id'
p3517
asbag68
(g89
g70
NtRp3518
(dp3519
g73
(dp3520
g100
g101
ssg82
g3509
sg75
(lp3521
S':'
asbag68
(g89
g70
NtRp3522
(dp3523
g73
(dp3524
sg82
g3509
sg75
(lp3525
g68
(g69
g70
NtRp3526
(dp3527
g73
(dp3528
g81
I3
ssg82
g3522
sg75
(lp3529
S''
asbasbasbag68
(g84
g70
NtRp3530
(dp3531
g73
(dp3532
sg82
g3396
sg75
(lp3533
g68
(g89
g70
NtRp3534
(dp3535
g73
(dp3536
g93
g94
ssg82
g3530
sg75
(lp3537
S'registration_key'
p3538
asbag68
(g89
g70
NtRp3539
(dp3540
g73
(dp3541
g100
g101
ssg82
g3530
sg75
(lp3542
S':'
asbag68
(g89
g70
NtRp3543
(dp3544
g73
(dp3545
sg82
g3530
sg75
(lp3546
g68
(g69
g70
NtRp3547
(dp3548
g73
(dp3549
g81
I3
ssg82
g3543
sg75
(lp3550
S''
asbasbasbag68
(g84
g70
NtRp3551
(dp3552
g73
(dp3553
sg82
g3396
sg75
(lp3554
g68
(g89
g70
NtRp3555
(dp3556
g73
(dp3557
g93
g94
ssg82
g3551
sg75
(lp3558
S'reset_password_key'
p3559
asbag68
(g89
g70
NtRp3560
(dp3561
g73
(dp3562
g100
g101
ssg82
g3551
sg75
(lp3563
S':'
asbag68
(g89
g70
NtRp3564
(dp3565
g73
(dp3566
sg82
g3551
sg75
(lp3567
g68
(g69
g70
NtRp3568
(dp3569
g73
(dp3570
g81
I3
ssg82
g3564
sg75
(lp3571
S''
asbasbasbasbasbasbasbag68
(g84
g70
NtRp3572
(dp3573
g73
(dp3574
sg82
g3284
sg75
(lp3575
g68
(g89
g70
NtRp3576
(dp3577
g73
(dp3578
g93
g94
ssg82
g3572
sg75
(lp3579
S'user_groups'
p3580
asbag68
(g89
g70
NtRp3581
(dp3582
g73
(dp3583
g100
g101
ssg82
g3572
sg75
(lp3584
S':'
asbag68
(g89
g70
NtRp3585
(dp3586
g73
(dp3587
sg82
g3572
sg75
(lp3588
g68
(g69
g70
NtRp3589
(dp3590
g73
(dp3591
g81
I4
ssg82
g3585
sg75
(lp3592
g68
(g77
g70
NtRp3593
(dp3594
g73
(dp3595
g81
I3
ssg82
Nsg75
(lp3596
g68
(g84
g70
NtRp3597
(dp3598
g73
(dp3599
sg82
g3593
sg75
(lp3600
g68
(g89
g70
NtRp3601
(dp3602
g73
(dp3603
g93
g94
ssg82
g3597
sg75
(lp3604
S'2'
asbag68
(g89
g70
NtRp3605
(dp3606
g73
(dp3607
g100
g101
ssg82
g3597
sg75
(lp3608
S':'
asbag68
(g89
g70
NtRp3609
(dp3610
g73
(dp3611
sg82
g3597
sg75
(lp3612
g68
(g69
g70
NtRp3613
(dp3614
g73
(dp3615
g81
I3
ssg82
g3609
sg75
(lp3616
S'user_2'
p3617
asbasbasbasbasbasbasbasbasbasbasbag68
(g84
g70
NtRp3618
(dp3619
g73
(dp3620
sg82
g3259
sg75
(lp3621
g68
(g89
g70
NtRp3622
(dp3623
g73
(dp3624
g93
g94
ssg82
g3618
sg75
(lp3625
S'last_query'
p3626
asbag68
(g89
g70
NtRp3627
(dp3628
g73
(dp3629
g100
g101
ssg82
g3618
sg75
(lp3630
S':'
asbag68
(g89
g70
NtRp3631
(dp3632
g73
(dp3633
sg82
g3618
sg75
(lp3634
g68
(g69
g70
NtRp3635
(dp3636
g73
(dp3637
g81
I5
ssg82
g3631
sg75
(lp3638
S'db.Book_Shelf_Items.id>0'
p3639
asbasbasbasbasbsS'etype'
p3640
S"<type 'exceptions.IndentationError'>"
p3641
sS'date'
p3642
S'Sun Jun  3 18:26:41 2012'
p3643
sS'response'
p3644
g68
(g69
g70
NtRp3645
(dp3646
g73
(dp3647
sg75
(lp3648
g68
(g77
g70
NtRp3649
(dp3650
g73
(dp3651
g81
I5
ssg82
Nsg75
(lp3652
g68
(g84
g70
NtRp3653
(dp3654
g73
(dp3655
sg82
g3649
sg75
(lp3656
g68
(g89
g70
NtRp3657
(dp3658
g73
(dp3659
g93
g94
ssg82
g3653
sg75
(lp3660
g166
asbag68
(g89
g70
NtRp3661
(dp3662
g73
(dp3663
g100
g101
ssg82
g3653
sg75
(lp3664
S':'
asbag68
(g89
g70
NtRp3665
(dp3666
g73
(dp3667
sg82
g3653
sg75
(lp3668
g68
(g69
g70
NtRp3669
(dp3670
g73
(dp3671
g81
I5
ssg82
g3665
sg75
(lp3672
S'<cStringIO.StringO object at 0x109b87490>'
p3673
asbasbasbag68
(g84
g70
NtRp3674
(dp3675
g73
(dp3676
sg82
g3649
sg75
(lp3677
g68
(g89
g70
NtRp3678
(dp3679
g73
(dp3680
g93
g94
ssg82
g3674
sg75
(lp3681
g232
asbag68
(g89
g70
NtRp3682
(dp3683
g73
(dp3684
g100
g101
ssg82
g3674
sg75
(lp3685
S':'
asbag68
(g89
g70
NtRp3686
(dp3687
g73
(dp3688
sg82
g3674
sg75
(lp3689
g68
(g69
g70
NtRp3690
(dp3691
g73
(dp3692
g81
I5
ssg82
g3686
sg75
(lp3693
g68
(g77
g70
NtRp3694
(dp3695
g73
(dp3696
g81
I4
ssg82
Nsg75
(lp3697
g68
(g84
g70
NtRp3698
(dp3699
g73
(dp3700
sg82
g3694
sg75
(lp3701
g68
(g89
g70
NtRp3702
(dp3703
g73
(dp3704
g93
g94
ssg82
g3698
sg75
(lp3705
S'session_id_book_shelf_copy'
p3706
asbag68
(g89
g70
NtRp3707
(dp3708
g73
(dp3709
g100
g101
ssg82
g3698
sg75
(lp3710
S':'
asbag68
(g89
g70
NtRp3711
(dp3712
g73
(dp3713
sg82
g3698
sg75
(lp3714
g68
(g69
g70
NtRp3715
(dp3716
g73
(dp3717
g81
I4
ssg82
g3711
sg75
(lp3718
g68
(g77
g70
NtRp3719
(dp3720
g73
(dp3721
g81
I3
ssg82
Nsg75
(lp3722
g68
(g84
g70
NtRp3723
(dp3724
g73
(dp3725
sg82
g3719
sg75
(lp3726
g68
(g89
g70
NtRp3727
(dp3728
g73
(dp3729
g93
g94
ssg82
g3723
sg75
(lp3730
g282
asbag68
(g89
g70
NtRp3731
(dp3732
g73
(dp3733
g100
g101
ssg82
g3723
sg75
(lp3734
S':'
asbag68
(g89
g70
NtRp3735
(dp3736
g73
(dp3737
sg82
g3723
sg75
(lp3738
g68
(g69
g70
NtRp3739
(dp3740
g73
(dp3741
g81
I3
ssg82
g3735
sg75
(lp3742
S''
asbasbasbag68
(g84
g70
NtRp3743
(dp3744
g73
(dp3745
sg82
g3719
sg75
(lp3746
g68
(g89
g70
NtRp3747
(dp3748
g73
(dp3749
g93
g94
ssg82
g3743
sg75
(lp3750
g303
asbag68
(g89
g70
NtRp3751
(dp3752
g73
(dp3753
g100
g101
ssg82
g3743
sg75
(lp3754
S':'
asbag68
(g89
g70
NtRp3755
(dp3756
g73
(dp3757
sg82
g3743
sg75
(lp3758
g68
(g69
g70
NtRp3759
(dp3760
g73
(dp3761
g81
I3
ssg82
g3755
sg75
(lp3762
S''
asbasbasbag68
(g84
g70
NtRp3763
(dp3764
g73
(dp3765
sg82
g3719
sg75
(lp3766
g68
(g89
g70
NtRp3767
(dp3768
g73
(dp3769
g93
g94
ssg82
g3763
sg75
(lp3770
g324
asbag68
(g89
g70
NtRp3771
(dp3772
g73
(dp3773
g100
g101
ssg82
g3763
sg75
(lp3774
S':'
asbag68
(g89
g70
NtRp3775
(dp3776
g73
(dp3777
sg82
g3763
sg75
(lp3778
g68
(g69
g70
NtRp3779
(dp3780
g73
(dp3781
g81
I3
ssg82
g3775
sg75
(lp3782
S''
asbasbasbag68
(g84
g70
NtRp3783
(dp3784
g73
(dp3785
sg82
g3719
sg75
(lp3786
g68
(g89
g70
NtRp3787
(dp3788
g73
(dp3789
g93
g94
ssg82
g3783
sg75
(lp3790
g345
asbag68
(g89
g70
NtRp3791
(dp3792
g73
(dp3793
g100
g101
ssg82
g3783
sg75
(lp3794
S':'
asbag68
(g89
g70
NtRp3795
(dp3796
g73
(dp3797
sg82
g3783
sg75
(lp3798
g68
(g69
g70
NtRp3799
(dp3800
g73
(dp3801
g81
I3
ssg82
g3795
sg75
(lp3802
S''
asbasbasbag68
(g84
g70
NtRp3803
(dp3804
g73
(dp3805
sg82
g3719
sg75
(lp3806
g68
(g89
g70
NtRp3807
(dp3808
g73
(dp3809
g93
g94
ssg82
g3803
sg75
(lp3810
g366
asbag68
(g89
g70
NtRp3811
(dp3812
g73
(dp3813
g100
g101
ssg82
g3803
sg75
(lp3814
S':'
asbag68
(g89
g70
NtRp3815
(dp3816
g73
(dp3817
sg82
g3803
sg75
(lp3818
g68
(g69
g70
NtRp3819
(dp3820
g73
(dp3821
g81
I3
ssg82
g3815
sg75
(lp3822
S''
asbasbasbag68
(g84
g70
NtRp3823
(dp3824
g73
(dp3825
sg82
g3719
sg75
(lp3826
g68
(g89
g70
NtRp3827
(dp3828
g73
(dp3829
g93
g94
ssg82
g3823
sg75
(lp3830
g387
asbag68
(g89
g70
NtRp3831
(dp3832
g73
(dp3833
g100
g101
ssg82
g3823
sg75
(lp3834
S':'
asbag68
(g89
g70
NtRp3835
(dp3836
g73
(dp3837
sg82
g3823
sg75
(lp3838
g68
(g69
g70
NtRp3839
(dp3840
g73
(dp3841
g81
I3
ssg82
g3835
sg75
(lp3842
S'/'
asbasbasbag68
(g84
g70
NtRp3843
(dp3844
g73
(dp3845
sg82
g3719
sg75
(lp3846
g68
(g89
g70
NtRp3847
(dp3848
g73
(dp3849
g93
g94
ssg82
g3843
sg75
(lp3850
g408
asbag68
(g89
g70
NtRp3851
(dp3852
g73
(dp3853
g100
g101
ssg82
g3843
sg75
(lp3854
S':'
asbag68
(g89
g70
NtRp3855
(dp3856
g73
(dp3857
sg82
g3843
sg75
(lp3858
g68
(g69
g70
NtRp3859
(dp3860
g73
(dp3861
g81
I3
ssg82
g3855
sg75
(lp3862
S''
asbasbasbag68
(g84
g70
NtRp3863
(dp3864
g73
(dp3865
sg82
g3719
sg75
(lp3866
g68
(g89
g70
NtRp3867
(dp3868
g73
(dp3869
g93
g94
ssg82
g3863
sg75
(lp3870
g429
asbag68
(g89
g70
NtRp3871
(dp3872
g73
(dp3873
g100
g101
ssg82
g3863
sg75
(lp3874
S':'
asbag68
(g89
g70
NtRp3875
(dp3876
g73
(dp3877
sg82
g3863
sg75
(lp3878
g68
(g69
g70
NtRp3879
(dp3880
g73
(dp3881
g81
I3
ssg82
g3875
sg75
(lp3882
S''
asbasbasbasbasbasbasbasbasbasbasbag68
(g84
g70
NtRp3883
(dp3884
g73
(dp3885
sg82
g3649
sg75
(lp3886
g68
(g89
g70
NtRp3887
(dp3888
g73
(dp3889
g93
g94
ssg82
g3883
sg75
(lp3890
S'delimiters'
p3891
asbag68
(g89
g70
NtRp3892
(dp3893
g73
(dp3894
g100
g101
ssg82
g3883
sg75
(lp3895
S':'
asbag68
(g89
g70
NtRp3896
(dp3897
g73
(dp3898
sg82
g3883
sg75
(lp3899
g68
(g69
g70
NtRp3900
(dp3901
g73
(dp3902
g81
I5
ssg82
g3896
sg75
(lp3903
g68
(g77
g70
NtRp3904
(dp3905
g73
(dp3906
g81
I4
ssg82
Nsg75
(lp3907
g68
(g84
g70
NtRp3908
(dp3909
g73
(dp3910
sg82
g3904
sg75
(lp3911
g68
(g89
g70
NtRp3912
(dp3913
g73
(dp3914
sg82
g3908
sg75
(lp3915
g68
(g69
g70
NtRp3916
(dp3917
g73
(dp3918
g81
I4
ssg82
g3912
sg75
(lp3919
S'{{'
p3920
asbasbasbag68
(g84
g70
NtRp3921
(dp3922
g73
(dp3923
sg82
g3904
sg75
(lp3924
g68
(g89
g70
NtRp3925
(dp3926
g73
(dp3927
sg82
g3921
sg75
(lp3928
g68
(g69
g70
NtRp3929
(dp3930
g73
(dp3931
g81
I4
ssg82
g3925
sg75
(lp3932
S'}}'
p3933
asbasbasbasbasbasbasbag68
(g84
g70
NtRp3934
(dp3935
g73
(dp3936
sg82
g3649
sg75
(lp3937
g68
(g89
g70
NtRp3938
(dp3939
g73
(dp3940
g93
g94
ssg82
g3934
sg75
(lp3941
S'files'
p3942
asbag68
(g89
g70
NtRp3943
(dp3944
g73
(dp3945
g100
g101
ssg82
g3934
sg75
(lp3946
S':'
asbag68
(g89
g70
NtRp3947
(dp3948
g73
(dp3949
sg82
g3934
sg75
(lp3950
g68
(g69
g70
NtRp3951
(dp3952
g73
(dp3953
g81
I5
ssg82
g3947
sg75
(lp3954
g68
(g77
g70
NtRp3955
(dp3956
g73
(dp3957
g81
I4
ssg82
Nsg75
(lp3958
sbasbasbasbag68
(g84
g70
NtRp3959
(dp3960
g73
(dp3961
sg82
g3649
sg75
(lp3962
g68
(g89
g70
NtRp3963
(dp3964
g73
(dp3965
g93
g94
ssg82
g3959
sg75
(lp3966
S'flash'
p3967
asbag68
(g89
g70
NtRp3968
(dp3969
g73
(dp3970
g100
g101
ssg82
g3959
sg75
(lp3971
S':'
asbag68
(g89
g70
NtRp3972
(dp3973
g73
(dp3974
sg82
g3959
sg75
(lp3975
g68
(g69
g70
NtRp3976
(dp3977
g73
(dp3978
g81
I5
ssg82
g3972
sg75
(lp3979
S''
asbasbasbag68
(g84
g70
NtRp3980
(dp3981
g73
(dp3982
sg82
g3649
sg75
(lp3983
g68
(g89
g70
NtRp3984
(dp3985
g73
(dp3986
g93
g94
ssg82
g3980
sg75
(lp3987
S'generic_patterns'
p3988
asbag68
(g89
g70
NtRp3989
(dp3990
g73
(dp3991
g100
g101
ssg82
g3980
sg75
(lp3992
S':'
asbag68
(g89
g70
NtRp3993
(dp3994
g73
(dp3995
sg82
g3980
sg75
(lp3996
g68
(g69
g70
NtRp3997
(dp3998
g73
(dp3999
g81
I5
ssg82
g3993
sg75
(lp4000
g68
(g77
g70
NtRp4001
(dp4002
g73
(dp4003
g81
I4
ssg82
Nsg75
(lp4004
g68
(g84
g70
NtRp4005
(dp4006
g73
(dp4007
sg82
g4001
sg75
(lp4008
g68
(g89
g70
NtRp4009
(dp4010
g73
(dp4011
sg82
g4005
sg75
(lp4012
g68
(g69
g70
NtRp4013
(dp4014
g73
(dp4015
g81
I4
ssg82
g4009
sg75
(lp4016
S'*'
asbasbasbasbasbasbasbag68
(g84
g70
NtRp4017
(dp4018
g73
(dp4019
sg82
g3649
sg75
(lp4020
g68
(g89
g70
NtRp4021
(dp4022
g73
(dp4023
g93
g94
ssg82
g4017
sg75
(lp4024
S'headers'
p4025
asbag68
(g89
g70
NtRp4026
(dp4027
g73
(dp4028
g100
g101
ssg82
g4017
sg75
(lp4029
S':'
asbag68
(g89
g70
NtRp4030
(dp4031
g73
(dp4032
sg82
g4017
sg75
(lp4033
g68
(g69
g70
NtRp4034
(dp4035
g73
(dp4036
g81
I5
ssg82
g4030
sg75
(lp4037
g68
(g77
g70
NtRp4038
(dp4039
g73
(dp4040
g81
I4
ssg82
Nsg75
(lp4041
g68
(g84
g70
NtRp4042
(dp4043
g73
(dp4044
sg82
g4038
sg75
(lp4045
g68
(g89
g70
NtRp4046
(dp4047
g73
(dp4048
g93
g94
ssg82
g4042
sg75
(lp4049
S'Cache-Control'
p4050
asbag68
(g89
g70
NtRp4051
(dp4052
g73
(dp4053
g100
g101
ssg82
g4042
sg75
(lp4054
S':'
asbag68
(g89
g70
NtRp4055
(dp4056
g73
(dp4057
sg82
g4042
sg75
(lp4058
g68
(g69
g70
NtRp4059
(dp4060
g73
(dp4061
g81
I4
ssg82
g4055
sg75
(lp4062
S'no-store, no-cache, must-revalidate, post-check=0, pre-check=0'
p4063
asbasbasbag68
(g84
g70
NtRp4064
(dp4065
g73
(dp4066
sg82
g4038
sg75
(lp4067
g68
(g89
g70
NtRp4068
(dp4069
g73
(dp4070
g93
g94
ssg82
g4064
sg75
(lp4071
S'Content-Type'
p4072
asbag68
(g89
g70
NtRp4073
(dp4074
g73
(dp4075
g100
g101
ssg82
g4064
sg75
(lp4076
S':'
asbag68
(g89
g70
NtRp4077
(dp4078
g73
(dp4079
sg82
g4064
sg75
(lp4080
g68
(g69
g70
NtRp4081
(dp4082
g73
(dp4083
g81
I4
ssg82
g4077
sg75
(lp4084
S'text/html; charset=utf-8'
p4085
asbasbasbag68
(g84
g70
NtRp4086
(dp4087
g73
(dp4088
sg82
g4038
sg75
(lp4089
g68
(g89
g70
NtRp4090
(dp4091
g73
(dp4092
g93
g94
ssg82
g4086
sg75
(lp4093
S'Expires'
p4094
asbag68
(g89
g70
NtRp4095
(dp4096
g73
(dp4097
g100
g101
ssg82
g4086
sg75
(lp4098
S':'
asbag68
(g89
g70
NtRp4099
(dp4100
g73
(dp4101
sg82
g4086
sg75
(lp4102
g68
(g69
g70
NtRp4103
(dp4104
g73
(dp4105
g81
I4
ssg82
g4099
sg75
(lp4106
S'Sun, 03 Jun 2012 23:26:41 GMT'
p4107
asbasbasbag68
(g84
g70
NtRp4108
(dp4109
g73
(dp4110
sg82
g4038
sg75
(lp4111
g68
(g89
g70
NtRp4112
(dp4113
g73
(dp4114
g93
g94
ssg82
g4108
sg75
(lp4115
S'Pragma'
p4116
asbag68
(g89
g70
NtRp4117
(dp4118
g73
(dp4119
g100
g101
ssg82
g4108
sg75
(lp4120
S':'
asbag68
(g89
g70
NtRp4121
(dp4122
g73
(dp4123
sg82
g4108
sg75
(lp4124
g68
(g69
g70
NtRp4125
(dp4126
g73
(dp4127
g81
I4
ssg82
g4121
sg75
(lp4128
S'no-cache'
p4129
asbasbasbag68
(g84
g70
NtRp4130
(dp4131
g73
(dp4132
sg82
g4038
sg75
(lp4133
g68
(g89
g70
NtRp4134
(dp4135
g73
(dp4136
g93
g94
ssg82
g4130
sg75
(lp4137
S'X-Powered-By'
p4138
asbag68
(g89
g70
NtRp4139
(dp4140
g73
(dp4141
g100
g101
ssg82
g4130
sg75
(lp4142
S':'
asbag68
(g89
g70
NtRp4143
(dp4144
g73
(dp4145
sg82
g4130
sg75
(lp4146
g68
(g69
g70
NtRp4147
(dp4148
g73
(dp4149
g81
I4
ssg82
g4143
sg75
(lp4150
S'web2py'
p4151
asbasbasbasbasbasbasbag68
(g84
g70
NtRp4152
(dp4153
g73
(dp4154
sg82
g3649
sg75
(lp4155
g68
(g89
g70
NtRp4156
(dp4157
g73
(dp4158
g93
g94
ssg82
g4152
sg75
(lp4159
S'menu'
p4160
asbag68
(g89
g70
NtRp4161
(dp4162
g73
(dp4163
g100
g101
ssg82
g4152
sg75
(lp4164
S':'
asbag68
(g89
g70
NtRp4165
(dp4166
g73
(dp4167
sg82
g4152
sg75
(lp4168
g68
(g69
g70
NtRp4169
(dp4170
g73
(dp4171
g81
I5
ssg82
g4165
sg75
(lp4172
g68
(g77
g70
NtRp4173
(dp4174
g73
(dp4175
g81
I4
ssg82
Nsg75
(lp4176
g68
(g84
g70
NtRp4177
(dp4178
g73
(dp4179
sg82
g4173
sg75
(lp4180
g68
(g89
g70
NtRp4181
(dp4182
g73
(dp4183
sg82
g4177
sg75
(lp4184
g68
(g69
g70
NtRp4185
(dp4186
g73
(dp4187
g81
I4
ssg82
g4181
sg75
(lp4188
g68
(g77
g70
NtRp4189
(dp4190
g73
(dp4191
g81
I3
ssg82
Nsg75
(lp4192
g68
(g84
g70
NtRp4193
(dp4194
g73
(dp4195
sg82
g4189
sg75
(lp4196
g68
(g89
g70
NtRp4197
(dp4198
g73
(dp4199
sg82
g4193
sg75
(lp4200
g68
(g69
g70
NtRp4201
(dp4202
g73
(dp4203
g81
I3
ssg82
g4197
sg75
(lp4204
cgluon.languages
lazyT_unpickle
p4205
(S't\x04\x00\x00\x00Home'
tRp4206
asbasbasbag68
(g84
g70
NtRp4207
(dp4208
g73
(dp4209
sg82
g4189
sg75
(lp4210
g68
(g89
g70
NtRp4211
(dp4212
g73
(dp4213
sg82
g4207
sg75
(lp4214
g68
(g69
g70
NtRp4215
(dp4216
g73
(dp4217
g81
I3
ssg82
g4211
sg75
(lp4218
g111
asbasbasbag68
(g84
g70
NtRp4219
(dp4220
g73
(dp4221
sg82
g4189
sg75
(lp4222
g68
(g89
g70
NtRp4223
(dp4224
g73
(dp4225
sg82
g4219
sg75
(lp4226
g68
(g69
g70
NtRp4227
(dp4228
g73
(dp4229
g81
I3
ssg82
g4223
sg75
(lp4230
S'/Book_Shelf_copy/default/index'
p4231
asbasbasbag68
(g84
g70
NtRp4232
(dp4233
g73
(dp4234
sg82
g4189
sg75
(lp4235
g68
(g89
g70
NtRp4236
(dp4237
g73
(dp4238
sg82
g4232
sg75
(lp4239
g68
(g69
g70
NtRp4240
(dp4241
g73
(dp4242
g81
I3
ssg82
g4236
sg75
(lp4243
g68
(g77
g70
NtRp4244
(dp4245
g73
(dp4246
g81
I2
ssg82
Nsg75
(lp4247
sbasbasbasbasbasbasbasbag68
(g84
g70
NtRp4248
(dp4249
g73
(dp4250
sg82
g4173
sg75
(lp4251
g68
(g89
g70
NtRp4252
(dp4253
g73
(dp4254
sg82
g4248
sg75
(lp4255
g68
(g69
g70
NtRp4256
(dp4257
g73
(dp4258
g81
I4
ssg82
g4252
sg75
(lp4259
g68
(g77
g70
NtRp4260
(dp4261
g73
(dp4262
g81
I3
ssg82
Nsg75
(lp4263
g68
(g84
g70
NtRp4264
(dp4265
g73
(dp4266
sg82
g4260
sg75
(lp4267
g68
(g89
g70
NtRp4268
(dp4269
g73
(dp4270
sg82
g4264
sg75
(lp4271
g68
(g69
g70
NtRp4272
(dp4273
g73
(dp4274
g81
I3
ssg82
g4268
sg75
(lp4275
g4205
(S's\x0c\x00\x00\x00User Profile'
tRp4276
asbasbasbag68
(g84
g70
NtRp4277
(dp4278
g73
(dp4279
sg82
g4260
sg75
(lp4280
g68
(g89
g70
NtRp4281
(dp4282
g73
(dp4283
sg82
g4277
sg75
(lp4284
g68
(g69
g70
NtRp4285
(dp4286
g73
(dp4287
g81
I3
ssg82
g4281
sg75
(lp4288
g111
asbasbasbag68
(g84
g70
NtRp4289
(dp4290
g73
(dp4291
sg82
g4260
sg75
(lp4292
g68
(g89
g70
NtRp4293
(dp4294
g73
(dp4295
sg82
g4289
sg75
(lp4296
g68
(g69
g70
NtRp4297
(dp4298
g73
(dp4299
g81
I3
ssg82
g4293
sg75
(lp4300
S'None'
p4301
asbasbasbag68
(g84
g70
NtRp4302
(dp4303
g73
(dp4304
sg82
g4260
sg75
(lp4305
g68
(g89
g70
NtRp4306
(dp4307
g73
(dp4308
sg82
g4302
sg75
(lp4309
g68
(g69
g70
NtRp4310
(dp4311
g73
(dp4312
g81
I3
ssg82
g4306
sg75
(lp4313
g68
(g77
g70
NtRp4314
(dp4315
g73
(dp4316
g81
I2
ssg82
Nsg75
(lp4317
g68
(g84
g70
NtRp4318
(dp4319
g73
(dp4320
sg82
g4314
sg75
(lp4321
g68
(g89
g70
NtRp4322
(dp4323
g73
(dp4324
sg82
g4318
sg75
(lp4325
g68
(g69
g70
NtRp4326
(dp4327
g73
(dp4328
g81
I2
ssg82
g4322
sg75
(lp4329
g68
(g77
g70
NtRp4330
(dp4331
g73
(dp4332
g81
I1
ssg82
Nsg75
(lp4333
g68
(g84
g70
NtRp4334
(dp4335
g73
(dp4336
sg82
g4330
sg75
(lp4337
g68
(g89
g70
NtRp4338
(dp4339
g73
(dp4340
sg82
g4334
sg75
(lp4341
g68
(g69
g70
NtRp4342
(dp4343
g73
(dp4344
g81
I1
ssg82
g4338
sg75
(lp4345
g4205
(S's\x0c\x00\x00\x00User Profile'
tRp4346
asbasbasbag68
(g84
g70
NtRp4347
(dp4348
g73
(dp4349
sg82
g4330
sg75
(lp4350
g68
(g89
g70
NtRp4351
(dp4352
g73
(dp4353
sg82
g4347
sg75
(lp4354
g68
(g69
g70
NtRp4355
(dp4356
g73
(dp4357
g81
I1
ssg82
g4351
sg75
(lp4358
I00
asbasbasbag68
(g84
g70
NtRp4359
(dp4360
g73
(dp4361
sg82
g4330
sg75
(lp4362
g68
(g89
g70
NtRp4363
(dp4364
g73
(dp4365
sg82
g4359
sg75
(lp4366
g68
(g69
g70
NtRp4367
(dp4368
g73
(dp4369
g81
I1
ssg82
g4363
sg75
(lp4370
S'/Book_Shelf_copy/default/user_profile'
p4371
asbasbasbasbasbasbasbag68
(g84
g70
NtRp4372
(dp4373
g73
(dp4374
sg82
g4314
sg75
(lp4375
g68
(g89
g70
NtRp4376
(dp4377
g73
(dp4378
sg82
g4372
sg75
(lp4379
g68
(g69
g70
NtRp4380
(dp4381
g73
(dp4382
g81
I2
ssg82
g4376
sg75
(lp4383
g68
(g77
g70
NtRp4384
(dp4385
g73
(dp4386
g81
I1
ssg82
Nsg75
(lp4387
g68
(g84
g70
NtRp4388
(dp4389
g73
(dp4390
sg82
g4384
sg75
(lp4391
g68
(g89
g70
NtRp4392
(dp4393
g73
(dp4394
sg82
g4388
sg75
(lp4395
g68
(g69
g70
NtRp4396
(dp4397
g73
(dp4398
g81
I1
ssg82
g4392
sg75
(lp4399
g4205
(S's\x13\x00\x00\x00Create User Profile'
tRp4400
asbasbasbag68
(g84
g70
NtRp4401
(dp4402
g73
(dp4403
sg82
g4384
sg75
(lp4404
g68
(g89
g70
NtRp4405
(dp4406
g73
(dp4407
sg82
g4401
sg75
(lp4408
g68
(g69
g70
NtRp4409
(dp4410
g73
(dp4411
g81
I1
ssg82
g4405
sg75
(lp4412
I00
asbasbasbag68
(g84
g70
NtRp4413
(dp4414
g73
(dp4415
sg82
g4384
sg75
(lp4416
g68
(g89
g70
NtRp4417
(dp4418
g73
(dp4419
sg82
g4413
sg75
(lp4420
g68
(g69
g70
NtRp4421
(dp4422
g73
(dp4423
g81
I1
ssg82
g4417
sg75
(lp4424
S'/Book_Shelf_copy/default/create_user_profile'
p4425
asbasbasbasbasbasbasbag68
(g84
g70
NtRp4426
(dp4427
g73
(dp4428
sg82
g4314
sg75
(lp4429
g68
(g89
g70
NtRp4430
(dp4431
g73
(dp4432
sg82
g4426
sg75
(lp4433
g68
(g69
g70
NtRp4434
(dp4435
g73
(dp4436
g81
I2
ssg82
g4430
sg75
(lp4437
g68
(g77
g70
NtRp4438
(dp4439
g73
(dp4440
g81
I1
ssg82
Nsg75
(lp4441
g68
(g84
g70
NtRp4442
(dp4443
g73
(dp4444
sg82
g4438
sg75
(lp4445
g68
(g89
g70
NtRp4446
(dp4447
g73
(dp4448
sg82
g4442
sg75
(lp4449
g68
(g69
g70
NtRp4450
(dp4451
g73
(dp4452
g81
I1
ssg82
g4446
sg75
(lp4453
g4205
(S's\x13\x00\x00\x00Update User Profile'
tRp4454
asbasbasbag68
(g84
g70
NtRp4455
(dp4456
g73
(dp4457
sg82
g4438
sg75
(lp4458
g68
(g89
g70
NtRp4459
(dp4460
g73
(dp4461
sg82
g4455
sg75
(lp4462
g68
(g69
g70
NtRp4463
(dp4464
g73
(dp4465
g81
I1
ssg82
g4459
sg75
(lp4466
I00
asbasbasbag68
(g84
g70
NtRp4467
(dp4468
g73
(dp4469
sg82
g4438
sg75
(lp4470
g68
(g89
g70
NtRp4471
(dp4472
g73
(dp4473
sg82
g4467
sg75
(lp4474
g68
(g69
g70
NtRp4475
(dp4476
g73
(dp4477
g81
I1
ssg82
g4471
sg75
(lp4478
S'/Book_Shelf_copy/default/update_user_profile'
p4479
asbasbasbasbasbasbasbasbasbasbasbasbasbasbasbag68
(g84
g70
NtRp4480
(dp4481
g73
(dp4482
sg82
g4173
sg75
(lp4483
g68
(g89
g70
NtRp4484
(dp4485
g73
(dp4486
sg82
g4480
sg75
(lp4487
g68
(g69
g70
NtRp4488
(dp4489
g73
(dp4490
g81
I4
ssg82
g4484
sg75
(lp4491
g68
(g77
g70
NtRp4492
(dp4493
g73
(dp4494
g81
I3
ssg82
Nsg75
(lp4495
g68
(g84
g70
NtRp4496
(dp4497
g73
(dp4498
sg82
g4492
sg75
(lp4499
g68
(g89
g70
NtRp4500
(dp4501
g73
(dp4502
sg82
g4496
sg75
(lp4503
g68
(g69
g70
NtRp4504
(dp4505
g73
(dp4506
g81
I3
ssg82
g4500
sg75
(lp4507
g4205
(S't\x04\x00\x00\x00Book'
tRp4508
asbasbasbag68
(g84
g70
NtRp4509
(dp4510
g73
(dp4511
sg82
g4492
sg75
(lp4512
g68
(g89
g70
NtRp4513
(dp4514
g73
(dp4515
sg82
g4509
sg75
(lp4516
g68
(g69
g70
NtRp4517
(dp4518
g73
(dp4519
g81
I3
ssg82
g4513
sg75
(lp4520
g111
asbasbasbag68
(g84
g70
NtRp4521
(dp4522
g73
(dp4523
sg82
g4492
sg75
(lp4524
g68
(g89
g70
NtRp4525
(dp4526
g73
(dp4527
sg82
g4521
sg75
(lp4528
g68
(g69
g70
NtRp4529
(dp4530
g73
(dp4531
g81
I3
ssg82
g4525
sg75
(lp4532
S'None'
p4533
asbasbasbag68
(g84
g70
NtRp4534
(dp4535
g73
(dp4536
sg82
g4492
sg75
(lp4537
g68
(g89
g70
NtRp4538
(dp4539
g73
(dp4540
sg82
g4534
sg75
(lp4541
g68
(g69
g70
NtRp4542
(dp4543
g73
(dp4544
g81
I3
ssg82
g4538
sg75
(lp4545
g68
(g77
g70
NtRp4546
(dp4547
g73
(dp4548
g81
I2
ssg82
Nsg75
(lp4549
g68
(g84
g70
NtRp4550
(dp4551
g73
(dp4552
sg82
g4546
sg75
(lp4553
g68
(g89
g70
NtRp4554
(dp4555
g73
(dp4556
sg82
g4550
sg75
(lp4557
g68
(g69
g70
NtRp4558
(dp4559
g73
(dp4560
g81
I2
ssg82
g4554
sg75
(lp4561
g68
(g77
g70
NtRp4562
(dp4563
g73
(dp4564
g81
I1
ssg82
Nsg75
(lp4565
g68
(g84
g70
NtRp4566
(dp4567
g73
(dp4568
sg82
g4562
sg75
(lp4569
g68
(g89
g70
NtRp4570
(dp4571
g73
(dp4572
sg82
g4566
sg75
(lp4573
g68
(g69
g70
NtRp4574
(dp4575
g73
(dp4576
g81
I1
ssg82
g4570
sg75
(lp4577
g4205
(S's\x0c\x00\x00\x00Book Profile'
tRp4578
asbasbasbag68
(g84
g70
NtRp4579
(dp4580
g73
(dp4581
sg82
g4562
sg75
(lp4582
g68
(g89
g70
NtRp4583
(dp4584
g73
(dp4585
sg82
g4579
sg75
(lp4586
g68
(g69
g70
NtRp4587
(dp4588
g73
(dp4589
g81
I1
ssg82
g4583
sg75
(lp4590
I00
asbasbasbag68
(g84
g70
NtRp4591
(dp4592
g73
(dp4593
sg82
g4562
sg75
(lp4594
g68
(g89
g70
NtRp4595
(dp4596
g73
(dp4597
sg82
g4591
sg75
(lp4598
g68
(g69
g70
NtRp4599
(dp4600
g73
(dp4601
g81
I1
ssg82
g4595
sg75
(lp4602
S'/Book_Shelf_copy/default/book_profile'
p4603
asbasbasbasbasbasbasbag68
(g84
g70
NtRp4604
(dp4605
g73
(dp4606
sg82
g4546
sg75
(lp4607
g68
(g89
g70
NtRp4608
(dp4609
g73
(dp4610
sg82
g4604
sg75
(lp4611
g68
(g69
g70
NtRp4612
(dp4613
g73
(dp4614
g81
I2
ssg82
g4608
sg75
(lp4615
g68
(g77
g70
NtRp4616
(dp4617
g73
(dp4618
g81
I1
ssg82
Nsg75
(lp4619
g68
(g84
g70
NtRp4620
(dp4621
g73
(dp4622
sg82
g4616
sg75
(lp4623
g68
(g89
g70
NtRp4624
(dp4625
g73
(dp4626
sg82
g4620
sg75
(lp4627
g68
(g69
g70
NtRp4628
(dp4629
g73
(dp4630
g81
I1
ssg82
g4624
sg75
(lp4631
g4205
(S's\x13\x00\x00\x00Create Book Profile'
tRp4632
asbasbasbag68
(g84
g70
NtRp4633
(dp4634
g73
(dp4635
sg82
g4616
sg75
(lp4636
g68
(g89
g70
NtRp4637
(dp4638
g73
(dp4639
sg82
g4633
sg75
(lp4640
g68
(g69
g70
NtRp4641
(dp4642
g73
(dp4643
g81
I1
ssg82
g4637
sg75
(lp4644
I00
asbasbasbag68
(g84
g70
NtRp4645
(dp4646
g73
(dp4647
sg82
g4616
sg75
(lp4648
g68
(g89
g70
NtRp4649
(dp4650
g73
(dp4651
sg82
g4645
sg75
(lp4652
g68
(g69
g70
NtRp4653
(dp4654
g73
(dp4655
g81
I1
ssg82
g4649
sg75
(lp4656
S'/Book_Shelf_copy/default/create_book_profile'
p4657
asbasbasbasbasbasbasbag68
(g84
g70
NtRp4658
(dp4659
g73
(dp4660
sg82
g4546
sg75
(lp4661
g68
(g89
g70
NtRp4662
(dp4663
g73
(dp4664
sg82
g4658
sg75
(lp4665
g68
(g69
g70
NtRp4666
(dp4667
g73
(dp4668
g81
I2
ssg82
g4662
sg75
(lp4669
g68
(g77
g70
NtRp4670
(dp4671
g73
(dp4672
g81
I1
ssg82
Nsg75
(lp4673
g68
(g84
g70
NtRp4674
(dp4675
g73
(dp4676
sg82
g4670
sg75
(lp4677
g68
(g89
g70
NtRp4678
(dp4679
g73
(dp4680
sg82
g4674
sg75
(lp4681
g68
(g69
g70
NtRp4682
(dp4683
g73
(dp4684
g81
I1
ssg82
g4678
sg75
(lp4685
g4205
(S's\x13\x00\x00\x00Update Book Profile'
tRp4686
asbasbasbag68
(g84
g70
NtRp4687
(dp4688
g73
(dp4689
sg82
g4670
sg75
(lp4690
g68
(g89
g70
NtRp4691
(dp4692
g73
(dp4693
sg82
g4687
sg75
(lp4694
g68
(g69
g70
NtRp4695
(dp4696
g73
(dp4697
g81
I1
ssg82
g4691
sg75
(lp4698
I00
asbasbasbag68
(g84
g70
NtRp4699
(dp4700
g73
(dp4701
sg82
g4670
sg75
(lp4702
g68
(g89
g70
NtRp4703
(dp4704
g73
(dp4705
sg82
g4699
sg75
(lp4706
g68
(g69
g70
NtRp4707
(dp4708
g73
(dp4709
g81
I1
ssg82
g4703
sg75
(lp4710
S'/Book_Shelf_copy/default/update_book_profile'
p4711
asbasbasbasbasbasbasbasbasbasbasbasbasbasbasbag68
(g84
g70
NtRp4712
(dp4713
g73
(dp4714
sg82
g4173
sg75
(lp4715
g68
(g89
g70
NtRp4716
(dp4717
g73
(dp4718
sg82
g4712
sg75
(lp4719
g68
(g69
g70
NtRp4720
(dp4721
g73
(dp4722
g81
I4
ssg82
g4716
sg75
(lp4723
g68
(g77
g70
NtRp4724
(dp4725
g73
(dp4726
g81
I3
ssg82
Nsg75
(lp4727
g68
(g84
g70
NtRp4728
(dp4729
g73
(dp4730
sg82
g4724
sg75
(lp4731
g68
(g89
g70
NtRp4732
(dp4733
g73
(dp4734
sg82
g4728
sg75
(lp4735
g68
(g69
g70
NtRp4736
(dp4737
g73
(dp4738
g81
I3
ssg82
g4732
sg75
(lp4739
g4205
(S's\n\x00\x00\x00Book Shelf'
tRp4740
asbasbasbag68
(g84
g70
NtRp4741
(dp4742
g73
(dp4743
sg82
g4724
sg75
(lp4744
g68
(g89
g70
NtRp4745
(dp4746
g73
(dp4747
sg82
g4741
sg75
(lp4748
g68
(g69
g70
NtRp4749
(dp4750
g73
(dp4751
g81
I3
ssg82
g4745
sg75
(lp4752
g111
asbasbasbag68
(g84
g70
NtRp4753
(dp4754
g73
(dp4755
sg82
g4724
sg75
(lp4756
g68
(g89
g70
NtRp4757
(dp4758
g73
(dp4759
sg82
g4753
sg75
(lp4760
g68
(g69
g70
NtRp4761
(dp4762
g73
(dp4763
g81
I3
ssg82
g4757
sg75
(lp4764
S'None'
p4765
asbasbasbag68
(g84
g70
NtRp4766
(dp4767
g73
(dp4768
sg82
g4724
sg75
(lp4769
g68
(g89
g70
NtRp4770
(dp4771
g73
(dp4772
sg82
g4766
sg75
(lp4773
g68
(g69
g70
NtRp4774
(dp4775
g73
(dp4776
g81
I3
ssg82
g4770
sg75
(lp4777
g68
(g77
g70
NtRp4778
(dp4779
g73
(dp4780
g81
I2
ssg82
Nsg75
(lp4781
g68
(g84
g70
NtRp4782
(dp4783
g73
(dp4784
sg82
g4778
sg75
(lp4785
g68
(g89
g70
NtRp4786
(dp4787
g73
(dp4788
sg82
g4782
sg75
(lp4789
g68
(g69
g70
NtRp4790
(dp4791
g73
(dp4792
g81
I2
ssg82
g4786
sg75
(lp4793
g68
(g77
g70
NtRp4794
(dp4795
g73
(dp4796
g81
I1
ssg82
Nsg75
(lp4797
g68
(g84
g70
NtRp4798
(dp4799
g73
(dp4800
sg82
g4794
sg75
(lp4801
g68
(g89
g70
NtRp4802
(dp4803
g73
(dp4804
sg82
g4798
sg75
(lp4805
g68
(g69
g70
NtRp4806
(dp4807
g73
(dp4808
g81
I1
ssg82
g4802
sg75
(lp4809
g4205
(S's\n\x00\x00\x00Book Shelf'
tRp4810
asbasbasbag68
(g84
g70
NtRp4811
(dp4812
g73
(dp4813
sg82
g4794
sg75
(lp4814
g68
(g89
g70
NtRp4815
(dp4816
g73
(dp4817
sg82
g4811
sg75
(lp4818
g68
(g69
g70
NtRp4819
(dp4820
g73
(dp4821
g81
I1
ssg82
g4815
sg75
(lp4822
I00
asbasbasbag68
(g84
g70
NtRp4823
(dp4824
g73
(dp4825
sg82
g4794
sg75
(lp4826
g68
(g89
g70
NtRp4827
(dp4828
g73
(dp4829
sg82
g4823
sg75
(lp4830
g68
(g69
g70
NtRp4831
(dp4832
g73
(dp4833
g81
I1
ssg82
g4827
sg75
(lp4834
S'/Book_Shelf_copy/default/book_shelf'
p4835
asbasbasbasbasbasbasbag68
(g84
g70
NtRp4836
(dp4837
g73
(dp4838
sg82
g4778
sg75
(lp4839
g68
(g89
g70
NtRp4840
(dp4841
g73
(dp4842
sg82
g4836
sg75
(lp4843
g68
(g69
g70
NtRp4844
(dp4845
g73
(dp4846
g81
I2
ssg82
g4840
sg75
(lp4847
g68
(g77
g70
NtRp4848
(dp4849
g73
(dp4850
g81
I1
ssg82
Nsg75
(lp4851
g68
(g84
g70
NtRp4852
(dp4853
g73
(dp4854
sg82
g4848
sg75
(lp4855
g68
(g89
g70
NtRp4856
(dp4857
g73
(dp4858
sg82
g4852
sg75
(lp4859
g68
(g69
g70
NtRp4860
(dp4861
g73
(dp4862
g81
I1
ssg82
g4856
sg75
(lp4863
g4205
(S's\x11\x00\x00\x00Create Book Shelf'
tRp4864
asbasbasbag68
(g84
g70
NtRp4865
(dp4866
g73
(dp4867
sg82
g4848
sg75
(lp4868
g68
(g89
g70
NtRp4869
(dp4870
g73
(dp4871
sg82
g4865
sg75
(lp4872
g68
(g69
g70
NtRp4873
(dp4874
g73
(dp4875
g81
I1
ssg82
g4869
sg75
(lp4876
I00
asbasbasbag68
(g84
g70
NtRp4877
(dp4878
g73
(dp4879
sg82
g4848
sg75
(lp4880
g68
(g89
g70
NtRp4881
(dp4882
g73
(dp4883
sg82
g4877
sg75
(lp4884
g68
(g69
g70
NtRp4885
(dp4886
g73
(dp4887
g81
I1
ssg82
g4881
sg75
(lp4888
S'/Book_Shelf_copy/default/create_book_shelf'
p4889
asbasbasbasbasbasbasbag68
(g84
g70
NtRp4890
(dp4891
g73
(dp4892
sg82
g4778
sg75
(lp4893
g68
(g89
g70
NtRp4894
(dp4895
g73
(dp4896
sg82
g4890
sg75
(lp4897
g68
(g69
g70
NtRp4898
(dp4899
g73
(dp4900
g81
I2
ssg82
g4894
sg75
(lp4901
g68
(g77
g70
NtRp4902
(dp4903
g73
(dp4904
g81
I1
ssg82
Nsg75
(lp4905
g68
(g84
g70
NtRp4906
(dp4907
g73
(dp4908
sg82
g4902
sg75
(lp4909
g68
(g89
g70
NtRp4910
(dp4911
g73
(dp4912
sg82
g4906
sg75
(lp4913
g68
(g69
g70
NtRp4914
(dp4915
g73
(dp4916
g81
I1
ssg82
g4910
sg75
(lp4917
g4205
(S's\x11\x00\x00\x00Update Book Shelf'
tRp4918
asbasbasbag68
(g84
g70
NtRp4919
(dp4920
g73
(dp4921
sg82
g4902
sg75
(lp4922
g68
(g89
g70
NtRp4923
(dp4924
g73
(dp4925
sg82
g4919
sg75
(lp4926
g68
(g69
g70
NtRp4927
(dp4928
g73
(dp4929
g81
I1
ssg82
g4923
sg75
(lp4930
I00
asbasbasbag68
(g84
g70
NtRp4931
(dp4932
g73
(dp4933
sg82
g4902
sg75
(lp4934
g68
(g89
g70
NtRp4935
(dp4936
g73
(dp4937
sg82
g4931
sg75
(lp4938
g68
(g69
g70
NtRp4939
(dp4940
g73
(dp4941
g81
I1
ssg82
g4935
sg75
(lp4942
S'/Book_Shelf_copy/default/update_book_shelf'
p4943
asbasbasbasbasbasbasbasbasbasbasbasbasbasbasbasbasbasbasbag68
(g84
g70
NtRp4944
(dp4945
g73
(dp4946
sg82
g3649
sg75
(lp4947
g68
(g89
g70
NtRp4948
(dp4949
g73
(dp4950
g93
g94
ssg82
g4944
sg75
(lp4951
S'meta'
p4952
asbag68
(g89
g70
NtRp4953
(dp4954
g73
(dp4955
g100
g101
ssg82
g4944
sg75
(lp4956
S':'
asbag68
(g89
g70
NtRp4957
(dp4958
g73
(dp4959
sg82
g4944
sg75
(lp4960
g68
(g69
g70
NtRp4961
(dp4962
g73
(dp4963
g81
I5
ssg82
g4957
sg75
(lp4964
g68
(g77
g70
NtRp4965
(dp4966
g73
(dp4967
g81
I4
ssg82
Nsg75
(lp4968
g68
(g84
g70
NtRp4969
(dp4970
g73
(dp4971
sg82
g4965
sg75
(lp4972
g68
(g89
g70
NtRp4973
(dp4974
g73
(dp4975
g93
g94
ssg82
g4969
sg75
(lp4976
S'author'
p4977
asbag68
(g89
g70
NtRp4978
(dp4979
g73
(dp4980
g100
g101
ssg82
g4969
sg75
(lp4981
S':'
asbag68
(g89
g70
NtRp4982
(dp4983
g73
(dp4984
sg82
g4969
sg75
(lp4985
g68
(g69
g70
NtRp4986
(dp4987
g73
(dp4988
g81
I4
ssg82
g4982
sg75
(lp4989
S'Your Name <you@example.com>'
p4990
asbasbasbag68
(g84
g70
NtRp4991
(dp4992
g73
(dp4993
sg82
g4965
sg75
(lp4994
g68
(g89
g70
NtRp4995
(dp4996
g73
(dp4997
g93
g94
ssg82
g4991
sg75
(lp4998
S'copyright'
p4999
asbag68
(g89
g70
NtRp5000
(dp5001
g73
(dp5002
g100
g101
ssg82
g4991
sg75
(lp5003
S':'
asbag68
(g89
g70
NtRp5004
(dp5005
g73
(dp5006
sg82
g4991
sg75
(lp5007
g68
(g69
g70
NtRp5008
(dp5009
g73
(dp5010
g81
I4
ssg82
g5004
sg75
(lp5011
S'Copyright 2011'
p5012
asbasbasbag68
(g84
g70
NtRp5013
(dp5014
g73
(dp5015
sg82
g4965
sg75
(lp5016
g68
(g89
g70
NtRp5017
(dp5018
g73
(dp5019
g93
g94
ssg82
g5013
sg75
(lp5020
S'description'
p5021
asbag68
(g89
g70
NtRp5022
(dp5023
g73
(dp5024
g100
g101
ssg82
g5013
sg75
(lp5025
S':'
asbag68
(g89
g70
NtRp5026
(dp5027
g73
(dp5028
sg82
g5013
sg75
(lp5029
g68
(g69
g70
NtRp5030
(dp5031
g73
(dp5032
g81
I4
ssg82
g5026
sg75
(lp5033
S'a cool new app'
p5034
asbasbasbag68
(g84
g70
NtRp5035
(dp5036
g73
(dp5037
sg82
g4965
sg75
(lp5038
g68
(g89
g70
NtRp5039
(dp5040
g73
(dp5041
g93
g94
ssg82
g5035
sg75
(lp5042
S'generator'
p5043
asbag68
(g89
g70
NtRp5044
(dp5045
g73
(dp5046
g100
g101
ssg82
g5035
sg75
(lp5047
S':'
asbag68
(g89
g70
NtRp5048
(dp5049
g73
(dp5050
sg82
g5035
sg75
(lp5051
g68
(g69
g70
NtRp5052
(dp5053
g73
(dp5054
g81
I4
ssg82
g5048
sg75
(lp5055
S'Web2py Web Framework'
p5056
asbasbasbag68
(g84
g70
NtRp5057
(dp5058
g73
(dp5059
sg82
g4965
sg75
(lp5060
g68
(g89
g70
NtRp5061
(dp5062
g73
(dp5063
g93
g94
ssg82
g5057
sg75
(lp5064
S'keywords'
p5065
asbag68
(g89
g70
NtRp5066
(dp5067
g73
(dp5068
g100
g101
ssg82
g5057
sg75
(lp5069
S':'
asbag68
(g89
g70
NtRp5070
(dp5071
g73
(dp5072
sg82
g5057
sg75
(lp5073
g68
(g69
g70
NtRp5074
(dp5075
g73
(dp5076
g81
I4
ssg82
g5070
sg75
(lp5077
S'web2py, python, framework'
p5078
asbasbasbasbasbasbasbag68
(g84
g70
NtRp5079
(dp5080
g73
(dp5081
sg82
g3649
sg75
(lp5082
g68
(g89
g70
NtRp5083
(dp5084
g73
(dp5085
g93
g94
ssg82
g5079
sg75
(lp5086
S'postprocessing'
p5087
asbag68
(g89
g70
NtRp5088
(dp5089
g73
(dp5090
g100
g101
ssg82
g5079
sg75
(lp5091
S':'
asbag68
(g89
g70
NtRp5092
(dp5093
g73
(dp5094
sg82
g5079
sg75
(lp5095
g68
(g69
g70
NtRp5096
(dp5097
g73
(dp5098
g81
I5
ssg82
g5092
sg75
(lp5099
g68
(g77
g70
NtRp5100
(dp5101
g73
(dp5102
g81
I4
ssg82
Nsg75
(lp5103
sbasbasbasbag68
(g84
g70
NtRp5104
(dp5105
g73
(dp5106
sg82
g3649
sg75
(lp5107
g68
(g89
g70
NtRp5108
(dp5109
g73
(dp5110
g93
g94
ssg82
g5104
sg75
(lp5111
S'session_file'
p5112
asbag68
(g89
g70
NtRp5113
(dp5114
g73
(dp5115
g100
g101
ssg82
g5104
sg75
(lp5116
S':'
asbag68
(g89
g70
NtRp5117
(dp5118
g73
(dp5119
sg82
g5104
sg75
(lp5120
g68
(g69
g70
NtRp5121
(dp5122
g73
(dp5123
g81
I5
ssg82
g5117
sg75
(lp5124
S"<open file '/Users/ianaboneva/Dropbox/DePaul/CSC 438 - Web Applications/web2py/applications/Book_Shelf_copy/sessions/127.0.0.1-eeba29a1-713d-4626-a1ad-4627ea1d2e7a', mode 'rb+' at 0x109b37f60>"
p5125
asbasbasbag68
(g84
g70
NtRp5126
(dp5127
g73
(dp5128
sg82
g3649
sg75
(lp5129
g68
(g89
g70
NtRp5130
(dp5131
g73
(dp5132
g93
g94
ssg82
g5126
sg75
(lp5133
S'session_filename'
p5134
asbag68
(g89
g70
NtRp5135
(dp5136
g73
(dp5137
g100
g101
ssg82
g5126
sg75
(lp5138
S':'
asbag68
(g89
g70
NtRp5139
(dp5140
g73
(dp5141
sg82
g5126
sg75
(lp5142
g68
(g69
g70
NtRp5143
(dp5144
g73
(dp5145
g81
I5
ssg82
g5139
sg75
(lp5146
S'/Users/ianaboneva/Dropbox/DePaul/CSC 438 - Web Applications/web2py/applications/Book_Shelf_copy/sessions/127.0.0.1-eeba29a1-713d-4626-a1ad-4627ea1d2e7a'
p5147
asbasbasbag68
(g84
g70
NtRp5148
(dp5149
g73
(dp5150
sg82
g3649
sg75
(lp5151
g68
(g89
g70
NtRp5152
(dp5153
g73
(dp5154
g93
g94
ssg82
g5148
sg75
(lp5155
S'session_id'
p5156
asbag68
(g89
g70
NtRp5157
(dp5158
g73
(dp5159
g100
g101
ssg82
g5148
sg75
(lp5160
S':'
asbag68
(g89
g70
NtRp5161
(dp5162
g73
(dp5163
sg82
g5148
sg75
(lp5164
g68
(g69
g70
NtRp5165
(dp5166
g73
(dp5167
g81
I5
ssg82
g5161
sg75
(lp5168
S'127.0.0.1-eeba29a1-713d-4626-a1ad-4627ea1d2e7a'
p5169
asbasbasbag68
(g84
g70
NtRp5170
(dp5171
g73
(dp5172
sg82
g3649
sg75
(lp5173
g68
(g89
g70
NtRp5174
(dp5175
g73
(dp5176
g93
g94
ssg82
g5170
sg75
(lp5177
S'session_id_name'
p5178
asbag68
(g89
g70
NtRp5179
(dp5180
g73
(dp5181
g100
g101
ssg82
g5170
sg75
(lp5182
S':'
asbag68
(g89
g70
NtRp5183
(dp5184
g73
(dp5185
sg82
g5170
sg75
(lp5186
g68
(g69
g70
NtRp5187
(dp5188
g73
(dp5189
g81
I5
ssg82
g5183
sg75
(lp5190
g3706
asbasbasbag68
(g84
g70
NtRp5191
(dp5192
g73
(dp5193
sg82
g3649
sg75
(lp5194
g68
(g89
g70
NtRp5195
(dp5196
g73
(dp5197
g93
g94
ssg82
g5191
sg75
(lp5198
S'session_locked'
p5199
asbag68
(g89
g70
NtRp5200
(dp5201
g73
(dp5202
g100
g101
ssg82
g5191
sg75
(lp5203
S':'
asbag68
(g89
g70
NtRp5204
(dp5205
g73
(dp5206
sg82
g5191
sg75
(lp5207
g68
(g69
g70
NtRp5208
(dp5209
g73
(dp5210
g81
I5
ssg82
g5204
sg75
(lp5211
g1874
asbasbasbag68
(g84
g70
NtRp5212
(dp5213
g73
(dp5214
sg82
g3649
sg75
(lp5215
g68
(g89
g70
NtRp5216
(dp5217
g73
(dp5218
g93
g94
ssg82
g5212
sg75
(lp5219
S'session_new'
p5220
asbag68
(g89
g70
NtRp5221
(dp5222
g73
(dp5223
g100
g101
ssg82
g5212
sg75
(lp5224
S':'
asbag68
(g89
g70
NtRp5225
(dp5226
g73
(dp5227
sg82
g5212
sg75
(lp5228
g68
(g69
g70
NtRp5229
(dp5230
g73
(dp5231
g81
I5
ssg82
g5225
sg75
(lp5232
g111
asbasbasbag68
(g84
g70
NtRp5233
(dp5234
g73
(dp5235
sg82
g3649
sg75
(lp5236
g68
(g89
g70
NtRp5237
(dp5238
g73
(dp5239
g93
g94
ssg82
g5233
sg75
(lp5240
S'status'
p5241
asbag68
(g89
g70
NtRp5242
(dp5243
g73
(dp5244
g100
g101
ssg82
g5233
sg75
(lp5245
S':'
asbag68
(g89
g70
NtRp5246
(dp5247
g73
(dp5248
sg82
g5233
sg75
(lp5249
g68
(g69
g70
NtRp5250
(dp5251
g73
(dp5252
g81
I5
ssg82
g5246
sg75
(lp5253
S'200'
p5254
asbasbasbag68
(g84
g70
NtRp5255
(dp5256
g73
(dp5257
sg82
g3649
sg75
(lp5258
g68
(g89
g70
NtRp5259
(dp5260
g73
(dp5261
g93
g94
ssg82
g5255
sg75
(lp5262
S'title'
p5263
asbag68
(g89
g70
NtRp5264
(dp5265
g73
(dp5266
g100
g101
ssg82
g5255
sg75
(lp5267
S':'
asbag68
(g89
g70
NtRp5268
(dp5269
g73
(dp5270
sg82
g5255
sg75
(lp5271
g68
(g69
g70
NtRp5272
(dp5273
g73
(dp5274
g81
I5
ssg82
g5268
sg75
(lp5275
S'Book Shelf Copy'
p5276
asbasbasbag68
(g84
g70
NtRp5277
(dp5278
g73
(dp5279
sg82
g3649
sg75
(lp5280
g68
(g89
g70
NtRp5281
(dp5282
g73
(dp5283
g93
g94
ssg82
g5277
sg75
(lp5284
g2538
asbag68
(g89
g70
NtRp5285
(dp5286
g73
(dp5287
g100
g101
ssg82
g5277
sg75
(lp5288
S':'
asbag68
(g89
g70
NtRp5289
(dp5290
g73
(dp5291
sg82
g5277
sg75
(lp5292
g68
(g69
g70
NtRp5293
(dp5294
g73
(dp5295
g81
I5
ssg82
g5289
sg75
(lp5296
g2551
asbasbasbag68
(g84
g70
NtRp5297
(dp5298
g73
(dp5299
sg82
g3649
sg75
(lp5300
g68
(g89
g70
NtRp5301
(dp5302
g73
(dp5303
g93
g94
ssg82
g5297
sg75
(lp5304
S'view'
p5305
asbag68
(g89
g70
NtRp5306
(dp5307
g73
(dp5308
g100
g101
ssg82
g5297
sg75
(lp5309
S':'
asbag68
(g89
g70
NtRp5310
(dp5311
g73
(dp5312
sg82
g5297
sg75
(lp5313
g68
(g69
g70
NtRp5314
(dp5315
g73
(dp5316
g81
I5
ssg82
g5310
sg75
(lp5317
S'default/index.html'
p5318
asbasbasbasbasbsS'locals'
p5319
(dp5320
g4
S"'/Users/ianaboneva/Dropbox/DePaul/CSC 438 - Web A...plications/Book_Shelf_copy/controllers/default.py'"
p5321
sg6
S"'# -*- coding: utf-8 -*-\\n# this file is released ...=crud())\\n\\nresponse._vars=response._caller(index)\\n'"
p5322
sssS'traceback'
p5323
S'Traceback (most recent call last):\n  File "/Users/ianaboneva/Dropbox/DePaul/CSC 438 - Web Applications/web2py/gluon/restricted.py", line 204, in restricted\n    ccode = compile2(code,layer)\n  File "/Users/ianaboneva/Dropbox/DePaul/CSC 438 - Web Applications/web2py/gluon/restricted.py", line 189, in compile2\n    return compile(code.rstrip().replace(\'\\r\\n\',\'\\n\')+\'\\n\', layer, \'exec\')\n  File "/Users/ianaboneva/Dropbox/DePaul/CSC 438 - Web Applications/web2py/applications/Book_Shelf_copy/controllers/default.py", line 92\n    <<<<<<< HEAD\n     ^\nIndentationError: expected an indented block\n'
p5324
s.