(dp1
S'output'
p2
S"<type 'exceptions.NameError'> name 'shevles' is not defined"
p3
sS'layer'
p4
S'/Users/ianaboneva/Downloads/web2py/applications/Book_Shelf/views/default/book_shelf.html'
p5
sS'code'
p6
S'response.write(\'<!DOCTYPE html>\\n<!-- paulirish.com/2008/conditional-stylesheets-vs-css-hacks-answer-neither/ -->\\n<!--[if lt IE 7]><html class="ie ie6 ie-lte9 ie-lte8 ie-lte7 no-js" lang="\', escape=False)\nresponse.write(T.accepted_language or \'en\')\nresponse.write(\'"> <![endif]-->\\n<!--[if IE 7]><html class="ie ie7 ie-lte9 ie-lte8 ie-lte7 no-js" lang="\', escape=False)\nresponse.write(T.accepted_language or \'en\')\nresponse.write(\'"> <![endif]-->\\n<!--[if IE 8]><html class="ie ie8 ie-lte9 ie-lte8 no-js" lang="\', escape=False)\nresponse.write(T.accepted_language or \'en\')\nresponse.write(\'"> <![endif]-->\\n<!--[if IE 9]><html class="ie9 ie-lte9 no-js" lang="\', escape=False)\nresponse.write(T.accepted_language or \'en\')\nresponse.write(\'"> <![endif]-->\\n<!--[if (gt IE 9)|!(IE)]><!--> <html class="no-js" lang="\', escape=False)\nresponse.write(T.accepted_language or \'en\')\nresponse.write(\'"> <!--<![endif]-->\\n<head>\\n  <meta charset="utf-8" />\\n  <!-- www.phpied.com/conditional-comments-block-downloads/ -->\\n  <!-- Always force latest IE rendering engine\\n\\t   (even in intranet) & Chrome Frame\\n\\t   Remove this if you use the .htaccess -->\\n  <!--[if IE]>\\n    <meta http-equiv="X-UA-Compatible" content="IE=edge\', escape=False)\nresponse.write(not request.is_local and \',chrome=1\' or \'\')\nresponse.write(\'">\\n  <![endif]-->\\n  \\n  <title>\', escape=False)\nresponse.write(response.title or request.application)\nresponse.write(\'</title>\\n  \\n  <!-- http://dev.w3.org/html5/markup/meta.name.html -->\\n  <meta name="application-name" content="\', escape=False)\nresponse.write(request.application)\nresponse.write(\'" />\\n  \\n  <!-- Speaking of Google, don\\\'t forget to set your site up:\\n\\t   http://google.com/webmasters -->\\n  <meta name="google-site-verification" content="" />\\n\\n  <!--  Mobile Viewport Fix\\n\\t  j.mp/mobileviewport & davidbcalhoun.com/2010/viewport-metatag\\n\\t  device-width: Occupy full width of the screen in its current orientation\\n\\t  initial-scale = 1.0 retains dimensions instead of zooming out if page height > device height\\n\\t  user-scalable = yes allows the user to zoom in -->\\n  <meta name="viewport" content="width=device-width, initial-scale=1.0, user-scalable=yes">\\n  \\n  <!-- Place favicon.ico and apple-touch-icon.png in the root of your domain and delete these references -->\\n  <link rel="shortcut icon" href="\', escape=False)\nresponse.write(URL(\'static\',\'favicon.ico\'))\nresponse.write(\'" type="image/x-icon">\\n  <link rel="apple-touch-icon" href="\', escape=False)\nresponse.write(URL(\'static\',\'favicon.png\'))\nresponse.write(\'">\\n\\n  <!-- All JavaScript at the bottom, except for Modernizr which enables \\n\\t   HTML5 elements & feature detects -->\\n  <script src="\', escape=False)\nresponse.write(URL(\'static\',\'js/modernizr.custom.js\'))\nresponse.write(\'"></script>  \\n\\n  <!-- include stylesheets -->\\n  \', escape=False)\nresponse.files.append(URL(\'static\',\'css/skeleton.css\'))\nresponse.files.append(URL(\'static\',\'css/web2py.css\'))\nif response.menu:\n    response.files.append(URL(\'static\',\'css/superfish.css\'))\n    response.files.append(URL(\'static\',\'js/superfish.js\'))\n    pass\nresponse.write(\'\\n\\n  \', escape=False)\nresponse.write(\'<script type="text/javascript"><!--\\n    // These variables are used by the web2py_ajax_init function in web2py_ajax.js (which is loaded below).\\n    var w2p_ajax_confirm_message = "\', escape=False)\nresponse.write(T(\'Are you sure you want to delete this object?\'))\nresponse.write(\'";\\n    var w2p_ajax_date_format = "\', escape=False)\nresponse.write(T(\'%Y-%m-%d\'))\nresponse.write(\'";\\n    var w2p_ajax_datetime_format = "\', escape=False)\nresponse.write(T(\'%Y-%m-%d %H:%M:%S\'))\nresponse.write(\'";\\n    //--></script>\\n\', escape=False)\nresponse.files.insert(0,URL(\'static\',\'js/jquery.js\'))\nresponse.files.insert(1,URL(\'static\',\'css/calendar.css\'))\nresponse.files.insert(2,URL(\'static\',\'js/calendar.js\'))\nresponse.files.insert(3,URL(\'static\',\'js/web2py.js\'))\nresponse.include_meta()\nresponse.include_files()\nresponse.write(\'\\n\', escape=False)\nresponse.write(\'\\n\\n  \', escape=False)\nif response.menu:\n    response.write(\'\\n  <script type="text/javascript">\\n    jQuery(function(){ jQuery(\\\'ul.sf-menu\\\').supersubs({minWidth:12,maxWidth:30,extraWidth:3}).superfish(); });\\n  </script>\\n  \', escape=False)\n    pass\nresponse.write(\'\\n\\n  \', escape=False)\n# using sidebars need to know what sidebar you want to use\nleft_sidebar_enabled = globals().get(\'left_sidebar_enabled\',False)\nright_sidebar_enabled = globals().get(\'right_sidebar_enabled\',False)\nmiddle_columns = {0:\'sixteen\',1:\'twelve\',2:\'eight\'}[\n(left_sidebar_enabled and 1 or 0)+(right_sidebar_enabled and 1 or 0)]\nresponse.write(\'\\n\\n  <!-- uncomment here to load jquery-ui\\n  <link rel="stylesheet" href="http://ajax.googleapis.com/ajax/libs/jqueryui/1.8.16/themes/base/jquery-ui.css" type="text/css" media="all" />\\n  <script src="http://ajax.googleapis.com/ajax/libs/jqueryui/1.8.16/jquery-ui.min.js" type="text/javascript"></script>\\n  uncomment to load jquery-ui //-->\\n</head>\\n<body>\\n  <div class="wrapper"><!-- for sticky footer -->\\n  \\n    <div class="topbar">\\n      <div class="container">    \\n        <div class="sixteen columns">\\n          <div id="navbar">\', escape=False)\nresponse.write(\'auth\' in globals() and auth.navbar(separators=(\' \',\' | \',\'\')))\nresponse.write(\'</div>\\n          \', escape=False)\nis_mobile=request.user_agent().is_mobile\nresponse.write(\'\\n\\t  \', escape=False)\nif response.menu:\n    response.write(\'\\n          <div id="menu">\\n             \', escape=False)\n    response.write(MENU(response.menu, _class=\'mobile-menu\' if is_mobile else \'sf-menu\',mobile=is_mobile))\n    response.write(\'\\n          </div>\\n          \', escape=False)\n    pass\nresponse.write(\'\\n        </div>\\n      </div>\\n    </div><!-- topbar -->\\n    \\n    <div class="flash">\', escape=False)\nresponse.write(response.flash or \'\')\nresponse.write(\'</div>\\n    \\n    <div class="header">\\n      <div class="container">         \\n        <div class="sixteen columns">\\n          <h1 class="remove-bottom" style="margin-top: .5em;">\\n          \', escape=False)\nresponse.write(response.title or request.application)\nresponse.write(\'\\n          </h1>\\n          <h5>\', escape=False)\nresponse.write(response.subtitle or \'\')\nresponse.write(\'</h5>\\n        </div>\\n        <div class="sixteen columns">\\n          <div class="statusbar clearfix">\\n            \', escape=False)\nresponse.write(\'\\n            <div class="breadcrumbs">\', escape=False)\nresponse.write(request.function.replace(\'_\', \' \').title())\nresponse.write(\'</div>\\n            \', escape=False)\nresponse.write(\'\\n            <!-- AddToAny BEGIN -->\\n            <div style="float:right; padding-top: .25em;" class="a2a_kit a2a_default_style">\\n            <a class="a2a_dd" href="http://www.addtoany.com/share_save">Share</a></div>\\n            <script type="text/javascript" src="http://static.addtoany.com/menu/page.js"></script>\\n            <!-- AddToAny END -->\\n          </div>\\n        </div>\\n      </div>\\n    </div>\\n\\n    <div class="main">\\n      <div class="container">                 \\n        \', escape=False)\nif left_sidebar_enabled:\n    response.write(\'\\n        <div class="four columns left-sidebar">\\n          \', escape=False)\n    response.write(\'\\n          <h3>Left Sidebar</h3>\\n          <p></p>\\n          \', escape=False)\n    response.write(\'\\n        </div>\\n        \', escape=False)\n    pass\nresponse.write(\'\\n        \\n        <div class="\', escape=False)\nresponse.write(middle_columns)\nresponse.write(\' columns center">\\n          \', escape=False)\nresponse.write(\'\\n          \', escape=False)\nresponse.write(\'\\n<h1>You book shelves!</h1>\\n\', escape=False)\nif len(shelves):\n    response.write(\'\\n    \', escape=False)\n    for shelf in shevles:\n        response.write(\'\\n        \', escape=False)\n        response.write(shelf.Shelf_Name)\n        response.write(\'\\n    \', escape=False)\n        pass\n    response.write(\'\\n\', escape=False)\nelse:\n    response.write(\'\\n    No shelves made\\n\', escape=False)\n    pass\nresponse.write(\'\\n\', escape=False)\nresponse.write(\'\\n          \', escape=False)\nresponse.write(\'\\n        </div>\\n        \\n        \', escape=False)\nif right_sidebar_enabled:\n    response.write(\'\\n        <div class="four columns">\\n          \', escape=False)\n    response.write(\'\\n          <h3>Right Sidebar</h3>\\n          <p></p>\\n          \', escape=False)\n    response.write(\'\\n        </div>    \\n        \', escape=False)\n    pass\nresponse.write(\'\\n        \\n      </div><!-- container -->\\n    </div><!-- main -->\\n    \\n    <div class="push"></div>\\n  </div><!-- wrapper -->\\n\\n  <div class="footer">\\n    <div class="container">    \\n      <div class="sixteen columns">\\n        \', escape=False)\nresponse.write(\' <!-- this is default footer -->\\n        <div class="footer-content clearfix">\\n          <div class="copyright">\', escape=False)\nresponse.write(T(\'Copyright\'))\nresponse.write(\' &#169; 2011</div>\\n          <div style="float: right;">\\n            <a href="http://www.web2py.com/">\\n            <img style="padding-bottom: 0;" src="\', escape=False)\nresponse.write(URL(\'static\',\'images/poweredby.png\'))\nresponse.write(\'"/>\\n            </a>\\n          </div>\\n        </div>\\n        \', escape=False)\nresponse.write(\'\\t\\n      </div>\\n    </div><!-- container -->\\n  </div><!-- footer -->\\n  \\n  <!--[if lt IE 7 ]>\\n\\t<script src="\', escape=False)\nresponse.write(URL(\'static\',\'js/dd_belatedpng.js\'))\nresponse.write(\'"></script>\\n\\t<script> DD_belatedPNG.fix(\\\'img, .png_bg\\\'); //fix any <img> or .png_bg background-images </script>\\n\\t<![endif]-->\\n  \', escape=False)\nif response.google_analytics_id:\n    response.write(\'<script type="text/javascript"> var _gaq = _gaq || []; _gaq.push([\\\'_setAccount\\\', \\\'\', escape=False)\n    response.write(response.google_analytics_id)\n    response.write("\']); _gaq.push([\'_trackPageview\']); (function() { var ga = document.createElement(\'script\'); ga.type = \'text/javascript\'; ga.async = true; ga.src = (\'https:\' == document.location.protocol ? \'https://ssl\' : \'http://www\') + \'.google-analytics.com/ga.js\'; var s = document.getElementsByTagName(\'script\')[0]; s.parentNode.insertBefore(ga, s); })(); </script> ", escape=False)\n    pass\nresponse.write(\'\\n</body>\\n</html>\\n\', escape=False)'
p7
sS'snapshot'
p8
(dp9
S'exception'
p10
(dp11
S'__hash__'
p12
S"<method-wrapper '__hash__' of exceptions.NameError object>"
p13
sS'__setattr__'
p14
S"<method-wrapper '__setattr__' of exceptions.NameError object>"
p15
sS'__reduce_ex__'
p16
S'<built-in method __reduce_ex__ of exceptions.NameError object>'
p17
sS'__getslice__'
p18
S"<method-wrapper '__getslice__' of exceptions.NameError object>"
p19
sS'__getitem__'
p20
S"<method-wrapper '__getitem__' of exceptions.NameError object>"
p21
sS'__setstate__'
p22
S'<built-in method __setstate__ of exceptions.NameError object>'
p23
sS'args'
p24
S'("name \'shevles\' is not defined",)'
p25
sS'__reduce__'
p26
S'<built-in method __reduce__ of exceptions.NameError object>'
p27
sS'__str__'
p28
S"<method-wrapper '__str__' of exceptions.NameError object>"
p29
sS'__format__'
p30
S'<built-in method __format__ of exceptions.NameError object>'
p31
sS'__getattribute__'
p32
S"<method-wrapper '__getattribute__' of exceptions.NameError object>"
p33
sS'__class__'
p34
S"<type 'exceptions.NameError'>"
p35
sS'__unicode__'
p36
S'<built-in method __unicode__ of exceptions.NameError object>'
p37
sS'__delattr__'
p38
S"<method-wrapper '__delattr__' of exceptions.NameError object>"
p39
sS'__subclasshook__'
p40
S'<built-in method __subclasshook__ of type object>'
p41
sS'__repr__'
p42
S"<method-wrapper '__repr__' of exceptions.NameError object>"
p43
sS'__dict__'
p44
S'{}'
p45
sS'__sizeof__'
p46
S'<built-in method __sizeof__ of exceptions.NameError object>'
p47
sS'__doc__'
p48
S"'Name not found globally.'"
p49
sS'__init__'
p50
S"<method-wrapper '__init__' of exceptions.NameError object>"
p51
sS'__new__'
p52
S'<built-in method __new__ of type object>'
p53
ssS'evalue'
p54
S"name 'shevles' is not defined"
p55
sS'request'
p56
ccopy_reg
_reconstructor
p57
(cgluon.html
BEAUTIFY
p58
c__builtin__
object
p59
NtRp60
(dp61
S'attributes'
p62
(dp63
sS'components'
p64
(lp65
g57
(cgluon.html
TABLE
p66
g59
NtRp67
(dp68
g62
(dp69
S'level'
p70
I5
ssS'parent'
p71
Nsg64
(lp72
g57
(cgluon.html
TR
p73
g59
NtRp74
(dp75
g62
(dp76
sg71
g67
sg64
(lp77
g57
(cgluon.html
TD
p78
g59
NtRp79
(dp80
g62
(dp81
S'_style'
p82
S'font-weight:bold;vertical-align:top'
p83
ssg71
g74
sg64
(lp84
S'ajax'
p85
asbag57
(g78
g59
NtRp86
(dp87
g62
(dp88
S'_valign'
p89
S'top'
p90
ssg71
g74
sg64
(lp91
S':'
asbag57
(g78
g59
NtRp92
(dp93
g62
(dp94
sg71
g74
sg64
(lp95
g57
(g58
g59
NtRp96
(dp97
g62
(dp98
g70
I5
ssg71
g92
sg64
(lp99
S'False'
p100
asbasbasbag57
(g73
g59
NtRp101
(dp102
g62
(dp103
sg71
g67
sg64
(lp104
g57
(g78
g59
NtRp105
(dp106
g62
(dp107
g82
g83
ssg71
g101
sg64
(lp108
S'application'
p109
asbag57
(g78
g59
NtRp110
(dp111
g62
(dp112
g89
g90
ssg71
g101
sg64
(lp113
S':'
asbag57
(g78
g59
NtRp114
(dp115
g62
(dp116
sg71
g101
sg64
(lp117
g57
(g58
g59
NtRp118
(dp119
g62
(dp120
g70
I5
ssg71
g114
sg64
(lp121
S'Book_Shelf'
p122
asbasbasbag57
(g73
g59
NtRp123
(dp124
g62
(dp125
sg71
g67
sg64
(lp126
g57
(g78
g59
NtRp127
(dp128
g62
(dp129
g82
g83
ssg71
g123
sg64
(lp130
g24
asbag57
(g78
g59
NtRp131
(dp132
g62
(dp133
g89
g90
ssg71
g123
sg64
(lp134
S':'
asbag57
(g78
g59
NtRp135
(dp136
g62
(dp137
sg71
g123
sg64
(lp138
g57
(g58
g59
NtRp139
(dp140
g62
(dp141
g70
I5
ssg71
g135
sg64
(lp142
g57
(g66
g59
NtRp143
(dp144
g62
(dp145
g70
I4
ssg71
Nsg64
(lp146
sbasbasbasbag57
(g73
g59
NtRp147
(dp148
g62
(dp149
sg71
g67
sg64
(lp150
g57
(g78
g59
NtRp151
(dp152
g62
(dp153
g82
g83
ssg71
g147
sg64
(lp154
S'body'
p155
asbag57
(g78
g59
NtRp156
(dp157
g62
(dp158
g89
g90
ssg71
g147
sg64
(lp159
S':'
asbag57
(g78
g59
NtRp160
(dp161
g62
(dp162
sg71
g147
sg64
(lp163
g57
(g58
g59
NtRp164
(dp165
g62
(dp166
g70
I5
ssg71
g160
sg64
(lp167
S'<cStringIO.StringO object at 0x1065ce1b8>'
p168
asbasbasbag57
(g73
g59
NtRp169
(dp170
g62
(dp171
sg71
g67
sg64
(lp172
g57
(g78
g59
NtRp173
(dp174
g62
(dp175
g82
g83
ssg71
g169
sg64
(lp176
S'client'
p177
asbag57
(g78
g59
NtRp178
(dp179
g62
(dp180
g89
g90
ssg71
g169
sg64
(lp181
S':'
asbag57
(g78
g59
NtRp182
(dp183
g62
(dp184
sg71
g169
sg64
(lp185
g57
(g58
g59
NtRp186
(dp187
g62
(dp188
g70
I5
ssg71
g182
sg64
(lp189
S'127.0.0.1'
p190
asbasbasbag57
(g73
g59
NtRp191
(dp192
g62
(dp193
sg71
g67
sg64
(lp194
g57
(g78
g59
NtRp195
(dp196
g62
(dp197
g82
g83
ssg71
g191
sg64
(lp198
S'controller'
p199
asbag57
(g78
g59
NtRp200
(dp201
g62
(dp202
g89
g90
ssg71
g191
sg64
(lp203
S':'
asbag57
(g78
g59
NtRp204
(dp205
g62
(dp206
sg71
g191
sg64
(lp207
g57
(g58
g59
NtRp208
(dp209
g62
(dp210
g70
I5
ssg71
g204
sg64
(lp211
S'default'
p212
asbasbasbag57
(g73
g59
NtRp213
(dp214
g62
(dp215
sg71
g67
sg64
(lp216
g57
(g78
g59
NtRp217
(dp218
g62
(dp219
g82
g83
ssg71
g213
sg64
(lp220
S'cookies'
p221
asbag57
(g78
g59
NtRp222
(dp223
g62
(dp224
g89
g90
ssg71
g213
sg64
(lp225
S':'
asbag57
(g78
g59
NtRp226
(dp227
g62
(dp228
sg71
g213
sg64
(lp229
g57
(g58
g59
NtRp230
(dp231
g62
(dp232
g70
I5
ssg71
g226
sg64
(lp233
g57
(g66
g59
NtRp234
(dp235
g62
(dp236
g70
I4
ssg71
Nsg64
(lp237
g57
(g73
g59
NtRp238
(dp239
g62
(dp240
sg71
g234
sg64
(lp241
g57
(g78
g59
NtRp242
(dp243
g62
(dp244
g82
g83
ssg71
g238
sg64
(lp245
S'session_id_admin'
p246
asbag57
(g78
g59
NtRp247
(dp248
g62
(dp249
g89
g90
ssg71
g238
sg64
(lp250
S':'
asbag57
(g78
g59
NtRp251
(dp252
g62
(dp253
sg71
g238
sg64
(lp254
g57
(g58
g59
NtRp255
(dp256
g62
(dp257
g70
I4
ssg71
g251
sg64
(lp258
g57
(g66
g59
NtRp259
(dp260
g62
(dp261
g70
I3
ssg71
Nsg64
(lp262
g57
(g73
g59
NtRp263
(dp264
g62
(dp265
sg71
g259
sg64
(lp266
g57
(g78
g59
NtRp267
(dp268
g62
(dp269
g82
g83
ssg71
g263
sg64
(lp270
S'comment'
p271
asbag57
(g78
g59
NtRp272
(dp273
g62
(dp274
g89
g90
ssg71
g263
sg64
(lp275
S':'
asbag57
(g78
g59
NtRp276
(dp277
g62
(dp278
sg71
g263
sg64
(lp279
g57
(g58
g59
NtRp280
(dp281
g62
(dp282
g70
I3
ssg71
g276
sg64
(lp283
S''
asbasbasbag57
(g73
g59
NtRp284
(dp285
g62
(dp286
sg71
g259
sg64
(lp287
g57
(g78
g59
NtRp288
(dp289
g62
(dp290
g82
g83
ssg71
g284
sg64
(lp291
S'domain'
p292
asbag57
(g78
g59
NtRp293
(dp294
g62
(dp295
g89
g90
ssg71
g284
sg64
(lp296
S':'
asbag57
(g78
g59
NtRp297
(dp298
g62
(dp299
sg71
g284
sg64
(lp300
g57
(g58
g59
NtRp301
(dp302
g62
(dp303
g70
I3
ssg71
g297
sg64
(lp304
S''
asbasbasbag57
(g73
g59
NtRp305
(dp306
g62
(dp307
sg71
g259
sg64
(lp308
g57
(g78
g59
NtRp309
(dp310
g62
(dp311
g82
g83
ssg71
g305
sg64
(lp312
S'expires'
p313
asbag57
(g78
g59
NtRp314
(dp315
g62
(dp316
g89
g90
ssg71
g305
sg64
(lp317
S':'
asbag57
(g78
g59
NtRp318
(dp319
g62
(dp320
sg71
g305
sg64
(lp321
g57
(g58
g59
NtRp322
(dp323
g62
(dp324
g70
I3
ssg71
g318
sg64
(lp325
S''
asbasbasbag57
(g73
g59
NtRp326
(dp327
g62
(dp328
sg71
g259
sg64
(lp329
g57
(g78
g59
NtRp330
(dp331
g62
(dp332
g82
g83
ssg71
g326
sg64
(lp333
S'httponly'
p334
asbag57
(g78
g59
NtRp335
(dp336
g62
(dp337
g89
g90
ssg71
g326
sg64
(lp338
S':'
asbag57
(g78
g59
NtRp339
(dp340
g62
(dp341
sg71
g326
sg64
(lp342
g57
(g58
g59
NtRp343
(dp344
g62
(dp345
g70
I3
ssg71
g339
sg64
(lp346
S''
asbasbasbag57
(g73
g59
NtRp347
(dp348
g62
(dp349
sg71
g259
sg64
(lp350
g57
(g78
g59
NtRp351
(dp352
g62
(dp353
g82
g83
ssg71
g347
sg64
(lp354
S'max-age'
p355
asbag57
(g78
g59
NtRp356
(dp357
g62
(dp358
g89
g90
ssg71
g347
sg64
(lp359
S':'
asbag57
(g78
g59
NtRp360
(dp361
g62
(dp362
sg71
g347
sg64
(lp363
g57
(g58
g59
NtRp364
(dp365
g62
(dp366
g70
I3
ssg71
g360
sg64
(lp367
S''
asbasbasbag57
(g73
g59
NtRp368
(dp369
g62
(dp370
sg71
g259
sg64
(lp371
g57
(g78
g59
NtRp372
(dp373
g62
(dp374
g82
g83
ssg71
g368
sg64
(lp375
S'path'
p376
asbag57
(g78
g59
NtRp377
(dp378
g62
(dp379
g89
g90
ssg71
g368
sg64
(lp380
S':'
asbag57
(g78
g59
NtRp381
(dp382
g62
(dp383
sg71
g368
sg64
(lp384
g57
(g58
g59
NtRp385
(dp386
g62
(dp387
g70
I3
ssg71
g381
sg64
(lp388
S''
asbasbasbag57
(g73
g59
NtRp389
(dp390
g62
(dp391
sg71
g259
sg64
(lp392
g57
(g78
g59
NtRp393
(dp394
g62
(dp395
g82
g83
ssg71
g389
sg64
(lp396
S'secure'
p397
asbag57
(g78
g59
NtRp398
(dp399
g62
(dp400
g89
g90
ssg71
g389
sg64
(lp401
S':'
asbag57
(g78
g59
NtRp402
(dp403
g62
(dp404
sg71
g389
sg64
(lp405
g57
(g58
g59
NtRp406
(dp407
g62
(dp408
g70
I3
ssg71
g402
sg64
(lp409
S''
asbasbasbag57
(g73
g59
NtRp410
(dp411
g62
(dp412
sg71
g259
sg64
(lp413
g57
(g78
g59
NtRp414
(dp415
g62
(dp416
g82
g83
ssg71
g410
sg64
(lp417
S'version'
p418
asbag57
(g78
g59
NtRp419
(dp420
g62
(dp421
g89
g90
ssg71
g410
sg64
(lp422
S':'
asbag57
(g78
g59
NtRp423
(dp424
g62
(dp425
sg71
g410
sg64
(lp426
g57
(g58
g59
NtRp427
(dp428
g62
(dp429
g70
I3
ssg71
g423
sg64
(lp430
S''
asbasbasbasbasbasbasbag57
(g73
g59
NtRp431
(dp432
g62
(dp433
sg71
g234
sg64
(lp434
g57
(g78
g59
NtRp435
(dp436
g62
(dp437
g82
g83
ssg71
g431
sg64
(lp438
S'session_id_book_shelf'
p439
asbag57
(g78
g59
NtRp440
(dp441
g62
(dp442
g89
g90
ssg71
g431
sg64
(lp443
S':'
asbag57
(g78
g59
NtRp444
(dp445
g62
(dp446
sg71
g431
sg64
(lp447
g57
(g58
g59
NtRp448
(dp449
g62
(dp450
g70
I4
ssg71
g444
sg64
(lp451
g57
(g66
g59
NtRp452
(dp453
g62
(dp454
g70
I3
ssg71
Nsg64
(lp455
g57
(g73
g59
NtRp456
(dp457
g62
(dp458
sg71
g452
sg64
(lp459
g57
(g78
g59
NtRp460
(dp461
g62
(dp462
g82
g83
ssg71
g456
sg64
(lp463
g271
asbag57
(g78
g59
NtRp464
(dp465
g62
(dp466
g89
g90
ssg71
g456
sg64
(lp467
S':'
asbag57
(g78
g59
NtRp468
(dp469
g62
(dp470
sg71
g456
sg64
(lp471
g57
(g58
g59
NtRp472
(dp473
g62
(dp474
g70
I3
ssg71
g468
sg64
(lp475
S''
asbasbasbag57
(g73
g59
NtRp476
(dp477
g62
(dp478
sg71
g452
sg64
(lp479
g57
(g78
g59
NtRp480
(dp481
g62
(dp482
g82
g83
ssg71
g476
sg64
(lp483
g292
asbag57
(g78
g59
NtRp484
(dp485
g62
(dp486
g89
g90
ssg71
g476
sg64
(lp487
S':'
asbag57
(g78
g59
NtRp488
(dp489
g62
(dp490
sg71
g476
sg64
(lp491
g57
(g58
g59
NtRp492
(dp493
g62
(dp494
g70
I3
ssg71
g488
sg64
(lp495
S''
asbasbasbag57
(g73
g59
NtRp496
(dp497
g62
(dp498
sg71
g452
sg64
(lp499
g57
(g78
g59
NtRp500
(dp501
g62
(dp502
g82
g83
ssg71
g496
sg64
(lp503
g313
asbag57
(g78
g59
NtRp504
(dp505
g62
(dp506
g89
g90
ssg71
g496
sg64
(lp507
S':'
asbag57
(g78
g59
NtRp508
(dp509
g62
(dp510
sg71
g496
sg64
(lp511
g57
(g58
g59
NtRp512
(dp513
g62
(dp514
g70
I3
ssg71
g508
sg64
(lp515
S''
asbasbasbag57
(g73
g59
NtRp516
(dp517
g62
(dp518
sg71
g452
sg64
(lp519
g57
(g78
g59
NtRp520
(dp521
g62
(dp522
g82
g83
ssg71
g516
sg64
(lp523
g334
asbag57
(g78
g59
NtRp524
(dp525
g62
(dp526
g89
g90
ssg71
g516
sg64
(lp527
S':'
asbag57
(g78
g59
NtRp528
(dp529
g62
(dp530
sg71
g516
sg64
(lp531
g57
(g58
g59
NtRp532
(dp533
g62
(dp534
g70
I3
ssg71
g528
sg64
(lp535
S''
asbasbasbag57
(g73
g59
NtRp536
(dp537
g62
(dp538
sg71
g452
sg64
(lp539
g57
(g78
g59
NtRp540
(dp541
g62
(dp542
g82
g83
ssg71
g536
sg64
(lp543
g355
asbag57
(g78
g59
NtRp544
(dp545
g62
(dp546
g89
g90
ssg71
g536
sg64
(lp547
S':'
asbag57
(g78
g59
NtRp548
(dp549
g62
(dp550
sg71
g536
sg64
(lp551
g57
(g58
g59
NtRp552
(dp553
g62
(dp554
g70
I3
ssg71
g548
sg64
(lp555
S''
asbasbasbag57
(g73
g59
NtRp556
(dp557
g62
(dp558
sg71
g452
sg64
(lp559
g57
(g78
g59
NtRp560
(dp561
g62
(dp562
g82
g83
ssg71
g556
sg64
(lp563
g376
asbag57
(g78
g59
NtRp564
(dp565
g62
(dp566
g89
g90
ssg71
g556
sg64
(lp567
S':'
asbag57
(g78
g59
NtRp568
(dp569
g62
(dp570
sg71
g556
sg64
(lp571
g57
(g58
g59
NtRp572
(dp573
g62
(dp574
g70
I3
ssg71
g568
sg64
(lp575
S''
asbasbasbag57
(g73
g59
NtRp576
(dp577
g62
(dp578
sg71
g452
sg64
(lp579
g57
(g78
g59
NtRp580
(dp581
g62
(dp582
g82
g83
ssg71
g576
sg64
(lp583
g397
asbag57
(g78
g59
NtRp584
(dp585
g62
(dp586
g89
g90
ssg71
g576
sg64
(lp587
S':'
asbag57
(g78
g59
NtRp588
(dp589
g62
(dp590
sg71
g576
sg64
(lp591
g57
(g58
g59
NtRp592
(dp593
g62
(dp594
g70
I3
ssg71
g588
sg64
(lp595
S''
asbasbasbag57
(g73
g59
NtRp596
(dp597
g62
(dp598
sg71
g452
sg64
(lp599
g57
(g78
g59
NtRp600
(dp601
g62
(dp602
g82
g83
ssg71
g596
sg64
(lp603
g418
asbag57
(g78
g59
NtRp604
(dp605
g62
(dp606
g89
g90
ssg71
g596
sg64
(lp607
S':'
asbag57
(g78
g59
NtRp608
(dp609
g62
(dp610
sg71
g596
sg64
(lp611
g57
(g58
g59
NtRp612
(dp613
g62
(dp614
g70
I3
ssg71
g608
sg64
(lp615
S''
asbasbasbasbasbasbasbag57
(g73
g59
NtRp616
(dp617
g62
(dp618
sg71
g234
sg64
(lp619
g57
(g78
g59
NtRp620
(dp621
g62
(dp622
g82
g83
ssg71
g616
sg64
(lp623
S'session_id_welcome'
p624
asbag57
(g78
g59
NtRp625
(dp626
g62
(dp627
g89
g90
ssg71
g616
sg64
(lp628
S':'
asbag57
(g78
g59
NtRp629
(dp630
g62
(dp631
sg71
g616
sg64
(lp632
g57
(g58
g59
NtRp633
(dp634
g62
(dp635
g70
I4
ssg71
g629
sg64
(lp636
g57
(g66
g59
NtRp637
(dp638
g62
(dp639
g70
I3
ssg71
Nsg64
(lp640
g57
(g73
g59
NtRp641
(dp642
g62
(dp643
sg71
g637
sg64
(lp644
g57
(g78
g59
NtRp645
(dp646
g62
(dp647
g82
g83
ssg71
g641
sg64
(lp648
g271
asbag57
(g78
g59
NtRp649
(dp650
g62
(dp651
g89
g90
ssg71
g641
sg64
(lp652
S':'
asbag57
(g78
g59
NtRp653
(dp654
g62
(dp655
sg71
g641
sg64
(lp656
g57
(g58
g59
NtRp657
(dp658
g62
(dp659
g70
I3
ssg71
g653
sg64
(lp660
S''
asbasbasbag57
(g73
g59
NtRp661
(dp662
g62
(dp663
sg71
g637
sg64
(lp664
g57
(g78
g59
NtRp665
(dp666
g62
(dp667
g82
g83
ssg71
g661
sg64
(lp668
g292
asbag57
(g78
g59
NtRp669
(dp670
g62
(dp671
g89
g90
ssg71
g661
sg64
(lp672
S':'
asbag57
(g78
g59
NtRp673
(dp674
g62
(dp675
sg71
g661
sg64
(lp676
g57
(g58
g59
NtRp677
(dp678
g62
(dp679
g70
I3
ssg71
g673
sg64
(lp680
S''
asbasbasbag57
(g73
g59
NtRp681
(dp682
g62
(dp683
sg71
g637
sg64
(lp684
g57
(g78
g59
NtRp685
(dp686
g62
(dp687
g82
g83
ssg71
g681
sg64
(lp688
g313
asbag57
(g78
g59
NtRp689
(dp690
g62
(dp691
g89
g90
ssg71
g681
sg64
(lp692
S':'
asbag57
(g78
g59
NtRp693
(dp694
g62
(dp695
sg71
g681
sg64
(lp696
g57
(g58
g59
NtRp697
(dp698
g62
(dp699
g70
I3
ssg71
g693
sg64
(lp700
S''
asbasbasbag57
(g73
g59
NtRp701
(dp702
g62
(dp703
sg71
g637
sg64
(lp704
g57
(g78
g59
NtRp705
(dp706
g62
(dp707
g82
g83
ssg71
g701
sg64
(lp708
g334
asbag57
(g78
g59
NtRp709
(dp710
g62
(dp711
g89
g90
ssg71
g701
sg64
(lp712
S':'
asbag57
(g78
g59
NtRp713
(dp714
g62
(dp715
sg71
g701
sg64
(lp716
g57
(g58
g59
NtRp717
(dp718
g62
(dp719
g70
I3
ssg71
g713
sg64
(lp720
S''
asbasbasbag57
(g73
g59
NtRp721
(dp722
g62
(dp723
sg71
g637
sg64
(lp724
g57
(g78
g59
NtRp725
(dp726
g62
(dp727
g82
g83
ssg71
g721
sg64
(lp728
g355
asbag57
(g78
g59
NtRp729
(dp730
g62
(dp731
g89
g90
ssg71
g721
sg64
(lp732
S':'
asbag57
(g78
g59
NtRp733
(dp734
g62
(dp735
sg71
g721
sg64
(lp736
g57
(g58
g59
NtRp737
(dp738
g62
(dp739
g70
I3
ssg71
g733
sg64
(lp740
S''
asbasbasbag57
(g73
g59
NtRp741
(dp742
g62
(dp743
sg71
g637
sg64
(lp744
g57
(g78
g59
NtRp745
(dp746
g62
(dp747
g82
g83
ssg71
g741
sg64
(lp748
g376
asbag57
(g78
g59
NtRp749
(dp750
g62
(dp751
g89
g90
ssg71
g741
sg64
(lp752
S':'
asbag57
(g78
g59
NtRp753
(dp754
g62
(dp755
sg71
g741
sg64
(lp756
g57
(g58
g59
NtRp757
(dp758
g62
(dp759
g70
I3
ssg71
g753
sg64
(lp760
S''
asbasbasbag57
(g73
g59
NtRp761
(dp762
g62
(dp763
sg71
g637
sg64
(lp764
g57
(g78
g59
NtRp765
(dp766
g62
(dp767
g82
g83
ssg71
g761
sg64
(lp768
g397
asbag57
(g78
g59
NtRp769
(dp770
g62
(dp771
g89
g90
ssg71
g761
sg64
(lp772
S':'
asbag57
(g78
g59
NtRp773
(dp774
g62
(dp775
sg71
g761
sg64
(lp776
g57
(g58
g59
NtRp777
(dp778
g62
(dp779
g70
I3
ssg71
g773
sg64
(lp780
S''
asbasbasbag57
(g73
g59
NtRp781
(dp782
g62
(dp783
sg71
g637
sg64
(lp784
g57
(g78
g59
NtRp785
(dp786
g62
(dp787
g82
g83
ssg71
g781
sg64
(lp788
g418
asbag57
(g78
g59
NtRp789
(dp790
g62
(dp791
g89
g90
ssg71
g781
sg64
(lp792
S':'
asbag57
(g78
g59
NtRp793
(dp794
g62
(dp795
sg71
g781
sg64
(lp796
g57
(g58
g59
NtRp797
(dp798
g62
(dp799
g70
I3
ssg71
g793
sg64
(lp800
S''
asbasbasbasbasbasbasbasbasbasbasbag57
(g73
g59
NtRp801
(dp802
g62
(dp803
sg71
g67
sg64
(lp804
g57
(g78
g59
NtRp805
(dp806
g62
(dp807
g82
g83
ssg71
g801
sg64
(lp808
S'env'
p809
asbag57
(g78
g59
NtRp810
(dp811
g62
(dp812
g89
g90
ssg71
g801
sg64
(lp813
S':'
asbag57
(g78
g59
NtRp814
(dp815
g62
(dp816
sg71
g801
sg64
(lp817
g57
(g58
g59
NtRp818
(dp819
g62
(dp820
g70
I5
ssg71
g814
sg64
(lp821
g57
(g66
g59
NtRp822
(dp823
g62
(dp824
g70
I4
ssg71
Nsg64
(lp825
g57
(g73
g59
NtRp826
(dp827
g62
(dp828
sg71
g822
sg64
(lp829
g57
(g78
g59
NtRp830
(dp831
g62
(dp832
g82
g83
ssg71
g826
sg64
(lp833
S'app_folders'
p834
asbag57
(g78
g59
NtRp835
(dp836
g62
(dp837
g89
g90
ssg71
g826
sg64
(lp838
S':'
asbag57
(g78
g59
NtRp839
(dp840
g62
(dp841
sg71
g826
sg64
(lp842
g57
(g58
g59
NtRp843
(dp844
g62
(dp845
g70
I4
ssg71
g839
sg64
(lp846
S"set(['/Users/ianaboneva/Downloads/web2py/applications/welcome/', '/Users/ianaboneva/Downloads/web2py/applications/Book_Shelf/', '/Users/ianaboneva/Downloads/web2py/applications/admin/'])"
p847
asbasbasbag57
(g73
g59
NtRp848
(dp849
g62
(dp850
sg71
g822
sg64
(lp851
g57
(g78
g59
NtRp852
(dp853
g62
(dp854
g82
g83
ssg71
g848
sg64
(lp855
S'applications_parent'
p856
asbag57
(g78
g59
NtRp857
(dp858
g62
(dp859
g89
g90
ssg71
g848
sg64
(lp860
S':'
asbag57
(g78
g59
NtRp861
(dp862
g62
(dp863
sg71
g848
sg64
(lp864
g57
(g58
g59
NtRp865
(dp866
g62
(dp867
g70
I4
ssg71
g861
sg64
(lp868
S'/Users/ianaboneva/Downloads/web2py'
p869
asbasbasbag57
(g73
g59
NtRp870
(dp871
g62
(dp872
sg71
g822
sg64
(lp873
g57
(g78
g59
NtRp874
(dp875
g62
(dp876
g82
g83
ssg71
g870
sg64
(lp877
S'cmd_args'
p878
asbag57
(g78
g59
NtRp879
(dp880
g62
(dp881
g89
g90
ssg71
g870
sg64
(lp882
S':'
asbag57
(g78
g59
NtRp883
(dp884
g62
(dp885
sg71
g870
sg64
(lp886
g57
(g58
g59
NtRp887
(dp888
g62
(dp889
g70
I4
ssg71
g883
sg64
(lp890
g57
(g66
g59
NtRp891
(dp892
g62
(dp893
g70
I3
ssg71
Nsg64
(lp894
sbasbasbasbag57
(g73
g59
NtRp895
(dp896
g62
(dp897
sg71
g822
sg64
(lp898
g57
(g78
g59
NtRp899
(dp900
g62
(dp901
g82
g83
ssg71
g895
sg64
(lp902
S'cmd_options'
p903
asbag57
(g78
g59
NtRp904
(dp905
g62
(dp906
g89
g90
ssg71
g895
sg64
(lp907
S':'
asbag57
(g78
g59
NtRp908
(dp909
g62
(dp910
sg71
g895
sg64
(lp911
g57
(g58
g59
NtRp912
(dp913
g62
(dp914
g70
I4
ssg71
g908
sg64
(lp915
S"<Values at 0x102cbec68: {'verbose': False, 'ip': '127.0.0.1', 'shutdown_timeout': 5, 'taskbar': False, 'nocron': False, 'pid_filename': 'httpserver.pid', 'maxthreads': None, 'softcron': False, 'server_name': 'Iana-Bonevas-MacBook-Pro.local', 'bpython': False, 'nogui': False, 'port': 8000, 'extcron': False, 'debuglevel': 30, 'test': None, 'folder': '/Users/ianaboneva/Downloads/web2py', 'config': '', 'import_models': False, 'winservice': '', 'shell': None, 'run': '', 'log_filename': 'httpserver.log', 'args': [''], 'socket_timeout': 5, 'ssl_ca_certificate': None, 'scheduler': None, 'profiler_filename': None, 'ssl_private_key': '', 'password': '<ask>', 'request_queue_size': 5, 'ssl_certificate': '', 'cronjob': False, 'numthreads': None, 'quiet': False, 'interfaces': None, 'minthreads': None, 'timeout': 10, 'plain': False, 'nobanner': False}>"
p916
asbasbasbag57
(g73
g59
NtRp917
(dp918
g62
(dp919
sg71
g822
sg64
(lp920
g57
(g78
g59
NtRp921
(dp922
g62
(dp923
g82
g83
ssg71
g917
sg64
(lp924
S'db_sessions'
p925
asbag57
(g78
g59
NtRp926
(dp927
g62
(dp928
g89
g90
ssg71
g917
sg64
(lp929
S':'
asbag57
(g78
g59
NtRp930
(dp931
g62
(dp932
sg71
g917
sg64
(lp933
g57
(g58
g59
NtRp934
(dp935
g62
(dp936
g70
I4
ssg71
g930
sg64
(lp937
S'set([])'
p938
asbasbasbag57
(g73
g59
NtRp939
(dp940
g62
(dp941
sg71
g822
sg64
(lp942
g57
(g78
g59
NtRp943
(dp944
g62
(dp945
g82
g83
ssg71
g939
sg64
(lp946
S'debugging'
p947
asbag57
(g78
g59
NtRp948
(dp949
g62
(dp950
g89
g90
ssg71
g939
sg64
(lp951
S':'
asbag57
(g78
g59
NtRp952
(dp953
g62
(dp954
sg71
g939
sg64
(lp955
g57
(g58
g59
NtRp956
(dp957
g62
(dp958
g70
I4
ssg71
g952
sg64
(lp959
g100
asbasbasbag57
(g73
g59
NtRp960
(dp961
g62
(dp962
sg71
g822
sg64
(lp963
g57
(g78
g59
NtRp964
(dp965
g62
(dp966
g82
g83
ssg71
g960
sg64
(lp967
S'gluon_parent'
p968
asbag57
(g78
g59
NtRp969
(dp970
g62
(dp971
g89
g90
ssg71
g960
sg64
(lp972
S':'
asbag57
(g78
g59
NtRp973
(dp974
g62
(dp975
sg71
g960
sg64
(lp976
g57
(g58
g59
NtRp977
(dp978
g62
(dp979
g70
I4
ssg71
g973
sg64
(lp980
S'/Users/ianaboneva/Downloads/web2py'
p981
asbasbasbag57
(g73
g59
NtRp982
(dp983
g62
(dp984
sg71
g822
sg64
(lp985
g57
(g78
g59
NtRp986
(dp987
g62
(dp988
g82
g83
ssg71
g982
sg64
(lp989
S'http_accept'
p990
asbag57
(g78
g59
NtRp991
(dp992
g62
(dp993
g89
g90
ssg71
g982
sg64
(lp994
S':'
asbag57
(g78
g59
NtRp995
(dp996
g62
(dp997
sg71
g982
sg64
(lp998
g57
(g58
g59
NtRp999
(dp1000
g62
(dp1001
g70
I4
ssg71
g995
sg64
(lp1002
S'text/html,application/xhtml+xml,application/xml;q=0.9,*/*;q=0.8'
p1003
asbasbasbag57
(g73
g59
NtRp1004
(dp1005
g62
(dp1006
sg71
g822
sg64
(lp1007
g57
(g78
g59
NtRp1008
(dp1009
g62
(dp1010
g82
g83
ssg71
g1004
sg64
(lp1011
S'http_accept_charset'
p1012
asbag57
(g78
g59
NtRp1013
(dp1014
g62
(dp1015
g89
g90
ssg71
g1004
sg64
(lp1016
S':'
asbag57
(g78
g59
NtRp1017
(dp1018
g62
(dp1019
sg71
g1004
sg64
(lp1020
g57
(g58
g59
NtRp1021
(dp1022
g62
(dp1023
g70
I4
ssg71
g1017
sg64
(lp1024
S'ISO-8859-1,utf-8;q=0.7,*;q=0.3'
p1025
asbasbasbag57
(g73
g59
NtRp1026
(dp1027
g62
(dp1028
sg71
g822
sg64
(lp1029
g57
(g78
g59
NtRp1030
(dp1031
g62
(dp1032
g82
g83
ssg71
g1026
sg64
(lp1033
S'http_accept_encoding'
p1034
asbag57
(g78
g59
NtRp1035
(dp1036
g62
(dp1037
g89
g90
ssg71
g1026
sg64
(lp1038
S':'
asbag57
(g78
g59
NtRp1039
(dp1040
g62
(dp1041
sg71
g1026
sg64
(lp1042
g57
(g58
g59
NtRp1043
(dp1044
g62
(dp1045
g70
I4
ssg71
g1039
sg64
(lp1046
S'gzip,deflate,sdch'
p1047
asbasbasbag57
(g73
g59
NtRp1048
(dp1049
g62
(dp1050
sg71
g822
sg64
(lp1051
g57
(g78
g59
NtRp1052
(dp1053
g62
(dp1054
g82
g83
ssg71
g1048
sg64
(lp1055
S'http_accept_language'
p1056
asbag57
(g78
g59
NtRp1057
(dp1058
g62
(dp1059
g89
g90
ssg71
g1048
sg64
(lp1060
S':'
asbag57
(g78
g59
NtRp1061
(dp1062
g62
(dp1063
sg71
g1048
sg64
(lp1064
g57
(g58
g59
NtRp1065
(dp1066
g62
(dp1067
g70
I4
ssg71
g1061
sg64
(lp1068
S'en-US,en;q=0.8'
p1069
asbasbasbag57
(g73
g59
NtRp1070
(dp1071
g62
(dp1072
sg71
g822
sg64
(lp1073
g57
(g78
g59
NtRp1074
(dp1075
g62
(dp1076
g82
g83
ssg71
g1070
sg64
(lp1077
S'http_connection'
p1078
asbag57
(g78
g59
NtRp1079
(dp1080
g62
(dp1081
g89
g90
ssg71
g1070
sg64
(lp1082
S':'
asbag57
(g78
g59
NtRp1083
(dp1084
g62
(dp1085
sg71
g1070
sg64
(lp1086
g57
(g58
g59
NtRp1087
(dp1088
g62
(dp1089
g70
I4
ssg71
g1083
sg64
(lp1090
S'keep-alive'
p1091
asbasbasbag57
(g73
g59
NtRp1092
(dp1093
g62
(dp1094
sg71
g822
sg64
(lp1095
g57
(g78
g59
NtRp1096
(dp1097
g62
(dp1098
g82
g83
ssg71
g1092
sg64
(lp1099
S'http_cookie'
p1100
asbag57
(g78
g59
NtRp1101
(dp1102
g62
(dp1103
g89
g90
ssg71
g1092
sg64
(lp1104
S':'
asbag57
(g78
g59
NtRp1105
(dp1106
g62
(dp1107
sg71
g1092
sg64
(lp1108
g57
(g58
g59
NtRp1109
(dp1110
g62
(dp1111
g70
I4
ssg71
g1105
sg64
(lp1112
S'session_id_welcome=127.0.0.1-6ce6420c-4a3f-49a0-bafb-df6b1393f482; session_id_admin=127.0.0.1-a3a129ed-9759-476f-9741-9a720e2166b5; session_id_book_shelf=127.0.0.1-abc01c71-8844-4aa9-8d94-40c83b0e7587'
p1113
asbasbasbag57
(g73
g59
NtRp1114
(dp1115
g62
(dp1116
sg71
g822
sg64
(lp1117
g57
(g78
g59
NtRp1118
(dp1119
g62
(dp1120
g82
g83
ssg71
g1114
sg64
(lp1121
S'http_host'
p1122
asbag57
(g78
g59
NtRp1123
(dp1124
g62
(dp1125
g89
g90
ssg71
g1114
sg64
(lp1126
S':'
asbag57
(g78
g59
NtRp1127
(dp1128
g62
(dp1129
sg71
g1114
sg64
(lp1130
g57
(g58
g59
NtRp1131
(dp1132
g62
(dp1133
g70
I4
ssg71
g1127
sg64
(lp1134
S'127.0.0.1:8000'
p1135
asbasbasbag57
(g73
g59
NtRp1136
(dp1137
g62
(dp1138
sg71
g822
sg64
(lp1139
g57
(g78
g59
NtRp1140
(dp1141
g62
(dp1142
g82
g83
ssg71
g1136
sg64
(lp1143
S'http_referer'
p1144
asbag57
(g78
g59
NtRp1145
(dp1146
g62
(dp1147
g89
g90
ssg71
g1136
sg64
(lp1148
S':'
asbag57
(g78
g59
NtRp1149
(dp1150
g62
(dp1151
sg71
g1136
sg64
(lp1152
g57
(g58
g59
NtRp1153
(dp1154
g62
(dp1155
g70
I4
ssg71
g1149
sg64
(lp1156
S'http://127.0.0.1:8000/Book_Shelf/default/create_book_shelf'
p1157
asbasbasbag57
(g73
g59
NtRp1158
(dp1159
g62
(dp1160
sg71
g822
sg64
(lp1161
g57
(g78
g59
NtRp1162
(dp1163
g62
(dp1164
g82
g83
ssg71
g1158
sg64
(lp1165
S'http_user_agent'
p1166
asbag57
(g78
g59
NtRp1167
(dp1168
g62
(dp1169
g89
g90
ssg71
g1158
sg64
(lp1170
S':'
asbag57
(g78
g59
NtRp1171
(dp1172
g62
(dp1173
sg71
g1158
sg64
(lp1174
g57
(g58
g59
NtRp1175
(dp1176
g62
(dp1177
g70
I4
ssg71
g1171
sg64
(lp1178
S'Mozilla/5.0 (Macintosh; Intel Mac OS X 10_7_3) AppleWebKit/536.5 (KHTML, like Gecko) Chrome/19.0.1084.46 Safari/536.5'
p1179
asbasbasbag57
(g73
g59
NtRp1180
(dp1181
g62
(dp1182
sg71
g822
sg64
(lp1183
g57
(g78
g59
NtRp1184
(dp1185
g62
(dp1186
g82
g83
ssg71
g1180
sg64
(lp1187
S'is_jython'
p1188
asbag57
(g78
g59
NtRp1189
(dp1190
g62
(dp1191
g89
g90
ssg71
g1180
sg64
(lp1192
S':'
asbag57
(g78
g59
NtRp1193
(dp1194
g62
(dp1195
sg71
g1180
sg64
(lp1196
g57
(g58
g59
NtRp1197
(dp1198
g62
(dp1199
g70
I4
ssg71
g1193
sg64
(lp1200
g100
asbasbasbag57
(g73
g59
NtRp1201
(dp1202
g62
(dp1203
sg71
g822
sg64
(lp1204
g57
(g78
g59
NtRp1205
(dp1206
g62
(dp1207
g82
g83
ssg71
g1201
sg64
(lp1208
S'is_pypy'
p1209
asbag57
(g78
g59
NtRp1210
(dp1211
g62
(dp1212
g89
g90
ssg71
g1201
sg64
(lp1213
S':'
asbag57
(g78
g59
NtRp1214
(dp1215
g62
(dp1216
sg71
g1201
sg64
(lp1217
g57
(g58
g59
NtRp1218
(dp1219
g62
(dp1220
g70
I4
ssg71
g1214
sg64
(lp1221
g100
asbasbasbag57
(g73
g59
NtRp1222
(dp1223
g62
(dp1224
sg71
g822
sg64
(lp1225
g57
(g78
g59
NtRp1226
(dp1227
g62
(dp1228
g82
g83
ssg71
g1222
sg64
(lp1229
S'path_info'
p1230
asbag57
(g78
g59
NtRp1231
(dp1232
g62
(dp1233
g89
g90
ssg71
g1222
sg64
(lp1234
S':'
asbag57
(g78
g59
NtRp1235
(dp1236
g62
(dp1237
sg71
g1222
sg64
(lp1238
g57
(g58
g59
NtRp1239
(dp1240
g62
(dp1241
g70
I4
ssg71
g1235
sg64
(lp1242
S'/Book_Shelf/default/book_shelf'
p1243
asbasbasbag57
(g73
g59
NtRp1244
(dp1245
g62
(dp1246
sg71
g822
sg64
(lp1247
g57
(g78
g59
NtRp1248
(dp1249
g62
(dp1250
g82
g83
ssg71
g1244
sg64
(lp1251
S'query_string'
p1252
asbag57
(g78
g59
NtRp1253
(dp1254
g62
(dp1255
g89
g90
ssg71
g1244
sg64
(lp1256
S':'
asbag57
(g78
g59
NtRp1257
(dp1258
g62
(dp1259
sg71
g1244
sg64
(lp1260
g57
(g58
g59
NtRp1261
(dp1262
g62
(dp1263
g70
I4
ssg71
g1257
sg64
(lp1264
S''
asbasbasbag57
(g73
g59
NtRp1265
(dp1266
g62
(dp1267
sg71
g822
sg64
(lp1268
g57
(g78
g59
NtRp1269
(dp1270
g62
(dp1271
g82
g83
ssg71
g1265
sg64
(lp1272
S'remote_addr'
p1273
asbag57
(g78
g59
NtRp1274
(dp1275
g62
(dp1276
g89
g90
ssg71
g1265
sg64
(lp1277
S':'
asbag57
(g78
g59
NtRp1278
(dp1279
g62
(dp1280
sg71
g1265
sg64
(lp1281
g57
(g58
g59
NtRp1282
(dp1283
g62
(dp1284
g70
I4
ssg71
g1278
sg64
(lp1285
g190
asbasbasbag57
(g73
g59
NtRp1286
(dp1287
g62
(dp1288
sg71
g822
sg64
(lp1289
g57
(g78
g59
NtRp1290
(dp1291
g62
(dp1292
g82
g83
ssg71
g1286
sg64
(lp1293
S'remote_port'
p1294
asbag57
(g78
g59
NtRp1295
(dp1296
g62
(dp1297
g89
g90
ssg71
g1286
sg64
(lp1298
S':'
asbag57
(g78
g59
NtRp1299
(dp1300
g62
(dp1301
sg71
g1286
sg64
(lp1302
g57
(g58
g59
NtRp1303
(dp1304
g62
(dp1305
g70
I4
ssg71
g1299
sg64
(lp1306
S'52924'
p1307
asbasbasbag57
(g73
g59
NtRp1308
(dp1309
g62
(dp1310
sg71
g822
sg64
(lp1311
g57
(g78
g59
NtRp1312
(dp1313
g62
(dp1314
g82
g83
ssg71
g1308
sg64
(lp1315
S'request_method'
p1316
asbag57
(g78
g59
NtRp1317
(dp1318
g62
(dp1319
g89
g90
ssg71
g1308
sg64
(lp1320
S':'
asbag57
(g78
g59
NtRp1321
(dp1322
g62
(dp1323
sg71
g1308
sg64
(lp1324
g57
(g58
g59
NtRp1325
(dp1326
g62
(dp1327
g70
I4
ssg71
g1321
sg64
(lp1328
S'GET'
p1329
asbasbasbag57
(g73
g59
NtRp1330
(dp1331
g62
(dp1332
sg71
g822
sg64
(lp1333
g57
(g78
g59
NtRp1334
(dp1335
g62
(dp1336
g82
g83
ssg71
g1330
sg64
(lp1337
S'script_name'
p1338
asbag57
(g78
g59
NtRp1339
(dp1340
g62
(dp1341
g89
g90
ssg71
g1330
sg64
(lp1342
S':'
asbag57
(g78
g59
NtRp1343
(dp1344
g62
(dp1345
sg71
g1330
sg64
(lp1346
g57
(g58
g59
NtRp1347
(dp1348
g62
(dp1349
g70
I4
ssg71
g1343
sg64
(lp1350
S''
asbasbasbag57
(g73
g59
NtRp1351
(dp1352
g62
(dp1353
sg71
g822
sg64
(lp1354
g57
(g78
g59
NtRp1355
(dp1356
g62
(dp1357
g82
g83
ssg71
g1351
sg64
(lp1358
S'server_name'
p1359
asbag57
(g78
g59
NtRp1360
(dp1361
g62
(dp1362
g89
g90
ssg71
g1351
sg64
(lp1363
S':'
asbag57
(g78
g59
NtRp1364
(dp1365
g62
(dp1366
sg71
g1351
sg64
(lp1367
g57
(g58
g59
NtRp1368
(dp1369
g62
(dp1370
g70
I4
ssg71
g1364
sg64
(lp1371
S'Iana-Bonevas-MacBook-Pro.local'
p1372
asbasbasbag57
(g73
g59
NtRp1373
(dp1374
g62
(dp1375
sg71
g822
sg64
(lp1376
g57
(g78
g59
NtRp1377
(dp1378
g62
(dp1379
g82
g83
ssg71
g1373
sg64
(lp1380
S'server_port'
p1381
asbag57
(g78
g59
NtRp1382
(dp1383
g62
(dp1384
g89
g90
ssg71
g1373
sg64
(lp1385
S':'
asbag57
(g78
g59
NtRp1386
(dp1387
g62
(dp1388
sg71
g1373
sg64
(lp1389
g57
(g58
g59
NtRp1390
(dp1391
g62
(dp1392
g70
I4
ssg71
g1386
sg64
(lp1393
S'8000'
p1394
asbasbasbag57
(g73
g59
NtRp1395
(dp1396
g62
(dp1397
sg71
g822
sg64
(lp1398
g57
(g78
g59
NtRp1399
(dp1400
g62
(dp1401
g82
g83
ssg71
g1395
sg64
(lp1402
S'server_protocol'
p1403
asbag57
(g78
g59
NtRp1404
(dp1405
g62
(dp1406
g89
g90
ssg71
g1395
sg64
(lp1407
S':'
asbag57
(g78
g59
NtRp1408
(dp1409
g62
(dp1410
sg71
g1395
sg64
(lp1411
g57
(g58
g59
NtRp1412
(dp1413
g62
(dp1414
g70
I4
ssg71
g1408
sg64
(lp1415
S'HTTP/1.1'
p1416
asbasbasbag57
(g73
g59
NtRp1417
(dp1418
g62
(dp1419
sg71
g822
sg64
(lp1420
g57
(g78
g59
NtRp1421
(dp1422
g62
(dp1423
g82
g83
ssg71
g1417
sg64
(lp1424
S'server_software'
p1425
asbag57
(g78
g59
NtRp1426
(dp1427
g62
(dp1428
g89
g90
ssg71
g1417
sg64
(lp1429
S':'
asbag57
(g78
g59
NtRp1430
(dp1431
g62
(dp1432
sg71
g1417
sg64
(lp1433
g57
(g58
g59
NtRp1434
(dp1435
g62
(dp1436
g70
I4
ssg71
g1430
sg64
(lp1437
S'Rocket 1.2.4'
p1438
asbasbasbag57
(g73
g59
NtRp1439
(dp1440
g62
(dp1441
sg71
g822
sg64
(lp1442
g57
(g78
g59
NtRp1443
(dp1444
g62
(dp1445
g82
g83
ssg71
g1439
sg64
(lp1446
S'web2py_crontype'
p1447
asbag57
(g78
g59
NtRp1448
(dp1449
g62
(dp1450
g89
g90
ssg71
g1439
sg64
(lp1451
S':'
asbag57
(g78
g59
NtRp1452
(dp1453
g62
(dp1454
sg71
g1439
sg64
(lp1455
g57
(g58
g59
NtRp1456
(dp1457
g62
(dp1458
g70
I4
ssg71
g1452
sg64
(lp1459
S'hard'
p1460
asbasbasbag57
(g73
g59
NtRp1461
(dp1462
g62
(dp1463
sg71
g822
sg64
(lp1464
g57
(g78
g59
NtRp1465
(dp1466
g62
(dp1467
g82
g83
ssg71
g1461
sg64
(lp1468
S'web2py_path'
p1469
asbag57
(g78
g59
NtRp1470
(dp1471
g62
(dp1472
g89
g90
ssg71
g1461
sg64
(lp1473
S':'
asbag57
(g78
g59
NtRp1474
(dp1475
g62
(dp1476
sg71
g1461
sg64
(lp1477
g57
(g58
g59
NtRp1478
(dp1479
g62
(dp1480
g70
I4
ssg71
g1474
sg64
(lp1481
g869
asbasbasbag57
(g73
g59
NtRp1482
(dp1483
g62
(dp1484
sg71
g822
sg64
(lp1485
g57
(g78
g59
NtRp1486
(dp1487
g62
(dp1488
g82
g83
ssg71
g1482
sg64
(lp1489
S'web2py_version'
p1490
asbag57
(g78
g59
NtRp1491
(dp1492
g62
(dp1493
g89
g90
ssg71
g1482
sg64
(lp1494
S':'
asbag57
(g78
g59
NtRp1495
(dp1496
g62
(dp1497
sg71
g1482
sg64
(lp1498
g57
(g58
g59
NtRp1499
(dp1500
g62
(dp1501
g70
I4
ssg71
g1495
sg64
(lp1502
g57
(g66
g59
NtRp1503
(dp1504
g62
(dp1505
g70
I3
ssg71
Nsg64
(lp1506
g57
(g73
g59
NtRp1507
(dp1508
g62
(dp1509
sg71
g1503
sg64
(lp1510
g57
(g78
g59
NtRp1511
(dp1512
g62
(dp1513
sg71
g1507
sg64
(lp1514
g57
(g58
g59
NtRp1515
(dp1516
g62
(dp1517
g70
I3
ssg71
g1511
sg64
(lp1518
S'1'
asbasbasbag57
(g73
g59
NtRp1519
(dp1520
g62
(dp1521
sg71
g1503
sg64
(lp1522
g57
(g78
g59
NtRp1523
(dp1524
g62
(dp1525
sg71
g1519
sg64
(lp1526
g57
(g58
g59
NtRp1527
(dp1528
g62
(dp1529
g70
I3
ssg71
g1523
sg64
(lp1530
S'99'
p1531
asbasbasbag57
(g73
g59
NtRp1532
(dp1533
g62
(dp1534
sg71
g1503
sg64
(lp1535
g57
(g78
g59
NtRp1536
(dp1537
g62
(dp1538
sg71
g1532
sg64
(lp1539
g57
(g58
g59
NtRp1540
(dp1541
g62
(dp1542
g70
I3
ssg71
g1536
sg64
(lp1543
S'7'
asbasbasbag57
(g73
g59
NtRp1544
(dp1545
g62
(dp1546
sg71
g1503
sg64
(lp1547
g57
(g78
g59
NtRp1548
(dp1549
g62
(dp1550
sg71
g1544
sg64
(lp1551
g57
(g58
g59
NtRp1552
(dp1553
g62
(dp1554
g70
I3
ssg71
g1548
sg64
(lp1555
S'datetime.datetime(2012, 3, 4, 22, 12, 8)'
p1556
asbasbasbag57
(g73
g59
NtRp1557
(dp1558
g62
(dp1559
sg71
g1503
sg64
(lp1560
g57
(g78
g59
NtRp1561
(dp1562
g62
(dp1563
sg71
g1557
sg64
(lp1564
g57
(g58
g59
NtRp1565
(dp1566
g62
(dp1567
g70
I3
ssg71
g1561
sg64
(lp1568
S'stable'
p1569
asbasbasbasbasbasbasbag57
(g73
g59
NtRp1570
(dp1571
g62
(dp1572
sg71
g822
sg64
(lp1573
g57
(g78
g59
NtRp1574
(dp1575
g62
(dp1576
g82
g83
ssg71
g1570
sg64
(lp1577
S'wsgi_errors'
p1578
asbag57
(g78
g59
NtRp1579
(dp1580
g62
(dp1581
g89
g90
ssg71
g1570
sg64
(lp1582
S':'
asbag57
(g78
g59
NtRp1583
(dp1584
g62
(dp1585
sg71
g1570
sg64
(lp1586
g57
(g58
g59
NtRp1587
(dp1588
g62
(dp1589
g70
I4
ssg71
g1583
sg64
(lp1590
S"<open file '<stderr>', mode 'w' at 0x102156270>"
p1591
asbasbasbag57
(g73
g59
NtRp1592
(dp1593
g62
(dp1594
sg71
g822
sg64
(lp1595
g57
(g78
g59
NtRp1596
(dp1597
g62
(dp1598
g82
g83
ssg71
g1592
sg64
(lp1599
S'wsgi_file_wrapper'
p1600
asbag57
(g78
g59
NtRp1601
(dp1602
g62
(dp1603
g89
g90
ssg71
g1592
sg64
(lp1604
S':'
asbag57
(g78
g59
NtRp1605
(dp1606
g62
(dp1607
sg71
g1592
sg64
(lp1608
g57
(g58
g59
NtRp1609
(dp1610
g62
(dp1611
g70
I4
ssg71
g1605
sg64
(lp1612
S'<class wsgiref.util.FileWrapper at 0x102bbdc18>'
p1613
asbasbasbag57
(g73
g59
NtRp1614
(dp1615
g62
(dp1616
sg71
g822
sg64
(lp1617
g57
(g78
g59
NtRp1618
(dp1619
g62
(dp1620
g82
g83
ssg71
g1614
sg64
(lp1621
S'wsgi_input'
p1622
asbag57
(g78
g59
NtRp1623
(dp1624
g62
(dp1625
g89
g90
ssg71
g1614
sg64
(lp1626
S':'
asbag57
(g78
g59
NtRp1627
(dp1628
g62
(dp1629
sg71
g1614
sg64
(lp1630
g57
(g58
g59
NtRp1631
(dp1632
g62
(dp1633
g70
I4
ssg71
g1627
sg64
(lp1634
S'<socket._fileobject object at 0x10306fd50>'
p1635
asbasbasbag57
(g73
g59
NtRp1636
(dp1637
g62
(dp1638
sg71
g822
sg64
(lp1639
g57
(g78
g59
NtRp1640
(dp1641
g62
(dp1642
g82
g83
ssg71
g1636
sg64
(lp1643
S'wsgi_multiprocess'
p1644
asbag57
(g78
g59
NtRp1645
(dp1646
g62
(dp1647
g89
g90
ssg71
g1636
sg64
(lp1648
S':'
asbag57
(g78
g59
NtRp1649
(dp1650
g62
(dp1651
sg71
g1636
sg64
(lp1652
g57
(g58
g59
NtRp1653
(dp1654
g62
(dp1655
g70
I4
ssg71
g1649
sg64
(lp1656
g100
asbasbasbag57
(g73
g59
NtRp1657
(dp1658
g62
(dp1659
sg71
g822
sg64
(lp1660
g57
(g78
g59
NtRp1661
(dp1662
g62
(dp1663
g82
g83
ssg71
g1657
sg64
(lp1664
S'wsgi_multithread'
p1665
asbag57
(g78
g59
NtRp1666
(dp1667
g62
(dp1668
g89
g90
ssg71
g1657
sg64
(lp1669
S':'
asbag57
(g78
g59
NtRp1670
(dp1671
g62
(dp1672
sg71
g1657
sg64
(lp1673
g57
(g58
g59
NtRp1674
(dp1675
g62
(dp1676
g70
I4
ssg71
g1670
sg64
(lp1677
S'True'
p1678
asbasbasbag57
(g73
g59
NtRp1679
(dp1680
g62
(dp1681
sg71
g822
sg64
(lp1682
g57
(g78
g59
NtRp1683
(dp1684
g62
(dp1685
g82
g83
ssg71
g1679
sg64
(lp1686
S'wsgi_run_once'
p1687
asbag57
(g78
g59
NtRp1688
(dp1689
g62
(dp1690
g89
g90
ssg71
g1679
sg64
(lp1691
S':'
asbag57
(g78
g59
NtRp1692
(dp1693
g62
(dp1694
sg71
g1679
sg64
(lp1695
g57
(g58
g59
NtRp1696
(dp1697
g62
(dp1698
g70
I4
ssg71
g1692
sg64
(lp1699
g100
asbasbasbag57
(g73
g59
NtRp1700
(dp1701
g62
(dp1702
sg71
g822
sg64
(lp1703
g57
(g78
g59
NtRp1704
(dp1705
g62
(dp1706
g82
g83
ssg71
g1700
sg64
(lp1707
S'wsgi_url_scheme'
p1708
asbag57
(g78
g59
NtRp1709
(dp1710
g62
(dp1711
g89
g90
ssg71
g1700
sg64
(lp1712
S':'
asbag57
(g78
g59
NtRp1713
(dp1714
g62
(dp1715
sg71
g1700
sg64
(lp1716
g57
(g58
g59
NtRp1717
(dp1718
g62
(dp1719
g70
I4
ssg71
g1713
sg64
(lp1720
S'http'
p1721
asbasbasbag57
(g73
g59
NtRp1722
(dp1723
g62
(dp1724
sg71
g822
sg64
(lp1725
g57
(g78
g59
NtRp1726
(dp1727
g62
(dp1728
g82
g83
ssg71
g1722
sg64
(lp1729
S'wsgi_version'
p1730
asbag57
(g78
g59
NtRp1731
(dp1732
g62
(dp1733
g89
g90
ssg71
g1722
sg64
(lp1734
S':'
asbag57
(g78
g59
NtRp1735
(dp1736
g62
(dp1737
sg71
g1722
sg64
(lp1738
g57
(g58
g59
NtRp1739
(dp1740
g62
(dp1741
g70
I4
ssg71
g1735
sg64
(lp1742
g57
(g66
g59
NtRp1743
(dp1744
g62
(dp1745
g70
I3
ssg71
Nsg64
(lp1746
g57
(g73
g59
NtRp1747
(dp1748
g62
(dp1749
sg71
g1743
sg64
(lp1750
g57
(g78
g59
NtRp1751
(dp1752
g62
(dp1753
sg71
g1747
sg64
(lp1754
g57
(g58
g59
NtRp1755
(dp1756
g62
(dp1757
g70
I3
ssg71
g1751
sg64
(lp1758
S'1'
asbasbasbag57
(g73
g59
NtRp1759
(dp1760
g62
(dp1761
sg71
g1743
sg64
(lp1762
g57
(g78
g59
NtRp1763
(dp1764
g62
(dp1765
sg71
g1759
sg64
(lp1766
g57
(g58
g59
NtRp1767
(dp1768
g62
(dp1769
g70
I3
ssg71
g1763
sg64
(lp1770
S'0'
asbasbasbasbasbasbasbasbasbasbasbag57
(g73
g59
NtRp1771
(dp1772
g62
(dp1773
sg71
g67
sg64
(lp1774
g57
(g78
g59
NtRp1775
(dp1776
g62
(dp1777
g82
g83
ssg71
g1771
sg64
(lp1778
S'extension'
p1779
asbag57
(g78
g59
NtRp1780
(dp1781
g62
(dp1782
g89
g90
ssg71
g1771
sg64
(lp1783
S':'
asbag57
(g78
g59
NtRp1784
(dp1785
g62
(dp1786
sg71
g1771
sg64
(lp1787
g57
(g58
g59
NtRp1788
(dp1789
g62
(dp1790
g70
I5
ssg71
g1784
sg64
(lp1791
S'html'
p1792
asbasbasbag57
(g73
g59
NtRp1793
(dp1794
g62
(dp1795
sg71
g67
sg64
(lp1796
g57
(g78
g59
NtRp1797
(dp1798
g62
(dp1799
g82
g83
ssg71
g1793
sg64
(lp1800
S'folder'
p1801
asbag57
(g78
g59
NtRp1802
(dp1803
g62
(dp1804
g89
g90
ssg71
g1793
sg64
(lp1805
S':'
asbag57
(g78
g59
NtRp1806
(dp1807
g62
(dp1808
sg71
g1793
sg64
(lp1809
g57
(g58
g59
NtRp1810
(dp1811
g62
(dp1812
g70
I5
ssg71
g1806
sg64
(lp1813
S'/Users/ianaboneva/Downloads/web2py/applications/Book_Shelf/'
p1814
asbasbasbag57
(g73
g59
NtRp1815
(dp1816
g62
(dp1817
sg71
g67
sg64
(lp1818
g57
(g78
g59
NtRp1819
(dp1820
g62
(dp1821
g82
g83
ssg71
g1815
sg64
(lp1822
S'function'
p1823
asbag57
(g78
g59
NtRp1824
(dp1825
g62
(dp1826
g89
g90
ssg71
g1815
sg64
(lp1827
S':'
asbag57
(g78
g59
NtRp1828
(dp1829
g62
(dp1830
sg71
g1815
sg64
(lp1831
g57
(g58
g59
NtRp1832
(dp1833
g62
(dp1834
g70
I5
ssg71
g1828
sg64
(lp1835
S'book_shelf'
p1836
asbasbasbag57
(g73
g59
NtRp1837
(dp1838
g62
(dp1839
sg71
g67
sg64
(lp1840
g57
(g78
g59
NtRp1841
(dp1842
g62
(dp1843
g82
g83
ssg71
g1837
sg64
(lp1844
S'get_vars'
p1845
asbag57
(g78
g59
NtRp1846
(dp1847
g62
(dp1848
g89
g90
ssg71
g1837
sg64
(lp1849
S':'
asbag57
(g78
g59
NtRp1850
(dp1851
g62
(dp1852
sg71
g1837
sg64
(lp1853
g57
(g58
g59
NtRp1854
(dp1855
g62
(dp1856
g70
I5
ssg71
g1850
sg64
(lp1857
g57
(g66
g59
NtRp1858
(dp1859
g62
(dp1860
g70
I4
ssg71
Nsg64
(lp1861
sbasbasbasbag57
(g73
g59
NtRp1862
(dp1863
g62
(dp1864
sg71
g67
sg64
(lp1865
g57
(g78
g59
NtRp1866
(dp1867
g62
(dp1868
g82
g83
ssg71
g1862
sg64
(lp1869
S'global_settings'
p1870
asbag57
(g78
g59
NtRp1871
(dp1872
g62
(dp1873
g89
g90
ssg71
g1862
sg64
(lp1874
S':'
asbag57
(g78
g59
NtRp1875
(dp1876
g62
(dp1877
sg71
g1862
sg64
(lp1878
g57
(g58
g59
NtRp1879
(dp1880
g62
(dp1881
g70
I5
ssg71
g1875
sg64
(lp1882
g57
(g66
g59
NtRp1883
(dp1884
g62
(dp1885
g70
I4
ssg71
Nsg64
(lp1886
g57
(g73
g59
NtRp1887
(dp1888
g62
(dp1889
sg71
g1883
sg64
(lp1890
g57
(g78
g59
NtRp1891
(dp1892
g62
(dp1893
g82
g83
ssg71
g1887
sg64
(lp1894
g834
asbag57
(g78
g59
NtRp1895
(dp1896
g62
(dp1897
g89
g90
ssg71
g1887
sg64
(lp1898
S':'
asbag57
(g78
g59
NtRp1899
(dp1900
g62
(dp1901
sg71
g1887
sg64
(lp1902
g57
(g58
g59
NtRp1903
(dp1904
g62
(dp1905
g70
I4
ssg71
g1899
sg64
(lp1906
S"set(['/Users/ianaboneva/Downloads/web2py/applications/welcome/', '/Users/ianaboneva/Downloads/web2py/applications/Book_Shelf/', '/Users/ianaboneva/Downloads/web2py/applications/admin/'])"
p1907
asbasbasbag57
(g73
g59
NtRp1908
(dp1909
g62
(dp1910
sg71
g1883
sg64
(lp1911
g57
(g78
g59
NtRp1912
(dp1913
g62
(dp1914
g82
g83
ssg71
g1908
sg64
(lp1915
g856
asbag57
(g78
g59
NtRp1916
(dp1917
g62
(dp1918
g89
g90
ssg71
g1908
sg64
(lp1919
S':'
asbag57
(g78
g59
NtRp1920
(dp1921
g62
(dp1922
sg71
g1908
sg64
(lp1923
g57
(g58
g59
NtRp1924
(dp1925
g62
(dp1926
g70
I4
ssg71
g1920
sg64
(lp1927
g869
asbasbasbag57
(g73
g59
NtRp1928
(dp1929
g62
(dp1930
sg71
g1883
sg64
(lp1931
g57
(g78
g59
NtRp1932
(dp1933
g62
(dp1934
g82
g83
ssg71
g1928
sg64
(lp1935
g878
asbag57
(g78
g59
NtRp1936
(dp1937
g62
(dp1938
g89
g90
ssg71
g1928
sg64
(lp1939
S':'
asbag57
(g78
g59
NtRp1940
(dp1941
g62
(dp1942
sg71
g1928
sg64
(lp1943
g57
(g58
g59
NtRp1944
(dp1945
g62
(dp1946
g70
I4
ssg71
g1940
sg64
(lp1947
g57
(g66
g59
NtRp1948
(dp1949
g62
(dp1950
g70
I3
ssg71
Nsg64
(lp1951
sbasbasbasbag57
(g73
g59
NtRp1952
(dp1953
g62
(dp1954
sg71
g1883
sg64
(lp1955
g57
(g78
g59
NtRp1956
(dp1957
g62
(dp1958
g82
g83
ssg71
g1952
sg64
(lp1959
g903
asbag57
(g78
g59
NtRp1960
(dp1961
g62
(dp1962
g89
g90
ssg71
g1952
sg64
(lp1963
S':'
asbag57
(g78
g59
NtRp1964
(dp1965
g62
(dp1966
sg71
g1952
sg64
(lp1967
g57
(g58
g59
NtRp1968
(dp1969
g62
(dp1970
g70
I4
ssg71
g1964
sg64
(lp1971
S"<Values at 0x102cbec68: {'verbose': False, 'ip': '127.0.0.1', 'shutdown_timeout': 5, 'taskbar': False, 'nocron': False, 'pid_filename': 'httpserver.pid', 'maxthreads': None, 'softcron': False, 'server_name': 'Iana-Bonevas-MacBook-Pro.local', 'bpython': False, 'nogui': False, 'port': 8000, 'extcron': False, 'debuglevel': 30, 'test': None, 'folder': '/Users/ianaboneva/Downloads/web2py', 'config': '', 'import_models': False, 'winservice': '', 'shell': None, 'run': '', 'log_filename': 'httpserver.log', 'args': [''], 'socket_timeout': 5, 'ssl_ca_certificate': None, 'scheduler': None, 'profiler_filename': None, 'ssl_private_key': '', 'password': '<ask>', 'request_queue_size': 5, 'ssl_certificate': '', 'cronjob': False, 'numthreads': None, 'quiet': False, 'interfaces': None, 'minthreads': None, 'timeout': 10, 'plain': False, 'nobanner': False}>"
p1972
asbasbasbag57
(g73
g59
NtRp1973
(dp1974
g62
(dp1975
sg71
g1883
sg64
(lp1976
g57
(g78
g59
NtRp1977
(dp1978
g62
(dp1979
g82
g83
ssg71
g1973
sg64
(lp1980
g925
asbag57
(g78
g59
NtRp1981
(dp1982
g62
(dp1983
g89
g90
ssg71
g1973
sg64
(lp1984
S':'
asbag57
(g78
g59
NtRp1985
(dp1986
g62
(dp1987
sg71
g1973
sg64
(lp1988
g57
(g58
g59
NtRp1989
(dp1990
g62
(dp1991
g70
I4
ssg71
g1985
sg64
(lp1992
S'set([])'
p1993
asbasbasbag57
(g73
g59
NtRp1994
(dp1995
g62
(dp1996
sg71
g1883
sg64
(lp1997
g57
(g78
g59
NtRp1998
(dp1999
g62
(dp2000
g82
g83
ssg71
g1994
sg64
(lp2001
g947
asbag57
(g78
g59
NtRp2002
(dp2003
g62
(dp2004
g89
g90
ssg71
g1994
sg64
(lp2005
S':'
asbag57
(g78
g59
NtRp2006
(dp2007
g62
(dp2008
sg71
g1994
sg64
(lp2009
g57
(g58
g59
NtRp2010
(dp2011
g62
(dp2012
g70
I4
ssg71
g2006
sg64
(lp2013
g100
asbasbasbag57
(g73
g59
NtRp2014
(dp2015
g62
(dp2016
sg71
g1883
sg64
(lp2017
g57
(g78
g59
NtRp2018
(dp2019
g62
(dp2020
g82
g83
ssg71
g2014
sg64
(lp2021
g968
asbag57
(g78
g59
NtRp2022
(dp2023
g62
(dp2024
g89
g90
ssg71
g2014
sg64
(lp2025
S':'
asbag57
(g78
g59
NtRp2026
(dp2027
g62
(dp2028
sg71
g2014
sg64
(lp2029
g57
(g58
g59
NtRp2030
(dp2031
g62
(dp2032
g70
I4
ssg71
g2026
sg64
(lp2033
g981
asbasbasbag57
(g73
g59
NtRp2034
(dp2035
g62
(dp2036
sg71
g1883
sg64
(lp2037
g57
(g78
g59
NtRp2038
(dp2039
g62
(dp2040
g82
g83
ssg71
g2034
sg64
(lp2041
g1188
asbag57
(g78
g59
NtRp2042
(dp2043
g62
(dp2044
g89
g90
ssg71
g2034
sg64
(lp2045
S':'
asbag57
(g78
g59
NtRp2046
(dp2047
g62
(dp2048
sg71
g2034
sg64
(lp2049
g57
(g58
g59
NtRp2050
(dp2051
g62
(dp2052
g70
I4
ssg71
g2046
sg64
(lp2053
g100
asbasbasbag57
(g73
g59
NtRp2054
(dp2055
g62
(dp2056
sg71
g1883
sg64
(lp2057
g57
(g78
g59
NtRp2058
(dp2059
g62
(dp2060
g82
g83
ssg71
g2054
sg64
(lp2061
g1209
asbag57
(g78
g59
NtRp2062
(dp2063
g62
(dp2064
g89
g90
ssg71
g2054
sg64
(lp2065
S':'
asbag57
(g78
g59
NtRp2066
(dp2067
g62
(dp2068
sg71
g2054
sg64
(lp2069
g57
(g58
g59
NtRp2070
(dp2071
g62
(dp2072
g70
I4
ssg71
g2066
sg64
(lp2073
g100
asbasbasbag57
(g73
g59
NtRp2074
(dp2075
g62
(dp2076
sg71
g1883
sg64
(lp2077
g57
(g78
g59
NtRp2078
(dp2079
g62
(dp2080
g82
g83
ssg71
g2074
sg64
(lp2081
g1447
asbag57
(g78
g59
NtRp2082
(dp2083
g62
(dp2084
g89
g90
ssg71
g2074
sg64
(lp2085
S':'
asbag57
(g78
g59
NtRp2086
(dp2087
g62
(dp2088
sg71
g2074
sg64
(lp2089
g57
(g58
g59
NtRp2090
(dp2091
g62
(dp2092
g70
I4
ssg71
g2086
sg64
(lp2093
g1460
asbasbasbag57
(g73
g59
NtRp2094
(dp2095
g62
(dp2096
sg71
g1883
sg64
(lp2097
g57
(g78
g59
NtRp2098
(dp2099
g62
(dp2100
g82
g83
ssg71
g2094
sg64
(lp2101
g1490
asbag57
(g78
g59
NtRp2102
(dp2103
g62
(dp2104
g89
g90
ssg71
g2094
sg64
(lp2105
S':'
asbag57
(g78
g59
NtRp2106
(dp2107
g62
(dp2108
sg71
g2094
sg64
(lp2109
g57
(g58
g59
NtRp2110
(dp2111
g62
(dp2112
g70
I4
ssg71
g2106
sg64
(lp2113
g57
(g66
g59
NtRp2114
(dp2115
g62
(dp2116
g70
I3
ssg71
Nsg64
(lp2117
g57
(g73
g59
NtRp2118
(dp2119
g62
(dp2120
sg71
g2114
sg64
(lp2121
g57
(g78
g59
NtRp2122
(dp2123
g62
(dp2124
sg71
g2118
sg64
(lp2125
g57
(g58
g59
NtRp2126
(dp2127
g62
(dp2128
g70
I3
ssg71
g2122
sg64
(lp2129
S'1'
asbasbasbag57
(g73
g59
NtRp2130
(dp2131
g62
(dp2132
sg71
g2114
sg64
(lp2133
g57
(g78
g59
NtRp2134
(dp2135
g62
(dp2136
sg71
g2130
sg64
(lp2137
g57
(g58
g59
NtRp2138
(dp2139
g62
(dp2140
g70
I3
ssg71
g2134
sg64
(lp2141
S'99'
p2142
asbasbasbag57
(g73
g59
NtRp2143
(dp2144
g62
(dp2145
sg71
g2114
sg64
(lp2146
g57
(g78
g59
NtRp2147
(dp2148
g62
(dp2149
sg71
g2143
sg64
(lp2150
g57
(g58
g59
NtRp2151
(dp2152
g62
(dp2153
g70
I3
ssg71
g2147
sg64
(lp2154
S'7'
asbasbasbag57
(g73
g59
NtRp2155
(dp2156
g62
(dp2157
sg71
g2114
sg64
(lp2158
g57
(g78
g59
NtRp2159
(dp2160
g62
(dp2161
sg71
g2155
sg64
(lp2162
g57
(g58
g59
NtRp2163
(dp2164
g62
(dp2165
g70
I3
ssg71
g2159
sg64
(lp2166
S'datetime.datetime(2012, 3, 4, 22, 12, 8)'
p2167
asbasbasbag57
(g73
g59
NtRp2168
(dp2169
g62
(dp2170
sg71
g2114
sg64
(lp2171
g57
(g78
g59
NtRp2172
(dp2173
g62
(dp2174
sg71
g2168
sg64
(lp2175
g57
(g58
g59
NtRp2176
(dp2177
g62
(dp2178
g70
I3
ssg71
g2172
sg64
(lp2179
g1569
asbasbasbasbasbasbasbasbasbasbasbag57
(g73
g59
NtRp2180
(dp2181
g62
(dp2182
sg71
g67
sg64
(lp2183
g57
(g78
g59
NtRp2184
(dp2185
g62
(dp2186
g82
g83
ssg71
g2180
sg64
(lp2187
S'is_https'
p2188
asbag57
(g78
g59
NtRp2189
(dp2190
g62
(dp2191
g89
g90
ssg71
g2180
sg64
(lp2192
S':'
asbag57
(g78
g59
NtRp2193
(dp2194
g62
(dp2195
sg71
g2180
sg64
(lp2196
g57
(g58
g59
NtRp2197
(dp2198
g62
(dp2199
g70
I5
ssg71
g2193
sg64
(lp2200
g100
asbasbasbag57
(g73
g59
NtRp2201
(dp2202
g62
(dp2203
sg71
g67
sg64
(lp2204
g57
(g78
g59
NtRp2205
(dp2206
g62
(dp2207
g82
g83
ssg71
g2201
sg64
(lp2208
S'is_local'
p2209
asbag57
(g78
g59
NtRp2210
(dp2211
g62
(dp2212
g89
g90
ssg71
g2201
sg64
(lp2213
S':'
asbag57
(g78
g59
NtRp2214
(dp2215
g62
(dp2216
sg71
g2201
sg64
(lp2217
g57
(g58
g59
NtRp2218
(dp2219
g62
(dp2220
g70
I5
ssg71
g2214
sg64
(lp2221
g1678
asbasbasbag57
(g73
g59
NtRp2222
(dp2223
g62
(dp2224
sg71
g67
sg64
(lp2225
g57
(g78
g59
NtRp2226
(dp2227
g62
(dp2228
g82
g83
ssg71
g2222
sg64
(lp2229
S'is_restful'
p2230
asbag57
(g78
g59
NtRp2231
(dp2232
g62
(dp2233
g89
g90
ssg71
g2222
sg64
(lp2234
S':'
asbag57
(g78
g59
NtRp2235
(dp2236
g62
(dp2237
sg71
g2222
sg64
(lp2238
g57
(g58
g59
NtRp2239
(dp2240
g62
(dp2241
g70
I5
ssg71
g2235
sg64
(lp2242
g100
asbasbasbag57
(g73
g59
NtRp2243
(dp2244
g62
(dp2245
sg71
g67
sg64
(lp2246
g57
(g78
g59
NtRp2247
(dp2248
g62
(dp2249
g82
g83
ssg71
g2243
sg64
(lp2250
S'now'
p2251
asbag57
(g78
g59
NtRp2252
(dp2253
g62
(dp2254
g89
g90
ssg71
g2243
sg64
(lp2255
S':'
asbag57
(g78
g59
NtRp2256
(dp2257
g62
(dp2258
sg71
g2243
sg64
(lp2259
g57
(g58
g59
NtRp2260
(dp2261
g62
(dp2262
g70
I5
ssg71
g2256
sg64
(lp2263
S'datetime.datetime(2012, 5, 21, 19, 30, 2, 106155)'
p2264
asbasbasbag57
(g73
g59
NtRp2265
(dp2266
g62
(dp2267
sg71
g67
sg64
(lp2268
g57
(g78
g59
NtRp2269
(dp2270
g62
(dp2271
g82
g83
ssg71
g2265
sg64
(lp2272
S'post_vars'
p2273
asbag57
(g78
g59
NtRp2274
(dp2275
g62
(dp2276
g89
g90
ssg71
g2265
sg64
(lp2277
S':'
asbag57
(g78
g59
NtRp2278
(dp2279
g62
(dp2280
sg71
g2265
sg64
(lp2281
g57
(g58
g59
NtRp2282
(dp2283
g62
(dp2284
g70
I5
ssg71
g2278
sg64
(lp2285
g57
(g66
g59
NtRp2286
(dp2287
g62
(dp2288
g70
I4
ssg71
Nsg64
(lp2289
sbasbasbasbag57
(g73
g59
NtRp2290
(dp2291
g62
(dp2292
sg71
g67
sg64
(lp2293
g57
(g78
g59
NtRp2294
(dp2295
g62
(dp2296
g82
g83
ssg71
g2290
sg64
(lp2297
S'url'
p2298
asbag57
(g78
g59
NtRp2299
(dp2300
g62
(dp2301
g89
g90
ssg71
g2290
sg64
(lp2302
S':'
asbag57
(g78
g59
NtRp2303
(dp2304
g62
(dp2305
sg71
g2290
sg64
(lp2306
g57
(g58
g59
NtRp2307
(dp2308
g62
(dp2309
g70
I5
ssg71
g2303
sg64
(lp2310
S'/Book_Shelf/default/book_shelf'
p2311
asbasbasbag57
(g73
g59
NtRp2312
(dp2313
g62
(dp2314
sg71
g67
sg64
(lp2315
g57
(g78
g59
NtRp2316
(dp2317
g62
(dp2318
g82
g83
ssg71
g2312
sg64
(lp2319
S'utcnow'
p2320
asbag57
(g78
g59
NtRp2321
(dp2322
g62
(dp2323
g89
g90
ssg71
g2312
sg64
(lp2324
S':'
asbag57
(g78
g59
NtRp2325
(dp2326
g62
(dp2327
sg71
g2312
sg64
(lp2328
g57
(g58
g59
NtRp2329
(dp2330
g62
(dp2331
g70
I5
ssg71
g2325
sg64
(lp2332
S'datetime.datetime(2012, 5, 22, 0, 30, 2, 106169)'
p2333
asbasbasbag57
(g73
g59
NtRp2334
(dp2335
g62
(dp2336
sg71
g67
sg64
(lp2337
g57
(g78
g59
NtRp2338
(dp2339
g62
(dp2340
g82
g83
ssg71
g2334
sg64
(lp2341
S'uuid'
p2342
asbag57
(g78
g59
NtRp2343
(dp2344
g62
(dp2345
g89
g90
ssg71
g2334
sg64
(lp2346
S':'
asbag57
(g78
g59
NtRp2347
(dp2348
g62
(dp2349
sg71
g2334
sg64
(lp2350
g57
(g58
g59
NtRp2351
(dp2352
g62
(dp2353
g70
I5
ssg71
g2347
sg64
(lp2354
S'Book_Shelf/127.0.0.1.2012-05-21.19-30-02.b605922d-f50c-4c6e-b69a-f05dbd59992b'
p2355
asbasbasbag57
(g73
g59
NtRp2356
(dp2357
g62
(dp2358
sg71
g67
sg64
(lp2359
g57
(g78
g59
NtRp2360
(dp2361
g62
(dp2362
g82
g83
ssg71
g2356
sg64
(lp2363
S'vars'
p2364
asbag57
(g78
g59
NtRp2365
(dp2366
g62
(dp2367
g89
g90
ssg71
g2356
sg64
(lp2368
S':'
asbag57
(g78
g59
NtRp2369
(dp2370
g62
(dp2371
sg71
g2356
sg64
(lp2372
g57
(g58
g59
NtRp2373
(dp2374
g62
(dp2375
g70
I5
ssg71
g2369
sg64
(lp2376
g57
(g66
g59
NtRp2377
(dp2378
g62
(dp2379
g70
I4
ssg71
Nsg64
(lp2380
sbasbasbasbag57
(g73
g59
NtRp2381
(dp2382
g62
(dp2383
sg71
g67
sg64
(lp2384
g57
(g78
g59
NtRp2385
(dp2386
g62
(dp2387
g82
g83
ssg71
g2381
sg64
(lp2388
S'wsgi'
p2389
asbag57
(g78
g59
NtRp2390
(dp2391
g62
(dp2392
g89
g90
ssg71
g2381
sg64
(lp2393
S':'
asbag57
(g78
g59
NtRp2394
(dp2395
g62
(dp2396
sg71
g2381
sg64
(lp2397
g57
(g58
g59
NtRp2398
(dp2399
g62
(dp2400
g70
I5
ssg71
g2394
sg64
(lp2401
g57
(g66
g59
NtRp2402
(dp2403
g62
(dp2404
g70
I4
ssg71
Nsg64
(lp2405
g57
(g73
g59
NtRp2406
(dp2407
g62
(dp2408
sg71
g2402
sg64
(lp2409
g57
(g78
g59
NtRp2410
(dp2411
g62
(dp2412
g82
g83
ssg71
g2406
sg64
(lp2413
S'environ'
p2414
asbag57
(g78
g59
NtRp2415
(dp2416
g62
(dp2417
g89
g90
ssg71
g2406
sg64
(lp2418
S':'
asbag57
(g78
g59
NtRp2419
(dp2420
g62
(dp2421
sg71
g2406
sg64
(lp2422
g57
(g58
g59
NtRp2423
(dp2424
g62
(dp2425
g70
I4
ssg71
g2419
sg64
(lp2426
g57
(g66
g59
NtRp2427
(dp2428
g62
(dp2429
g70
I3
ssg71
Nsg64
(lp2430
g57
(g73
g59
NtRp2431
(dp2432
g62
(dp2433
sg71
g2427
sg64
(lp2434
g57
(g78
g59
NtRp2435
(dp2436
g62
(dp2437
g82
g83
ssg71
g2431
sg64
(lp2438
S'HTTP_ACCEPT'
p2439
asbag57
(g78
g59
NtRp2440
(dp2441
g62
(dp2442
g89
g90
ssg71
g2431
sg64
(lp2443
S':'
asbag57
(g78
g59
NtRp2444
(dp2445
g62
(dp2446
sg71
g2431
sg64
(lp2447
g57
(g58
g59
NtRp2448
(dp2449
g62
(dp2450
g70
I3
ssg71
g2444
sg64
(lp2451
g1003
asbasbasbag57
(g73
g59
NtRp2452
(dp2453
g62
(dp2454
sg71
g2427
sg64
(lp2455
g57
(g78
g59
NtRp2456
(dp2457
g62
(dp2458
g82
g83
ssg71
g2452
sg64
(lp2459
S'HTTP_ACCEPT_CHARSET'
p2460
asbag57
(g78
g59
NtRp2461
(dp2462
g62
(dp2463
g89
g90
ssg71
g2452
sg64
(lp2464
S':'
asbag57
(g78
g59
NtRp2465
(dp2466
g62
(dp2467
sg71
g2452
sg64
(lp2468
g57
(g58
g59
NtRp2469
(dp2470
g62
(dp2471
g70
I3
ssg71
g2465
sg64
(lp2472
g1025
asbasbasbag57
(g73
g59
NtRp2473
(dp2474
g62
(dp2475
sg71
g2427
sg64
(lp2476
g57
(g78
g59
NtRp2477
(dp2478
g62
(dp2479
g82
g83
ssg71
g2473
sg64
(lp2480
S'HTTP_ACCEPT_ENCODING'
p2481
asbag57
(g78
g59
NtRp2482
(dp2483
g62
(dp2484
g89
g90
ssg71
g2473
sg64
(lp2485
S':'
asbag57
(g78
g59
NtRp2486
(dp2487
g62
(dp2488
sg71
g2473
sg64
(lp2489
g57
(g58
g59
NtRp2490
(dp2491
g62
(dp2492
g70
I3
ssg71
g2486
sg64
(lp2493
g1047
asbasbasbag57
(g73
g59
NtRp2494
(dp2495
g62
(dp2496
sg71
g2427
sg64
(lp2497
g57
(g78
g59
NtRp2498
(dp2499
g62
(dp2500
g82
g83
ssg71
g2494
sg64
(lp2501
S'HTTP_ACCEPT_LANGUAGE'
p2502
asbag57
(g78
g59
NtRp2503
(dp2504
g62
(dp2505
g89
g90
ssg71
g2494
sg64
(lp2506
S':'
asbag57
(g78
g59
NtRp2507
(dp2508
g62
(dp2509
sg71
g2494
sg64
(lp2510
g57
(g58
g59
NtRp2511
(dp2512
g62
(dp2513
g70
I3
ssg71
g2507
sg64
(lp2514
g1069
asbasbasbag57
(g73
g59
NtRp2515
(dp2516
g62
(dp2517
sg71
g2427
sg64
(lp2518
g57
(g78
g59
NtRp2519
(dp2520
g62
(dp2521
g82
g83
ssg71
g2515
sg64
(lp2522
S'HTTP_CONNECTION'
p2523
asbag57
(g78
g59
NtRp2524
(dp2525
g62
(dp2526
g89
g90
ssg71
g2515
sg64
(lp2527
S':'
asbag57
(g78
g59
NtRp2528
(dp2529
g62
(dp2530
sg71
g2515
sg64
(lp2531
g57
(g58
g59
NtRp2532
(dp2533
g62
(dp2534
g70
I3
ssg71
g2528
sg64
(lp2535
g1091
asbasbasbag57
(g73
g59
NtRp2536
(dp2537
g62
(dp2538
sg71
g2427
sg64
(lp2539
g57
(g78
g59
NtRp2540
(dp2541
g62
(dp2542
g82
g83
ssg71
g2536
sg64
(lp2543
S'HTTP_COOKIE'
p2544
asbag57
(g78
g59
NtRp2545
(dp2546
g62
(dp2547
g89
g90
ssg71
g2536
sg64
(lp2548
S':'
asbag57
(g78
g59
NtRp2549
(dp2550
g62
(dp2551
sg71
g2536
sg64
(lp2552
g57
(g58
g59
NtRp2553
(dp2554
g62
(dp2555
g70
I3
ssg71
g2549
sg64
(lp2556
g1113
asbasbasbag57
(g73
g59
NtRp2557
(dp2558
g62
(dp2559
sg71
g2427
sg64
(lp2560
g57
(g78
g59
NtRp2561
(dp2562
g62
(dp2563
g82
g83
ssg71
g2557
sg64
(lp2564
S'HTTP_HOST'
p2565
asbag57
(g78
g59
NtRp2566
(dp2567
g62
(dp2568
g89
g90
ssg71
g2557
sg64
(lp2569
S':'
asbag57
(g78
g59
NtRp2570
(dp2571
g62
(dp2572
sg71
g2557
sg64
(lp2573
g57
(g58
g59
NtRp2574
(dp2575
g62
(dp2576
g70
I3
ssg71
g2570
sg64
(lp2577
g1135
asbasbasbag57
(g73
g59
NtRp2578
(dp2579
g62
(dp2580
sg71
g2427
sg64
(lp2581
g57
(g78
g59
NtRp2582
(dp2583
g62
(dp2584
g82
g83
ssg71
g2578
sg64
(lp2585
S'HTTP_REFERER'
p2586
asbag57
(g78
g59
NtRp2587
(dp2588
g62
(dp2589
g89
g90
ssg71
g2578
sg64
(lp2590
S':'
asbag57
(g78
g59
NtRp2591
(dp2592
g62
(dp2593
sg71
g2578
sg64
(lp2594
g57
(g58
g59
NtRp2595
(dp2596
g62
(dp2597
g70
I3
ssg71
g2591
sg64
(lp2598
g1157
asbasbasbag57
(g73
g59
NtRp2599
(dp2600
g62
(dp2601
sg71
g2427
sg64
(lp2602
g57
(g78
g59
NtRp2603
(dp2604
g62
(dp2605
g82
g83
ssg71
g2599
sg64
(lp2606
S'HTTP_USER_AGENT'
p2607
asbag57
(g78
g59
NtRp2608
(dp2609
g62
(dp2610
g89
g90
ssg71
g2599
sg64
(lp2611
S':'
asbag57
(g78
g59
NtRp2612
(dp2613
g62
(dp2614
sg71
g2599
sg64
(lp2615
g57
(g58
g59
NtRp2616
(dp2617
g62
(dp2618
g70
I3
ssg71
g2612
sg64
(lp2619
g1179
asbasbasbag57
(g73
g59
NtRp2620
(dp2621
g62
(dp2622
sg71
g2427
sg64
(lp2623
g57
(g78
g59
NtRp2624
(dp2625
g62
(dp2626
g82
g83
ssg71
g2620
sg64
(lp2627
S'PATH_INFO'
p2628
asbag57
(g78
g59
NtRp2629
(dp2630
g62
(dp2631
g89
g90
ssg71
g2620
sg64
(lp2632
S':'
asbag57
(g78
g59
NtRp2633
(dp2634
g62
(dp2635
sg71
g2620
sg64
(lp2636
g57
(g58
g59
NtRp2637
(dp2638
g62
(dp2639
g70
I3
ssg71
g2633
sg64
(lp2640
g1243
asbasbasbag57
(g73
g59
NtRp2641
(dp2642
g62
(dp2643
sg71
g2427
sg64
(lp2644
g57
(g78
g59
NtRp2645
(dp2646
g62
(dp2647
g82
g83
ssg71
g2641
sg64
(lp2648
S'QUERY_STRING'
p2649
asbag57
(g78
g59
NtRp2650
(dp2651
g62
(dp2652
g89
g90
ssg71
g2641
sg64
(lp2653
S':'
asbag57
(g78
g59
NtRp2654
(dp2655
g62
(dp2656
sg71
g2641
sg64
(lp2657
g57
(g58
g59
NtRp2658
(dp2659
g62
(dp2660
g70
I3
ssg71
g2654
sg64
(lp2661
S''
asbasbasbag57
(g73
g59
NtRp2662
(dp2663
g62
(dp2664
sg71
g2427
sg64
(lp2665
g57
(g78
g59
NtRp2666
(dp2667
g62
(dp2668
g82
g83
ssg71
g2662
sg64
(lp2669
S'REMOTE_ADDR'
p2670
asbag57
(g78
g59
NtRp2671
(dp2672
g62
(dp2673
g89
g90
ssg71
g2662
sg64
(lp2674
S':'
asbag57
(g78
g59
NtRp2675
(dp2676
g62
(dp2677
sg71
g2662
sg64
(lp2678
g57
(g58
g59
NtRp2679
(dp2680
g62
(dp2681
g70
I3
ssg71
g2675
sg64
(lp2682
g190
asbasbasbag57
(g73
g59
NtRp2683
(dp2684
g62
(dp2685
sg71
g2427
sg64
(lp2686
g57
(g78
g59
NtRp2687
(dp2688
g62
(dp2689
g82
g83
ssg71
g2683
sg64
(lp2690
S'REMOTE_PORT'
p2691
asbag57
(g78
g59
NtRp2692
(dp2693
g62
(dp2694
g89
g90
ssg71
g2683
sg64
(lp2695
S':'
asbag57
(g78
g59
NtRp2696
(dp2697
g62
(dp2698
sg71
g2683
sg64
(lp2699
g57
(g58
g59
NtRp2700
(dp2701
g62
(dp2702
g70
I3
ssg71
g2696
sg64
(lp2703
g1307
asbasbasbag57
(g73
g59
NtRp2704
(dp2705
g62
(dp2706
sg71
g2427
sg64
(lp2707
g57
(g78
g59
NtRp2708
(dp2709
g62
(dp2710
g82
g83
ssg71
g2704
sg64
(lp2711
S'REQUEST_METHOD'
p2712
asbag57
(g78
g59
NtRp2713
(dp2714
g62
(dp2715
g89
g90
ssg71
g2704
sg64
(lp2716
S':'
asbag57
(g78
g59
NtRp2717
(dp2718
g62
(dp2719
sg71
g2704
sg64
(lp2720
g57
(g58
g59
NtRp2721
(dp2722
g62
(dp2723
g70
I3
ssg71
g2717
sg64
(lp2724
g1329
asbasbasbag57
(g73
g59
NtRp2725
(dp2726
g62
(dp2727
sg71
g2427
sg64
(lp2728
g57
(g78
g59
NtRp2729
(dp2730
g62
(dp2731
g82
g83
ssg71
g2725
sg64
(lp2732
S'SCRIPT_NAME'
p2733
asbag57
(g78
g59
NtRp2734
(dp2735
g62
(dp2736
g89
g90
ssg71
g2725
sg64
(lp2737
S':'
asbag57
(g78
g59
NtRp2738
(dp2739
g62
(dp2740
sg71
g2725
sg64
(lp2741
g57
(g58
g59
NtRp2742
(dp2743
g62
(dp2744
g70
I3
ssg71
g2738
sg64
(lp2745
S''
asbasbasbag57
(g73
g59
NtRp2746
(dp2747
g62
(dp2748
sg71
g2427
sg64
(lp2749
g57
(g78
g59
NtRp2750
(dp2751
g62
(dp2752
g82
g83
ssg71
g2746
sg64
(lp2753
S'SERVER_NAME'
p2754
asbag57
(g78
g59
NtRp2755
(dp2756
g62
(dp2757
g89
g90
ssg71
g2746
sg64
(lp2758
S':'
asbag57
(g78
g59
NtRp2759
(dp2760
g62
(dp2761
sg71
g2746
sg64
(lp2762
g57
(g58
g59
NtRp2763
(dp2764
g62
(dp2765
g70
I3
ssg71
g2759
sg64
(lp2766
g1372
asbasbasbag57
(g73
g59
NtRp2767
(dp2768
g62
(dp2769
sg71
g2427
sg64
(lp2770
g57
(g78
g59
NtRp2771
(dp2772
g62
(dp2773
g82
g83
ssg71
g2767
sg64
(lp2774
S'SERVER_PORT'
p2775
asbag57
(g78
g59
NtRp2776
(dp2777
g62
(dp2778
g89
g90
ssg71
g2767
sg64
(lp2779
S':'
asbag57
(g78
g59
NtRp2780
(dp2781
g62
(dp2782
sg71
g2767
sg64
(lp2783
g57
(g58
g59
NtRp2784
(dp2785
g62
(dp2786
g70
I3
ssg71
g2780
sg64
(lp2787
g1394
asbasbasbag57
(g73
g59
NtRp2788
(dp2789
g62
(dp2790
sg71
g2427
sg64
(lp2791
g57
(g78
g59
NtRp2792
(dp2793
g62
(dp2794
g82
g83
ssg71
g2788
sg64
(lp2795
S'SERVER_PROTOCOL'
p2796
asbag57
(g78
g59
NtRp2797
(dp2798
g62
(dp2799
g89
g90
ssg71
g2788
sg64
(lp2800
S':'
asbag57
(g78
g59
NtRp2801
(dp2802
g62
(dp2803
sg71
g2788
sg64
(lp2804
g57
(g58
g59
NtRp2805
(dp2806
g62
(dp2807
g70
I3
ssg71
g2801
sg64
(lp2808
g1416
asbasbasbag57
(g73
g59
NtRp2809
(dp2810
g62
(dp2811
sg71
g2427
sg64
(lp2812
g57
(g78
g59
NtRp2813
(dp2814
g62
(dp2815
g82
g83
ssg71
g2809
sg64
(lp2816
S'SERVER_SOFTWARE'
p2817
asbag57
(g78
g59
NtRp2818
(dp2819
g62
(dp2820
g89
g90
ssg71
g2809
sg64
(lp2821
S':'
asbag57
(g78
g59
NtRp2822
(dp2823
g62
(dp2824
sg71
g2809
sg64
(lp2825
g57
(g58
g59
NtRp2826
(dp2827
g62
(dp2828
g70
I3
ssg71
g2822
sg64
(lp2829
g1438
asbasbasbag57
(g73
g59
NtRp2830
(dp2831
g62
(dp2832
sg71
g2427
sg64
(lp2833
g57
(g78
g59
NtRp2834
(dp2835
g62
(dp2836
g82
g83
ssg71
g2830
sg64
(lp2837
S'wsgi.errors'
p2838
asbag57
(g78
g59
NtRp2839
(dp2840
g62
(dp2841
g89
g90
ssg71
g2830
sg64
(lp2842
S':'
asbag57
(g78
g59
NtRp2843
(dp2844
g62
(dp2845
sg71
g2830
sg64
(lp2846
g57
(g58
g59
NtRp2847
(dp2848
g62
(dp2849
g70
I3
ssg71
g2843
sg64
(lp2850
S"<open file '<stderr>', mode 'w' at 0x102156270>"
p2851
asbasbasbag57
(g73
g59
NtRp2852
(dp2853
g62
(dp2854
sg71
g2427
sg64
(lp2855
g57
(g78
g59
NtRp2856
(dp2857
g62
(dp2858
g82
g83
ssg71
g2852
sg64
(lp2859
S'wsgi.file_wrapper'
p2860
asbag57
(g78
g59
NtRp2861
(dp2862
g62
(dp2863
g89
g90
ssg71
g2852
sg64
(lp2864
S':'
asbag57
(g78
g59
NtRp2865
(dp2866
g62
(dp2867
sg71
g2852
sg64
(lp2868
g57
(g58
g59
NtRp2869
(dp2870
g62
(dp2871
g70
I3
ssg71
g2865
sg64
(lp2872
S'<class wsgiref.util.FileWrapper at 0x102bbdc18>'
p2873
asbasbasbag57
(g73
g59
NtRp2874
(dp2875
g62
(dp2876
sg71
g2427
sg64
(lp2877
g57
(g78
g59
NtRp2878
(dp2879
g62
(dp2880
g82
g83
ssg71
g2874
sg64
(lp2881
S'wsgi.input'
p2882
asbag57
(g78
g59
NtRp2883
(dp2884
g62
(dp2885
g89
g90
ssg71
g2874
sg64
(lp2886
S':'
asbag57
(g78
g59
NtRp2887
(dp2888
g62
(dp2889
sg71
g2874
sg64
(lp2890
g57
(g58
g59
NtRp2891
(dp2892
g62
(dp2893
g70
I3
ssg71
g2887
sg64
(lp2894
S'<cStringIO.StringO object at 0x1065ce1b8>'
p2895
asbasbasbag57
(g73
g59
NtRp2896
(dp2897
g62
(dp2898
sg71
g2427
sg64
(lp2899
g57
(g78
g59
NtRp2900
(dp2901
g62
(dp2902
g82
g83
ssg71
g2896
sg64
(lp2903
S'wsgi.multiprocess'
p2904
asbag57
(g78
g59
NtRp2905
(dp2906
g62
(dp2907
g89
g90
ssg71
g2896
sg64
(lp2908
S':'
asbag57
(g78
g59
NtRp2909
(dp2910
g62
(dp2911
sg71
g2896
sg64
(lp2912
g57
(g58
g59
NtRp2913
(dp2914
g62
(dp2915
g70
I3
ssg71
g2909
sg64
(lp2916
g100
asbasbasbag57
(g73
g59
NtRp2917
(dp2918
g62
(dp2919
sg71
g2427
sg64
(lp2920
g57
(g78
g59
NtRp2921
(dp2922
g62
(dp2923
g82
g83
ssg71
g2917
sg64
(lp2924
S'wsgi.multithread'
p2925
asbag57
(g78
g59
NtRp2926
(dp2927
g62
(dp2928
g89
g90
ssg71
g2917
sg64
(lp2929
S':'
asbag57
(g78
g59
NtRp2930
(dp2931
g62
(dp2932
sg71
g2917
sg64
(lp2933
g57
(g58
g59
NtRp2934
(dp2935
g62
(dp2936
g70
I3
ssg71
g2930
sg64
(lp2937
g1678
asbasbasbag57
(g73
g59
NtRp2938
(dp2939
g62
(dp2940
sg71
g2427
sg64
(lp2941
g57
(g78
g59
NtRp2942
(dp2943
g62
(dp2944
g82
g83
ssg71
g2938
sg64
(lp2945
S'wsgi.run_once'
p2946
asbag57
(g78
g59
NtRp2947
(dp2948
g62
(dp2949
g89
g90
ssg71
g2938
sg64
(lp2950
S':'
asbag57
(g78
g59
NtRp2951
(dp2952
g62
(dp2953
sg71
g2938
sg64
(lp2954
g57
(g58
g59
NtRp2955
(dp2956
g62
(dp2957
g70
I3
ssg71
g2951
sg64
(lp2958
g100
asbasbasbag57
(g73
g59
NtRp2959
(dp2960
g62
(dp2961
sg71
g2427
sg64
(lp2962
g57
(g78
g59
NtRp2963
(dp2964
g62
(dp2965
g82
g83
ssg71
g2959
sg64
(lp2966
S'wsgi.url_scheme'
p2967
asbag57
(g78
g59
NtRp2968
(dp2969
g62
(dp2970
g89
g90
ssg71
g2959
sg64
(lp2971
S':'
asbag57
(g78
g59
NtRp2972
(dp2973
g62
(dp2974
sg71
g2959
sg64
(lp2975
g57
(g58
g59
NtRp2976
(dp2977
g62
(dp2978
g70
I3
ssg71
g2972
sg64
(lp2979
g1721
asbasbasbag57
(g73
g59
NtRp2980
(dp2981
g62
(dp2982
sg71
g2427
sg64
(lp2983
g57
(g78
g59
NtRp2984
(dp2985
g62
(dp2986
g82
g83
ssg71
g2980
sg64
(lp2987
S'wsgi.version'
p2988
asbag57
(g78
g59
NtRp2989
(dp2990
g62
(dp2991
g89
g90
ssg71
g2980
sg64
(lp2992
S':'
asbag57
(g78
g59
NtRp2993
(dp2994
g62
(dp2995
sg71
g2980
sg64
(lp2996
g57
(g58
g59
NtRp2997
(dp2998
g62
(dp2999
g70
I3
ssg71
g2993
sg64
(lp3000
S'1'
asbasbasbasbasbasbasbasbasbasbasbasbasbsS'frames'
p3001
(lp3002
(dp3003
S'file'
p3004
S'/Users/ianaboneva/Downloads/web2py/gluon/restricted.py'
p3005
sS'dump'
p3006
(dp3007
S'environment'
p3008
S"{'A': <class 'gluon.html.A'>, 'Auth': <class 'gluon.tools.Auth'>, 'B': <class 'gluon.html.B'>, 'BEAUTIFY': <class 'gluon.html.BEAUTIFY'>, 'BODY': <class 'gluon.html.BODY'>, 'BR': <class 'gluon.html.BR'>, 'BUTTON': <class 'gluon.html.BUTTON'>, 'CAT': <class 'gluon.html.CAT'>, 'CENTER': <class 'gluon.html.CENTER'>, 'CLEANUP': <class 'gluon.validators.CLEANUP'>, ...}"
p3009
sS'ccode'
p3010
S'<code object <module> at 0x1075363b0, file "/Use...ook_Shelf/views/default/book_shelf.html", line 1>'
p3011
ssS'lnum'
p3012
I205
sS'lines'
p3013
(dp3014
I200
S'    try:'
p3015
sI201
S'        if type(code) == types.CodeType:'
p3016
sI202
S'            ccode = code'
p3017
sI203
S'        else:'
p3018
sI204
S'            ccode = compile2(code,layer)'
p3019
sI205
S'        exec ccode in environment'
p3020
sI206
S'    except HTTP:'
p3021
sI207
S'        raise'
p3022
sI208
S'    except RestrictedError:'
p3023
sI209
S'        # do not encapsulate (obfuscate) the original RestrictedError'
p3024
ssS'call'
p3025
S'(code=r"response.write(\'<!DOCTYPE html>\\n<!-- paulirish....ponse.write(\'\\n</body>\\n</html>\\n\', escape=False)", environment={\'A\': <class \'gluon.html.A\'>, \'Auth\': <class \'gluon.tools.Auth\'>, \'B\': <class \'gluon.html.B\'>, \'BEAUTIFY\': <class \'gluon.html.BEAUTIFY\'>, \'BODY\': <class \'gluon.html.BODY\'>, \'BR\': <class \'gluon.html.BR\'>, \'BUTTON\': <class \'gluon.html.BUTTON\'>, \'CAT\': <class \'gluon.html.CAT\'>, \'CENTER\': <class \'gluon.html.CENTER\'>, \'CLEANUP\': <class \'gluon.validators.CLEANUP\'>, ...}, layer=\'/Users/ianaboneva/Downloads/web2py/applications/Book_Shelf/views/default/book_shelf.html\')'
p3026
sS'func'
p3027
S'restricted'
p3028
sa(dp3029
g3004
S'/Users/ianaboneva/Downloads/web2py/applications/Book_Shelf/views/default/book_shelf.html'
p3030
sg3006
(dp3031
sg3012
I88
sg3013
(dp3032
I96
S'    pass'
p3033
sI97
S"response.write('\\n', escape=False)"
p3034
sI98
S"response.write('\\n          ', escape=False)"
p3035
sI79
S"    response.write('\\n        </div>\\n        ', escape=False)"
p3036
sI80
S'    pass'
p3037
sI81
S'response.write(\'\\n        \\n        <div class="\', escape=False)'
p3038
sI82
S'response.write(middle_columns)'
p3039
sI83
S'response.write(\' columns center">\\n          \', escape=False)'
p3040
sI84
S"response.write('\\n          ', escape=False)"
p3041
sI85
S"response.write('\\n<h1>You book shelves!</h1>\\n', escape=False)"
p3042
sI86
S'if len(shelves):'
p3043
sI87
S"    response.write('\\n    ', escape=False)"
p3044
sI88
S'    for shelf in shevles:'
p3045
sI89
S"        response.write('\\n        ', escape=False)"
p3046
sI90
S'        response.write(shelf.Shelf_Name)'
p3047
sI91
S"        response.write('\\n    ', escape=False)"
p3048
sI92
S'        pass'
p3049
sI93
S"    response.write('\\n', escape=False)"
p3050
sI94
S'else:'
p3051
sI95
S"    response.write('\\n    No shelves made\\n', escape=False)"
p3052
ssg3025
S'()'
p3053
sg3027
S'<module>'
p3054
sasS'pyver'
p3055
S'Python 2.7.1: /usr/bin/python'
p3056
sS'session'
p3057
g57
(g58
g59
NtRp3058
(dp3059
g62
(dp3060
sg64
(lp3061
g57
(g66
g59
NtRp3062
(dp3063
g62
(dp3064
g70
I5
ssg71
Nsg64
(lp3065
g57
(g73
g59
NtRp3066
(dp3067
g62
(dp3068
sg71
g3062
sg64
(lp3069
g57
(g78
g59
NtRp3070
(dp3071
g62
(dp3072
g82
g83
ssg71
g3066
sg64
(lp3073
S'auth'
p3074
asbag57
(g78
g59
NtRp3075
(dp3076
g62
(dp3077
g89
g90
ssg71
g3066
sg64
(lp3078
S':'
asbag57
(g78
g59
NtRp3079
(dp3080
g62
(dp3081
sg71
g3066
sg64
(lp3082
g57
(g58
g59
NtRp3083
(dp3084
g62
(dp3085
g70
I5
ssg71
g3079
sg64
(lp3086
g57
(g66
g59
NtRp3087
(dp3088
g62
(dp3089
g70
I4
ssg71
Nsg64
(lp3090
g57
(g73
g59
NtRp3091
(dp3092
g62
(dp3093
sg71
g3087
sg64
(lp3094
g57
(g78
g59
NtRp3095
(dp3096
g62
(dp3097
g82
g83
ssg71
g3091
sg64
(lp3098
S'expiration'
p3099
asbag57
(g78
g59
NtRp3100
(dp3101
g62
(dp3102
g89
g90
ssg71
g3091
sg64
(lp3103
S':'
asbag57
(g78
g59
NtRp3104
(dp3105
g62
(dp3106
sg71
g3091
sg64
(lp3107
g57
(g58
g59
NtRp3108
(dp3109
g62
(dp3110
g70
I4
ssg71
g3104
sg64
(lp3111
S'3600'
p3112
asbasbasbag57
(g73
g59
NtRp3113
(dp3114
g62
(dp3115
sg71
g3087
sg64
(lp3116
g57
(g78
g59
NtRp3117
(dp3118
g62
(dp3119
g82
g83
ssg71
g3113
sg64
(lp3120
S'hmac_key'
p3121
asbag57
(g78
g59
NtRp3122
(dp3123
g62
(dp3124
g89
g90
ssg71
g3113
sg64
(lp3125
S':'
asbag57
(g78
g59
NtRp3126
(dp3127
g62
(dp3128
sg71
g3113
sg64
(lp3129
g57
(g58
g59
NtRp3130
(dp3131
g62
(dp3132
g70
I4
ssg71
g3126
sg64
(lp3133
S'25ab3be6-b908-46ad-b000-d0cedd2de181'
p3134
asbasbasbag57
(g73
g59
NtRp3135
(dp3136
g62
(dp3137
sg71
g3087
sg64
(lp3138
g57
(g78
g59
NtRp3139
(dp3140
g62
(dp3141
g82
g83
ssg71
g3135
sg64
(lp3142
S'last_visit'
p3143
asbag57
(g78
g59
NtRp3144
(dp3145
g62
(dp3146
g89
g90
ssg71
g3135
sg64
(lp3147
S':'
asbag57
(g78
g59
NtRp3148
(dp3149
g62
(dp3150
sg71
g3135
sg64
(lp3151
g57
(g58
g59
NtRp3152
(dp3153
g62
(dp3154
g70
I4
ssg71
g3148
sg64
(lp3155
S'datetime.datetime(2012, 5, 21, 19, 30, 0, 103848)'
p3156
asbasbasbag57
(g73
g59
NtRp3157
(dp3158
g62
(dp3159
sg71
g3087
sg64
(lp3160
g57
(g78
g59
NtRp3161
(dp3162
g62
(dp3163
g82
g83
ssg71
g3157
sg64
(lp3164
S'user'
p3165
asbag57
(g78
g59
NtRp3166
(dp3167
g62
(dp3168
g89
g90
ssg71
g3157
sg64
(lp3169
S':'
asbag57
(g78
g59
NtRp3170
(dp3171
g62
(dp3172
sg71
g3157
sg64
(lp3173
g57
(g58
g59
NtRp3174
(dp3175
g62
(dp3176
g70
I4
ssg71
g3170
sg64
(lp3177
g57
(g66
g59
NtRp3178
(dp3179
g62
(dp3180
g70
I3
ssg71
Nsg64
(lp3181
g57
(g73
g59
NtRp3182
(dp3183
g62
(dp3184
sg71
g3178
sg64
(lp3185
g57
(g78
g59
NtRp3186
(dp3187
g62
(dp3188
g82
g83
ssg71
g3182
sg64
(lp3189
S'email'
p3190
asbag57
(g78
g59
NtRp3191
(dp3192
g62
(dp3193
g89
g90
ssg71
g3182
sg64
(lp3194
S':'
asbag57
(g78
g59
NtRp3195
(dp3196
g62
(dp3197
sg71
g3182
sg64
(lp3198
g57
(g58
g59
NtRp3199
(dp3200
g62
(dp3201
g70
I3
ssg71
g3195
sg64
(lp3202
S'haha@haha.com'
p3203
asbasbasbag57
(g73
g59
NtRp3204
(dp3205
g62
(dp3206
sg71
g3178
sg64
(lp3207
g57
(g78
g59
NtRp3208
(dp3209
g62
(dp3210
g82
g83
ssg71
g3204
sg64
(lp3211
S'first_name'
p3212
asbag57
(g78
g59
NtRp3213
(dp3214
g62
(dp3215
g89
g90
ssg71
g3204
sg64
(lp3216
S':'
asbag57
(g78
g59
NtRp3217
(dp3218
g62
(dp3219
sg71
g3204
sg64
(lp3220
g57
(g58
g59
NtRp3221
(dp3222
g62
(dp3223
g70
I3
ssg71
g3217
sg64
(lp3224
S'Iana'
p3225
asbasbasbag57
(g73
g59
NtRp3226
(dp3227
g62
(dp3228
sg71
g3178
sg64
(lp3229
g57
(g78
g59
NtRp3230
(dp3231
g62
(dp3232
g82
g83
ssg71
g3226
sg64
(lp3233
S'id'
p3234
asbag57
(g78
g59
NtRp3235
(dp3236
g62
(dp3237
g89
g90
ssg71
g3226
sg64
(lp3238
S':'
asbag57
(g78
g59
NtRp3239
(dp3240
g62
(dp3241
sg71
g3226
sg64
(lp3242
g57
(g58
g59
NtRp3243
(dp3244
g62
(dp3245
g70
I3
ssg71
g3239
sg64
(lp3246
S'2'
asbasbasbag57
(g73
g59
NtRp3247
(dp3248
g62
(dp3249
sg71
g3178
sg64
(lp3250
g57
(g78
g59
NtRp3251
(dp3252
g62
(dp3253
g82
g83
ssg71
g3247
sg64
(lp3254
S'last_name'
p3255
asbag57
(g78
g59
NtRp3256
(dp3257
g62
(dp3258
g89
g90
ssg71
g3247
sg64
(lp3259
S':'
asbag57
(g78
g59
NtRp3260
(dp3261
g62
(dp3262
sg71
g3247
sg64
(lp3263
g57
(g58
g59
NtRp3264
(dp3265
g62
(dp3266
g70
I3
ssg71
g3260
sg64
(lp3267
S'Boneva'
p3268
asbasbasbag57
(g73
g59
NtRp3269
(dp3270
g62
(dp3271
sg71
g3178
sg64
(lp3272
g57
(g78
g59
NtRp3273
(dp3274
g62
(dp3275
g82
g83
ssg71
g3269
sg64
(lp3276
S'password'
p3277
asbag57
(g78
g59
NtRp3278
(dp3279
g62
(dp3280
g89
g90
ssg71
g3269
sg64
(lp3281
S':'
asbag57
(g78
g59
NtRp3282
(dp3283
g62
(dp3284
sg71
g3269
sg64
(lp3285
g57
(g58
g59
NtRp3286
(dp3287
g62
(dp3288
g70
I3
ssg71
g3282
sg64
(lp3289
S'be570e8e7b9bbc17c5aecccf653fd3d3'
p3290
asbasbasbag57
(g73
g59
NtRp3291
(dp3292
g62
(dp3293
sg71
g3178
sg64
(lp3294
g57
(g78
g59
NtRp3295
(dp3296
g62
(dp3297
g82
g83
ssg71
g3291
sg64
(lp3298
S'registration_id'
p3299
asbag57
(g78
g59
NtRp3300
(dp3301
g62
(dp3302
g89
g90
ssg71
g3291
sg64
(lp3303
S':'
asbag57
(g78
g59
NtRp3304
(dp3305
g62
(dp3306
sg71
g3291
sg64
(lp3307
g57
(g58
g59
NtRp3308
(dp3309
g62
(dp3310
g70
I3
ssg71
g3304
sg64
(lp3311
S''
asbasbasbag57
(g73
g59
NtRp3312
(dp3313
g62
(dp3314
sg71
g3178
sg64
(lp3315
g57
(g78
g59
NtRp3316
(dp3317
g62
(dp3318
g82
g83
ssg71
g3312
sg64
(lp3319
S'registration_key'
p3320
asbag57
(g78
g59
NtRp3321
(dp3322
g62
(dp3323
g89
g90
ssg71
g3312
sg64
(lp3324
S':'
asbag57
(g78
g59
NtRp3325
(dp3326
g62
(dp3327
sg71
g3312
sg64
(lp3328
g57
(g58
g59
NtRp3329
(dp3330
g62
(dp3331
g70
I3
ssg71
g3325
sg64
(lp3332
S''
asbasbasbag57
(g73
g59
NtRp3333
(dp3334
g62
(dp3335
sg71
g3178
sg64
(lp3336
g57
(g78
g59
NtRp3337
(dp3338
g62
(dp3339
g82
g83
ssg71
g3333
sg64
(lp3340
S'reset_password_key'
p3341
asbag57
(g78
g59
NtRp3342
(dp3343
g62
(dp3344
g89
g90
ssg71
g3333
sg64
(lp3345
S':'
asbag57
(g78
g59
NtRp3346
(dp3347
g62
(dp3348
sg71
g3333
sg64
(lp3349
g57
(g58
g59
NtRp3350
(dp3351
g62
(dp3352
g70
I3
ssg71
g3346
sg64
(lp3353
S''
asbasbasbasbasbasbasbag57
(g73
g59
NtRp3354
(dp3355
g62
(dp3356
sg71
g3087
sg64
(lp3357
g57
(g78
g59
NtRp3358
(dp3359
g62
(dp3360
g82
g83
ssg71
g3354
sg64
(lp3361
S'user_groups'
p3362
asbag57
(g78
g59
NtRp3363
(dp3364
g62
(dp3365
g89
g90
ssg71
g3354
sg64
(lp3366
S':'
asbag57
(g78
g59
NtRp3367
(dp3368
g62
(dp3369
sg71
g3354
sg64
(lp3370
g57
(g58
g59
NtRp3371
(dp3372
g62
(dp3373
g70
I4
ssg71
g3367
sg64
(lp3374
g57
(g66
g59
NtRp3375
(dp3376
g62
(dp3377
g70
I3
ssg71
Nsg64
(lp3378
g57
(g73
g59
NtRp3379
(dp3380
g62
(dp3381
sg71
g3375
sg64
(lp3382
g57
(g78
g59
NtRp3383
(dp3384
g62
(dp3385
g82
g83
ssg71
g3379
sg64
(lp3386
S'2'
asbag57
(g78
g59
NtRp3387
(dp3388
g62
(dp3389
g89
g90
ssg71
g3379
sg64
(lp3390
S':'
asbag57
(g78
g59
NtRp3391
(dp3392
g62
(dp3393
sg71
g3379
sg64
(lp3394
g57
(g58
g59
NtRp3395
(dp3396
g62
(dp3397
g70
I3
ssg71
g3391
sg64
(lp3398
S'user_2'
p3399
asbasbasbasbasbasbasbasbasbasbasbag57
(g73
g59
NtRp3400
(dp3401
g62
(dp3402
sg71
g3062
sg64
(lp3403
g57
(g78
g59
NtRp3404
(dp3405
g62
(dp3406
g82
g83
ssg71
g3400
sg64
(lp3407
S'last_query'
p3408
asbag57
(g78
g59
NtRp3409
(dp3410
g62
(dp3411
g89
g90
ssg71
g3400
sg64
(lp3412
S':'
asbag57
(g78
g59
NtRp3413
(dp3414
g62
(dp3415
sg71
g3400
sg64
(lp3416
g57
(g58
g59
NtRp3417
(dp3418
g62
(dp3419
g70
I5
ssg71
g3413
sg64
(lp3420
S'db.User_Profile.id>0'
p3421
asbasbasbasbasbsS'etype'
p3422
S"<type 'exceptions.NameError'>"
p3423
sS'date'
p3424
S'Mon May 21 19:30:02 2012'
p3425
sS'response'
p3426
g57
(g58
g59
NtRp3427
(dp3428
g62
(dp3429
sg64
(lp3430
g57
(g66
g59
NtRp3431
(dp3432
g62
(dp3433
g70
I5
ssg71
Nsg64
(lp3434
g57
(g73
g59
NtRp3435
(dp3436
g62
(dp3437
sg71
g3431
sg64
(lp3438
g57
(g78
g59
NtRp3439
(dp3440
g62
(dp3441
g82
g83
ssg71
g3435
sg64
(lp3442
g155
asbag57
(g78
g59
NtRp3443
(dp3444
g62
(dp3445
g89
g90
ssg71
g3435
sg64
(lp3446
S':'
asbag57
(g78
g59
NtRp3447
(dp3448
g62
(dp3449
sg71
g3435
sg64
(lp3450
g57
(g58
g59
NtRp3451
(dp3452
g62
(dp3453
g70
I5
ssg71
g3447
sg64
(lp3454
S'<cStringIO.StringO object at 0x10309c570>'
p3455
asbasbasbag57
(g73
g59
NtRp3456
(dp3457
g62
(dp3458
sg71
g3431
sg64
(lp3459
g57
(g78
g59
NtRp3460
(dp3461
g62
(dp3462
g82
g83
ssg71
g3456
sg64
(lp3463
g221
asbag57
(g78
g59
NtRp3464
(dp3465
g62
(dp3466
g89
g90
ssg71
g3456
sg64
(lp3467
S':'
asbag57
(g78
g59
NtRp3468
(dp3469
g62
(dp3470
sg71
g3456
sg64
(lp3471
g57
(g58
g59
NtRp3472
(dp3473
g62
(dp3474
g70
I5
ssg71
g3468
sg64
(lp3475
g57
(g66
g59
NtRp3476
(dp3477
g62
(dp3478
g70
I4
ssg71
Nsg64
(lp3479
g57
(g73
g59
NtRp3480
(dp3481
g62
(dp3482
sg71
g3476
sg64
(lp3483
g57
(g78
g59
NtRp3484
(dp3485
g62
(dp3486
g82
g83
ssg71
g3480
sg64
(lp3487
S'session_id_book_shelf'
p3488
asbag57
(g78
g59
NtRp3489
(dp3490
g62
(dp3491
g89
g90
ssg71
g3480
sg64
(lp3492
S':'
asbag57
(g78
g59
NtRp3493
(dp3494
g62
(dp3495
sg71
g3480
sg64
(lp3496
g57
(g58
g59
NtRp3497
(dp3498
g62
(dp3499
g70
I4
ssg71
g3493
sg64
(lp3500
g57
(g66
g59
NtRp3501
(dp3502
g62
(dp3503
g70
I3
ssg71
Nsg64
(lp3504
g57
(g73
g59
NtRp3505
(dp3506
g62
(dp3507
sg71
g3501
sg64
(lp3508
g57
(g78
g59
NtRp3509
(dp3510
g62
(dp3511
g82
g83
ssg71
g3505
sg64
(lp3512
g271
asbag57
(g78
g59
NtRp3513
(dp3514
g62
(dp3515
g89
g90
ssg71
g3505
sg64
(lp3516
S':'
asbag57
(g78
g59
NtRp3517
(dp3518
g62
(dp3519
sg71
g3505
sg64
(lp3520
g57
(g58
g59
NtRp3521
(dp3522
g62
(dp3523
g70
I3
ssg71
g3517
sg64
(lp3524
S''
asbasbasbag57
(g73
g59
NtRp3525
(dp3526
g62
(dp3527
sg71
g3501
sg64
(lp3528
g57
(g78
g59
NtRp3529
(dp3530
g62
(dp3531
g82
g83
ssg71
g3525
sg64
(lp3532
g292
asbag57
(g78
g59
NtRp3533
(dp3534
g62
(dp3535
g89
g90
ssg71
g3525
sg64
(lp3536
S':'
asbag57
(g78
g59
NtRp3537
(dp3538
g62
(dp3539
sg71
g3525
sg64
(lp3540
g57
(g58
g59
NtRp3541
(dp3542
g62
(dp3543
g70
I3
ssg71
g3537
sg64
(lp3544
S''
asbasbasbag57
(g73
g59
NtRp3545
(dp3546
g62
(dp3547
sg71
g3501
sg64
(lp3548
g57
(g78
g59
NtRp3549
(dp3550
g62
(dp3551
g82
g83
ssg71
g3545
sg64
(lp3552
g313
asbag57
(g78
g59
NtRp3553
(dp3554
g62
(dp3555
g89
g90
ssg71
g3545
sg64
(lp3556
S':'
asbag57
(g78
g59
NtRp3557
(dp3558
g62
(dp3559
sg71
g3545
sg64
(lp3560
g57
(g58
g59
NtRp3561
(dp3562
g62
(dp3563
g70
I3
ssg71
g3557
sg64
(lp3564
S''
asbasbasbag57
(g73
g59
NtRp3565
(dp3566
g62
(dp3567
sg71
g3501
sg64
(lp3568
g57
(g78
g59
NtRp3569
(dp3570
g62
(dp3571
g82
g83
ssg71
g3565
sg64
(lp3572
g334
asbag57
(g78
g59
NtRp3573
(dp3574
g62
(dp3575
g89
g90
ssg71
g3565
sg64
(lp3576
S':'
asbag57
(g78
g59
NtRp3577
(dp3578
g62
(dp3579
sg71
g3565
sg64
(lp3580
g57
(g58
g59
NtRp3581
(dp3582
g62
(dp3583
g70
I3
ssg71
g3577
sg64
(lp3584
S''
asbasbasbag57
(g73
g59
NtRp3585
(dp3586
g62
(dp3587
sg71
g3501
sg64
(lp3588
g57
(g78
g59
NtRp3589
(dp3590
g62
(dp3591
g82
g83
ssg71
g3585
sg64
(lp3592
g355
asbag57
(g78
g59
NtRp3593
(dp3594
g62
(dp3595
g89
g90
ssg71
g3585
sg64
(lp3596
S':'
asbag57
(g78
g59
NtRp3597
(dp3598
g62
(dp3599
sg71
g3585
sg64
(lp3600
g57
(g58
g59
NtRp3601
(dp3602
g62
(dp3603
g70
I3
ssg71
g3597
sg64
(lp3604
S''
asbasbasbag57
(g73
g59
NtRp3605
(dp3606
g62
(dp3607
sg71
g3501
sg64
(lp3608
g57
(g78
g59
NtRp3609
(dp3610
g62
(dp3611
g82
g83
ssg71
g3605
sg64
(lp3612
g376
asbag57
(g78
g59
NtRp3613
(dp3614
g62
(dp3615
g89
g90
ssg71
g3605
sg64
(lp3616
S':'
asbag57
(g78
g59
NtRp3617
(dp3618
g62
(dp3619
sg71
g3605
sg64
(lp3620
g57
(g58
g59
NtRp3621
(dp3622
g62
(dp3623
g70
I3
ssg71
g3617
sg64
(lp3624
S'/'
asbasbasbag57
(g73
g59
NtRp3625
(dp3626
g62
(dp3627
sg71
g3501
sg64
(lp3628
g57
(g78
g59
NtRp3629
(dp3630
g62
(dp3631
g82
g83
ssg71
g3625
sg64
(lp3632
g397
asbag57
(g78
g59
NtRp3633
(dp3634
g62
(dp3635
g89
g90
ssg71
g3625
sg64
(lp3636
S':'
asbag57
(g78
g59
NtRp3637
(dp3638
g62
(dp3639
sg71
g3625
sg64
(lp3640
g57
(g58
g59
NtRp3641
(dp3642
g62
(dp3643
g70
I3
ssg71
g3637
sg64
(lp3644
S''
asbasbasbag57
(g73
g59
NtRp3645
(dp3646
g62
(dp3647
sg71
g3501
sg64
(lp3648
g57
(g78
g59
NtRp3649
(dp3650
g62
(dp3651
g82
g83
ssg71
g3645
sg64
(lp3652
g418
asbag57
(g78
g59
NtRp3653
(dp3654
g62
(dp3655
g89
g90
ssg71
g3645
sg64
(lp3656
S':'
asbag57
(g78
g59
NtRp3657
(dp3658
g62
(dp3659
sg71
g3645
sg64
(lp3660
g57
(g58
g59
NtRp3661
(dp3662
g62
(dp3663
g70
I3
ssg71
g3657
sg64
(lp3664
S''
asbasbasbasbasbasbasbasbasbasbasbag57
(g73
g59
NtRp3665
(dp3666
g62
(dp3667
sg71
g3431
sg64
(lp3668
g57
(g78
g59
NtRp3669
(dp3670
g62
(dp3671
g82
g83
ssg71
g3665
sg64
(lp3672
S'delimiters'
p3673
asbag57
(g78
g59
NtRp3674
(dp3675
g62
(dp3676
g89
g90
ssg71
g3665
sg64
(lp3677
S':'
asbag57
(g78
g59
NtRp3678
(dp3679
g62
(dp3680
sg71
g3665
sg64
(lp3681
g57
(g58
g59
NtRp3682
(dp3683
g62
(dp3684
g70
I5
ssg71
g3678
sg64
(lp3685
g57
(g66
g59
NtRp3686
(dp3687
g62
(dp3688
g70
I4
ssg71
Nsg64
(lp3689
g57
(g73
g59
NtRp3690
(dp3691
g62
(dp3692
sg71
g3686
sg64
(lp3693
g57
(g78
g59
NtRp3694
(dp3695
g62
(dp3696
sg71
g3690
sg64
(lp3697
g57
(g58
g59
NtRp3698
(dp3699
g62
(dp3700
g70
I4
ssg71
g3694
sg64
(lp3701
S'{{'
p3702
asbasbasbag57
(g73
g59
NtRp3703
(dp3704
g62
(dp3705
sg71
g3686
sg64
(lp3706
g57
(g78
g59
NtRp3707
(dp3708
g62
(dp3709
sg71
g3703
sg64
(lp3710
g57
(g58
g59
NtRp3711
(dp3712
g62
(dp3713
g70
I4
ssg71
g3707
sg64
(lp3714
S'}}'
p3715
asbasbasbasbasbasbasbag57
(g73
g59
NtRp3716
(dp3717
g62
(dp3718
sg71
g3431
sg64
(lp3719
g57
(g78
g59
NtRp3720
(dp3721
g62
(dp3722
g82
g83
ssg71
g3716
sg64
(lp3723
S'files'
p3724
asbag57
(g78
g59
NtRp3725
(dp3726
g62
(dp3727
g89
g90
ssg71
g3716
sg64
(lp3728
S':'
asbag57
(g78
g59
NtRp3729
(dp3730
g62
(dp3731
sg71
g3716
sg64
(lp3732
g57
(g58
g59
NtRp3733
(dp3734
g62
(dp3735
g70
I5
ssg71
g3729
sg64
(lp3736
g57
(g66
g59
NtRp3737
(dp3738
g62
(dp3739
g70
I4
ssg71
Nsg64
(lp3740
g57
(g73
g59
NtRp3741
(dp3742
g62
(dp3743
sg71
g3737
sg64
(lp3744
g57
(g78
g59
NtRp3745
(dp3746
g62
(dp3747
sg71
g3741
sg64
(lp3748
g57
(g58
g59
NtRp3749
(dp3750
g62
(dp3751
g70
I4
ssg71
g3745
sg64
(lp3752
S'/Book_Shelf/static/js/jquery.js'
p3753
asbasbasbag57
(g73
g59
NtRp3754
(dp3755
g62
(dp3756
sg71
g3737
sg64
(lp3757
g57
(g78
g59
NtRp3758
(dp3759
g62
(dp3760
sg71
g3754
sg64
(lp3761
g57
(g58
g59
NtRp3762
(dp3763
g62
(dp3764
g70
I4
ssg71
g3758
sg64
(lp3765
S'/Book_Shelf/static/css/calendar.css'
p3766
asbasbasbag57
(g73
g59
NtRp3767
(dp3768
g62
(dp3769
sg71
g3737
sg64
(lp3770
g57
(g78
g59
NtRp3771
(dp3772
g62
(dp3773
sg71
g3767
sg64
(lp3774
g57
(g58
g59
NtRp3775
(dp3776
g62
(dp3777
g70
I4
ssg71
g3771
sg64
(lp3778
S'/Book_Shelf/static/js/calendar.js'
p3779
asbasbasbag57
(g73
g59
NtRp3780
(dp3781
g62
(dp3782
sg71
g3737
sg64
(lp3783
g57
(g78
g59
NtRp3784
(dp3785
g62
(dp3786
sg71
g3780
sg64
(lp3787
g57
(g58
g59
NtRp3788
(dp3789
g62
(dp3790
g70
I4
ssg71
g3784
sg64
(lp3791
S'/Book_Shelf/static/js/web2py.js'
p3792
asbasbasbag57
(g73
g59
NtRp3793
(dp3794
g62
(dp3795
sg71
g3737
sg64
(lp3796
g57
(g78
g59
NtRp3797
(dp3798
g62
(dp3799
sg71
g3793
sg64
(lp3800
g57
(g58
g59
NtRp3801
(dp3802
g62
(dp3803
g70
I4
ssg71
g3797
sg64
(lp3804
S'/Book_Shelf/static/css/skeleton.css'
p3805
asbasbasbag57
(g73
g59
NtRp3806
(dp3807
g62
(dp3808
sg71
g3737
sg64
(lp3809
g57
(g78
g59
NtRp3810
(dp3811
g62
(dp3812
sg71
g3806
sg64
(lp3813
g57
(g58
g59
NtRp3814
(dp3815
g62
(dp3816
g70
I4
ssg71
g3810
sg64
(lp3817
S'/Book_Shelf/static/css/web2py.css'
p3818
asbasbasbag57
(g73
g59
NtRp3819
(dp3820
g62
(dp3821
sg71
g3737
sg64
(lp3822
g57
(g78
g59
NtRp3823
(dp3824
g62
(dp3825
sg71
g3819
sg64
(lp3826
g57
(g58
g59
NtRp3827
(dp3828
g62
(dp3829
g70
I4
ssg71
g3823
sg64
(lp3830
S'/Book_Shelf/static/css/superfish.css'
p3831
asbasbasbag57
(g73
g59
NtRp3832
(dp3833
g62
(dp3834
sg71
g3737
sg64
(lp3835
g57
(g78
g59
NtRp3836
(dp3837
g62
(dp3838
sg71
g3832
sg64
(lp3839
g57
(g58
g59
NtRp3840
(dp3841
g62
(dp3842
g70
I4
ssg71
g3836
sg64
(lp3843
S'/Book_Shelf/static/js/superfish.js'
p3844
asbasbasbasbasbasbasbag57
(g73
g59
NtRp3845
(dp3846
g62
(dp3847
sg71
g3431
sg64
(lp3848
g57
(g78
g59
NtRp3849
(dp3850
g62
(dp3851
g82
g83
ssg71
g3845
sg64
(lp3852
S'flash'
p3853
asbag57
(g78
g59
NtRp3854
(dp3855
g62
(dp3856
g89
g90
ssg71
g3845
sg64
(lp3857
S':'
asbag57
(g78
g59
NtRp3858
(dp3859
g62
(dp3860
sg71
g3845
sg64
(lp3861
g57
(g58
g59
NtRp3862
(dp3863
g62
(dp3864
g70
I5
ssg71
g3858
sg64
(lp3865
S''
asbasbasbag57
(g73
g59
NtRp3866
(dp3867
g62
(dp3868
sg71
g3431
sg64
(lp3869
g57
(g78
g59
NtRp3870
(dp3871
g62
(dp3872
g82
g83
ssg71
g3866
sg64
(lp3873
S'generic_patterns'
p3874
asbag57
(g78
g59
NtRp3875
(dp3876
g62
(dp3877
g89
g90
ssg71
g3866
sg64
(lp3878
S':'
asbag57
(g78
g59
NtRp3879
(dp3880
g62
(dp3881
sg71
g3866
sg64
(lp3882
g57
(g58
g59
NtRp3883
(dp3884
g62
(dp3885
g70
I5
ssg71
g3879
sg64
(lp3886
g57
(g66
g59
NtRp3887
(dp3888
g62
(dp3889
g70
I4
ssg71
Nsg64
(lp3890
g57
(g73
g59
NtRp3891
(dp3892
g62
(dp3893
sg71
g3887
sg64
(lp3894
g57
(g78
g59
NtRp3895
(dp3896
g62
(dp3897
sg71
g3891
sg64
(lp3898
g57
(g58
g59
NtRp3899
(dp3900
g62
(dp3901
g70
I4
ssg71
g3895
sg64
(lp3902
S'*'
asbasbasbasbasbasbasbag57
(g73
g59
NtRp3903
(dp3904
g62
(dp3905
sg71
g3431
sg64
(lp3906
g57
(g78
g59
NtRp3907
(dp3908
g62
(dp3909
g82
g83
ssg71
g3903
sg64
(lp3910
S'headers'
p3911
asbag57
(g78
g59
NtRp3912
(dp3913
g62
(dp3914
g89
g90
ssg71
g3903
sg64
(lp3915
S':'
asbag57
(g78
g59
NtRp3916
(dp3917
g62
(dp3918
sg71
g3903
sg64
(lp3919
g57
(g58
g59
NtRp3920
(dp3921
g62
(dp3922
g70
I5
ssg71
g3916
sg64
(lp3923
g57
(g66
g59
NtRp3924
(dp3925
g62
(dp3926
g70
I4
ssg71
Nsg64
(lp3927
g57
(g73
g59
NtRp3928
(dp3929
g62
(dp3930
sg71
g3924
sg64
(lp3931
g57
(g78
g59
NtRp3932
(dp3933
g62
(dp3934
g82
g83
ssg71
g3928
sg64
(lp3935
S'Cache-Control'
p3936
asbag57
(g78
g59
NtRp3937
(dp3938
g62
(dp3939
g89
g90
ssg71
g3928
sg64
(lp3940
S':'
asbag57
(g78
g59
NtRp3941
(dp3942
g62
(dp3943
sg71
g3928
sg64
(lp3944
g57
(g58
g59
NtRp3945
(dp3946
g62
(dp3947
g70
I4
ssg71
g3941
sg64
(lp3948
S'no-store, no-cache, must-revalidate, post-check=0, pre-check=0'
p3949
asbasbasbag57
(g73
g59
NtRp3950
(dp3951
g62
(dp3952
sg71
g3924
sg64
(lp3953
g57
(g78
g59
NtRp3954
(dp3955
g62
(dp3956
g82
g83
ssg71
g3950
sg64
(lp3957
S'Content-Type'
p3958
asbag57
(g78
g59
NtRp3959
(dp3960
g62
(dp3961
g89
g90
ssg71
g3950
sg64
(lp3962
S':'
asbag57
(g78
g59
NtRp3963
(dp3964
g62
(dp3965
sg71
g3950
sg64
(lp3966
g57
(g58
g59
NtRp3967
(dp3968
g62
(dp3969
g70
I4
ssg71
g3963
sg64
(lp3970
S'text/html; charset=utf-8'
p3971
asbasbasbag57
(g73
g59
NtRp3972
(dp3973
g62
(dp3974
sg71
g3924
sg64
(lp3975
g57
(g78
g59
NtRp3976
(dp3977
g62
(dp3978
g82
g83
ssg71
g3972
sg64
(lp3979
S'Expires'
p3980
asbag57
(g78
g59
NtRp3981
(dp3982
g62
(dp3983
g89
g90
ssg71
g3972
sg64
(lp3984
S':'
asbag57
(g78
g59
NtRp3985
(dp3986
g62
(dp3987
sg71
g3972
sg64
(lp3988
g57
(g58
g59
NtRp3989
(dp3990
g62
(dp3991
g70
I4
ssg71
g3985
sg64
(lp3992
S'Tue, 22 May 2012 00:30:02 GMT'
p3993
asbasbasbag57
(g73
g59
NtRp3994
(dp3995
g62
(dp3996
sg71
g3924
sg64
(lp3997
g57
(g78
g59
NtRp3998
(dp3999
g62
(dp4000
g82
g83
ssg71
g3994
sg64
(lp4001
S'Pragma'
p4002
asbag57
(g78
g59
NtRp4003
(dp4004
g62
(dp4005
g89
g90
ssg71
g3994
sg64
(lp4006
S':'
asbag57
(g78
g59
NtRp4007
(dp4008
g62
(dp4009
sg71
g3994
sg64
(lp4010
g57
(g58
g59
NtRp4011
(dp4012
g62
(dp4013
g70
I4
ssg71
g4007
sg64
(lp4014
S'no-cache'
p4015
asbasbasbag57
(g73
g59
NtRp4016
(dp4017
g62
(dp4018
sg71
g3924
sg64
(lp4019
g57
(g78
g59
NtRp4020
(dp4021
g62
(dp4022
g82
g83
ssg71
g4016
sg64
(lp4023
S'X-Powered-By'
p4024
asbag57
(g78
g59
NtRp4025
(dp4026
g62
(dp4027
g89
g90
ssg71
g4016
sg64
(lp4028
S':'
asbag57
(g78
g59
NtRp4029
(dp4030
g62
(dp4031
sg71
g4016
sg64
(lp4032
g57
(g58
g59
NtRp4033
(dp4034
g62
(dp4035
g70
I4
ssg71
g4029
sg64
(lp4036
S'web2py'
p4037
asbasbasbasbasbasbasbag57
(g73
g59
NtRp4038
(dp4039
g62
(dp4040
sg71
g3431
sg64
(lp4041
g57
(g78
g59
NtRp4042
(dp4043
g62
(dp4044
g82
g83
ssg71
g4038
sg64
(lp4045
S'menu'
p4046
asbag57
(g78
g59
NtRp4047
(dp4048
g62
(dp4049
g89
g90
ssg71
g4038
sg64
(lp4050
S':'
asbag57
(g78
g59
NtRp4051
(dp4052
g62
(dp4053
sg71
g4038
sg64
(lp4054
g57
(g58
g59
NtRp4055
(dp4056
g62
(dp4057
g70
I5
ssg71
g4051
sg64
(lp4058
g57
(g66
g59
NtRp4059
(dp4060
g62
(dp4061
g70
I4
ssg71
Nsg64
(lp4062
g57
(g73
g59
NtRp4063
(dp4064
g62
(dp4065
sg71
g4059
sg64
(lp4066
g57
(g78
g59
NtRp4067
(dp4068
g62
(dp4069
sg71
g4063
sg64
(lp4070
g57
(g58
g59
NtRp4071
(dp4072
g62
(dp4073
g70
I4
ssg71
g4067
sg64
(lp4074
g57
(g66
g59
NtRp4075
(dp4076
g62
(dp4077
g70
I3
ssg71
Nsg64
(lp4078
g57
(g73
g59
NtRp4079
(dp4080
g62
(dp4081
sg71
g4075
sg64
(lp4082
g57
(g78
g59
NtRp4083
(dp4084
g62
(dp4085
sg71
g4079
sg64
(lp4086
g57
(g58
g59
NtRp4087
(dp4088
g62
(dp4089
g70
I3
ssg71
g4083
sg64
(lp4090
cgluon.languages
lazyT_unpickle
p4091
(S't\x04\x00\x00\x00Home'
tRp4092
asbasbasbag57
(g73
g59
NtRp4093
(dp4094
g62
(dp4095
sg71
g4075
sg64
(lp4096
g57
(g78
g59
NtRp4097
(dp4098
g62
(dp4099
sg71
g4093
sg64
(lp4100
g57
(g58
g59
NtRp4101
(dp4102
g62
(dp4103
g70
I3
ssg71
g4097
sg64
(lp4104
g100
asbasbasbag57
(g73
g59
NtRp4105
(dp4106
g62
(dp4107
sg71
g4075
sg64
(lp4108
g57
(g78
g59
NtRp4109
(dp4110
g62
(dp4111
sg71
g4105
sg64
(lp4112
g57
(g58
g59
NtRp4113
(dp4114
g62
(dp4115
g70
I3
ssg71
g4109
sg64
(lp4116
S'/Book_Shelf/default/index'
p4117
asbasbasbag57
(g73
g59
NtRp4118
(dp4119
g62
(dp4120
sg71
g4075
sg64
(lp4121
g57
(g78
g59
NtRp4122
(dp4123
g62
(dp4124
sg71
g4118
sg64
(lp4125
g57
(g58
g59
NtRp4126
(dp4127
g62
(dp4128
g70
I3
ssg71
g4122
sg64
(lp4129
g57
(g66
g59
NtRp4130
(dp4131
g62
(dp4132
g70
I2
ssg71
Nsg64
(lp4133
sbasbasbasbasbasbasbasbag57
(g73
g59
NtRp4134
(dp4135
g62
(dp4136
sg71
g4059
sg64
(lp4137
g57
(g78
g59
NtRp4138
(dp4139
g62
(dp4140
sg71
g4134
sg64
(lp4141
g57
(g58
g59
NtRp4142
(dp4143
g62
(dp4144
g70
I4
ssg71
g4138
sg64
(lp4145
g57
(g66
g59
NtRp4146
(dp4147
g62
(dp4148
g70
I3
ssg71
Nsg64
(lp4149
g57
(g73
g59
NtRp4150
(dp4151
g62
(dp4152
sg71
g4146
sg64
(lp4153
g57
(g78
g59
NtRp4154
(dp4155
g62
(dp4156
sg71
g4150
sg64
(lp4157
g57
(g58
g59
NtRp4158
(dp4159
g62
(dp4160
g70
I3
ssg71
g4154
sg64
(lp4161
g4091
(S's\x0c\x00\x00\x00User Profile'
tRp4162
asbasbasbag57
(g73
g59
NtRp4163
(dp4164
g62
(dp4165
sg71
g4146
sg64
(lp4166
g57
(g78
g59
NtRp4167
(dp4168
g62
(dp4169
sg71
g4163
sg64
(lp4170
g57
(g58
g59
NtRp4171
(dp4172
g62
(dp4173
g70
I3
ssg71
g4167
sg64
(lp4174
g100
asbasbasbag57
(g73
g59
NtRp4175
(dp4176
g62
(dp4177
sg71
g4146
sg64
(lp4178
g57
(g78
g59
NtRp4179
(dp4180
g62
(dp4181
sg71
g4175
sg64
(lp4182
g57
(g58
g59
NtRp4183
(dp4184
g62
(dp4185
g70
I3
ssg71
g4179
sg64
(lp4186
S'None'
p4187
asbasbasbag57
(g73
g59
NtRp4188
(dp4189
g62
(dp4190
sg71
g4146
sg64
(lp4191
g57
(g78
g59
NtRp4192
(dp4193
g62
(dp4194
sg71
g4188
sg64
(lp4195
g57
(g58
g59
NtRp4196
(dp4197
g62
(dp4198
g70
I3
ssg71
g4192
sg64
(lp4199
g57
(g66
g59
NtRp4200
(dp4201
g62
(dp4202
g70
I2
ssg71
Nsg64
(lp4203
g57
(g73
g59
NtRp4204
(dp4205
g62
(dp4206
sg71
g4200
sg64
(lp4207
g57
(g78
g59
NtRp4208
(dp4209
g62
(dp4210
sg71
g4204
sg64
(lp4211
g57
(g58
g59
NtRp4212
(dp4213
g62
(dp4214
g70
I2
ssg71
g4208
sg64
(lp4215
g57
(g66
g59
NtRp4216
(dp4217
g62
(dp4218
g70
I1
ssg71
Nsg64
(lp4219
g57
(g73
g59
NtRp4220
(dp4221
g62
(dp4222
sg71
g4216
sg64
(lp4223
g57
(g78
g59
NtRp4224
(dp4225
g62
(dp4226
sg71
g4220
sg64
(lp4227
g57
(g58
g59
NtRp4228
(dp4229
g62
(dp4230
g70
I1
ssg71
g4224
sg64
(lp4231
g4091
(S's\x0c\x00\x00\x00User Profile'
tRp4232
asbasbasbag57
(g73
g59
NtRp4233
(dp4234
g62
(dp4235
sg71
g4216
sg64
(lp4236
g57
(g78
g59
NtRp4237
(dp4238
g62
(dp4239
sg71
g4233
sg64
(lp4240
g57
(g58
g59
NtRp4241
(dp4242
g62
(dp4243
g70
I1
ssg71
g4237
sg64
(lp4244
I00
asbasbasbag57
(g73
g59
NtRp4245
(dp4246
g62
(dp4247
sg71
g4216
sg64
(lp4248
g57
(g78
g59
NtRp4249
(dp4250
g62
(dp4251
sg71
g4245
sg64
(lp4252
g57
(g58
g59
NtRp4253
(dp4254
g62
(dp4255
g70
I1
ssg71
g4249
sg64
(lp4256
S'/Book_Shelf/default/user_profile'
p4257
asbasbasbasbasbasbasbag57
(g73
g59
NtRp4258
(dp4259
g62
(dp4260
sg71
g4200
sg64
(lp4261
g57
(g78
g59
NtRp4262
(dp4263
g62
(dp4264
sg71
g4258
sg64
(lp4265
g57
(g58
g59
NtRp4266
(dp4267
g62
(dp4268
g70
I2
ssg71
g4262
sg64
(lp4269
g57
(g66
g59
NtRp4270
(dp4271
g62
(dp4272
g70
I1
ssg71
Nsg64
(lp4273
g57
(g73
g59
NtRp4274
(dp4275
g62
(dp4276
sg71
g4270
sg64
(lp4277
g57
(g78
g59
NtRp4278
(dp4279
g62
(dp4280
sg71
g4274
sg64
(lp4281
g57
(g58
g59
NtRp4282
(dp4283
g62
(dp4284
g70
I1
ssg71
g4278
sg64
(lp4285
g4091
(S's\x13\x00\x00\x00Create User Profile'
tRp4286
asbasbasbag57
(g73
g59
NtRp4287
(dp4288
g62
(dp4289
sg71
g4270
sg64
(lp4290
g57
(g78
g59
NtRp4291
(dp4292
g62
(dp4293
sg71
g4287
sg64
(lp4294
g57
(g58
g59
NtRp4295
(dp4296
g62
(dp4297
g70
I1
ssg71
g4291
sg64
(lp4298
I00
asbasbasbag57
(g73
g59
NtRp4299
(dp4300
g62
(dp4301
sg71
g4270
sg64
(lp4302
g57
(g78
g59
NtRp4303
(dp4304
g62
(dp4305
sg71
g4299
sg64
(lp4306
g57
(g58
g59
NtRp4307
(dp4308
g62
(dp4309
g70
I1
ssg71
g4303
sg64
(lp4310
S'/Book_Shelf/default/create_user_profile'
p4311
asbasbasbasbasbasbasbag57
(g73
g59
NtRp4312
(dp4313
g62
(dp4314
sg71
g4200
sg64
(lp4315
g57
(g78
g59
NtRp4316
(dp4317
g62
(dp4318
sg71
g4312
sg64
(lp4319
g57
(g58
g59
NtRp4320
(dp4321
g62
(dp4322
g70
I2
ssg71
g4316
sg64
(lp4323
g57
(g66
g59
NtRp4324
(dp4325
g62
(dp4326
g70
I1
ssg71
Nsg64
(lp4327
g57
(g73
g59
NtRp4328
(dp4329
g62
(dp4330
sg71
g4324
sg64
(lp4331
g57
(g78
g59
NtRp4332
(dp4333
g62
(dp4334
sg71
g4328
sg64
(lp4335
g57
(g58
g59
NtRp4336
(dp4337
g62
(dp4338
g70
I1
ssg71
g4332
sg64
(lp4339
g4091
(S's\x13\x00\x00\x00Update User Profile'
tRp4340
asbasbasbag57
(g73
g59
NtRp4341
(dp4342
g62
(dp4343
sg71
g4324
sg64
(lp4344
g57
(g78
g59
NtRp4345
(dp4346
g62
(dp4347
sg71
g4341
sg64
(lp4348
g57
(g58
g59
NtRp4349
(dp4350
g62
(dp4351
g70
I1
ssg71
g4345
sg64
(lp4352
I00
asbasbasbag57
(g73
g59
NtRp4353
(dp4354
g62
(dp4355
sg71
g4324
sg64
(lp4356
g57
(g78
g59
NtRp4357
(dp4358
g62
(dp4359
sg71
g4353
sg64
(lp4360
g57
(g58
g59
NtRp4361
(dp4362
g62
(dp4363
g70
I1
ssg71
g4357
sg64
(lp4364
S'/Book_Shelf/default/update_user_profile'
p4365
asbasbasbasbasbasbasbasbasbasbasbasbasbasbasbag57
(g73
g59
NtRp4366
(dp4367
g62
(dp4368
sg71
g4059
sg64
(lp4369
g57
(g78
g59
NtRp4370
(dp4371
g62
(dp4372
sg71
g4366
sg64
(lp4373
g57
(g58
g59
NtRp4374
(dp4375
g62
(dp4376
g70
I4
ssg71
g4370
sg64
(lp4377
g57
(g66
g59
NtRp4378
(dp4379
g62
(dp4380
g70
I3
ssg71
Nsg64
(lp4381
g57
(g73
g59
NtRp4382
(dp4383
g62
(dp4384
sg71
g4378
sg64
(lp4385
g57
(g78
g59
NtRp4386
(dp4387
g62
(dp4388
sg71
g4382
sg64
(lp4389
g57
(g58
g59
NtRp4390
(dp4391
g62
(dp4392
g70
I3
ssg71
g4386
sg64
(lp4393
g4091
(S't\x04\x00\x00\x00Book'
tRp4394
asbasbasbag57
(g73
g59
NtRp4395
(dp4396
g62
(dp4397
sg71
g4378
sg64
(lp4398
g57
(g78
g59
NtRp4399
(dp4400
g62
(dp4401
sg71
g4395
sg64
(lp4402
g57
(g58
g59
NtRp4403
(dp4404
g62
(dp4405
g70
I3
ssg71
g4399
sg64
(lp4406
g100
asbasbasbag57
(g73
g59
NtRp4407
(dp4408
g62
(dp4409
sg71
g4378
sg64
(lp4410
g57
(g78
g59
NtRp4411
(dp4412
g62
(dp4413
sg71
g4407
sg64
(lp4414
g57
(g58
g59
NtRp4415
(dp4416
g62
(dp4417
g70
I3
ssg71
g4411
sg64
(lp4418
S'None'
p4419
asbasbasbag57
(g73
g59
NtRp4420
(dp4421
g62
(dp4422
sg71
g4378
sg64
(lp4423
g57
(g78
g59
NtRp4424
(dp4425
g62
(dp4426
sg71
g4420
sg64
(lp4427
g57
(g58
g59
NtRp4428
(dp4429
g62
(dp4430
g70
I3
ssg71
g4424
sg64
(lp4431
g57
(g66
g59
NtRp4432
(dp4433
g62
(dp4434
g70
I2
ssg71
Nsg64
(lp4435
g57
(g73
g59
NtRp4436
(dp4437
g62
(dp4438
sg71
g4432
sg64
(lp4439
g57
(g78
g59
NtRp4440
(dp4441
g62
(dp4442
sg71
g4436
sg64
(lp4443
g57
(g58
g59
NtRp4444
(dp4445
g62
(dp4446
g70
I2
ssg71
g4440
sg64
(lp4447
g57
(g66
g59
NtRp4448
(dp4449
g62
(dp4450
g70
I1
ssg71
Nsg64
(lp4451
g57
(g73
g59
NtRp4452
(dp4453
g62
(dp4454
sg71
g4448
sg64
(lp4455
g57
(g78
g59
NtRp4456
(dp4457
g62
(dp4458
sg71
g4452
sg64
(lp4459
g57
(g58
g59
NtRp4460
(dp4461
g62
(dp4462
g70
I1
ssg71
g4456
sg64
(lp4463
g4091
(S's\x0c\x00\x00\x00Book Profile'
tRp4464
asbasbasbag57
(g73
g59
NtRp4465
(dp4466
g62
(dp4467
sg71
g4448
sg64
(lp4468
g57
(g78
g59
NtRp4469
(dp4470
g62
(dp4471
sg71
g4465
sg64
(lp4472
g57
(g58
g59
NtRp4473
(dp4474
g62
(dp4475
g70
I1
ssg71
g4469
sg64
(lp4476
I00
asbasbasbag57
(g73
g59
NtRp4477
(dp4478
g62
(dp4479
sg71
g4448
sg64
(lp4480
g57
(g78
g59
NtRp4481
(dp4482
g62
(dp4483
sg71
g4477
sg64
(lp4484
g57
(g58
g59
NtRp4485
(dp4486
g62
(dp4487
g70
I1
ssg71
g4481
sg64
(lp4488
S'/Book_Shelf/default/book_profile'
p4489
asbasbasbasbasbasbasbag57
(g73
g59
NtRp4490
(dp4491
g62
(dp4492
sg71
g4432
sg64
(lp4493
g57
(g78
g59
NtRp4494
(dp4495
g62
(dp4496
sg71
g4490
sg64
(lp4497
g57
(g58
g59
NtRp4498
(dp4499
g62
(dp4500
g70
I2
ssg71
g4494
sg64
(lp4501
g57
(g66
g59
NtRp4502
(dp4503
g62
(dp4504
g70
I1
ssg71
Nsg64
(lp4505
g57
(g73
g59
NtRp4506
(dp4507
g62
(dp4508
sg71
g4502
sg64
(lp4509
g57
(g78
g59
NtRp4510
(dp4511
g62
(dp4512
sg71
g4506
sg64
(lp4513
g57
(g58
g59
NtRp4514
(dp4515
g62
(dp4516
g70
I1
ssg71
g4510
sg64
(lp4517
g4091
(S's\x13\x00\x00\x00Create Book Profile'
tRp4518
asbasbasbag57
(g73
g59
NtRp4519
(dp4520
g62
(dp4521
sg71
g4502
sg64
(lp4522
g57
(g78
g59
NtRp4523
(dp4524
g62
(dp4525
sg71
g4519
sg64
(lp4526
g57
(g58
g59
NtRp4527
(dp4528
g62
(dp4529
g70
I1
ssg71
g4523
sg64
(lp4530
I00
asbasbasbag57
(g73
g59
NtRp4531
(dp4532
g62
(dp4533
sg71
g4502
sg64
(lp4534
g57
(g78
g59
NtRp4535
(dp4536
g62
(dp4537
sg71
g4531
sg64
(lp4538
g57
(g58
g59
NtRp4539
(dp4540
g62
(dp4541
g70
I1
ssg71
g4535
sg64
(lp4542
S'/Book_Shelf/default/create_book_profile'
p4543
asbasbasbasbasbasbasbag57
(g73
g59
NtRp4544
(dp4545
g62
(dp4546
sg71
g4432
sg64
(lp4547
g57
(g78
g59
NtRp4548
(dp4549
g62
(dp4550
sg71
g4544
sg64
(lp4551
g57
(g58
g59
NtRp4552
(dp4553
g62
(dp4554
g70
I2
ssg71
g4548
sg64
(lp4555
g57
(g66
g59
NtRp4556
(dp4557
g62
(dp4558
g70
I1
ssg71
Nsg64
(lp4559
g57
(g73
g59
NtRp4560
(dp4561
g62
(dp4562
sg71
g4556
sg64
(lp4563
g57
(g78
g59
NtRp4564
(dp4565
g62
(dp4566
sg71
g4560
sg64
(lp4567
g57
(g58
g59
NtRp4568
(dp4569
g62
(dp4570
g70
I1
ssg71
g4564
sg64
(lp4571
g4091
(S's\x13\x00\x00\x00Update Book Profile'
tRp4572
asbasbasbag57
(g73
g59
NtRp4573
(dp4574
g62
(dp4575
sg71
g4556
sg64
(lp4576
g57
(g78
g59
NtRp4577
(dp4578
g62
(dp4579
sg71
g4573
sg64
(lp4580
g57
(g58
g59
NtRp4581
(dp4582
g62
(dp4583
g70
I1
ssg71
g4577
sg64
(lp4584
I00
asbasbasbag57
(g73
g59
NtRp4585
(dp4586
g62
(dp4587
sg71
g4556
sg64
(lp4588
g57
(g78
g59
NtRp4589
(dp4590
g62
(dp4591
sg71
g4585
sg64
(lp4592
g57
(g58
g59
NtRp4593
(dp4594
g62
(dp4595
g70
I1
ssg71
g4589
sg64
(lp4596
S'/Book_Shelf/default/update_book_profile'
p4597
asbasbasbasbasbasbasbasbasbasbasbasbasbasbasbag57
(g73
g59
NtRp4598
(dp4599
g62
(dp4600
sg71
g4059
sg64
(lp4601
g57
(g78
g59
NtRp4602
(dp4603
g62
(dp4604
sg71
g4598
sg64
(lp4605
g57
(g58
g59
NtRp4606
(dp4607
g62
(dp4608
g70
I4
ssg71
g4602
sg64
(lp4609
g57
(g66
g59
NtRp4610
(dp4611
g62
(dp4612
g70
I3
ssg71
Nsg64
(lp4613
g57
(g73
g59
NtRp4614
(dp4615
g62
(dp4616
sg71
g4610
sg64
(lp4617
g57
(g78
g59
NtRp4618
(dp4619
g62
(dp4620
sg71
g4614
sg64
(lp4621
g57
(g58
g59
NtRp4622
(dp4623
g62
(dp4624
g70
I3
ssg71
g4618
sg64
(lp4625
g4091
(S's\n\x00\x00\x00Book Shelf'
tRp4626
asbasbasbag57
(g73
g59
NtRp4627
(dp4628
g62
(dp4629
sg71
g4610
sg64
(lp4630
g57
(g78
g59
NtRp4631
(dp4632
g62
(dp4633
sg71
g4627
sg64
(lp4634
g57
(g58
g59
NtRp4635
(dp4636
g62
(dp4637
g70
I3
ssg71
g4631
sg64
(lp4638
g100
asbasbasbag57
(g73
g59
NtRp4639
(dp4640
g62
(dp4641
sg71
g4610
sg64
(lp4642
g57
(g78
g59
NtRp4643
(dp4644
g62
(dp4645
sg71
g4639
sg64
(lp4646
g57
(g58
g59
NtRp4647
(dp4648
g62
(dp4649
g70
I3
ssg71
g4643
sg64
(lp4650
S'None'
p4651
asbasbasbag57
(g73
g59
NtRp4652
(dp4653
g62
(dp4654
sg71
g4610
sg64
(lp4655
g57
(g78
g59
NtRp4656
(dp4657
g62
(dp4658
sg71
g4652
sg64
(lp4659
g57
(g58
g59
NtRp4660
(dp4661
g62
(dp4662
g70
I3
ssg71
g4656
sg64
(lp4663
g57
(g66
g59
NtRp4664
(dp4665
g62
(dp4666
g70
I2
ssg71
Nsg64
(lp4667
g57
(g73
g59
NtRp4668
(dp4669
g62
(dp4670
sg71
g4664
sg64
(lp4671
g57
(g78
g59
NtRp4672
(dp4673
g62
(dp4674
sg71
g4668
sg64
(lp4675
g57
(g58
g59
NtRp4676
(dp4677
g62
(dp4678
g70
I2
ssg71
g4672
sg64
(lp4679
g57
(g66
g59
NtRp4680
(dp4681
g62
(dp4682
g70
I1
ssg71
Nsg64
(lp4683
g57
(g73
g59
NtRp4684
(dp4685
g62
(dp4686
sg71
g4680
sg64
(lp4687
g57
(g78
g59
NtRp4688
(dp4689
g62
(dp4690
sg71
g4684
sg64
(lp4691
g57
(g58
g59
NtRp4692
(dp4693
g62
(dp4694
g70
I1
ssg71
g4688
sg64
(lp4695
g4091
(S's\n\x00\x00\x00Book Shelf'
tRp4696
asbasbasbag57
(g73
g59
NtRp4697
(dp4698
g62
(dp4699
sg71
g4680
sg64
(lp4700
g57
(g78
g59
NtRp4701
(dp4702
g62
(dp4703
sg71
g4697
sg64
(lp4704
g57
(g58
g59
NtRp4705
(dp4706
g62
(dp4707
g70
I1
ssg71
g4701
sg64
(lp4708
I00
asbasbasbag57
(g73
g59
NtRp4709
(dp4710
g62
(dp4711
sg71
g4680
sg64
(lp4712
g57
(g78
g59
NtRp4713
(dp4714
g62
(dp4715
sg71
g4709
sg64
(lp4716
g57
(g58
g59
NtRp4717
(dp4718
g62
(dp4719
g70
I1
ssg71
g4713
sg64
(lp4720
S'/Book_Shelf/default/book_shelf'
p4721
asbasbasbasbasbasbasbag57
(g73
g59
NtRp4722
(dp4723
g62
(dp4724
sg71
g4664
sg64
(lp4725
g57
(g78
g59
NtRp4726
(dp4727
g62
(dp4728
sg71
g4722
sg64
(lp4729
g57
(g58
g59
NtRp4730
(dp4731
g62
(dp4732
g70
I2
ssg71
g4726
sg64
(lp4733
g57
(g66
g59
NtRp4734
(dp4735
g62
(dp4736
g70
I1
ssg71
Nsg64
(lp4737
g57
(g73
g59
NtRp4738
(dp4739
g62
(dp4740
sg71
g4734
sg64
(lp4741
g57
(g78
g59
NtRp4742
(dp4743
g62
(dp4744
sg71
g4738
sg64
(lp4745
g57
(g58
g59
NtRp4746
(dp4747
g62
(dp4748
g70
I1
ssg71
g4742
sg64
(lp4749
g4091
(S's\x11\x00\x00\x00Create Book Shelf'
tRp4750
asbasbasbag57
(g73
g59
NtRp4751
(dp4752
g62
(dp4753
sg71
g4734
sg64
(lp4754
g57
(g78
g59
NtRp4755
(dp4756
g62
(dp4757
sg71
g4751
sg64
(lp4758
g57
(g58
g59
NtRp4759
(dp4760
g62
(dp4761
g70
I1
ssg71
g4755
sg64
(lp4762
I00
asbasbasbag57
(g73
g59
NtRp4763
(dp4764
g62
(dp4765
sg71
g4734
sg64
(lp4766
g57
(g78
g59
NtRp4767
(dp4768
g62
(dp4769
sg71
g4763
sg64
(lp4770
g57
(g58
g59
NtRp4771
(dp4772
g62
(dp4773
g70
I1
ssg71
g4767
sg64
(lp4774
S'/Book_Shelf/default/create_book_shelf'
p4775
asbasbasbasbasbasbasbag57
(g73
g59
NtRp4776
(dp4777
g62
(dp4778
sg71
g4664
sg64
(lp4779
g57
(g78
g59
NtRp4780
(dp4781
g62
(dp4782
sg71
g4776
sg64
(lp4783
g57
(g58
g59
NtRp4784
(dp4785
g62
(dp4786
g70
I2
ssg71
g4780
sg64
(lp4787
g57
(g66
g59
NtRp4788
(dp4789
g62
(dp4790
g70
I1
ssg71
Nsg64
(lp4791
g57
(g73
g59
NtRp4792
(dp4793
g62
(dp4794
sg71
g4788
sg64
(lp4795
g57
(g78
g59
NtRp4796
(dp4797
g62
(dp4798
sg71
g4792
sg64
(lp4799
g57
(g58
g59
NtRp4800
(dp4801
g62
(dp4802
g70
I1
ssg71
g4796
sg64
(lp4803
g4091
(S's\x11\x00\x00\x00Update Book Shelf'
tRp4804
asbasbasbag57
(g73
g59
NtRp4805
(dp4806
g62
(dp4807
sg71
g4788
sg64
(lp4808
g57
(g78
g59
NtRp4809
(dp4810
g62
(dp4811
sg71
g4805
sg64
(lp4812
g57
(g58
g59
NtRp4813
(dp4814
g62
(dp4815
g70
I1
ssg71
g4809
sg64
(lp4816
I00
asbasbasbag57
(g73
g59
NtRp4817
(dp4818
g62
(dp4819
sg71
g4788
sg64
(lp4820
g57
(g78
g59
NtRp4821
(dp4822
g62
(dp4823
sg71
g4817
sg64
(lp4824
g57
(g58
g59
NtRp4825
(dp4826
g62
(dp4827
g70
I1
ssg71
g4821
sg64
(lp4828
S'/Book_Shelf/default/update_book_shelf'
p4829
asbasbasbasbasbasbasbasbasbasbasbasbasbasbasbag57
(g73
g59
NtRp4830
(dp4831
g62
(dp4832
sg71
g4059
sg64
(lp4833
g57
(g78
g59
NtRp4834
(dp4835
g62
(dp4836
sg71
g4830
sg64
(lp4837
g57
(g58
g59
NtRp4838
(dp4839
g62
(dp4840
g70
I4
ssg71
g4834
sg64
(lp4841
g57
(g66
g59
NtRp4842
(dp4843
g62
(dp4844
g70
I3
ssg71
Nsg64
(lp4845
g57
(g73
g59
NtRp4846
(dp4847
g62
(dp4848
sg71
g4842
sg64
(lp4849
g57
(g78
g59
NtRp4850
(dp4851
g62
(dp4852
sg71
g4846
sg64
(lp4853
g57
(g58
g59
NtRp4854
(dp4855
g62
(dp4856
g70
I3
ssg71
g4850
sg64
(lp4857
g57
(cgluon.html
SPAN
p4858
g59
NtRp4859
(dp4860
g62
(dp4861
g82
S'color:yellow'
p4862
ssg71
g57
(cgluon.html
A
p4863
g59
NtRp4864
(dp4865
g62
(dp4866
S'_onclick'
p4867
S'javascript:void(0);return false;'
p4868
sS'_href'
p4869
S'#'
ssg71
g57
(cgluon.html
LI
p4870
g59
NtRp4871
(dp4872
g62
(dp4873
S'_class'
p4874
S'web2py-menu-expand'
p4875
ssg71
g57
(cgluon.html
UL
p4876
g59
NtRp4877
(dp4878
g62
(dp4879
S'mobile'
p4880
I00
sS'li_class'
p4881
g4875
sg4874
S'sf-menu'
p4882
sS'ul_class'
p4883
S'web2py-menu-vertical'
p4884
sS'li_active'
p4885
S'web2py-menu-active'
p4886
ssg71
Nsg64
(lp4887
g57
(g4870
g59
NtRp4888
(dp4889
g62
(dp4890
sg71
g4877
sg64
(lp4891
g57
(g4863
g59
NtRp4892
(dp4893
g62
(dp4894
g4869
g4117
ssg71
g4888
sg64
(lp4895
g4092
asbasbag57
(g4870
g59
NtRp4896
(dp4897
g62
(dp4898
g4874
g4875
ssg71
g4877
sg64
(lp4899
g57
(g4863
g59
NtRp4900
(dp4901
g62
(dp4902
g4867
g4868
sg4869
S'#'
ssg71
g4896
sg64
(lp4903
g4162
asbag57
(g4876
g59
NtRp4904
(dp4905
g62
(dp4906
g4874
g4884
ssg71
g4896
sg64
(lp4907
g57
(g4870
g59
NtRp4908
(dp4909
g62
(dp4910
sg71
g4904
sg64
(lp4911
g57
(g4863
g59
NtRp4912
(dp4913
g62
(dp4914
g4869
g4257
ssg71
g4908
sg64
(lp4915
g4232
asbasbag57
(g4870
g59
NtRp4916
(dp4917
g62
(dp4918
sg71
g4904
sg64
(lp4919
g57
(g4863
g59
NtRp4920
(dp4921
g62
(dp4922
g4869
g4311
ssg71
g4916
sg64
(lp4923
g4286
asbasbag57
(g4870
g59
NtRp4924
(dp4925
g62
(dp4926
sg71
g4904
sg64
(lp4927
g57
(g4863
g59
NtRp4928
(dp4929
g62
(dp4930
g4869
g4365
ssg71
g4924
sg64
(lp4931
g4340
asbasbasbasbag57
(g4870
g59
NtRp4932
(dp4933
g62
(dp4934
g4874
g4875
ssg71
g4877
sg64
(lp4935
g57
(g4863
g59
NtRp4936
(dp4937
g62
(dp4938
g4867
g4868
sg4869
S'#'
ssg71
g4932
sg64
(lp4939
g4394
asbag57
(g4876
g59
NtRp4940
(dp4941
g62
(dp4942
g4874
g4884
ssg71
g4932
sg64
(lp4943
g57
(g4870
g59
NtRp4944
(dp4945
g62
(dp4946
sg71
g4940
sg64
(lp4947
g57
(g4863
g59
NtRp4948
(dp4949
g62
(dp4950
g4869
g4489
ssg71
g4944
sg64
(lp4951
g4464
asbasbag57
(g4870
g59
NtRp4952
(dp4953
g62
(dp4954
sg71
g4940
sg64
(lp4955
g57
(g4863
g59
NtRp4956
(dp4957
g62
(dp4958
g4869
g4543
ssg71
g4952
sg64
(lp4959
g4518
asbasbag57
(g4870
g59
NtRp4960
(dp4961
g62
(dp4962
sg71
g4940
sg64
(lp4963
g57
(g4863
g59
NtRp4964
(dp4965
g62
(dp4966
g4869
g4597
ssg71
g4960
sg64
(lp4967
g4572
asbasbasbasbag57
(g4870
g59
NtRp4968
(dp4969
g62
(dp4970
g4874
g4875
ssg71
g4877
sg64
(lp4971
g57
(g4863
g59
NtRp4972
(dp4973
g62
(dp4974
g4867
g4868
sg4869
S'#'
ssg71
g4968
sg64
(lp4975
g4626
asbag57
(g4876
g59
NtRp4976
(dp4977
g62
(dp4978
g4874
g4884
ssg71
g4968
sg64
(lp4979
g57
(g4870
g59
NtRp4980
(dp4981
g62
(dp4982
sg71
g4976
sg64
(lp4983
g57
(g4863
g59
NtRp4984
(dp4985
g62
(dp4986
g4869
g4721
ssg71
g4980
sg64
(lp4987
g4696
asbasbag57
(g4870
g59
NtRp4988
(dp4989
g62
(dp4990
sg71
g4976
sg64
(lp4991
g57
(g4863
g59
NtRp4992
(dp4993
g62
(dp4994
g4869
g4775
ssg71
g4988
sg64
(lp4995
g4750
asbasbag57
(g4870
g59
NtRp4996
(dp4997
g62
(dp4998
sg71
g4976
sg64
(lp4999
g57
(g4863
g59
NtRp5000
(dp5001
g62
(dp5002
g4869
g4829
ssg71
g4996
sg64
(lp5003
g4804
asbasbasbasbag4871
asbsg64
(lp5004
g4864
ag57
(g4876
g59
NtRp5005
(dp5006
g62
(dp5007
g4874
g4884
ssg71
g4871
sg64
(lp5008
g57
(g4870
g59
NtRp5009
(dp5010
g62
(dp5011
sg71
g5005
sg64
(lp5012
g57
(g4863
g59
NtRp5013
(dp5014
g62
(dp5015
g4869
S'/admin/default/site'
p5016
ssg71
g5009
sg64
(lp5017
g4091
(S's\x08\x00\x00\x00My Sites'
tRp5018
asbasbag57
(g4870
g59
NtRp5019
(dp5020
g62
(dp5021
g4874
g4875
ssg71
g5005
sg64
(lp5022
g57
(g4863
g59
NtRp5023
(dp5024
g62
(dp5025
g4869
S'/admin/default/design/Book_Shelf'
p5026
ssg71
g5019
sg64
(lp5027
g4091
(S's\x08\x00\x00\x00This App'
tRp5028
asbag57
(g4876
g59
NtRp5029
(dp5030
g62
(dp5031
g4874
g4884
ssg71
g5019
sg64
(lp5032
g57
(g4870
g59
NtRp5033
(dp5034
g62
(dp5035
sg71
g5029
sg64
(lp5036
g57
(g4863
g59
NtRp5037
(dp5038
g62
(dp5039
g4869
S'/admin/default/edit/Book_Shelf/controllers/default.py'
p5040
ssg71
g5033
sg64
(lp5041
g4091
(S't\n\x00\x00\x00Controller'
tRp5042
asbasbag57
(g4870
g59
NtRp5043
(dp5044
g62
(dp5045
sg71
g5029
sg64
(lp5046
g57
(g4863
g59
NtRp5047
(dp5048
g62
(dp5049
g4869
S'/admin/default/edit/Book_Shelf/views/default/book_shelf.html'
p5050
ssg71
g5043
sg64
(lp5051
g4091
(S't\x04\x00\x00\x00View'
tRp5052
asbasbag57
(g4870
g59
NtRp5053
(dp5054
g62
(dp5055
sg71
g5029
sg64
(lp5056
g57
(g4863
g59
NtRp5057
(dp5058
g62
(dp5059
g4869
S'/admin/default/edit/Book_Shelf/views/layout.html'
p5060
ssg71
g5053
sg64
(lp5061
g4091
(S't\x06\x00\x00\x00Layout'
tRp5062
asbasbag57
(g4870
g59
NtRp5063
(dp5064
g62
(dp5065
sg71
g5029
sg64
(lp5066
g57
(g4863
g59
NtRp5067
(dp5068
g62
(dp5069
g4869
S'/admin/default/edit/Book_Shelf/static/css/web2py.css'
p5070
ssg71
g5063
sg64
(lp5071
g4091
(S't\n\x00\x00\x00Stylesheet'
tRp5072
asbasbag57
(g4870
g59
NtRp5073
(dp5074
g62
(dp5075
sg71
g5029
sg64
(lp5076
g57
(g4863
g59
NtRp5077
(dp5078
g62
(dp5079
g4869
S'/admin/default/edit/Book_Shelf/models/db.py'
p5080
ssg71
g5073
sg64
(lp5081
g4091
(S's\x08\x00\x00\x00DB Model'
tRp5082
asbasbag57
(g4870
g59
NtRp5083
(dp5084
g62
(dp5085
sg71
g5029
sg64
(lp5086
g57
(g4863
g59
NtRp5087
(dp5088
g62
(dp5089
g4869
S'/admin/default/edit/Book_Shelf/models/menu.py'
p5090
ssg71
g5083
sg64
(lp5091
g4091
(S's\n\x00\x00\x00Menu Model'
tRp5092
asbasbag57
(g4870
g59
NtRp5093
(dp5094
g62
(dp5095
sg71
g5029
sg64
(lp5096
g57
(g4863
g59
NtRp5097
(dp5098
g62
(dp5099
g4869
S'/Book_Shelf/appadmin/index'
p5100
ssg71
g5093
sg64
(lp5101
g4091
(S't\x08\x00\x00\x00Database'
tRp5102
asbasbag57
(g4870
g59
NtRp5103
(dp5104
g62
(dp5105
sg71
g5029
sg64
(lp5106
g57
(g4863
g59
NtRp5107
(dp5108
g62
(dp5109
g4869
S'/admin/default/errors/Book_Shelf'
p5110
ssg71
g5103
sg64
(lp5111
g4091
(S't\x06\x00\x00\x00Errors'
tRp5112
asbasbag57
(g4870
g59
NtRp5113
(dp5114
g62
(dp5115
sg71
g5029
sg64
(lp5116
g57
(g4863
g59
NtRp5117
(dp5118
g62
(dp5119
g4869
S'/admin/default/about/Book_Shelf'
p5120
ssg71
g5113
sg64
(lp5121
g4091
(S't\x05\x00\x00\x00About'
tRp5122
asbasbasbasbag57
(g4870
g59
NtRp5123
(dp5124
g62
(dp5125
g4874
g4875
ssg71
g5005
sg64
(lp5126
g57
(g4863
g59
NtRp5127
(dp5128
g62
(dp5129
g4869
S'http://www.web2py.com'
p5130
ssg71
g5123
sg64
(lp5131
S'web2py.com'
p5132
asbag57
(g4876
g59
NtRp5133
(dp5134
g62
(dp5135
g4874
g4884
ssg71
g5123
sg64
(lp5136
g57
(g4870
g59
NtRp5137
(dp5138
g62
(dp5139
sg71
g5133
sg64
(lp5140
g57
(g4863
g59
NtRp5141
(dp5142
g62
(dp5143
g4869
S'http://www.web2py.com/examples/default/download'
p5144
ssg71
g5137
sg64
(lp5145
g4091
(S't\x08\x00\x00\x00Download'
tRp5146
asbasbag57
(g4870
g59
NtRp5147
(dp5148
g62
(dp5149
sg71
g5133
sg64
(lp5150
g57
(g4863
g59
NtRp5151
(dp5152
g62
(dp5153
g4869
S'http://www.web2py.com/examples/default/support'
p5154
ssg71
g5147
sg64
(lp5155
g4091
(S't\x07\x00\x00\x00Support'
tRp5156
asbasbag57
(g4870
g59
NtRp5157
(dp5158
g62
(dp5159
sg71
g5133
sg64
(lp5160
g57
(g4863
g59
NtRp5161
(dp5162
g62
(dp5163
g4869
S'http://web2py.com/demo_admin'
p5164
ssg71
g5157
sg64
(lp5165
g4091
(S't\x04\x00\x00\x00Demo'
tRp5166
asbasbag57
(g4870
g59
NtRp5167
(dp5168
g62
(dp5169
sg71
g5133
sg64
(lp5170
g57
(g4863
g59
NtRp5171
(dp5172
g62
(dp5173
g4869
S'http://web2py.com/examples/default/examples'
p5174
ssg71
g5167
sg64
(lp5175
g4091
(S's\x0e\x00\x00\x00Quick Examples'
tRp5176
asbasbag57
(g4870
g59
NtRp5177
(dp5178
g62
(dp5179
sg71
g5133
sg64
(lp5180
g57
(g4863
g59
NtRp5181
(dp5182
g62
(dp5183
g4869
S'http://web2py.com/AlterEgo'
p5184
ssg71
g5177
sg64
(lp5185
g4091
(S't\x03\x00\x00\x00FAQ'
tRp5186
asbasbag57
(g4870
g59
NtRp5187
(dp5188
g62
(dp5189
sg71
g5133
sg64
(lp5190
g57
(g4863
g59
NtRp5191
(dp5192
g62
(dp5193
g4869
S'http://www.web2py.com/examples/default/videos/'
p5194
ssg71
g5187
sg64
(lp5195
g4091
(S't\x06\x00\x00\x00Videos'
tRp5196
asbasbag57
(g4870
g59
NtRp5197
(dp5198
g62
(dp5199
sg71
g5133
sg64
(lp5200
g57
(g4863
g59
NtRp5201
(dp5202
g62
(dp5203
g4869
S'http://web2py.com/appliances'
p5204
ssg71
g5197
sg64
(lp5205
g4091
(S's\x11\x00\x00\x00Free Applications'
tRp5206
asbasbag57
(g4870
g59
NtRp5207
(dp5208
g62
(dp5209
sg71
g5133
sg64
(lp5210
g57
(g4863
g59
NtRp5211
(dp5212
g62
(dp5213
g4869
S'http://web2py.com/plugins'
p5214
ssg71
g5207
sg64
(lp5215
g4091
(S't\x07\x00\x00\x00Plugins'
tRp5216
asbasbag57
(g4870
g59
NtRp5217
(dp5218
g62
(dp5219
sg71
g5133
sg64
(lp5220
g57
(g4863
g59
NtRp5221
(dp5222
g62
(dp5223
g4869
S'http://web2py.com/layouts'
p5224
ssg71
g5217
sg64
(lp5225
g4091
(S't\x07\x00\x00\x00Layouts'
tRp5226
asbasbag57
(g4870
g59
NtRp5227
(dp5228
g62
(dp5229
sg71
g5133
sg64
(lp5230
g57
(g4863
g59
NtRp5231
(dp5232
g62
(dp5233
g4869
S'http://web2pyslices.com/'
p5234
ssg71
g5227
sg64
(lp5235
g4091
(S't\x07\x00\x00\x00Recipes'
tRp5236
asbasbag57
(g4870
g59
NtRp5237
(dp5238
g62
(dp5239
sg71
g5133
sg64
(lp5240
g57
(g4863
g59
NtRp5241
(dp5242
g62
(dp5243
g4869
S'http://web2py.com/semantic'
p5244
ssg71
g5237
sg64
(lp5245
g4091
(S't\x08\x00\x00\x00Semantic'
tRp5246
asbasbasbasbag57
(g4870
g59
NtRp5247
(dp5248
g62
(dp5249
g4874
g4875
ssg71
g5005
sg64
(lp5250
g57
(g4863
g59
NtRp5251
(dp5252
g62
(dp5253
g4869
S'http://www.web2py.com/book'
p5254
ssg71
g5247
sg64
(lp5255
g4091
(S't\r\x00\x00\x00Documentation'
tRp5256
asbag57
(g4876
g59
NtRp5257
(dp5258
g62
(dp5259
g4874
g4884
ssg71
g5247
sg64
(lp5260
g57
(g4870
g59
NtRp5261
(dp5262
g62
(dp5263
sg71
g5257
sg64
(lp5264
g57
(g4863
g59
NtRp5265
(dp5266
g62
(dp5267
g4869
S'http://www.web2py.com/book/default/chapter/00'
p5268
ssg71
g5261
sg64
(lp5269
g4091
(S't\x07\x00\x00\x00Preface'
tRp5270
asbasbag57
(g4870
g59
NtRp5271
(dp5272
g62
(dp5273
sg71
g5257
sg64
(lp5274
g57
(g4863
g59
NtRp5275
(dp5276
g62
(dp5277
g4869
S'http://www.web2py.com/book/default/chapter/01'
p5278
ssg71
g5271
sg64
(lp5279
g4091
(S't\x0c\x00\x00\x00Introduction'
tRp5280
asbasbag57
(g4870
g59
NtRp5281
(dp5282
g62
(dp5283
sg71
g5257
sg64
(lp5284
g57
(g4863
g59
NtRp5285
(dp5286
g62
(dp5287
g4869
S'http://www.web2py.com/book/default/chapter/02'
p5288
ssg71
g5281
sg64
(lp5289
g4091
(S't\x06\x00\x00\x00Python'
tRp5290
asbasbag57
(g4870
g59
NtRp5291
(dp5292
g62
(dp5293
sg71
g5257
sg64
(lp5294
g57
(g4863
g59
NtRp5295
(dp5296
g62
(dp5297
g4869
S'http://www.web2py.com/book/default/chapter/03'
p5298
ssg71
g5291
sg64
(lp5299
g4091
(S't\x08\x00\x00\x00Overview'
tRp5300
asbasbag57
(g4870
g59
NtRp5301
(dp5302
g62
(dp5303
sg71
g5257
sg64
(lp5304
g57
(g4863
g59
NtRp5305
(dp5306
g62
(dp5307
g4869
S'http://www.web2py.com/book/default/chapter/04'
p5308
ssg71
g5301
sg64
(lp5309
g4091
(S's\x08\x00\x00\x00The Core'
tRp5310
asbasbag57
(g4870
g59
NtRp5311
(dp5312
g62
(dp5313
sg71
g5257
sg64
(lp5314
g57
(g4863
g59
NtRp5315
(dp5316
g62
(dp5317
g4869
S'http://www.web2py.com/book/default/chapter/05'
p5318
ssg71
g5311
sg64
(lp5319
g4091
(S's\t\x00\x00\x00The Views'
tRp5320
asbasbag57
(g4870
g59
NtRp5321
(dp5322
g62
(dp5323
sg71
g5257
sg64
(lp5324
g57
(g4863
g59
NtRp5325
(dp5326
g62
(dp5327
g4869
S'http://www.web2py.com/book/default/chapter/06'
p5328
ssg71
g5321
sg64
(lp5329
g4091
(S't\x08\x00\x00\x00Database'
tRp5330
asbasbag57
(g4870
g59
NtRp5331
(dp5332
g62
(dp5333
sg71
g5257
sg64
(lp5334
g57
(g4863
g59
NtRp5335
(dp5336
g62
(dp5337
g4869
S'http://www.web2py.com/book/default/chapter/07'
p5338
ssg71
g5331
sg64
(lp5339
g4091
(S's\x14\x00\x00\x00Forms and Validators'
tRp5340
asbasbag57
(g4870
g59
NtRp5341
(dp5342
g62
(dp5343
sg71
g5257
sg64
(lp5344
g57
(g4863
g59
NtRp5345
(dp5346
g62
(dp5347
g4869
S'http://www.web2py.com/book/default/chapter/08'
p5348
ssg71
g5341
sg64
(lp5349
g4091
(S's\r\x00\x00\x00Email and SMS'
tRp5350
asbasbag57
(g4870
g59
NtRp5351
(dp5352
g62
(dp5353
sg71
g5257
sg64
(lp5354
g57
(g4863
g59
NtRp5355
(dp5356
g62
(dp5357
g4869
S'http://www.web2py.com/book/default/chapter/09'
p5358
ssg71
g5351
sg64
(lp5359
g4091
(S's\x0e\x00\x00\x00Access Control'
tRp5360
asbasbag57
(g4870
g59
NtRp5361
(dp5362
g62
(dp5363
sg71
g5257
sg64
(lp5364
g57
(g4863
g59
NtRp5365
(dp5366
g62
(dp5367
g4869
S'http://www.web2py.com/book/default/chapter/10'
p5368
ssg71
g5361
sg64
(lp5369
g4091
(S't\x08\x00\x00\x00Services'
tRp5370
asbasbag57
(g4870
g59
NtRp5371
(dp5372
g62
(dp5373
sg71
g5257
sg64
(lp5374
g57
(g4863
g59
NtRp5375
(dp5376
g62
(dp5377
g4869
S'http://www.web2py.com/book/default/chapter/11'
p5378
ssg71
g5371
sg64
(lp5379
g4091
(S's\x0c\x00\x00\x00Ajax Recipes'
tRp5380
asbasbag57
(g4870
g59
NtRp5381
(dp5382
g62
(dp5383
sg71
g5257
sg64
(lp5384
g57
(g4863
g59
NtRp5385
(dp5386
g62
(dp5387
g4869
S'http://www.web2py.com/book/default/chapter/12'
p5388
ssg71
g5381
sg64
(lp5389
g4091
(S's\x16\x00\x00\x00Components and Plugins'
tRp5390
asbasbag57
(g4870
g59
NtRp5391
(dp5392
g62
(dp5393
sg71
g5257
sg64
(lp5394
g57
(g4863
g59
NtRp5395
(dp5396
g62
(dp5397
g4869
S'http://www.web2py.com/book/default/chapter/13'
p5398
ssg71
g5391
sg64
(lp5399
g4091
(S's\x12\x00\x00\x00Deployment Recipes'
tRp5400
asbasbag57
(g4870
g59
NtRp5401
(dp5402
g62
(dp5403
sg71
g5257
sg64
(lp5404
g57
(g4863
g59
NtRp5405
(dp5406
g62
(dp5407
g4869
S'http://www.web2py.com/book/default/chapter/14'
p5408
ssg71
g5401
sg64
(lp5409
g4091
(S's\r\x00\x00\x00Other Recipes'
tRp5410
asbasbag57
(g4870
g59
NtRp5411
(dp5412
g62
(dp5413
sg71
g5257
sg64
(lp5414
g57
(g4863
g59
NtRp5415
(dp5416
g62
(dp5417
g4869
S'http://stores.lulu.com/web2py'
p5418
ssg71
g5411
sg64
(lp5419
g4091
(S's\r\x00\x00\x00Buy this book'
tRp5420
asbasbasbasbag57
(g4870
g59
NtRp5421
(dp5422
g62
(dp5423
g4874
g4875
ssg71
g5005
sg64
(lp5424
g57
(g4863
g59
NtRp5425
(dp5426
g62
(dp5427
g4867
g4868
sg4869
S'#'
ssg71
g5421
sg64
(lp5428
g4091
(S't\t\x00\x00\x00Community'
tRp5429
asbag57
(g4876
g59
NtRp5430
(dp5431
g62
(dp5432
g4874
g4884
ssg71
g5421
sg64
(lp5433
g57
(g4870
g59
NtRp5434
(dp5435
g62
(dp5436
sg71
g5430
sg64
(lp5437
g57
(g4863
g59
NtRp5438
(dp5439
g62
(dp5440
g4869
S'http://www.web2py.com/examples/default/usergroups'
p5441
ssg71
g5434
sg64
(lp5442
g4091
(S't\x06\x00\x00\x00Groups'
tRp5443
asbasbag57
(g4870
g59
NtRp5444
(dp5445
g62
(dp5446
sg71
g5430
sg64
(lp5447
g57
(g4863
g59
NtRp5448
(dp5449
g62
(dp5450
g4869
S'http://twitter.com/web2py'
p5451
ssg71
g5444
sg64
(lp5452
g4091
(S't\x07\x00\x00\x00Twitter'
tRp5453
asbasbag57
(g4870
g59
NtRp5454
(dp5455
g62
(dp5456
sg71
g5430
sg64
(lp5457
g57
(g4863
g59
NtRp5458
(dp5459
g62
(dp5460
g4869
S'http://webchat.freenode.net/?channels=web2py'
p5461
ssg71
g5454
sg64
(lp5462
g4091
(S's\t\x00\x00\x00Live Chat'
tRp5463
asbasbasbasbag57
(g4870
g59
NtRp5464
(dp5465
g62
(dp5466
g4874
g4875
ssg71
g5005
sg64
(lp5467
g57
(g4863
g59
NtRp5468
(dp5469
g62
(dp5470
g4867
g4868
sg4869
S'#'
ssg71
g5464
sg64
(lp5471
g4091
(S't\x07\x00\x00\x00Plugins'
tRp5472
asbag57
(g4876
g59
NtRp5473
(dp5474
g62
(dp5475
g4874
g4884
ssg71
g5464
sg64
(lp5476
g57
(g4870
g59
NtRp5477
(dp5478
g62
(dp5479
sg71
g5473
sg64
(lp5480
g57
(g4863
g59
NtRp5481
(dp5482
g62
(dp5483
g4869
S'http://web2py.com/examples/default/download'
p5484
ssg71
g5477
sg64
(lp5485
S'plugin_wiki'
p5486
asbasbag57
(g4870
g59
NtRp5487
(dp5488
g62
(dp5489
sg71
g5473
sg64
(lp5490
g57
(g4863
g59
NtRp5491
(dp5492
g62
(dp5493
g4869
g5214
ssg71
g5487
sg64
(lp5494
g4091
(S's\r\x00\x00\x00Other Plugins'
tRp5495
asbasbag57
(g4870
g59
NtRp5496
(dp5497
g62
(dp5498
sg71
g5473
sg64
(lp5499
g57
(g4863
g59
NtRp5500
(dp5501
g62
(dp5502
g4869
g5224
ssg71
g5496
sg64
(lp5503
g4091
(S's\x0e\x00\x00\x00Layout Plugins'
tRp5504
asbasbasbasbasbasbsg64
(lp5505
g4859
asbsg64
(lp5506
g4037
asbasbasbasbag57
(g73
g59
NtRp5507
(dp5508
g62
(dp5509
sg71
g4842
sg64
(lp5510
g57
(g78
g59
NtRp5511
(dp5512
g62
(dp5513
sg71
g5507
sg64
(lp5514
g57
(g58
g59
NtRp5515
(dp5516
g62
(dp5517
g70
I3
ssg71
g5511
sg64
(lp5518
g100
asbasbasbag57
(g73
g59
NtRp5519
(dp5520
g62
(dp5521
sg71
g4842
sg64
(lp5522
g57
(g78
g59
NtRp5523
(dp5524
g62
(dp5525
sg71
g5519
sg64
(lp5526
g57
(g58
g59
NtRp5527
(dp5528
g62
(dp5529
g70
I3
ssg71
g5523
sg64
(lp5530
S'None'
p5531
asbasbasbag57
(g73
g59
NtRp5532
(dp5533
g62
(dp5534
sg71
g4842
sg64
(lp5535
g57
(g78
g59
NtRp5536
(dp5537
g62
(dp5538
sg71
g5532
sg64
(lp5539
g57
(g58
g59
NtRp5540
(dp5541
g62
(dp5542
g70
I3
ssg71
g5536
sg64
(lp5543
g57
(g66
g59
NtRp5544
(dp5545
g62
(dp5546
g70
I2
ssg71
Nsg64
(lp5547
g57
(g73
g59
NtRp5548
(dp5549
g62
(dp5550
sg71
g5544
sg64
(lp5551
g57
(g78
g59
NtRp5552
(dp5553
g62
(dp5554
sg71
g5548
sg64
(lp5555
g57
(g58
g59
NtRp5556
(dp5557
g62
(dp5558
g70
I2
ssg71
g5552
sg64
(lp5559
g57
(g66
g59
NtRp5560
(dp5561
g62
(dp5562
g70
I1
ssg71
Nsg64
(lp5563
g57
(g73
g59
NtRp5564
(dp5565
g62
(dp5566
sg71
g5560
sg64
(lp5567
g57
(g78
g59
NtRp5568
(dp5569
g62
(dp5570
sg71
g5564
sg64
(lp5571
g57
(g58
g59
NtRp5572
(dp5573
g62
(dp5574
g70
I1
ssg71
g5568
sg64
(lp5575
g5018
asbasbasbag57
(g73
g59
NtRp5576
(dp5577
g62
(dp5578
sg71
g5560
sg64
(lp5579
g57
(g78
g59
NtRp5580
(dp5581
g62
(dp5582
sg71
g5576
sg64
(lp5583
g57
(g58
g59
NtRp5584
(dp5585
g62
(dp5586
g70
I1
ssg71
g5580
sg64
(lp5587
I00
asbasbasbag57
(g73
g59
NtRp5588
(dp5589
g62
(dp5590
sg71
g5560
sg64
(lp5591
g57
(g78
g59
NtRp5592
(dp5593
g62
(dp5594
sg71
g5588
sg64
(lp5595
g57
(g58
g59
NtRp5596
(dp5597
g62
(dp5598
g70
I1
ssg71
g5592
sg64
(lp5599
g5016
asbasbasbasbasbasbasbag57
(g73
g59
NtRp5600
(dp5601
g62
(dp5602
sg71
g5544
sg64
(lp5603
g57
(g78
g59
NtRp5604
(dp5605
g62
(dp5606
sg71
g5600
sg64
(lp5607
g57
(g58
g59
NtRp5608
(dp5609
g62
(dp5610
g70
I2
ssg71
g5604
sg64
(lp5611
g57
(g66
g59
NtRp5612
(dp5613
g62
(dp5614
g70
I1
ssg71
Nsg64
(lp5615
g57
(g73
g59
NtRp5616
(dp5617
g62
(dp5618
sg71
g5612
sg64
(lp5619
g57
(g78
g59
NtRp5620
(dp5621
g62
(dp5622
sg71
g5616
sg64
(lp5623
g57
(g58
g59
NtRp5624
(dp5625
g62
(dp5626
g70
I1
ssg71
g5620
sg64
(lp5627
g5028
asbasbasbag57
(g73
g59
NtRp5628
(dp5629
g62
(dp5630
sg71
g5612
sg64
(lp5631
g57
(g78
g59
NtRp5632
(dp5633
g62
(dp5634
sg71
g5628
sg64
(lp5635
g57
(g58
g59
NtRp5636
(dp5637
g62
(dp5638
g70
I1
ssg71
g5632
sg64
(lp5639
I00
asbasbasbag57
(g73
g59
NtRp5640
(dp5641
g62
(dp5642
sg71
g5612
sg64
(lp5643
g57
(g78
g59
NtRp5644
(dp5645
g62
(dp5646
sg71
g5640
sg64
(lp5647
g57
(g58
g59
NtRp5648
(dp5649
g62
(dp5650
g70
I1
ssg71
g5644
sg64
(lp5651
g5026
asbasbasbag57
(g73
g59
NtRp5652
(dp5653
g62
(dp5654
sg71
g5612
sg64
(lp5655
g57
(g78
g59
NtRp5656
(dp5657
g62
(dp5658
sg71
g5652
sg64
(lp5659
g57
(g58
g59
NtRp5660
(dp5661
g62
(dp5662
g70
I1
ssg71
g5656
sg64
(lp5663
(lp5664
(g5042
I00
g5040
tp5665
a(g5052
I00
g5050
tp5666
a(g5062
I00
g5060
tp5667
a(g5072
I00
g5070
tp5668
a(g5082
I00
g5080
tp5669
a(g5092
I00
g5090
tp5670
a(g5102
I00
g5100
tp5671
a(g5112
I00
g5110
tp5672
a(g5122
I00
g5120
tp5673
aasbasbasbasbasbasbasbag57
(g73
g59
NtRp5674
(dp5675
g62
(dp5676
sg71
g5544
sg64
(lp5677
g57
(g78
g59
NtRp5678
(dp5679
g62
(dp5680
sg71
g5674
sg64
(lp5681
g57
(g58
g59
NtRp5682
(dp5683
g62
(dp5684
g70
I2
ssg71
g5678
sg64
(lp5685
g57
(g66
g59
NtRp5686
(dp5687
g62
(dp5688
g70
I1
ssg71
Nsg64
(lp5689
g57
(g73
g59
NtRp5690
(dp5691
g62
(dp5692
sg71
g5686
sg64
(lp5693
g57
(g78
g59
NtRp5694
(dp5695
g62
(dp5696
sg71
g5690
sg64
(lp5697
g57
(g58
g59
NtRp5698
(dp5699
g62
(dp5700
g70
I1
ssg71
g5694
sg64
(lp5701
g5132
asbasbasbag57
(g73
g59
NtRp5702
(dp5703
g62
(dp5704
sg71
g5686
sg64
(lp5705
g57
(g78
g59
NtRp5706
(dp5707
g62
(dp5708
sg71
g5702
sg64
(lp5709
g57
(g58
g59
NtRp5710
(dp5711
g62
(dp5712
g70
I1
ssg71
g5706
sg64
(lp5713
I00
asbasbasbag57
(g73
g59
NtRp5714
(dp5715
g62
(dp5716
sg71
g5686
sg64
(lp5717
g57
(g78
g59
NtRp5718
(dp5719
g62
(dp5720
sg71
g5714
sg64
(lp5721
g57
(g58
g59
NtRp5722
(dp5723
g62
(dp5724
g70
I1
ssg71
g5718
sg64
(lp5725
g5130
asbasbasbag57
(g73
g59
NtRp5726
(dp5727
g62
(dp5728
sg71
g5686
sg64
(lp5729
g57
(g78
g59
NtRp5730
(dp5731
g62
(dp5732
sg71
g5726
sg64
(lp5733
g57
(g58
g59
NtRp5734
(dp5735
g62
(dp5736
g70
I1
ssg71
g5730
sg64
(lp5737
(lp5738
(g5146
I00
g5144
tp5739
a(g5156
I00
g5154
tp5740
a(g5166
I00
g5164
tp5741
a(g5176
I00
g5174
tp5742
a(g5186
I00
g5184
tp5743
a(g5196
I00
g5194
tp5744
a(g5206
I00
g5204
tp5745
a(g5216
I00
g5214
tp5746
a(g5226
I00
g5224
tp5747
a(g5236
I00
g5234
tp5748
a(g5246
I00
g5244
tp5749
aasbasbasbasbasbasbasbag57
(g73
g59
NtRp5750
(dp5751
g62
(dp5752
sg71
g5544
sg64
(lp5753
g57
(g78
g59
NtRp5754
(dp5755
g62
(dp5756
sg71
g5750
sg64
(lp5757
g57
(g58
g59
NtRp5758
(dp5759
g62
(dp5760
g70
I2
ssg71
g5754
sg64
(lp5761
g57
(g66
g59
NtRp5762
(dp5763
g62
(dp5764
g70
I1
ssg71
Nsg64
(lp5765
g57
(g73
g59
NtRp5766
(dp5767
g62
(dp5768
sg71
g5762
sg64
(lp5769
g57
(g78
g59
NtRp5770
(dp5771
g62
(dp5772
sg71
g5766
sg64
(lp5773
g57
(g58
g59
NtRp5774
(dp5775
g62
(dp5776
g70
I1
ssg71
g5770
sg64
(lp5777
g5256
asbasbasbag57
(g73
g59
NtRp5778
(dp5779
g62
(dp5780
sg71
g5762
sg64
(lp5781
g57
(g78
g59
NtRp5782
(dp5783
g62
(dp5784
sg71
g5778
sg64
(lp5785
g57
(g58
g59
NtRp5786
(dp5787
g62
(dp5788
g70
I1
ssg71
g5782
sg64
(lp5789
I00
asbasbasbag57
(g73
g59
NtRp5790
(dp5791
g62
(dp5792
sg71
g5762
sg64
(lp5793
g57
(g78
g59
NtRp5794
(dp5795
g62
(dp5796
sg71
g5790
sg64
(lp5797
g57
(g58
g59
NtRp5798
(dp5799
g62
(dp5800
g70
I1
ssg71
g5794
sg64
(lp5801
g5254
asbasbasbag57
(g73
g59
NtRp5802
(dp5803
g62
(dp5804
sg71
g5762
sg64
(lp5805
g57
(g78
g59
NtRp5806
(dp5807
g62
(dp5808
sg71
g5802
sg64
(lp5809
g57
(g58
g59
NtRp5810
(dp5811
g62
(dp5812
g70
I1
ssg71
g5806
sg64
(lp5813
(lp5814
(g5270
I00
g5268
tp5815
a(g5280
I00
g5278
tp5816
a(g5290
I00
g5288
tp5817
a(g5300
I00
g5298
tp5818
a(g5310
I00
g5308
tp5819
a(g5320
I00
g5318
tp5820
a(g5330
I00
g5328
tp5821
a(g5340
I00
g5338
tp5822
a(g5350
I00
g5348
tp5823
a(g5360
I00
g5358
tp5824
a(g5370
I00
g5368
tp5825
a(g5380
I00
g5378
tp5826
a(g5390
I00
g5388
tp5827
a(g5400
I00
g5398
tp5828
a(g5410
I00
g5408
tp5829
a(g5420
I00
g5418
tp5830
aasbasbasbasbasbasbasbag57
(g73
g59
NtRp5831
(dp5832
g62
(dp5833
sg71
g5544
sg64
(lp5834
g57
(g78
g59
NtRp5835
(dp5836
g62
(dp5837
sg71
g5831
sg64
(lp5838
g57
(g58
g59
NtRp5839
(dp5840
g62
(dp5841
g70
I2
ssg71
g5835
sg64
(lp5842
g57
(g66
g59
NtRp5843
(dp5844
g62
(dp5845
g70
I1
ssg71
Nsg64
(lp5846
g57
(g73
g59
NtRp5847
(dp5848
g62
(dp5849
sg71
g5843
sg64
(lp5850
g57
(g78
g59
NtRp5851
(dp5852
g62
(dp5853
sg71
g5847
sg64
(lp5854
g57
(g58
g59
NtRp5855
(dp5856
g62
(dp5857
g70
I1
ssg71
g5851
sg64
(lp5858
g5429
asbasbasbag57
(g73
g59
NtRp5859
(dp5860
g62
(dp5861
sg71
g5843
sg64
(lp5862
g57
(g78
g59
NtRp5863
(dp5864
g62
(dp5865
sg71
g5859
sg64
(lp5866
g57
(g58
g59
NtRp5867
(dp5868
g62
(dp5869
g70
I1
ssg71
g5863
sg64
(lp5870
I00
asbasbasbag57
(g73
g59
NtRp5871
(dp5872
g62
(dp5873
sg71
g5843
sg64
(lp5874
g57
(g78
g59
NtRp5875
(dp5876
g62
(dp5877
sg71
g5871
sg64
(lp5878
g57
(g58
g59
NtRp5879
(dp5880
g62
(dp5881
g70
I1
ssg71
g5875
sg64
(lp5882
Nasbasbasbag57
(g73
g59
NtRp5883
(dp5884
g62
(dp5885
sg71
g5843
sg64
(lp5886
g57
(g78
g59
NtRp5887
(dp5888
g62
(dp5889
sg71
g5883
sg64
(lp5890
g57
(g58
g59
NtRp5891
(dp5892
g62
(dp5893
g70
I1
ssg71
g5887
sg64
(lp5894
(lp5895
(g5443
I00
g5441
tp5896
a(g5453
I00
g5451
tp5897
a(g5463
I00
g5461
tp5898
aasbasbasbasbasbasbasbag57
(g73
g59
NtRp5899
(dp5900
g62
(dp5901
sg71
g5544
sg64
(lp5902
g57
(g78
g59
NtRp5903
(dp5904
g62
(dp5905
sg71
g5899
sg64
(lp5906
g57
(g58
g59
NtRp5907
(dp5908
g62
(dp5909
g70
I2
ssg71
g5903
sg64
(lp5910
g57
(g66
g59
NtRp5911
(dp5912
g62
(dp5913
g70
I1
ssg71
Nsg64
(lp5914
g57
(g73
g59
NtRp5915
(dp5916
g62
(dp5917
sg71
g5911
sg64
(lp5918
g57
(g78
g59
NtRp5919
(dp5920
g62
(dp5921
sg71
g5915
sg64
(lp5922
g57
(g58
g59
NtRp5923
(dp5924
g62
(dp5925
g70
I1
ssg71
g5919
sg64
(lp5926
g5472
asbasbasbag57
(g73
g59
NtRp5927
(dp5928
g62
(dp5929
sg71
g5911
sg64
(lp5930
g57
(g78
g59
NtRp5931
(dp5932
g62
(dp5933
sg71
g5927
sg64
(lp5934
g57
(g58
g59
NtRp5935
(dp5936
g62
(dp5937
g70
I1
ssg71
g5931
sg64
(lp5938
I00
asbasbasbag57
(g73
g59
NtRp5939
(dp5940
g62
(dp5941
sg71
g5911
sg64
(lp5942
g57
(g78
g59
NtRp5943
(dp5944
g62
(dp5945
sg71
g5939
sg64
(lp5946
g57
(g58
g59
NtRp5947
(dp5948
g62
(dp5949
g70
I1
ssg71
g5943
sg64
(lp5950
Nasbasbasbag57
(g73
g59
NtRp5951
(dp5952
g62
(dp5953
sg71
g5911
sg64
(lp5954
g57
(g78
g59
NtRp5955
(dp5956
g62
(dp5957
sg71
g5951
sg64
(lp5958
g57
(g58
g59
NtRp5959
(dp5960
g62
(dp5961
g70
I1
ssg71
g5955
sg64
(lp5962
(lp5963
(g5486
I00
g5484
tp5964
a(g5495
I00
g5214
tp5965
a(g5504
I00
g5224
tp5966
aasbasbasbasbasbasbasbasbasbasbasbasbasbasbasbasbasbasbasbag57
(g73
g59
NtRp5967
(dp5968
g62
(dp5969
sg71
g3431
sg64
(lp5970
g57
(g78
g59
NtRp5971
(dp5972
g62
(dp5973
g82
g83
ssg71
g5967
sg64
(lp5974
S'meta'
p5975
asbag57
(g78
g59
NtRp5976
(dp5977
g62
(dp5978
g89
g90
ssg71
g5967
sg64
(lp5979
S':'
asbag57
(g78
g59
NtRp5980
(dp5981
g62
(dp5982
sg71
g5967
sg64
(lp5983
g57
(g58
g59
NtRp5984
(dp5985
g62
(dp5986
g70
I5
ssg71
g5980
sg64
(lp5987
g57
(g66
g59
NtRp5988
(dp5989
g62
(dp5990
g70
I4
ssg71
Nsg64
(lp5991
g57
(g73
g59
NtRp5992
(dp5993
g62
(dp5994
sg71
g5988
sg64
(lp5995
g57
(g78
g59
NtRp5996
(dp5997
g62
(dp5998
g82
g83
ssg71
g5992
sg64
(lp5999
S'author'
p6000
asbag57
(g78
g59
NtRp6001
(dp6002
g62
(dp6003
g89
g90
ssg71
g5992
sg64
(lp6004
S':'
asbag57
(g78
g59
NtRp6005
(dp6006
g62
(dp6007
sg71
g5992
sg64
(lp6008
g57
(g58
g59
NtRp6009
(dp6010
g62
(dp6011
g70
I4
ssg71
g6005
sg64
(lp6012
S'Your Name <you@example.com>'
p6013
asbasbasbag57
(g73
g59
NtRp6014
(dp6015
g62
(dp6016
sg71
g5988
sg64
(lp6017
g57
(g78
g59
NtRp6018
(dp6019
g62
(dp6020
g82
g83
ssg71
g6014
sg64
(lp6021
S'copyright'
p6022
asbag57
(g78
g59
NtRp6023
(dp6024
g62
(dp6025
g89
g90
ssg71
g6014
sg64
(lp6026
S':'
asbag57
(g78
g59
NtRp6027
(dp6028
g62
(dp6029
sg71
g6014
sg64
(lp6030
g57
(g58
g59
NtRp6031
(dp6032
g62
(dp6033
g70
I4
ssg71
g6027
sg64
(lp6034
S'Copyright 2011'
p6035
asbasbasbag57
(g73
g59
NtRp6036
(dp6037
g62
(dp6038
sg71
g5988
sg64
(lp6039
g57
(g78
g59
NtRp6040
(dp6041
g62
(dp6042
g82
g83
ssg71
g6036
sg64
(lp6043
S'description'
p6044
asbag57
(g78
g59
NtRp6045
(dp6046
g62
(dp6047
g89
g90
ssg71
g6036
sg64
(lp6048
S':'
asbag57
(g78
g59
NtRp6049
(dp6050
g62
(dp6051
sg71
g6036
sg64
(lp6052
g57
(g58
g59
NtRp6053
(dp6054
g62
(dp6055
g70
I4
ssg71
g6049
sg64
(lp6056
S'a cool new app'
p6057
asbasbasbag57
(g73
g59
NtRp6058
(dp6059
g62
(dp6060
sg71
g5988
sg64
(lp6061
g57
(g78
g59
NtRp6062
(dp6063
g62
(dp6064
g82
g83
ssg71
g6058
sg64
(lp6065
S'generator'
p6066
asbag57
(g78
g59
NtRp6067
(dp6068
g62
(dp6069
g89
g90
ssg71
g6058
sg64
(lp6070
S':'
asbag57
(g78
g59
NtRp6071
(dp6072
g62
(dp6073
sg71
g6058
sg64
(lp6074
g57
(g58
g59
NtRp6075
(dp6076
g62
(dp6077
g70
I4
ssg71
g6071
sg64
(lp6078
S'Web2py Web Framework'
p6079
asbasbasbag57
(g73
g59
NtRp6080
(dp6081
g62
(dp6082
sg71
g5988
sg64
(lp6083
g57
(g78
g59
NtRp6084
(dp6085
g62
(dp6086
g82
g83
ssg71
g6080
sg64
(lp6087
S'keywords'
p6088
asbag57
(g78
g59
NtRp6089
(dp6090
g62
(dp6091
g89
g90
ssg71
g6080
sg64
(lp6092
S':'
asbag57
(g78
g59
NtRp6093
(dp6094
g62
(dp6095
sg71
g6080
sg64
(lp6096
g57
(g58
g59
NtRp6097
(dp6098
g62
(dp6099
g70
I4
ssg71
g6093
sg64
(lp6100
S'web2py, python, framework'
p6101
asbasbasbasbasbasbasbag57
(g73
g59
NtRp6102
(dp6103
g62
(dp6104
sg71
g3431
sg64
(lp6105
g57
(g78
g59
NtRp6106
(dp6107
g62
(dp6108
g82
g83
ssg71
g6102
sg64
(lp6109
S'postprocessing'
p6110
asbag57
(g78
g59
NtRp6111
(dp6112
g62
(dp6113
g89
g90
ssg71
g6102
sg64
(lp6114
S':'
asbag57
(g78
g59
NtRp6115
(dp6116
g62
(dp6117
sg71
g6102
sg64
(lp6118
g57
(g58
g59
NtRp6119
(dp6120
g62
(dp6121
g70
I5
ssg71
g6115
sg64
(lp6122
g57
(g66
g59
NtRp6123
(dp6124
g62
(dp6125
g70
I4
ssg71
Nsg64
(lp6126
sbasbasbasbag57
(g73
g59
NtRp6127
(dp6128
g62
(dp6129
sg71
g3431
sg64
(lp6130
g57
(g78
g59
NtRp6131
(dp6132
g62
(dp6133
g82
g83
ssg71
g6127
sg64
(lp6134
S'session_file'
p6135
asbag57
(g78
g59
NtRp6136
(dp6137
g62
(dp6138
g89
g90
ssg71
g6127
sg64
(lp6139
S':'
asbag57
(g78
g59
NtRp6140
(dp6141
g62
(dp6142
sg71
g6127
sg64
(lp6143
g57
(g58
g59
NtRp6144
(dp6145
g62
(dp6146
g70
I5
ssg71
g6140
sg64
(lp6147
S"<open file '/Users/ianaboneva/Downloads/web2py/applications/Book_Shelf/sessions/127.0.0.1-abc01c71-8844-4aa9-8d94-40c83b0e7587', mode 'rb+' at 0x107551420>"
p6148
asbasbasbag57
(g73
g59
NtRp6149
(dp6150
g62
(dp6151
sg71
g3431
sg64
(lp6152
g57
(g78
g59
NtRp6153
(dp6154
g62
(dp6155
g82
g83
ssg71
g6149
sg64
(lp6156
S'session_filename'
p6157
asbag57
(g78
g59
NtRp6158
(dp6159
g62
(dp6160
g89
g90
ssg71
g6149
sg64
(lp6161
S':'
asbag57
(g78
g59
NtRp6162
(dp6163
g62
(dp6164
sg71
g6149
sg64
(lp6165
g57
(g58
g59
NtRp6166
(dp6167
g62
(dp6168
g70
I5
ssg71
g6162
sg64
(lp6169
S'/Users/ianaboneva/Downloads/web2py/applications/Book_Shelf/sessions/127.0.0.1-abc01c71-8844-4aa9-8d94-40c83b0e7587'
p6170
asbasbasbag57
(g73
g59
NtRp6171
(dp6172
g62
(dp6173
sg71
g3431
sg64
(lp6174
g57
(g78
g59
NtRp6175
(dp6176
g62
(dp6177
g82
g83
ssg71
g6171
sg64
(lp6178
S'session_id'
p6179
asbag57
(g78
g59
NtRp6180
(dp6181
g62
(dp6182
g89
g90
ssg71
g6171
sg64
(lp6183
S':'
asbag57
(g78
g59
NtRp6184
(dp6185
g62
(dp6186
sg71
g6171
sg64
(lp6187
g57
(g58
g59
NtRp6188
(dp6189
g62
(dp6190
g70
I5
ssg71
g6184
sg64
(lp6191
S'127.0.0.1-abc01c71-8844-4aa9-8d94-40c83b0e7587'
p6192
asbasbasbag57
(g73
g59
NtRp6193
(dp6194
g62
(dp6195
sg71
g3431
sg64
(lp6196
g57
(g78
g59
NtRp6197
(dp6198
g62
(dp6199
g82
g83
ssg71
g6193
sg64
(lp6200
S'session_id_name'
p6201
asbag57
(g78
g59
NtRp6202
(dp6203
g62
(dp6204
g89
g90
ssg71
g6193
sg64
(lp6205
S':'
asbag57
(g78
g59
NtRp6206
(dp6207
g62
(dp6208
sg71
g6193
sg64
(lp6209
g57
(g58
g59
NtRp6210
(dp6211
g62
(dp6212
g70
I5
ssg71
g6206
sg64
(lp6213
g3488
asbasbasbag57
(g73
g59
NtRp6214
(dp6215
g62
(dp6216
sg71
g3431
sg64
(lp6217
g57
(g78
g59
NtRp6218
(dp6219
g62
(dp6220
g82
g83
ssg71
g6214
sg64
(lp6221
S'session_locked'
p6222
asbag57
(g78
g59
NtRp6223
(dp6224
g62
(dp6225
g89
g90
ssg71
g6214
sg64
(lp6226
S':'
asbag57
(g78
g59
NtRp6227
(dp6228
g62
(dp6229
sg71
g6214
sg64
(lp6230
g57
(g58
g59
NtRp6231
(dp6232
g62
(dp6233
g70
I5
ssg71
g6227
sg64
(lp6234
g1678
asbasbasbag57
(g73
g59
NtRp6235
(dp6236
g62
(dp6237
sg71
g3431
sg64
(lp6238
g57
(g78
g59
NtRp6239
(dp6240
g62
(dp6241
g82
g83
ssg71
g6235
sg64
(lp6242
S'session_new'
p6243
asbag57
(g78
g59
NtRp6244
(dp6245
g62
(dp6246
g89
g90
ssg71
g6235
sg64
(lp6247
S':'
asbag57
(g78
g59
NtRp6248
(dp6249
g62
(dp6250
sg71
g6235
sg64
(lp6251
g57
(g58
g59
NtRp6252
(dp6253
g62
(dp6254
g70
I5
ssg71
g6248
sg64
(lp6255
g100
asbasbasbag57
(g73
g59
NtRp6256
(dp6257
g62
(dp6258
sg71
g3431
sg64
(lp6259
g57
(g78
g59
NtRp6260
(dp6261
g62
(dp6262
g82
g83
ssg71
g6256
sg64
(lp6263
S'status'
p6264
asbag57
(g78
g59
NtRp6265
(dp6266
g62
(dp6267
g89
g90
ssg71
g6256
sg64
(lp6268
S':'
asbag57
(g78
g59
NtRp6269
(dp6270
g62
(dp6271
sg71
g6256
sg64
(lp6272
g57
(g58
g59
NtRp6273
(dp6274
g62
(dp6275
g70
I5
ssg71
g6269
sg64
(lp6276
S'200'
p6277
asbasbasbag57
(g73
g59
NtRp6278
(dp6279
g62
(dp6280
sg71
g3431
sg64
(lp6281
g57
(g78
g59
NtRp6282
(dp6283
g62
(dp6284
g82
g83
ssg71
g6278
sg64
(lp6285
S'subtitle'
p6286
asbag57
(g78
g59
NtRp6287
(dp6288
g62
(dp6289
g89
g90
ssg71
g6278
sg64
(lp6290
S':'
asbag57
(g78
g59
NtRp6291
(dp6292
g62
(dp6293
sg71
g6278
sg64
(lp6294
g57
(g58
g59
NtRp6295
(dp6296
g62
(dp6297
g70
I5
ssg71
g6291
sg64
(lp6298
g4091
(S's\r\x00\x00\x00customize me!'
tRp6299
asbasbasbag57
(g73
g59
NtRp6300
(dp6301
g62
(dp6302
sg71
g3431
sg64
(lp6303
g57
(g78
g59
NtRp6304
(dp6305
g62
(dp6306
g82
g83
ssg71
g6300
sg64
(lp6307
S'title'
p6308
asbag57
(g78
g59
NtRp6309
(dp6310
g62
(dp6311
g89
g90
ssg71
g6300
sg64
(lp6312
S':'
asbag57
(g78
g59
NtRp6313
(dp6314
g62
(dp6315
sg71
g6300
sg64
(lp6316
g57
(g58
g59
NtRp6317
(dp6318
g62
(dp6319
g70
I5
ssg71
g6313
sg64
(lp6320
S'Book Shelf'
p6321
asbasbasbag57
(g73
g59
NtRp6322
(dp6323
g62
(dp6324
sg71
g3431
sg64
(lp6325
g57
(g78
g59
NtRp6326
(dp6327
g62
(dp6328
g82
g83
ssg71
g6322
sg64
(lp6329
g2342
asbag57
(g78
g59
NtRp6330
(dp6331
g62
(dp6332
g89
g90
ssg71
g6322
sg64
(lp6333
S':'
asbag57
(g78
g59
NtRp6334
(dp6335
g62
(dp6336
sg71
g6322
sg64
(lp6337
g57
(g58
g59
NtRp6338
(dp6339
g62
(dp6340
g70
I5
ssg71
g6334
sg64
(lp6341
g2355
asbasbasbag57
(g73
g59
NtRp6342
(dp6343
g62
(dp6344
sg71
g3431
sg64
(lp6345
g57
(g78
g59
NtRp6346
(dp6347
g62
(dp6348
g82
g83
ssg71
g6342
sg64
(lp6349
S'view'
p6350
asbag57
(g78
g59
NtRp6351
(dp6352
g62
(dp6353
g89
g90
ssg71
g6342
sg64
(lp6354
S':'
asbag57
(g78
g59
NtRp6355
(dp6356
g62
(dp6357
sg71
g6342
sg64
(lp6358
g57
(g58
g59
NtRp6359
(dp6360
g62
(dp6361
g70
I5
ssg71
g6355
sg64
(lp6362
S'default/book_shelf.html'
p6363
asbasbasbasbasbsS'locals'
p6364
(dp6365
S'Service'
p6366
S"<class 'gluon.tools.Service'>"
p6367
sS'OBJECT'
p6368
S"<class 'gluon.html.OBJECT'>"
p6369
sS'SQLDB'
p6370
S"<class 'gluon.dal.DAL'>"
p6371
sg3057
S"<Storage {'last_query': 'db.User_Profile.id>0', ...login]': 'c1faaed8-ae42-4634-a83e-ad3e65ef12b3'}>"
p6372
sS'LINK'
p6373
S"<class 'gluon.html.LINK'>"
p6374
sS'BR'
p6375
S"<class 'gluon.html.BR'>"
p6376
sS'local_import'
p6377
S'<function <lambda>>'
p6378
sS'OPTGROUP'
p6379
S"<class 'gluon.html.OPTGROUP'>"
p6380
sS'__package__'
p6381
S'None'
p6382
sS'PRE'
p6383
S"<class 'gluon.html.PRE'>"
p6384
sS'IS_INT_IN_RANGE'
p6385
S"<class 'gluon.validators.IS_INT_IN_RANGE'>"
p6386
sS'left_sidebar_enabled'
p6387
g100
sS'IS_LOWER'
p6388
S"<class 'gluon.validators.IS_LOWER'>"
p6389
sS'IS_STRONG'
p6390
S"<class 'gluon.validators.IS_STRONG'>"
p6391
sS'cache'
p6392
S'<gluon.cache.Cache object>'
p6393
sS'IS_IN_DB'
p6394
S"<class 'gluon.validators.IS_IN_DB'>"
p6395
sS'TAG'
p6396
S'<gluon.html.__TAG__ object>'
p6397
sS'SQLField'
p6398
S"<class 'gluon.dal.Field'>"
p6399
sS'mail'
p6400
S'<gluon.tools.Mail object>'
p6401
sS'BODY'
p6402
S"<class 'gluon.html.BODY'>"
p6403
sS'IS_DATE_IN_RANGE'
p6404
S"<class 'gluon.validators.IS_DATE_IN_RANGE'>"
p6405
sS'TH'
p6406
S"<class 'gluon.html.TH'>"
p6407
sS'URL'
p6408
S'<function URL>'
p6409
sS'__file__'
p6410
S"'/Users/ianaboneva/Downloads/web2py/applications/Book_Shelf/views/default/book_shelf.html'"
p6411
sS'db'
p6412
S"<DAL {'Book_Shelf': <Table {'_db': <DAL {...}>, ...key': <gluon.dal.Field object at 0x103090590>}>}>"
p6413
sS'auth'
p6414
S'<gluon.tools.Auth object>'
p6415
sS'P'
S"<class 'gluon.html.P'>"
p6416
sS'TFOOT'
p6417
S"<class 'gluon.html.TFOOT'>"
p6418
sS'XHTML'
p6419
S"<class 'gluon.html.XHTML'>"
p6420
sS'ON'
p6421
g1678
sS'OL'
p6422
S"<class 'gluon.html.OL'>"
p6423
sS'TEXTAREA'
p6424
S"<class 'gluon.html.TEXTAREA'>"
p6425
sS'MENU'
p6426
S"<class 'gluon.html.MENU'>"
p6427
sS'LOAD'
p6428
S'<function LOAD>'
p6429
sS'CODE'
p6430
S"<class 'gluon.html.CODE'>"
p6431
sS'HTTP'
p6432
S"<class 'gluon.http.HTTP'>"
p6433
sS'HR'
p6434
S"<class 'gluon.html.HR'>"
p6435
sS'IS_DATETIME'
p6436
S"<class 'gluon.validators.IS_DATETIME'>"
p6437
sS'HEAD'
p6438
S"<class 'gluon.html.HEAD'>"
p6439
sS'LABEL'
p6440
S"<class 'gluon.html.LABEL'>"
p6441
sS'CLEANUP'
p6442
S"<class 'gluon.validators.CLEANUP'>"
p6443
sS'plugins'
p6444
S'<gluon.tools.PluginManager object>'
p6445
sS'SELECT'
p6446
S"<class 'gluon.html.SELECT'>"
p6447
sS'use_janrain'
p6448
S'<function use_janrain>'
p6449
sS'CENTER'
p6450
S"<class 'gluon.html.CENTER'>"
p6451
sS'prettydate'
p6452
S'<function prettydate>'
p6453
sS'Crud'
p6454
S"<class 'gluon.tools.Crud'>"
p6455
sS'Auth'
p6456
S"<class 'gluon.tools.Auth'>"
p6457
sS'__builtins__'
p6458
S"{'ArithmeticError': <type 'exceptions.ArithmeticError'>, 'AssertionError': <type 'exceptions.AssertionError'>, 'AttributeError': <type 'exceptions.AttributeError'>, 'BaseException': <type 'exceptions.BaseException'>, 'BufferError': <type 'exceptions.BufferError'>, 'BytesWarning': <type 'exceptions.BytesWarning'>, 'DeprecationWarning': <type 'exceptions.DeprecationWarning'>, 'EOFError': <type 'exceptions.EOFError'>, 'Ellipsis': Ellipsis, 'EnvironmentError': <type 'exceptions.EnvironmentError'>, ...}"
p6459
sS'HTML'
p6460
S"<class 'gluon.html.HTML'>"
p6461
sS'SQLFORM'
p6462
S"<class 'gluon.sqlhtml.SQLFORM'>"
p6463
sS'EM'
p6464
S"<class 'gluon.html.EM'>"
p6465
sS'redirect'
p6466
S'<function redirect>'
p6467
sS'FIELDSET'
p6468
S"<class 'gluon.html.FIELDSET'>"
p6469
sS'IS_EQUAL_TO'
p6470
S"<class 'gluon.validators.IS_EQUAL_TO'>"
p6471
sS'embed64'
p6472
S'<function embed64>'
p6473
sS'IS_LIST_OF'
p6474
S"<class 'gluon.validators.IS_LIST_OF'>"
p6475
sS'__name__'
p6476
S"'__restricted__'"
p6477
sS'EMBED'
p6478
S"<class 'gluon.html.EMBED'>"
p6479
sS'_'
S'<function _>'
p6480
sS'FORM'
p6481
S"<class 'gluon.html.FORM'>"
p6482
sS'shelves'
p6483
S'<gluon.dal.Rows object>'
p6484
sS'H2'
p6485
S"<class 'gluon.html.H2'>"
p6486
sS'H3'
p6487
S"<class 'gluon.html.H3'>"
p6488
sS'BUTTON'
p6489
S"<class 'gluon.html.BUTTON'>"
p6490
sS'H1'
p6491
S"<class 'gluon.html.H1'>"
p6492
sS'H6'
p6493
S"<class 'gluon.html.H6'>"
p6494
sS'H4'
p6495
S"<class 'gluon.html.H4'>"
p6496
sS'H5'
p6497
S"<class 'gluon.html.H5'>"
p6498
sS'UL'
p6499
S"<class 'gluon.html.UL'>"
p6500
sS'IS_UPPER'
p6501
S"<class 'gluon.validators.IS_UPPER'>"
p6502
sS'xmlescape'
p6503
S'<function xmlescape>'
p6504
sS'IS_TIME'
p6505
S"<class 'gluon.validators.IS_TIME'>"
p6506
sS'OPTION'
p6507
S"<class 'gluon.html.OPTION'>"
p6508
sS'TITLE'
p6509
S"<class 'gluon.html.TITLE'>"
p6510
sS'CRYPT'
p6511
S"<class 'gluon.validators.CRYPT'>"
p6512
sS'IS_EMPTY_OR'
p6513
S"<class 'gluon.validators.IS_EMPTY_OR'>"
p6514
sS'MARKMIN'
p6515
S"<class 'gluon.html.MARKMIN'>"
p6516
sS'INPUT'
p6517
S"<class 'gluon.html.INPUT'>"
p6518
sS'COL'
p6519
S"<class 'gluon.html.COL'>"
p6520
sS'service'
p6521
S'<gluon.tools.Service object>'
p6522
sS'SCRIPT'
p6523
S"<class 'gluon.html.SCRIPT'>"
p6524
sS'is_mobile'
p6525
g100
sS'TABLE'
p6526
S"<class 'gluon.html.TABLE'>"
p6527
sS'IS_IPV4'
p6528
S"<class 'gluon.validators.IS_IPV4'>"
p6529
sS'IS_LENGTH'
p6530
S"<class 'gluon.validators.IS_LENGTH'>"
p6531
sS'XML'
p6532
S"<class 'gluon.html.XML'>"
p6533
sS'B'
S"<class 'gluon.html.B'>"
p6534
sS'IMG'
p6535
S"<class 'gluon.html.IMG'>"
p6536
sS'SQLTABLE'
p6537
S"<class 'gluon.sqlhtml.SQLTABLE'>"
p6538
sS'IS_MATCH'
p6539
S"<class 'gluon.validators.IS_MATCH'>"
p6540
sS'IS_ALPHANUMERIC'
p6541
S"<class 'gluon.validators.IS_ALPHANUMERIC'>"
p6542
sS'SPAN'
p6543
S"<class 'gluon.html.SPAN'>"
p6544
sS'IS_SLUG'
p6545
S"<class 'gluon.validators.IS_SLUG'>"
p6546
sS'BEAUTIFY'
p6547
S"<class 'gluon.html.BEAUTIFY'>"
p6548
sS'META'
p6549
S"<class 'gluon.html.META'>"
p6550
sS'IS_DATE'
p6551
S"<class 'gluon.validators.IS_DATE'>"
p6552
sS'IS_EMAIL'
p6553
S"<class 'gluon.validators.IS_EMAIL'>"
p6554
sS'IS_NOT_EMPTY'
p6555
S"<class 'gluon.validators.IS_NOT_EMPTY'>"
p6556
sS'IS_FLOAT_IN_RANGE'
p6557
S"<class 'gluon.validators.IS_FLOAT_IN_RANGE'>"
p6558
sS'TBODY'
p6559
S"<class 'gluon.html.TBODY'>"
p6560
sS'CAT'
p6561
S"<class 'gluon.html.CAT'>"
p6562
sS'Field'
p6563
S"<class 'gluon.dal.Field'>"
p6564
sS'middle_columns'
p6565
S"'sixteen'"
p6566
sS'DIV'
p6567
S"<class 'gluon.html.DIV'>"
p6568
sS'LEGEND'
p6569
S"<class 'gluon.html.LEGEND'>"
p6570
sS'COLGROUP'
p6571
S"<class 'gluon.html.COLGROUP'>"
p6572
sS'DAL'
p6573
S"<class 'gluon.dal.DAL'>"
p6574
sS'TT'
p6575
S"<class 'gluon.html.TT'>"
p6576
sS'TR'
p6577
S"<class 'gluon.html.TR'>"
p6578
sS'LI'
p6579
S"<class 'gluon.html.LI'>"
p6580
sS'right_sidebar_enabled'
p6581
g100
sS'IFRAME'
p6582
S"<class 'gluon.html.IFRAME'>"
p6583
sS'TD'
p6584
S"<class 'gluon.html.TD'>"
p6585
sS'PluginManager'
p6586
S"<class 'gluon.tools.PluginManager'>"
p6587
sS'IS_URL'
p6588
S"<class 'gluon.validators.IS_URL'>"
p6589
sS'A'
S"<class 'gluon.html.A'>"
p6590
sS'STYLE'
p6591
S"<class 'gluon.html.STYLE'>"
p6592
sS'IS_DATETIME_IN_RANGE'
p6593
S"<class 'gluon.validators.IS_DATETIME_IN_RANGE'>"
p6594
sS'IS_IMAGE'
p6595
S"<class 'gluon.validators.IS_IMAGE'>"
p6596
sS'I'
S"<class 'gluon.html.I'>"
p6597
sS'crud'
p6598
S'<gluon.tools.Crud object>'
p6599
sS'IS_NOT_IN_DB'
p6600
S"<class 'gluon.validators.IS_NOT_IN_DB'>"
p6601
sg3426
S"<Storage {'body': <cStringIO.StringO object at 0...0x1065c2c80>, 'view': 'default/book_shelf.html'}>"
p6602
sS'THEAD'
p6603
S"<class 'gluon.html.THEAD'>"
p6604
sS'IS_NULL_OR'
p6605
S"<class 'gluon.validators.IS_EMPTY_OR'>"
p6606
sg56
S"<Storage {'body': <cStringIO.StringO object at 0..._vars': <Storage {}>, 'post_vars': <Storage {}>}>"
p6607
sS'IS_EXPR'
p6608
S"<class 'gluon.validators.IS_EXPR'>"
p6609
sS'T'
S'<gluon.languages.translator object>'
p6610
sS'IS_IN_SET'
p6611
S"<class 'gluon.validators.IS_IN_SET'>"
p6612
sS'IS_UPLOAD_FILENAME'
p6613
S"<class 'gluon.validators.IS_UPLOAD_FILENAME'>"
p6614
sS'IS_DECIMAL_IN_RANGE'
p6615
S"<class 'gluon.validators.IS_DECIMAL_IN_RANGE'>"
p6616
sssS'traceback'
p6617
S'Traceback (most recent call last):\n  File "/Users/ianaboneva/Downloads/web2py/gluon/restricted.py", line 205, in restricted\n    exec ccode in environment\n  File "/Users/ianaboneva/Downloads/web2py/applications/Book_Shelf/views/default/book_shelf.html", line 88, in <module>\nNameError: name \'shevles\' is not defined\n'
p6618
s.