(dp1
S'output'
p2
S"<type 'exceptions.NameError'> name 'form' is not defined"
p3
sS'layer'
p4
S'/Users/ianaboneva/Dropbox/DePaul/CSC 438 - Web Applications/web2py/applications/Book_Shelf_copy/views/default/book_shelf.html'
p5
sS'code'
p6
S'response.write(\'<!DOCTYPE html PUBLIC "-//W3C//DTD XHTML 1.0 Transitional//EN" "http://www.w3.org/TR/xhtml1/DTD/xhtml1-transitional.dtd">\\n<html xmlns="http://www.w3.org/1999/xhtml">\\n<head>\\n<meta http-equiv="Content-Type" content="text/html; charset=windows-1252" />\\n<title>\', escape=False)\nresponse.write(response.title or request.application)\nresponse.write(\'</title>\\n<link rel="stylesheet" type="text/css" href="\', escape=False)\nresponse.write(URL(\'static\', \'plugin_layout_book_store/style.css\'))\nresponse.write(\'" />\\n\', escape=False)\nresponse.write(\'<script type="text/javascript"><!--\\n    // These variables are used by the web2py_ajax_init function in web2py_ajax.js (which is loaded below).\\n    var w2p_ajax_confirm_message = "\', escape=False)\nresponse.write(T(\'Are you sure you want to delete this object?\'))\nresponse.write(\'";\\n    var w2p_ajax_date_format = "\', escape=False)\nresponse.write(T(\'%Y-%m-%d\'))\nresponse.write(\'";\\n    var w2p_ajax_datetime_format = "\', escape=False)\nresponse.write(T(\'%Y-%m-%d %H:%M:%S\'))\nresponse.write(\'";\\n    //--></script>\\n\', escape=False)\nresponse.files.insert(0,URL(\'static\',\'js/jquery.js\'))\nresponse.files.insert(1,URL(\'static\',\'css/calendar.css\'))\nresponse.files.insert(2,URL(\'static\',\'js/calendar.js\'))\nresponse.files.insert(3,URL(\'static\',\'js/web2py.js\'))\nresponse.include_meta()\nresponse.include_files()\nresponse.write(\'\\n\', escape=False)\nresponse.write(\'\\n</head>\\n\\n<body>\\n<div id="wrap">\\n       <div class="header">\\n       \\t\\t<div class="logo"><a href="index.html"><img src="\', escape=False)\nresponse.write(URL(\'static\', \'plugin_layout_book_store/images/logo.gif\'))\nresponse.write(\'" alt="" title="" border="0" /></a></div>            \\n        <div id="menu">\\n            \', escape=False)\nresponse.write(MENU(response.menu))\nresponse.write(\'\\n\\t\\t\\t<div id="navbar">\', escape=False)\nresponse.write(\'auth\' in globals() and auth.navbar(separators=(\' \',\' | \',\'\')))\nresponse.write(\'</div>\\n        </div>     \\n          <!-- end #menu -->  \\n        </div> \\n\\t\\t<!-- end #header -->\\n\\t   <div class="flash">\', escape=False)\nresponse.write(response.flash or \'\')\nresponse.write(\'</div>\\n       <div class="center_content">\\n\\t\\t\\t\', escape=False)\nresponse.write(\'\\n\\n<h1>\', escape=False)\nresponse.write(shelf.Shelf_Name)\nresponse.write(\'</h1>\\n\', escape=False)\nresponse.write(form)\nresponse.write(\'\\n\\n\', escape=False)\nif len(books):\n    response.write(\'\\n    \', escape=False)\n    for book in books:\n        response.write(\'\\n        <p>\', escape=False)\n        response.write(book.id)\n        response.write(\'</p>\\n    \', escape=False)\n        pass\n    response.write(\'\\n\', escape=False)\nelse:\n    response.write(\'\\n    No books\\n\', escape=False)\n    pass\nresponse.write(\'\\n\', escape=False)\nresponse.write(\'\\t\\n       <div class="left_content"> </div>    \\n       <div class="clear"></div>\\n   </div>\\n        <!-- end #center content -->    \\n            \\n        <div class="clear"></div>\\n        </div><!--end of left content-->\\n        \\n        <div class="right_content">\\n        </div><!--end of right content-->\\n       <div class="clear"></div>\\n       </div><!--end of center content-->\\n       \\n              \\n       <div class="footer">\\n       \\t<div class="left_footer"><img src="\', escape=False)\nresponse.write(URL(\'static\', \'plugin_layout_book_store/images/footer_logo.gif\'))\nresponse.write(\'" alt="" title="" /><br /> <a href="http://csscreme.com/freecsstemplates/" title="free templates"><img src="\', escape=False)\nresponse.write(URL(\'static\', \'plugin_layout_book_store/images/csscreme.gif\'))\nresponse.write(\'" alt="free templates" title="free templates" border="0" /></a></div>\\n        <div class="right_footer">\\n        <a href="#">home</a>\\n        <a href="#">about us</a>\\n        <a href="#">services</a>\\n        <a href="#">privacy policy</a>\\n        <a href="#">contact us</a>\\n       \\n        </div>\\n  <!-- end #right footer -->\\n       </div>\\n<!-- end #footer -->\\n</div>\\n<!-- end #wrap -->\\n</body>\\n</html>\', escape=False)'
p7
sS'snapshot'
p8
(dp9
S'exception'
p10
(dp11
S'__hash__'
p12
S"<method-wrapper '__hash__' of exceptions.NameError object>"
p13
sS'__setattr__'
p14
S"<method-wrapper '__setattr__' of exceptions.NameError object>"
p15
sS'__reduce_ex__'
p16
S'<built-in method __reduce_ex__ of exceptions.NameError object>'
p17
sS'__getslice__'
p18
S"<method-wrapper '__getslice__' of exceptions.NameError object>"
p19
sS'__getitem__'
p20
S"<method-wrapper '__getitem__' of exceptions.NameError object>"
p21
sS'__setstate__'
p22
S'<built-in method __setstate__ of exceptions.NameError object>'
p23
sS'args'
p24
S'("name \'form\' is not defined",)'
p25
sS'__reduce__'
p26
S'<built-in method __reduce__ of exceptions.NameError object>'
p27
sS'__str__'
p28
S"<method-wrapper '__str__' of exceptions.NameError object>"
p29
sS'__format__'
p30
S'<built-in method __format__ of exceptions.NameError object>'
p31
sS'__getattribute__'
p32
S"<method-wrapper '__getattribute__' of exceptions.NameError object>"
p33
sS'__class__'
p34
S"<type 'exceptions.NameError'>"
p35
sS'__unicode__'
p36
S'<built-in method __unicode__ of exceptions.NameError object>'
p37
sS'__delattr__'
p38
S"<method-wrapper '__delattr__' of exceptions.NameError object>"
p39
sS'__subclasshook__'
p40
S'<built-in method __subclasshook__ of type object>'
p41
sS'__repr__'
p42
S"<method-wrapper '__repr__' of exceptions.NameError object>"
p43
sS'__dict__'
p44
S'{}'
p45
sS'__sizeof__'
p46
S'<built-in method __sizeof__ of exceptions.NameError object>'
p47
sS'__doc__'
p48
S"'Name not found globally.'"
p49
sS'__init__'
p50
S"<method-wrapper '__init__' of exceptions.NameError object>"
p51
sS'__new__'
p52
S'<built-in method __new__ of type object>'
p53
ssS'evalue'
p54
S"name 'form' is not defined"
p55
sS'request'
p56
ccopy_reg
_reconstructor
p57
(cgluon.html
BEAUTIFY
p58
c__builtin__
object
p59
NtRp60
(dp61
S'attributes'
p62
(dp63
sS'components'
p64
(lp65
g57
(cgluon.html
TABLE
p66
g59
NtRp67
(dp68
g62
(dp69
S'level'
p70
I5
ssS'parent'
p71
Nsg64
(lp72
g57
(cgluon.html
TR
p73
g59
NtRp74
(dp75
g62
(dp76
sg71
g67
sg64
(lp77
g57
(cgluon.html
TD
p78
g59
NtRp79
(dp80
g62
(dp81
S'_style'
p82
S'font-weight:bold;vertical-align:top'
p83
ssg71
g74
sg64
(lp84
S'ajax'
p85
asbag57
(g78
g59
NtRp86
(dp87
g62
(dp88
S'_valign'
p89
S'top'
p90
ssg71
g74
sg64
(lp91
S':'
asbag57
(g78
g59
NtRp92
(dp93
g62
(dp94
sg71
g74
sg64
(lp95
g57
(g58
g59
NtRp96
(dp97
g62
(dp98
g70
I5
ssg71
g92
sg64
(lp99
S'False'
p100
asbasbasbag57
(g73
g59
NtRp101
(dp102
g62
(dp103
sg71
g67
sg64
(lp104
g57
(g78
g59
NtRp105
(dp106
g62
(dp107
g82
g83
ssg71
g101
sg64
(lp108
S'application'
p109
asbag57
(g78
g59
NtRp110
(dp111
g62
(dp112
g89
g90
ssg71
g101
sg64
(lp113
S':'
asbag57
(g78
g59
NtRp114
(dp115
g62
(dp116
sg71
g101
sg64
(lp117
g57
(g58
g59
NtRp118
(dp119
g62
(dp120
g70
I5
ssg71
g114
sg64
(lp121
S'Book_Shelf_copy'
p122
asbasbasbag57
(g73
g59
NtRp123
(dp124
g62
(dp125
sg71
g67
sg64
(lp126
g57
(g78
g59
NtRp127
(dp128
g62
(dp129
g82
g83
ssg71
g123
sg64
(lp130
g24
asbag57
(g78
g59
NtRp131
(dp132
g62
(dp133
g89
g90
ssg71
g123
sg64
(lp134
S':'
asbag57
(g78
g59
NtRp135
(dp136
g62
(dp137
sg71
g123
sg64
(lp138
g57
(g58
g59
NtRp139
(dp140
g62
(dp141
g70
I5
ssg71
g135
sg64
(lp142
g57
(g66
g59
NtRp143
(dp144
g62
(dp145
g70
I4
ssg71
Nsg64
(lp146
g57
(g73
g59
NtRp147
(dp148
g62
(dp149
sg71
g143
sg64
(lp150
g57
(g78
g59
NtRp151
(dp152
g62
(dp153
sg71
g147
sg64
(lp154
g57
(g58
g59
NtRp155
(dp156
g62
(dp157
g70
I4
ssg71
g151
sg64
(lp158
S'1'
asbasbasbasbasbasbasbag57
(g73
g59
NtRp159
(dp160
g62
(dp161
sg71
g67
sg64
(lp162
g57
(g78
g59
NtRp163
(dp164
g62
(dp165
g82
g83
ssg71
g159
sg64
(lp166
S'body'
p167
asbag57
(g78
g59
NtRp168
(dp169
g62
(dp170
g89
g90
ssg71
g159
sg64
(lp171
S':'
asbag57
(g78
g59
NtRp172
(dp173
g62
(dp174
sg71
g159
sg64
(lp175
g57
(g58
g59
NtRp176
(dp177
g62
(dp178
g70
I5
ssg71
g172
sg64
(lp179
S'<cStringIO.StringO object at 0x109a41148>'
p180
asbasbasbag57
(g73
g59
NtRp181
(dp182
g62
(dp183
sg71
g67
sg64
(lp184
g57
(g78
g59
NtRp185
(dp186
g62
(dp187
g82
g83
ssg71
g181
sg64
(lp188
S'client'
p189
asbag57
(g78
g59
NtRp190
(dp191
g62
(dp192
g89
g90
ssg71
g181
sg64
(lp193
S':'
asbag57
(g78
g59
NtRp194
(dp195
g62
(dp196
sg71
g181
sg64
(lp197
g57
(g58
g59
NtRp198
(dp199
g62
(dp200
g70
I5
ssg71
g194
sg64
(lp201
S'127.0.0.1'
p202
asbasbasbag57
(g73
g59
NtRp203
(dp204
g62
(dp205
sg71
g67
sg64
(lp206
g57
(g78
g59
NtRp207
(dp208
g62
(dp209
g82
g83
ssg71
g203
sg64
(lp210
S'controller'
p211
asbag57
(g78
g59
NtRp212
(dp213
g62
(dp214
g89
g90
ssg71
g203
sg64
(lp215
S':'
asbag57
(g78
g59
NtRp216
(dp217
g62
(dp218
sg71
g203
sg64
(lp219
g57
(g58
g59
NtRp220
(dp221
g62
(dp222
g70
I5
ssg71
g216
sg64
(lp223
S'default'
p224
asbasbasbag57
(g73
g59
NtRp225
(dp226
g62
(dp227
sg71
g67
sg64
(lp228
g57
(g78
g59
NtRp229
(dp230
g62
(dp231
g82
g83
ssg71
g225
sg64
(lp232
S'cookies'
p233
asbag57
(g78
g59
NtRp234
(dp235
g62
(dp236
g89
g90
ssg71
g225
sg64
(lp237
S':'
asbag57
(g78
g59
NtRp238
(dp239
g62
(dp240
sg71
g225
sg64
(lp241
g57
(g58
g59
NtRp242
(dp243
g62
(dp244
g70
I5
ssg71
g238
sg64
(lp245
g57
(g66
g59
NtRp246
(dp247
g62
(dp248
g70
I4
ssg71
Nsg64
(lp249
g57
(g73
g59
NtRp250
(dp251
g62
(dp252
sg71
g246
sg64
(lp253
g57
(g78
g59
NtRp254
(dp255
g62
(dp256
g82
g83
ssg71
g250
sg64
(lp257
S'session_id_admin'
p258
asbag57
(g78
g59
NtRp259
(dp260
g62
(dp261
g89
g90
ssg71
g250
sg64
(lp262
S':'
asbag57
(g78
g59
NtRp263
(dp264
g62
(dp265
sg71
g250
sg64
(lp266
g57
(g58
g59
NtRp267
(dp268
g62
(dp269
g70
I4
ssg71
g263
sg64
(lp270
g57
(g66
g59
NtRp271
(dp272
g62
(dp273
g70
I3
ssg71
Nsg64
(lp274
g57
(g73
g59
NtRp275
(dp276
g62
(dp277
sg71
g271
sg64
(lp278
g57
(g78
g59
NtRp279
(dp280
g62
(dp281
g82
g83
ssg71
g275
sg64
(lp282
S'comment'
p283
asbag57
(g78
g59
NtRp284
(dp285
g62
(dp286
g89
g90
ssg71
g275
sg64
(lp287
S':'
asbag57
(g78
g59
NtRp288
(dp289
g62
(dp290
sg71
g275
sg64
(lp291
g57
(g58
g59
NtRp292
(dp293
g62
(dp294
g70
I3
ssg71
g288
sg64
(lp295
S''
asbasbasbag57
(g73
g59
NtRp296
(dp297
g62
(dp298
sg71
g271
sg64
(lp299
g57
(g78
g59
NtRp300
(dp301
g62
(dp302
g82
g83
ssg71
g296
sg64
(lp303
S'domain'
p304
asbag57
(g78
g59
NtRp305
(dp306
g62
(dp307
g89
g90
ssg71
g296
sg64
(lp308
S':'
asbag57
(g78
g59
NtRp309
(dp310
g62
(dp311
sg71
g296
sg64
(lp312
g57
(g58
g59
NtRp313
(dp314
g62
(dp315
g70
I3
ssg71
g309
sg64
(lp316
S''
asbasbasbag57
(g73
g59
NtRp317
(dp318
g62
(dp319
sg71
g271
sg64
(lp320
g57
(g78
g59
NtRp321
(dp322
g62
(dp323
g82
g83
ssg71
g317
sg64
(lp324
S'expires'
p325
asbag57
(g78
g59
NtRp326
(dp327
g62
(dp328
g89
g90
ssg71
g317
sg64
(lp329
S':'
asbag57
(g78
g59
NtRp330
(dp331
g62
(dp332
sg71
g317
sg64
(lp333
g57
(g58
g59
NtRp334
(dp335
g62
(dp336
g70
I3
ssg71
g330
sg64
(lp337
S''
asbasbasbag57
(g73
g59
NtRp338
(dp339
g62
(dp340
sg71
g271
sg64
(lp341
g57
(g78
g59
NtRp342
(dp343
g62
(dp344
g82
g83
ssg71
g338
sg64
(lp345
S'httponly'
p346
asbag57
(g78
g59
NtRp347
(dp348
g62
(dp349
g89
g90
ssg71
g338
sg64
(lp350
S':'
asbag57
(g78
g59
NtRp351
(dp352
g62
(dp353
sg71
g338
sg64
(lp354
g57
(g58
g59
NtRp355
(dp356
g62
(dp357
g70
I3
ssg71
g351
sg64
(lp358
S''
asbasbasbag57
(g73
g59
NtRp359
(dp360
g62
(dp361
sg71
g271
sg64
(lp362
g57
(g78
g59
NtRp363
(dp364
g62
(dp365
g82
g83
ssg71
g359
sg64
(lp366
S'max-age'
p367
asbag57
(g78
g59
NtRp368
(dp369
g62
(dp370
g89
g90
ssg71
g359
sg64
(lp371
S':'
asbag57
(g78
g59
NtRp372
(dp373
g62
(dp374
sg71
g359
sg64
(lp375
g57
(g58
g59
NtRp376
(dp377
g62
(dp378
g70
I3
ssg71
g372
sg64
(lp379
S''
asbasbasbag57
(g73
g59
NtRp380
(dp381
g62
(dp382
sg71
g271
sg64
(lp383
g57
(g78
g59
NtRp384
(dp385
g62
(dp386
g82
g83
ssg71
g380
sg64
(lp387
S'path'
p388
asbag57
(g78
g59
NtRp389
(dp390
g62
(dp391
g89
g90
ssg71
g380
sg64
(lp392
S':'
asbag57
(g78
g59
NtRp393
(dp394
g62
(dp395
sg71
g380
sg64
(lp396
g57
(g58
g59
NtRp397
(dp398
g62
(dp399
g70
I3
ssg71
g393
sg64
(lp400
S''
asbasbasbag57
(g73
g59
NtRp401
(dp402
g62
(dp403
sg71
g271
sg64
(lp404
g57
(g78
g59
NtRp405
(dp406
g62
(dp407
g82
g83
ssg71
g401
sg64
(lp408
S'secure'
p409
asbag57
(g78
g59
NtRp410
(dp411
g62
(dp412
g89
g90
ssg71
g401
sg64
(lp413
S':'
asbag57
(g78
g59
NtRp414
(dp415
g62
(dp416
sg71
g401
sg64
(lp417
g57
(g58
g59
NtRp418
(dp419
g62
(dp420
g70
I3
ssg71
g414
sg64
(lp421
S''
asbasbasbag57
(g73
g59
NtRp422
(dp423
g62
(dp424
sg71
g271
sg64
(lp425
g57
(g78
g59
NtRp426
(dp427
g62
(dp428
g82
g83
ssg71
g422
sg64
(lp429
S'version'
p430
asbag57
(g78
g59
NtRp431
(dp432
g62
(dp433
g89
g90
ssg71
g422
sg64
(lp434
S':'
asbag57
(g78
g59
NtRp435
(dp436
g62
(dp437
sg71
g422
sg64
(lp438
g57
(g58
g59
NtRp439
(dp440
g62
(dp441
g70
I3
ssg71
g435
sg64
(lp442
S''
asbasbasbasbasbasbasbag57
(g73
g59
NtRp443
(dp444
g62
(dp445
sg71
g246
sg64
(lp446
g57
(g78
g59
NtRp447
(dp448
g62
(dp449
g82
g83
ssg71
g443
sg64
(lp450
S'session_id_book_shelf_copy'
p451
asbag57
(g78
g59
NtRp452
(dp453
g62
(dp454
g89
g90
ssg71
g443
sg64
(lp455
S':'
asbag57
(g78
g59
NtRp456
(dp457
g62
(dp458
sg71
g443
sg64
(lp459
g57
(g58
g59
NtRp460
(dp461
g62
(dp462
g70
I4
ssg71
g456
sg64
(lp463
g57
(g66
g59
NtRp464
(dp465
g62
(dp466
g70
I3
ssg71
Nsg64
(lp467
g57
(g73
g59
NtRp468
(dp469
g62
(dp470
sg71
g464
sg64
(lp471
g57
(g78
g59
NtRp472
(dp473
g62
(dp474
g82
g83
ssg71
g468
sg64
(lp475
g283
asbag57
(g78
g59
NtRp476
(dp477
g62
(dp478
g89
g90
ssg71
g468
sg64
(lp479
S':'
asbag57
(g78
g59
NtRp480
(dp481
g62
(dp482
sg71
g468
sg64
(lp483
g57
(g58
g59
NtRp484
(dp485
g62
(dp486
g70
I3
ssg71
g480
sg64
(lp487
S''
asbasbasbag57
(g73
g59
NtRp488
(dp489
g62
(dp490
sg71
g464
sg64
(lp491
g57
(g78
g59
NtRp492
(dp493
g62
(dp494
g82
g83
ssg71
g488
sg64
(lp495
g304
asbag57
(g78
g59
NtRp496
(dp497
g62
(dp498
g89
g90
ssg71
g488
sg64
(lp499
S':'
asbag57
(g78
g59
NtRp500
(dp501
g62
(dp502
sg71
g488
sg64
(lp503
g57
(g58
g59
NtRp504
(dp505
g62
(dp506
g70
I3
ssg71
g500
sg64
(lp507
S''
asbasbasbag57
(g73
g59
NtRp508
(dp509
g62
(dp510
sg71
g464
sg64
(lp511
g57
(g78
g59
NtRp512
(dp513
g62
(dp514
g82
g83
ssg71
g508
sg64
(lp515
g325
asbag57
(g78
g59
NtRp516
(dp517
g62
(dp518
g89
g90
ssg71
g508
sg64
(lp519
S':'
asbag57
(g78
g59
NtRp520
(dp521
g62
(dp522
sg71
g508
sg64
(lp523
g57
(g58
g59
NtRp524
(dp525
g62
(dp526
g70
I3
ssg71
g520
sg64
(lp527
S''
asbasbasbag57
(g73
g59
NtRp528
(dp529
g62
(dp530
sg71
g464
sg64
(lp531
g57
(g78
g59
NtRp532
(dp533
g62
(dp534
g82
g83
ssg71
g528
sg64
(lp535
g346
asbag57
(g78
g59
NtRp536
(dp537
g62
(dp538
g89
g90
ssg71
g528
sg64
(lp539
S':'
asbag57
(g78
g59
NtRp540
(dp541
g62
(dp542
sg71
g528
sg64
(lp543
g57
(g58
g59
NtRp544
(dp545
g62
(dp546
g70
I3
ssg71
g540
sg64
(lp547
S''
asbasbasbag57
(g73
g59
NtRp548
(dp549
g62
(dp550
sg71
g464
sg64
(lp551
g57
(g78
g59
NtRp552
(dp553
g62
(dp554
g82
g83
ssg71
g548
sg64
(lp555
g367
asbag57
(g78
g59
NtRp556
(dp557
g62
(dp558
g89
g90
ssg71
g548
sg64
(lp559
S':'
asbag57
(g78
g59
NtRp560
(dp561
g62
(dp562
sg71
g548
sg64
(lp563
g57
(g58
g59
NtRp564
(dp565
g62
(dp566
g70
I3
ssg71
g560
sg64
(lp567
S''
asbasbasbag57
(g73
g59
NtRp568
(dp569
g62
(dp570
sg71
g464
sg64
(lp571
g57
(g78
g59
NtRp572
(dp573
g62
(dp574
g82
g83
ssg71
g568
sg64
(lp575
g388
asbag57
(g78
g59
NtRp576
(dp577
g62
(dp578
g89
g90
ssg71
g568
sg64
(lp579
S':'
asbag57
(g78
g59
NtRp580
(dp581
g62
(dp582
sg71
g568
sg64
(lp583
g57
(g58
g59
NtRp584
(dp585
g62
(dp586
g70
I3
ssg71
g580
sg64
(lp587
S''
asbasbasbag57
(g73
g59
NtRp588
(dp589
g62
(dp590
sg71
g464
sg64
(lp591
g57
(g78
g59
NtRp592
(dp593
g62
(dp594
g82
g83
ssg71
g588
sg64
(lp595
g409
asbag57
(g78
g59
NtRp596
(dp597
g62
(dp598
g89
g90
ssg71
g588
sg64
(lp599
S':'
asbag57
(g78
g59
NtRp600
(dp601
g62
(dp602
sg71
g588
sg64
(lp603
g57
(g58
g59
NtRp604
(dp605
g62
(dp606
g70
I3
ssg71
g600
sg64
(lp607
S''
asbasbasbag57
(g73
g59
NtRp608
(dp609
g62
(dp610
sg71
g464
sg64
(lp611
g57
(g78
g59
NtRp612
(dp613
g62
(dp614
g82
g83
ssg71
g608
sg64
(lp615
g430
asbag57
(g78
g59
NtRp616
(dp617
g62
(dp618
g89
g90
ssg71
g608
sg64
(lp619
S':'
asbag57
(g78
g59
NtRp620
(dp621
g62
(dp622
sg71
g608
sg64
(lp623
g57
(g58
g59
NtRp624
(dp625
g62
(dp626
g70
I3
ssg71
g620
sg64
(lp627
S''
asbasbasbasbasbasbasbag57
(g73
g59
NtRp628
(dp629
g62
(dp630
sg71
g246
sg64
(lp631
g57
(g78
g59
NtRp632
(dp633
g62
(dp634
g82
g83
ssg71
g628
sg64
(lp635
S'session_id_todolist2'
p636
asbag57
(g78
g59
NtRp637
(dp638
g62
(dp639
g89
g90
ssg71
g628
sg64
(lp640
S':'
asbag57
(g78
g59
NtRp641
(dp642
g62
(dp643
sg71
g628
sg64
(lp644
g57
(g58
g59
NtRp645
(dp646
g62
(dp647
g70
I4
ssg71
g641
sg64
(lp648
g57
(g66
g59
NtRp649
(dp650
g62
(dp651
g70
I3
ssg71
Nsg64
(lp652
g57
(g73
g59
NtRp653
(dp654
g62
(dp655
sg71
g649
sg64
(lp656
g57
(g78
g59
NtRp657
(dp658
g62
(dp659
g82
g83
ssg71
g653
sg64
(lp660
g283
asbag57
(g78
g59
NtRp661
(dp662
g62
(dp663
g89
g90
ssg71
g653
sg64
(lp664
S':'
asbag57
(g78
g59
NtRp665
(dp666
g62
(dp667
sg71
g653
sg64
(lp668
g57
(g58
g59
NtRp669
(dp670
g62
(dp671
g70
I3
ssg71
g665
sg64
(lp672
S''
asbasbasbag57
(g73
g59
NtRp673
(dp674
g62
(dp675
sg71
g649
sg64
(lp676
g57
(g78
g59
NtRp677
(dp678
g62
(dp679
g82
g83
ssg71
g673
sg64
(lp680
g304
asbag57
(g78
g59
NtRp681
(dp682
g62
(dp683
g89
g90
ssg71
g673
sg64
(lp684
S':'
asbag57
(g78
g59
NtRp685
(dp686
g62
(dp687
sg71
g673
sg64
(lp688
g57
(g58
g59
NtRp689
(dp690
g62
(dp691
g70
I3
ssg71
g685
sg64
(lp692
S''
asbasbasbag57
(g73
g59
NtRp693
(dp694
g62
(dp695
sg71
g649
sg64
(lp696
g57
(g78
g59
NtRp697
(dp698
g62
(dp699
g82
g83
ssg71
g693
sg64
(lp700
g325
asbag57
(g78
g59
NtRp701
(dp702
g62
(dp703
g89
g90
ssg71
g693
sg64
(lp704
S':'
asbag57
(g78
g59
NtRp705
(dp706
g62
(dp707
sg71
g693
sg64
(lp708
g57
(g58
g59
NtRp709
(dp710
g62
(dp711
g70
I3
ssg71
g705
sg64
(lp712
S''
asbasbasbag57
(g73
g59
NtRp713
(dp714
g62
(dp715
sg71
g649
sg64
(lp716
g57
(g78
g59
NtRp717
(dp718
g62
(dp719
g82
g83
ssg71
g713
sg64
(lp720
g346
asbag57
(g78
g59
NtRp721
(dp722
g62
(dp723
g89
g90
ssg71
g713
sg64
(lp724
S':'
asbag57
(g78
g59
NtRp725
(dp726
g62
(dp727
sg71
g713
sg64
(lp728
g57
(g58
g59
NtRp729
(dp730
g62
(dp731
g70
I3
ssg71
g725
sg64
(lp732
S''
asbasbasbag57
(g73
g59
NtRp733
(dp734
g62
(dp735
sg71
g649
sg64
(lp736
g57
(g78
g59
NtRp737
(dp738
g62
(dp739
g82
g83
ssg71
g733
sg64
(lp740
g367
asbag57
(g78
g59
NtRp741
(dp742
g62
(dp743
g89
g90
ssg71
g733
sg64
(lp744
S':'
asbag57
(g78
g59
NtRp745
(dp746
g62
(dp747
sg71
g733
sg64
(lp748
g57
(g58
g59
NtRp749
(dp750
g62
(dp751
g70
I3
ssg71
g745
sg64
(lp752
S''
asbasbasbag57
(g73
g59
NtRp753
(dp754
g62
(dp755
sg71
g649
sg64
(lp756
g57
(g78
g59
NtRp757
(dp758
g62
(dp759
g82
g83
ssg71
g753
sg64
(lp760
g388
asbag57
(g78
g59
NtRp761
(dp762
g62
(dp763
g89
g90
ssg71
g753
sg64
(lp764
S':'
asbag57
(g78
g59
NtRp765
(dp766
g62
(dp767
sg71
g753
sg64
(lp768
g57
(g58
g59
NtRp769
(dp770
g62
(dp771
g70
I3
ssg71
g765
sg64
(lp772
S''
asbasbasbag57
(g73
g59
NtRp773
(dp774
g62
(dp775
sg71
g649
sg64
(lp776
g57
(g78
g59
NtRp777
(dp778
g62
(dp779
g82
g83
ssg71
g773
sg64
(lp780
g409
asbag57
(g78
g59
NtRp781
(dp782
g62
(dp783
g89
g90
ssg71
g773
sg64
(lp784
S':'
asbag57
(g78
g59
NtRp785
(dp786
g62
(dp787
sg71
g773
sg64
(lp788
g57
(g58
g59
NtRp789
(dp790
g62
(dp791
g70
I3
ssg71
g785
sg64
(lp792
S''
asbasbasbag57
(g73
g59
NtRp793
(dp794
g62
(dp795
sg71
g649
sg64
(lp796
g57
(g78
g59
NtRp797
(dp798
g62
(dp799
g82
g83
ssg71
g793
sg64
(lp800
g430
asbag57
(g78
g59
NtRp801
(dp802
g62
(dp803
g89
g90
ssg71
g793
sg64
(lp804
S':'
asbag57
(g78
g59
NtRp805
(dp806
g62
(dp807
sg71
g793
sg64
(lp808
g57
(g58
g59
NtRp809
(dp810
g62
(dp811
g70
I3
ssg71
g805
sg64
(lp812
S''
asbasbasbasbasbasbasbag57
(g73
g59
NtRp813
(dp814
g62
(dp815
sg71
g246
sg64
(lp816
g57
(g78
g59
NtRp817
(dp818
g62
(dp819
g82
g83
ssg71
g813
sg64
(lp820
S'session_id_welcome'
p821
asbag57
(g78
g59
NtRp822
(dp823
g62
(dp824
g89
g90
ssg71
g813
sg64
(lp825
S':'
asbag57
(g78
g59
NtRp826
(dp827
g62
(dp828
sg71
g813
sg64
(lp829
g57
(g58
g59
NtRp830
(dp831
g62
(dp832
g70
I4
ssg71
g826
sg64
(lp833
g57
(g66
g59
NtRp834
(dp835
g62
(dp836
g70
I3
ssg71
Nsg64
(lp837
g57
(g73
g59
NtRp838
(dp839
g62
(dp840
sg71
g834
sg64
(lp841
g57
(g78
g59
NtRp842
(dp843
g62
(dp844
g82
g83
ssg71
g838
sg64
(lp845
g283
asbag57
(g78
g59
NtRp846
(dp847
g62
(dp848
g89
g90
ssg71
g838
sg64
(lp849
S':'
asbag57
(g78
g59
NtRp850
(dp851
g62
(dp852
sg71
g838
sg64
(lp853
g57
(g58
g59
NtRp854
(dp855
g62
(dp856
g70
I3
ssg71
g850
sg64
(lp857
S''
asbasbasbag57
(g73
g59
NtRp858
(dp859
g62
(dp860
sg71
g834
sg64
(lp861
g57
(g78
g59
NtRp862
(dp863
g62
(dp864
g82
g83
ssg71
g858
sg64
(lp865
g304
asbag57
(g78
g59
NtRp866
(dp867
g62
(dp868
g89
g90
ssg71
g858
sg64
(lp869
S':'
asbag57
(g78
g59
NtRp870
(dp871
g62
(dp872
sg71
g858
sg64
(lp873
g57
(g58
g59
NtRp874
(dp875
g62
(dp876
g70
I3
ssg71
g870
sg64
(lp877
S''
asbasbasbag57
(g73
g59
NtRp878
(dp879
g62
(dp880
sg71
g834
sg64
(lp881
g57
(g78
g59
NtRp882
(dp883
g62
(dp884
g82
g83
ssg71
g878
sg64
(lp885
g325
asbag57
(g78
g59
NtRp886
(dp887
g62
(dp888
g89
g90
ssg71
g878
sg64
(lp889
S':'
asbag57
(g78
g59
NtRp890
(dp891
g62
(dp892
sg71
g878
sg64
(lp893
g57
(g58
g59
NtRp894
(dp895
g62
(dp896
g70
I3
ssg71
g890
sg64
(lp897
S''
asbasbasbag57
(g73
g59
NtRp898
(dp899
g62
(dp900
sg71
g834
sg64
(lp901
g57
(g78
g59
NtRp902
(dp903
g62
(dp904
g82
g83
ssg71
g898
sg64
(lp905
g346
asbag57
(g78
g59
NtRp906
(dp907
g62
(dp908
g89
g90
ssg71
g898
sg64
(lp909
S':'
asbag57
(g78
g59
NtRp910
(dp911
g62
(dp912
sg71
g898
sg64
(lp913
g57
(g58
g59
NtRp914
(dp915
g62
(dp916
g70
I3
ssg71
g910
sg64
(lp917
S''
asbasbasbag57
(g73
g59
NtRp918
(dp919
g62
(dp920
sg71
g834
sg64
(lp921
g57
(g78
g59
NtRp922
(dp923
g62
(dp924
g82
g83
ssg71
g918
sg64
(lp925
g367
asbag57
(g78
g59
NtRp926
(dp927
g62
(dp928
g89
g90
ssg71
g918
sg64
(lp929
S':'
asbag57
(g78
g59
NtRp930
(dp931
g62
(dp932
sg71
g918
sg64
(lp933
g57
(g58
g59
NtRp934
(dp935
g62
(dp936
g70
I3
ssg71
g930
sg64
(lp937
S''
asbasbasbag57
(g73
g59
NtRp938
(dp939
g62
(dp940
sg71
g834
sg64
(lp941
g57
(g78
g59
NtRp942
(dp943
g62
(dp944
g82
g83
ssg71
g938
sg64
(lp945
g388
asbag57
(g78
g59
NtRp946
(dp947
g62
(dp948
g89
g90
ssg71
g938
sg64
(lp949
S':'
asbag57
(g78
g59
NtRp950
(dp951
g62
(dp952
sg71
g938
sg64
(lp953
g57
(g58
g59
NtRp954
(dp955
g62
(dp956
g70
I3
ssg71
g950
sg64
(lp957
S''
asbasbasbag57
(g73
g59
NtRp958
(dp959
g62
(dp960
sg71
g834
sg64
(lp961
g57
(g78
g59
NtRp962
(dp963
g62
(dp964
g82
g83
ssg71
g958
sg64
(lp965
g409
asbag57
(g78
g59
NtRp966
(dp967
g62
(dp968
g89
g90
ssg71
g958
sg64
(lp969
S':'
asbag57
(g78
g59
NtRp970
(dp971
g62
(dp972
sg71
g958
sg64
(lp973
g57
(g58
g59
NtRp974
(dp975
g62
(dp976
g70
I3
ssg71
g970
sg64
(lp977
S''
asbasbasbag57
(g73
g59
NtRp978
(dp979
g62
(dp980
sg71
g834
sg64
(lp981
g57
(g78
g59
NtRp982
(dp983
g62
(dp984
g82
g83
ssg71
g978
sg64
(lp985
g430
asbag57
(g78
g59
NtRp986
(dp987
g62
(dp988
g89
g90
ssg71
g978
sg64
(lp989
S':'
asbag57
(g78
g59
NtRp990
(dp991
g62
(dp992
sg71
g978
sg64
(lp993
g57
(g58
g59
NtRp994
(dp995
g62
(dp996
g70
I3
ssg71
g990
sg64
(lp997
S''
asbasbasbasbasbasbasbasbasbasbasbag57
(g73
g59
NtRp998
(dp999
g62
(dp1000
sg71
g67
sg64
(lp1001
g57
(g78
g59
NtRp1002
(dp1003
g62
(dp1004
g82
g83
ssg71
g998
sg64
(lp1005
S'env'
p1006
asbag57
(g78
g59
NtRp1007
(dp1008
g62
(dp1009
g89
g90
ssg71
g998
sg64
(lp1010
S':'
asbag57
(g78
g59
NtRp1011
(dp1012
g62
(dp1013
sg71
g998
sg64
(lp1014
g57
(g58
g59
NtRp1015
(dp1016
g62
(dp1017
g70
I5
ssg71
g1011
sg64
(lp1018
g57
(g66
g59
NtRp1019
(dp1020
g62
(dp1021
g70
I4
ssg71
Nsg64
(lp1022
g57
(g73
g59
NtRp1023
(dp1024
g62
(dp1025
sg71
g1019
sg64
(lp1026
g57
(g78
g59
NtRp1027
(dp1028
g62
(dp1029
g82
g83
ssg71
g1023
sg64
(lp1030
S'app_folders'
p1031
asbag57
(g78
g59
NtRp1032
(dp1033
g62
(dp1034
g89
g90
ssg71
g1023
sg64
(lp1035
S':'
asbag57
(g78
g59
NtRp1036
(dp1037
g62
(dp1038
sg71
g1023
sg64
(lp1039
g57
(g58
g59
NtRp1040
(dp1041
g62
(dp1042
g70
I4
ssg71
g1036
sg64
(lp1043
S"set(['/Users/ianaboneva/Dropbox/DePaul/CSC 438 - Web Applications/web2py/applications/ToDoList2/', '/Users/ianaboneva/Dropbox/DePaul/CSC 438 - Web Applications/web2py/applications/welcome/', '/Users/ianaboneva/Dropbox/DePaul/CSC 438 - Web Applications/web2py/applications/admin/', '/Users/ianaboneva/Dropbox/DePaul/CSC 438 - Web Applications/web2py/applications/Book_Shelf_copy/'])"
p1044
asbasbasbag57
(g73
g59
NtRp1045
(dp1046
g62
(dp1047
sg71
g1019
sg64
(lp1048
g57
(g78
g59
NtRp1049
(dp1050
g62
(dp1051
g82
g83
ssg71
g1045
sg64
(lp1052
S'applications_parent'
p1053
asbag57
(g78
g59
NtRp1054
(dp1055
g62
(dp1056
g89
g90
ssg71
g1045
sg64
(lp1057
S':'
asbag57
(g78
g59
NtRp1058
(dp1059
g62
(dp1060
sg71
g1045
sg64
(lp1061
g57
(g58
g59
NtRp1062
(dp1063
g62
(dp1064
g70
I4
ssg71
g1058
sg64
(lp1065
S'/Users/ianaboneva/Dropbox/DePaul/CSC 438 - Web Applications/web2py'
p1066
asbasbasbag57
(g73
g59
NtRp1067
(dp1068
g62
(dp1069
sg71
g1019
sg64
(lp1070
g57
(g78
g59
NtRp1071
(dp1072
g62
(dp1073
g82
g83
ssg71
g1067
sg64
(lp1074
S'cmd_args'
p1075
asbag57
(g78
g59
NtRp1076
(dp1077
g62
(dp1078
g89
g90
ssg71
g1067
sg64
(lp1079
S':'
asbag57
(g78
g59
NtRp1080
(dp1081
g62
(dp1082
sg71
g1067
sg64
(lp1083
g57
(g58
g59
NtRp1084
(dp1085
g62
(dp1086
g70
I4
ssg71
g1080
sg64
(lp1087
g57
(g66
g59
NtRp1088
(dp1089
g62
(dp1090
g70
I3
ssg71
Nsg64
(lp1091
sbasbasbasbag57
(g73
g59
NtRp1092
(dp1093
g62
(dp1094
sg71
g1019
sg64
(lp1095
g57
(g78
g59
NtRp1096
(dp1097
g62
(dp1098
g82
g83
ssg71
g1092
sg64
(lp1099
S'cmd_options'
p1100
asbag57
(g78
g59
NtRp1101
(dp1102
g62
(dp1103
g89
g90
ssg71
g1092
sg64
(lp1104
S':'
asbag57
(g78
g59
NtRp1105
(dp1106
g62
(dp1107
sg71
g1092
sg64
(lp1108
g57
(g58
g59
NtRp1109
(dp1110
g62
(dp1111
g70
I4
ssg71
g1105
sg64
(lp1112
S"<Values at 0x104fc1b00: {'verbose': False, 'ip': '127.0.0.1', 'shutdown_timeout': 5, 'taskbar': False, 'nocron': False, 'pid_filename': 'httpserver.pid', 'maxthreads': None, 'softcron': False, 'server_name': 'Iana-Bonevas-MacBook-Pro.local', 'bpython': False, 'nogui': False, 'port': 8000, 'extcron': False, 'debuglevel': 30, 'test': None, 'folder': '/Users/ianaboneva/Dropbox/DePaul/CSC 438 - Web Applications/web2py', 'config': '', 'import_models': False, 'winservice': '', 'shell': None, 'run': '', 'log_filename': 'httpserver.log', 'args': [''], 'socket_timeout': 5, 'ssl_ca_certificate': None, 'scheduler': None, 'profiler_filename': None, 'ssl_private_key': '', 'password': '<ask>', 'request_queue_size': 5, 'ssl_certificate': '', 'cronjob': False, 'numthreads': None, 'quiet': False, 'interfaces': None, 'minthreads': None, 'timeout': 10, 'plain': False, 'nobanner': False}>"
p1113
asbasbasbag57
(g73
g59
NtRp1114
(dp1115
g62
(dp1116
sg71
g1019
sg64
(lp1117
g57
(g78
g59
NtRp1118
(dp1119
g62
(dp1120
g82
g83
ssg71
g1114
sg64
(lp1121
S'db_sessions'
p1122
asbag57
(g78
g59
NtRp1123
(dp1124
g62
(dp1125
g89
g90
ssg71
g1114
sg64
(lp1126
S':'
asbag57
(g78
g59
NtRp1127
(dp1128
g62
(dp1129
sg71
g1114
sg64
(lp1130
g57
(g58
g59
NtRp1131
(dp1132
g62
(dp1133
g70
I4
ssg71
g1127
sg64
(lp1134
S'set([])'
p1135
asbasbasbag57
(g73
g59
NtRp1136
(dp1137
g62
(dp1138
sg71
g1019
sg64
(lp1139
g57
(g78
g59
NtRp1140
(dp1141
g62
(dp1142
g82
g83
ssg71
g1136
sg64
(lp1143
S'debugging'
p1144
asbag57
(g78
g59
NtRp1145
(dp1146
g62
(dp1147
g89
g90
ssg71
g1136
sg64
(lp1148
S':'
asbag57
(g78
g59
NtRp1149
(dp1150
g62
(dp1151
sg71
g1136
sg64
(lp1152
g57
(g58
g59
NtRp1153
(dp1154
g62
(dp1155
g70
I4
ssg71
g1149
sg64
(lp1156
g100
asbasbasbag57
(g73
g59
NtRp1157
(dp1158
g62
(dp1159
sg71
g1019
sg64
(lp1160
g57
(g78
g59
NtRp1161
(dp1162
g62
(dp1163
g82
g83
ssg71
g1157
sg64
(lp1164
S'gluon_parent'
p1165
asbag57
(g78
g59
NtRp1166
(dp1167
g62
(dp1168
g89
g90
ssg71
g1157
sg64
(lp1169
S':'
asbag57
(g78
g59
NtRp1170
(dp1171
g62
(dp1172
sg71
g1157
sg64
(lp1173
g57
(g58
g59
NtRp1174
(dp1175
g62
(dp1176
g70
I4
ssg71
g1170
sg64
(lp1177
S'/Users/ianaboneva/Dropbox/DePaul/CSC 438 - Web Applications/web2py'
p1178
asbasbasbag57
(g73
g59
NtRp1179
(dp1180
g62
(dp1181
sg71
g1019
sg64
(lp1182
g57
(g78
g59
NtRp1183
(dp1184
g62
(dp1185
g82
g83
ssg71
g1179
sg64
(lp1186
S'http_accept'
p1187
asbag57
(g78
g59
NtRp1188
(dp1189
g62
(dp1190
g89
g90
ssg71
g1179
sg64
(lp1191
S':'
asbag57
(g78
g59
NtRp1192
(dp1193
g62
(dp1194
sg71
g1179
sg64
(lp1195
g57
(g58
g59
NtRp1196
(dp1197
g62
(dp1198
g70
I4
ssg71
g1192
sg64
(lp1199
S'text/html,application/xhtml+xml,application/xml;q=0.9,*/*;q=0.8'
p1200
asbasbasbag57
(g73
g59
NtRp1201
(dp1202
g62
(dp1203
sg71
g1019
sg64
(lp1204
g57
(g78
g59
NtRp1205
(dp1206
g62
(dp1207
g82
g83
ssg71
g1201
sg64
(lp1208
S'http_accept_charset'
p1209
asbag57
(g78
g59
NtRp1210
(dp1211
g62
(dp1212
g89
g90
ssg71
g1201
sg64
(lp1213
S':'
asbag57
(g78
g59
NtRp1214
(dp1215
g62
(dp1216
sg71
g1201
sg64
(lp1217
g57
(g58
g59
NtRp1218
(dp1219
g62
(dp1220
g70
I4
ssg71
g1214
sg64
(lp1221
S'ISO-8859-1,utf-8;q=0.7,*;q=0.3'
p1222
asbasbasbag57
(g73
g59
NtRp1223
(dp1224
g62
(dp1225
sg71
g1019
sg64
(lp1226
g57
(g78
g59
NtRp1227
(dp1228
g62
(dp1229
g82
g83
ssg71
g1223
sg64
(lp1230
S'http_accept_encoding'
p1231
asbag57
(g78
g59
NtRp1232
(dp1233
g62
(dp1234
g89
g90
ssg71
g1223
sg64
(lp1235
S':'
asbag57
(g78
g59
NtRp1236
(dp1237
g62
(dp1238
sg71
g1223
sg64
(lp1239
g57
(g58
g59
NtRp1240
(dp1241
g62
(dp1242
g70
I4
ssg71
g1236
sg64
(lp1243
S'gzip,deflate,sdch'
p1244
asbasbasbag57
(g73
g59
NtRp1245
(dp1246
g62
(dp1247
sg71
g1019
sg64
(lp1248
g57
(g78
g59
NtRp1249
(dp1250
g62
(dp1251
g82
g83
ssg71
g1245
sg64
(lp1252
S'http_accept_language'
p1253
asbag57
(g78
g59
NtRp1254
(dp1255
g62
(dp1256
g89
g90
ssg71
g1245
sg64
(lp1257
S':'
asbag57
(g78
g59
NtRp1258
(dp1259
g62
(dp1260
sg71
g1245
sg64
(lp1261
g57
(g58
g59
NtRp1262
(dp1263
g62
(dp1264
g70
I4
ssg71
g1258
sg64
(lp1265
S'en-US,en;q=0.8'
p1266
asbasbasbag57
(g73
g59
NtRp1267
(dp1268
g62
(dp1269
sg71
g1019
sg64
(lp1270
g57
(g78
g59
NtRp1271
(dp1272
g62
(dp1273
g82
g83
ssg71
g1267
sg64
(lp1274
S'http_cache_control'
p1275
asbag57
(g78
g59
NtRp1276
(dp1277
g62
(dp1278
g89
g90
ssg71
g1267
sg64
(lp1279
S':'
asbag57
(g78
g59
NtRp1280
(dp1281
g62
(dp1282
sg71
g1267
sg64
(lp1283
g57
(g58
g59
NtRp1284
(dp1285
g62
(dp1286
g70
I4
ssg71
g1280
sg64
(lp1287
S'max-age=0'
p1288
asbasbasbag57
(g73
g59
NtRp1289
(dp1290
g62
(dp1291
sg71
g1019
sg64
(lp1292
g57
(g78
g59
NtRp1293
(dp1294
g62
(dp1295
g82
g83
ssg71
g1289
sg64
(lp1296
S'http_connection'
p1297
asbag57
(g78
g59
NtRp1298
(dp1299
g62
(dp1300
g89
g90
ssg71
g1289
sg64
(lp1301
S':'
asbag57
(g78
g59
NtRp1302
(dp1303
g62
(dp1304
sg71
g1289
sg64
(lp1305
g57
(g58
g59
NtRp1306
(dp1307
g62
(dp1308
g70
I4
ssg71
g1302
sg64
(lp1309
S'keep-alive'
p1310
asbasbasbag57
(g73
g59
NtRp1311
(dp1312
g62
(dp1313
sg71
g1019
sg64
(lp1314
g57
(g78
g59
NtRp1315
(dp1316
g62
(dp1317
g82
g83
ssg71
g1311
sg64
(lp1318
S'http_cookie'
p1319
asbag57
(g78
g59
NtRp1320
(dp1321
g62
(dp1322
g89
g90
ssg71
g1311
sg64
(lp1323
S':'
asbag57
(g78
g59
NtRp1324
(dp1325
g62
(dp1326
sg71
g1311
sg64
(lp1327
g57
(g58
g59
NtRp1328
(dp1329
g62
(dp1330
g70
I4
ssg71
g1324
sg64
(lp1331
S'session_id_welcome=127.0.0.1-bffe8a2c-7cac-4fda-8379-2a112ae00c58; session_id_todolist2=127.0.0.1-477221c7-510b-4aa7-b5d2-77bae14bca92; session_id_admin=127.0.0.1-4c04cc91-8b55-4bcd-8835-a51019000e30; session_id_book_shelf_copy=127.0.0.1-eeba29a1-713d-4626-a1ad-4627ea1d2e7a'
p1332
asbasbasbag57
(g73
g59
NtRp1333
(dp1334
g62
(dp1335
sg71
g1019
sg64
(lp1336
g57
(g78
g59
NtRp1337
(dp1338
g62
(dp1339
g82
g83
ssg71
g1333
sg64
(lp1340
S'http_host'
p1341
asbag57
(g78
g59
NtRp1342
(dp1343
g62
(dp1344
g89
g90
ssg71
g1333
sg64
(lp1345
S':'
asbag57
(g78
g59
NtRp1346
(dp1347
g62
(dp1348
sg71
g1333
sg64
(lp1349
g57
(g58
g59
NtRp1350
(dp1351
g62
(dp1352
g70
I4
ssg71
g1346
sg64
(lp1353
S'127.0.0.1:8000'
p1354
asbasbasbag57
(g73
g59
NtRp1355
(dp1356
g62
(dp1357
sg71
g1019
sg64
(lp1358
g57
(g78
g59
NtRp1359
(dp1360
g62
(dp1361
g82
g83
ssg71
g1355
sg64
(lp1362
S'http_user_agent'
p1363
asbag57
(g78
g59
NtRp1364
(dp1365
g62
(dp1366
g89
g90
ssg71
g1355
sg64
(lp1367
S':'
asbag57
(g78
g59
NtRp1368
(dp1369
g62
(dp1370
sg71
g1355
sg64
(lp1371
g57
(g58
g59
NtRp1372
(dp1373
g62
(dp1374
g70
I4
ssg71
g1368
sg64
(lp1375
S'Mozilla/5.0 (Macintosh; Intel Mac OS X 10_7_4) AppleWebKit/536.5 (KHTML, like Gecko) Chrome/19.0.1084.53 Safari/536.5'
p1376
asbasbasbag57
(g73
g59
NtRp1377
(dp1378
g62
(dp1379
sg71
g1019
sg64
(lp1380
g57
(g78
g59
NtRp1381
(dp1382
g62
(dp1383
g82
g83
ssg71
g1377
sg64
(lp1384
S'is_jython'
p1385
asbag57
(g78
g59
NtRp1386
(dp1387
g62
(dp1388
g89
g90
ssg71
g1377
sg64
(lp1389
S':'
asbag57
(g78
g59
NtRp1390
(dp1391
g62
(dp1392
sg71
g1377
sg64
(lp1393
g57
(g58
g59
NtRp1394
(dp1395
g62
(dp1396
g70
I4
ssg71
g1390
sg64
(lp1397
g100
asbasbasbag57
(g73
g59
NtRp1398
(dp1399
g62
(dp1400
sg71
g1019
sg64
(lp1401
g57
(g78
g59
NtRp1402
(dp1403
g62
(dp1404
g82
g83
ssg71
g1398
sg64
(lp1405
S'is_pypy'
p1406
asbag57
(g78
g59
NtRp1407
(dp1408
g62
(dp1409
g89
g90
ssg71
g1398
sg64
(lp1410
S':'
asbag57
(g78
g59
NtRp1411
(dp1412
g62
(dp1413
sg71
g1398
sg64
(lp1414
g57
(g58
g59
NtRp1415
(dp1416
g62
(dp1417
g70
I4
ssg71
g1411
sg64
(lp1418
g100
asbasbasbag57
(g73
g59
NtRp1419
(dp1420
g62
(dp1421
sg71
g1019
sg64
(lp1422
g57
(g78
g59
NtRp1423
(dp1424
g62
(dp1425
g82
g83
ssg71
g1419
sg64
(lp1426
S'path_info'
p1427
asbag57
(g78
g59
NtRp1428
(dp1429
g62
(dp1430
g89
g90
ssg71
g1419
sg64
(lp1431
S':'
asbag57
(g78
g59
NtRp1432
(dp1433
g62
(dp1434
sg71
g1419
sg64
(lp1435
g57
(g58
g59
NtRp1436
(dp1437
g62
(dp1438
g70
I4
ssg71
g1432
sg64
(lp1439
S'/Book_Shelf_copy/default/book_shelf/1'
p1440
asbasbasbag57
(g73
g59
NtRp1441
(dp1442
g62
(dp1443
sg71
g1019
sg64
(lp1444
g57
(g78
g59
NtRp1445
(dp1446
g62
(dp1447
g82
g83
ssg71
g1441
sg64
(lp1448
S'query_string'
p1449
asbag57
(g78
g59
NtRp1450
(dp1451
g62
(dp1452
g89
g90
ssg71
g1441
sg64
(lp1453
S':'
asbag57
(g78
g59
NtRp1454
(dp1455
g62
(dp1456
sg71
g1441
sg64
(lp1457
g57
(g58
g59
NtRp1458
(dp1459
g62
(dp1460
g70
I4
ssg71
g1454
sg64
(lp1461
S''
asbasbasbag57
(g73
g59
NtRp1462
(dp1463
g62
(dp1464
sg71
g1019
sg64
(lp1465
g57
(g78
g59
NtRp1466
(dp1467
g62
(dp1468
g82
g83
ssg71
g1462
sg64
(lp1469
S'remote_addr'
p1470
asbag57
(g78
g59
NtRp1471
(dp1472
g62
(dp1473
g89
g90
ssg71
g1462
sg64
(lp1474
S':'
asbag57
(g78
g59
NtRp1475
(dp1476
g62
(dp1477
sg71
g1462
sg64
(lp1478
g57
(g58
g59
NtRp1479
(dp1480
g62
(dp1481
g70
I4
ssg71
g1475
sg64
(lp1482
g202
asbasbasbag57
(g73
g59
NtRp1483
(dp1484
g62
(dp1485
sg71
g1019
sg64
(lp1486
g57
(g78
g59
NtRp1487
(dp1488
g62
(dp1489
g82
g83
ssg71
g1483
sg64
(lp1490
S'remote_port'
p1491
asbag57
(g78
g59
NtRp1492
(dp1493
g62
(dp1494
g89
g90
ssg71
g1483
sg64
(lp1495
S':'
asbag57
(g78
g59
NtRp1496
(dp1497
g62
(dp1498
sg71
g1483
sg64
(lp1499
g57
(g58
g59
NtRp1500
(dp1501
g62
(dp1502
g70
I4
ssg71
g1496
sg64
(lp1503
S'54800'
p1504
asbasbasbag57
(g73
g59
NtRp1505
(dp1506
g62
(dp1507
sg71
g1019
sg64
(lp1508
g57
(g78
g59
NtRp1509
(dp1510
g62
(dp1511
g82
g83
ssg71
g1505
sg64
(lp1512
S'request_method'
p1513
asbag57
(g78
g59
NtRp1514
(dp1515
g62
(dp1516
g89
g90
ssg71
g1505
sg64
(lp1517
S':'
asbag57
(g78
g59
NtRp1518
(dp1519
g62
(dp1520
sg71
g1505
sg64
(lp1521
g57
(g58
g59
NtRp1522
(dp1523
g62
(dp1524
g70
I4
ssg71
g1518
sg64
(lp1525
S'GET'
p1526
asbasbasbag57
(g73
g59
NtRp1527
(dp1528
g62
(dp1529
sg71
g1019
sg64
(lp1530
g57
(g78
g59
NtRp1531
(dp1532
g62
(dp1533
g82
g83
ssg71
g1527
sg64
(lp1534
S'script_name'
p1535
asbag57
(g78
g59
NtRp1536
(dp1537
g62
(dp1538
g89
g90
ssg71
g1527
sg64
(lp1539
S':'
asbag57
(g78
g59
NtRp1540
(dp1541
g62
(dp1542
sg71
g1527
sg64
(lp1543
g57
(g58
g59
NtRp1544
(dp1545
g62
(dp1546
g70
I4
ssg71
g1540
sg64
(lp1547
S''
asbasbasbag57
(g73
g59
NtRp1548
(dp1549
g62
(dp1550
sg71
g1019
sg64
(lp1551
g57
(g78
g59
NtRp1552
(dp1553
g62
(dp1554
g82
g83
ssg71
g1548
sg64
(lp1555
S'server_name'
p1556
asbag57
(g78
g59
NtRp1557
(dp1558
g62
(dp1559
g89
g90
ssg71
g1548
sg64
(lp1560
S':'
asbag57
(g78
g59
NtRp1561
(dp1562
g62
(dp1563
sg71
g1548
sg64
(lp1564
g57
(g58
g59
NtRp1565
(dp1566
g62
(dp1567
g70
I4
ssg71
g1561
sg64
(lp1568
S'Iana-Bonevas-MacBook-Pro.local'
p1569
asbasbasbag57
(g73
g59
NtRp1570
(dp1571
g62
(dp1572
sg71
g1019
sg64
(lp1573
g57
(g78
g59
NtRp1574
(dp1575
g62
(dp1576
g82
g83
ssg71
g1570
sg64
(lp1577
S'server_port'
p1578
asbag57
(g78
g59
NtRp1579
(dp1580
g62
(dp1581
g89
g90
ssg71
g1570
sg64
(lp1582
S':'
asbag57
(g78
g59
NtRp1583
(dp1584
g62
(dp1585
sg71
g1570
sg64
(lp1586
g57
(g58
g59
NtRp1587
(dp1588
g62
(dp1589
g70
I4
ssg71
g1583
sg64
(lp1590
S'8000'
p1591
asbasbasbag57
(g73
g59
NtRp1592
(dp1593
g62
(dp1594
sg71
g1019
sg64
(lp1595
g57
(g78
g59
NtRp1596
(dp1597
g62
(dp1598
g82
g83
ssg71
g1592
sg64
(lp1599
S'server_protocol'
p1600
asbag57
(g78
g59
NtRp1601
(dp1602
g62
(dp1603
g89
g90
ssg71
g1592
sg64
(lp1604
S':'
asbag57
(g78
g59
NtRp1605
(dp1606
g62
(dp1607
sg71
g1592
sg64
(lp1608
g57
(g58
g59
NtRp1609
(dp1610
g62
(dp1611
g70
I4
ssg71
g1605
sg64
(lp1612
S'HTTP/1.1'
p1613
asbasbasbag57
(g73
g59
NtRp1614
(dp1615
g62
(dp1616
sg71
g1019
sg64
(lp1617
g57
(g78
g59
NtRp1618
(dp1619
g62
(dp1620
g82
g83
ssg71
g1614
sg64
(lp1621
S'server_software'
p1622
asbag57
(g78
g59
NtRp1623
(dp1624
g62
(dp1625
g89
g90
ssg71
g1614
sg64
(lp1626
S':'
asbag57
(g78
g59
NtRp1627
(dp1628
g62
(dp1629
sg71
g1614
sg64
(lp1630
g57
(g58
g59
NtRp1631
(dp1632
g62
(dp1633
g70
I4
ssg71
g1627
sg64
(lp1634
S'Rocket 1.2.4'
p1635
asbasbasbag57
(g73
g59
NtRp1636
(dp1637
g62
(dp1638
sg71
g1019
sg64
(lp1639
g57
(g78
g59
NtRp1640
(dp1641
g62
(dp1642
g82
g83
ssg71
g1636
sg64
(lp1643
S'web2py_crontype'
p1644
asbag57
(g78
g59
NtRp1645
(dp1646
g62
(dp1647
g89
g90
ssg71
g1636
sg64
(lp1648
S':'
asbag57
(g78
g59
NtRp1649
(dp1650
g62
(dp1651
sg71
g1636
sg64
(lp1652
g57
(g58
g59
NtRp1653
(dp1654
g62
(dp1655
g70
I4
ssg71
g1649
sg64
(lp1656
S'hard'
p1657
asbasbasbag57
(g73
g59
NtRp1658
(dp1659
g62
(dp1660
sg71
g1019
sg64
(lp1661
g57
(g78
g59
NtRp1662
(dp1663
g62
(dp1664
g82
g83
ssg71
g1658
sg64
(lp1665
S'web2py_path'
p1666
asbag57
(g78
g59
NtRp1667
(dp1668
g62
(dp1669
g89
g90
ssg71
g1658
sg64
(lp1670
S':'
asbag57
(g78
g59
NtRp1671
(dp1672
g62
(dp1673
sg71
g1658
sg64
(lp1674
g57
(g58
g59
NtRp1675
(dp1676
g62
(dp1677
g70
I4
ssg71
g1671
sg64
(lp1678
g1066
asbasbasbag57
(g73
g59
NtRp1679
(dp1680
g62
(dp1681
sg71
g1019
sg64
(lp1682
g57
(g78
g59
NtRp1683
(dp1684
g62
(dp1685
g82
g83
ssg71
g1679
sg64
(lp1686
S'web2py_version'
p1687
asbag57
(g78
g59
NtRp1688
(dp1689
g62
(dp1690
g89
g90
ssg71
g1679
sg64
(lp1691
S':'
asbag57
(g78
g59
NtRp1692
(dp1693
g62
(dp1694
sg71
g1679
sg64
(lp1695
g57
(g58
g59
NtRp1696
(dp1697
g62
(dp1698
g70
I4
ssg71
g1692
sg64
(lp1699
g57
(g66
g59
NtRp1700
(dp1701
g62
(dp1702
g70
I3
ssg71
Nsg64
(lp1703
g57
(g73
g59
NtRp1704
(dp1705
g62
(dp1706
sg71
g1700
sg64
(lp1707
g57
(g78
g59
NtRp1708
(dp1709
g62
(dp1710
sg71
g1704
sg64
(lp1711
g57
(g58
g59
NtRp1712
(dp1713
g62
(dp1714
g70
I3
ssg71
g1708
sg64
(lp1715
S'1'
asbasbasbag57
(g73
g59
NtRp1716
(dp1717
g62
(dp1718
sg71
g1700
sg64
(lp1719
g57
(g78
g59
NtRp1720
(dp1721
g62
(dp1722
sg71
g1716
sg64
(lp1723
g57
(g58
g59
NtRp1724
(dp1725
g62
(dp1726
g70
I3
ssg71
g1720
sg64
(lp1727
S'99'
p1728
asbasbasbag57
(g73
g59
NtRp1729
(dp1730
g62
(dp1731
sg71
g1700
sg64
(lp1732
g57
(g78
g59
NtRp1733
(dp1734
g62
(dp1735
sg71
g1729
sg64
(lp1736
g57
(g58
g59
NtRp1737
(dp1738
g62
(dp1739
g70
I3
ssg71
g1733
sg64
(lp1740
S'7'
asbasbasbag57
(g73
g59
NtRp1741
(dp1742
g62
(dp1743
sg71
g1700
sg64
(lp1744
g57
(g78
g59
NtRp1745
(dp1746
g62
(dp1747
sg71
g1741
sg64
(lp1748
g57
(g58
g59
NtRp1749
(dp1750
g62
(dp1751
g70
I3
ssg71
g1745
sg64
(lp1752
S'datetime.datetime(2012, 3, 4, 22, 12, 8)'
p1753
asbasbasbag57
(g73
g59
NtRp1754
(dp1755
g62
(dp1756
sg71
g1700
sg64
(lp1757
g57
(g78
g59
NtRp1758
(dp1759
g62
(dp1760
sg71
g1754
sg64
(lp1761
g57
(g58
g59
NtRp1762
(dp1763
g62
(dp1764
g70
I3
ssg71
g1758
sg64
(lp1765
S'stable'
p1766
asbasbasbasbasbasbasbag57
(g73
g59
NtRp1767
(dp1768
g62
(dp1769
sg71
g1019
sg64
(lp1770
g57
(g78
g59
NtRp1771
(dp1772
g62
(dp1773
g82
g83
ssg71
g1767
sg64
(lp1774
S'wsgi_errors'
p1775
asbag57
(g78
g59
NtRp1776
(dp1777
g62
(dp1778
g89
g90
ssg71
g1767
sg64
(lp1779
S':'
asbag57
(g78
g59
NtRp1780
(dp1781
g62
(dp1782
sg71
g1767
sg64
(lp1783
g57
(g58
g59
NtRp1784
(dp1785
g62
(dp1786
g70
I4
ssg71
g1780
sg64
(lp1787
S"<open file '<stderr>', mode 'w' at 0x104484270>"
p1788
asbasbasbag57
(g73
g59
NtRp1789
(dp1790
g62
(dp1791
sg71
g1019
sg64
(lp1792
g57
(g78
g59
NtRp1793
(dp1794
g62
(dp1795
g82
g83
ssg71
g1789
sg64
(lp1796
S'wsgi_file_wrapper'
p1797
asbag57
(g78
g59
NtRp1798
(dp1799
g62
(dp1800
g89
g90
ssg71
g1789
sg64
(lp1801
S':'
asbag57
(g78
g59
NtRp1802
(dp1803
g62
(dp1804
sg71
g1789
sg64
(lp1805
g57
(g58
g59
NtRp1806
(dp1807
g62
(dp1808
g70
I4
ssg71
g1802
sg64
(lp1809
S'<class wsgiref.util.FileWrapper at 0x104ebdf58>'
p1810
asbasbasbag57
(g73
g59
NtRp1811
(dp1812
g62
(dp1813
sg71
g1019
sg64
(lp1814
g57
(g78
g59
NtRp1815
(dp1816
g62
(dp1817
g82
g83
ssg71
g1811
sg64
(lp1818
S'wsgi_input'
p1819
asbag57
(g78
g59
NtRp1820
(dp1821
g62
(dp1822
g89
g90
ssg71
g1811
sg64
(lp1823
S':'
asbag57
(g78
g59
NtRp1824
(dp1825
g62
(dp1826
sg71
g1811
sg64
(lp1827
g57
(g58
g59
NtRp1828
(dp1829
g62
(dp1830
g70
I4
ssg71
g1824
sg64
(lp1831
S'<socket._fileobject object at 0x109bb32d0>'
p1832
asbasbasbag57
(g73
g59
NtRp1833
(dp1834
g62
(dp1835
sg71
g1019
sg64
(lp1836
g57
(g78
g59
NtRp1837
(dp1838
g62
(dp1839
g82
g83
ssg71
g1833
sg64
(lp1840
S'wsgi_multiprocess'
p1841
asbag57
(g78
g59
NtRp1842
(dp1843
g62
(dp1844
g89
g90
ssg71
g1833
sg64
(lp1845
S':'
asbag57
(g78
g59
NtRp1846
(dp1847
g62
(dp1848
sg71
g1833
sg64
(lp1849
g57
(g58
g59
NtRp1850
(dp1851
g62
(dp1852
g70
I4
ssg71
g1846
sg64
(lp1853
g100
asbasbasbag57
(g73
g59
NtRp1854
(dp1855
g62
(dp1856
sg71
g1019
sg64
(lp1857
g57
(g78
g59
NtRp1858
(dp1859
g62
(dp1860
g82
g83
ssg71
g1854
sg64
(lp1861
S'wsgi_multithread'
p1862
asbag57
(g78
g59
NtRp1863
(dp1864
g62
(dp1865
g89
g90
ssg71
g1854
sg64
(lp1866
S':'
asbag57
(g78
g59
NtRp1867
(dp1868
g62
(dp1869
sg71
g1854
sg64
(lp1870
g57
(g58
g59
NtRp1871
(dp1872
g62
(dp1873
g70
I4
ssg71
g1867
sg64
(lp1874
S'True'
p1875
asbasbasbag57
(g73
g59
NtRp1876
(dp1877
g62
(dp1878
sg71
g1019
sg64
(lp1879
g57
(g78
g59
NtRp1880
(dp1881
g62
(dp1882
g82
g83
ssg71
g1876
sg64
(lp1883
S'wsgi_run_once'
p1884
asbag57
(g78
g59
NtRp1885
(dp1886
g62
(dp1887
g89
g90
ssg71
g1876
sg64
(lp1888
S':'
asbag57
(g78
g59
NtRp1889
(dp1890
g62
(dp1891
sg71
g1876
sg64
(lp1892
g57
(g58
g59
NtRp1893
(dp1894
g62
(dp1895
g70
I4
ssg71
g1889
sg64
(lp1896
g100
asbasbasbag57
(g73
g59
NtRp1897
(dp1898
g62
(dp1899
sg71
g1019
sg64
(lp1900
g57
(g78
g59
NtRp1901
(dp1902
g62
(dp1903
g82
g83
ssg71
g1897
sg64
(lp1904
S'wsgi_url_scheme'
p1905
asbag57
(g78
g59
NtRp1906
(dp1907
g62
(dp1908
g89
g90
ssg71
g1897
sg64
(lp1909
S':'
asbag57
(g78
g59
NtRp1910
(dp1911
g62
(dp1912
sg71
g1897
sg64
(lp1913
g57
(g58
g59
NtRp1914
(dp1915
g62
(dp1916
g70
I4
ssg71
g1910
sg64
(lp1917
S'http'
p1918
asbasbasbag57
(g73
g59
NtRp1919
(dp1920
g62
(dp1921
sg71
g1019
sg64
(lp1922
g57
(g78
g59
NtRp1923
(dp1924
g62
(dp1925
g82
g83
ssg71
g1919
sg64
(lp1926
S'wsgi_version'
p1927
asbag57
(g78
g59
NtRp1928
(dp1929
g62
(dp1930
g89
g90
ssg71
g1919
sg64
(lp1931
S':'
asbag57
(g78
g59
NtRp1932
(dp1933
g62
(dp1934
sg71
g1919
sg64
(lp1935
g57
(g58
g59
NtRp1936
(dp1937
g62
(dp1938
g70
I4
ssg71
g1932
sg64
(lp1939
g57
(g66
g59
NtRp1940
(dp1941
g62
(dp1942
g70
I3
ssg71
Nsg64
(lp1943
g57
(g73
g59
NtRp1944
(dp1945
g62
(dp1946
sg71
g1940
sg64
(lp1947
g57
(g78
g59
NtRp1948
(dp1949
g62
(dp1950
sg71
g1944
sg64
(lp1951
g57
(g58
g59
NtRp1952
(dp1953
g62
(dp1954
g70
I3
ssg71
g1948
sg64
(lp1955
S'1'
asbasbasbag57
(g73
g59
NtRp1956
(dp1957
g62
(dp1958
sg71
g1940
sg64
(lp1959
g57
(g78
g59
NtRp1960
(dp1961
g62
(dp1962
sg71
g1956
sg64
(lp1963
g57
(g58
g59
NtRp1964
(dp1965
g62
(dp1966
g70
I3
ssg71
g1960
sg64
(lp1967
S'0'
asbasbasbasbasbasbasbasbasbasbasbag57
(g73
g59
NtRp1968
(dp1969
g62
(dp1970
sg71
g67
sg64
(lp1971
g57
(g78
g59
NtRp1972
(dp1973
g62
(dp1974
g82
g83
ssg71
g1968
sg64
(lp1975
S'extension'
p1976
asbag57
(g78
g59
NtRp1977
(dp1978
g62
(dp1979
g89
g90
ssg71
g1968
sg64
(lp1980
S':'
asbag57
(g78
g59
NtRp1981
(dp1982
g62
(dp1983
sg71
g1968
sg64
(lp1984
g57
(g58
g59
NtRp1985
(dp1986
g62
(dp1987
g70
I5
ssg71
g1981
sg64
(lp1988
S'html'
p1989
asbasbasbag57
(g73
g59
NtRp1990
(dp1991
g62
(dp1992
sg71
g67
sg64
(lp1993
g57
(g78
g59
NtRp1994
(dp1995
g62
(dp1996
g82
g83
ssg71
g1990
sg64
(lp1997
S'folder'
p1998
asbag57
(g78
g59
NtRp1999
(dp2000
g62
(dp2001
g89
g90
ssg71
g1990
sg64
(lp2002
S':'
asbag57
(g78
g59
NtRp2003
(dp2004
g62
(dp2005
sg71
g1990
sg64
(lp2006
g57
(g58
g59
NtRp2007
(dp2008
g62
(dp2009
g70
I5
ssg71
g2003
sg64
(lp2010
S'/Users/ianaboneva/Dropbox/DePaul/CSC 438 - Web Applications/web2py/applications/Book_Shelf_copy/'
p2011
asbasbasbag57
(g73
g59
NtRp2012
(dp2013
g62
(dp2014
sg71
g67
sg64
(lp2015
g57
(g78
g59
NtRp2016
(dp2017
g62
(dp2018
g82
g83
ssg71
g2012
sg64
(lp2019
S'function'
p2020
asbag57
(g78
g59
NtRp2021
(dp2022
g62
(dp2023
g89
g90
ssg71
g2012
sg64
(lp2024
S':'
asbag57
(g78
g59
NtRp2025
(dp2026
g62
(dp2027
sg71
g2012
sg64
(lp2028
g57
(g58
g59
NtRp2029
(dp2030
g62
(dp2031
g70
I5
ssg71
g2025
sg64
(lp2032
S'book_shelf'
p2033
asbasbasbag57
(g73
g59
NtRp2034
(dp2035
g62
(dp2036
sg71
g67
sg64
(lp2037
g57
(g78
g59
NtRp2038
(dp2039
g62
(dp2040
g82
g83
ssg71
g2034
sg64
(lp2041
S'get_vars'
p2042
asbag57
(g78
g59
NtRp2043
(dp2044
g62
(dp2045
g89
g90
ssg71
g2034
sg64
(lp2046
S':'
asbag57
(g78
g59
NtRp2047
(dp2048
g62
(dp2049
sg71
g2034
sg64
(lp2050
g57
(g58
g59
NtRp2051
(dp2052
g62
(dp2053
g70
I5
ssg71
g2047
sg64
(lp2054
g57
(g66
g59
NtRp2055
(dp2056
g62
(dp2057
g70
I4
ssg71
Nsg64
(lp2058
sbasbasbasbag57
(g73
g59
NtRp2059
(dp2060
g62
(dp2061
sg71
g67
sg64
(lp2062
g57
(g78
g59
NtRp2063
(dp2064
g62
(dp2065
g82
g83
ssg71
g2059
sg64
(lp2066
S'global_settings'
p2067
asbag57
(g78
g59
NtRp2068
(dp2069
g62
(dp2070
g89
g90
ssg71
g2059
sg64
(lp2071
S':'
asbag57
(g78
g59
NtRp2072
(dp2073
g62
(dp2074
sg71
g2059
sg64
(lp2075
g57
(g58
g59
NtRp2076
(dp2077
g62
(dp2078
g70
I5
ssg71
g2072
sg64
(lp2079
g57
(g66
g59
NtRp2080
(dp2081
g62
(dp2082
g70
I4
ssg71
Nsg64
(lp2083
g57
(g73
g59
NtRp2084
(dp2085
g62
(dp2086
sg71
g2080
sg64
(lp2087
g57
(g78
g59
NtRp2088
(dp2089
g62
(dp2090
g82
g83
ssg71
g2084
sg64
(lp2091
g1031
asbag57
(g78
g59
NtRp2092
(dp2093
g62
(dp2094
g89
g90
ssg71
g2084
sg64
(lp2095
S':'
asbag57
(g78
g59
NtRp2096
(dp2097
g62
(dp2098
sg71
g2084
sg64
(lp2099
g57
(g58
g59
NtRp2100
(dp2101
g62
(dp2102
g70
I4
ssg71
g2096
sg64
(lp2103
S"set(['/Users/ianaboneva/Dropbox/DePaul/CSC 438 - Web Applications/web2py/applications/ToDoList2/', '/Users/ianaboneva/Dropbox/DePaul/CSC 438 - Web Applications/web2py/applications/welcome/', '/Users/ianaboneva/Dropbox/DePaul/CSC 438 - Web Applications/web2py/applications/admin/', '/Users/ianaboneva/Dropbox/DePaul/CSC 438 - Web Applications/web2py/applications/Book_Shelf_copy/'])"
p2104
asbasbasbag57
(g73
g59
NtRp2105
(dp2106
g62
(dp2107
sg71
g2080
sg64
(lp2108
g57
(g78
g59
NtRp2109
(dp2110
g62
(dp2111
g82
g83
ssg71
g2105
sg64
(lp2112
g1053
asbag57
(g78
g59
NtRp2113
(dp2114
g62
(dp2115
g89
g90
ssg71
g2105
sg64
(lp2116
S':'
asbag57
(g78
g59
NtRp2117
(dp2118
g62
(dp2119
sg71
g2105
sg64
(lp2120
g57
(g58
g59
NtRp2121
(dp2122
g62
(dp2123
g70
I4
ssg71
g2117
sg64
(lp2124
g1066
asbasbasbag57
(g73
g59
NtRp2125
(dp2126
g62
(dp2127
sg71
g2080
sg64
(lp2128
g57
(g78
g59
NtRp2129
(dp2130
g62
(dp2131
g82
g83
ssg71
g2125
sg64
(lp2132
g1075
asbag57
(g78
g59
NtRp2133
(dp2134
g62
(dp2135
g89
g90
ssg71
g2125
sg64
(lp2136
S':'
asbag57
(g78
g59
NtRp2137
(dp2138
g62
(dp2139
sg71
g2125
sg64
(lp2140
g57
(g58
g59
NtRp2141
(dp2142
g62
(dp2143
g70
I4
ssg71
g2137
sg64
(lp2144
g57
(g66
g59
NtRp2145
(dp2146
g62
(dp2147
g70
I3
ssg71
Nsg64
(lp2148
sbasbasbasbag57
(g73
g59
NtRp2149
(dp2150
g62
(dp2151
sg71
g2080
sg64
(lp2152
g57
(g78
g59
NtRp2153
(dp2154
g62
(dp2155
g82
g83
ssg71
g2149
sg64
(lp2156
g1100
asbag57
(g78
g59
NtRp2157
(dp2158
g62
(dp2159
g89
g90
ssg71
g2149
sg64
(lp2160
S':'
asbag57
(g78
g59
NtRp2161
(dp2162
g62
(dp2163
sg71
g2149
sg64
(lp2164
g57
(g58
g59
NtRp2165
(dp2166
g62
(dp2167
g70
I4
ssg71
g2161
sg64
(lp2168
S"<Values at 0x104fc1b00: {'verbose': False, 'ip': '127.0.0.1', 'shutdown_timeout': 5, 'taskbar': False, 'nocron': False, 'pid_filename': 'httpserver.pid', 'maxthreads': None, 'softcron': False, 'server_name': 'Iana-Bonevas-MacBook-Pro.local', 'bpython': False, 'nogui': False, 'port': 8000, 'extcron': False, 'debuglevel': 30, 'test': None, 'folder': '/Users/ianaboneva/Dropbox/DePaul/CSC 438 - Web Applications/web2py', 'config': '', 'import_models': False, 'winservice': '', 'shell': None, 'run': '', 'log_filename': 'httpserver.log', 'args': [''], 'socket_timeout': 5, 'ssl_ca_certificate': None, 'scheduler': None, 'profiler_filename': None, 'ssl_private_key': '', 'password': '<ask>', 'request_queue_size': 5, 'ssl_certificate': '', 'cronjob': False, 'numthreads': None, 'quiet': False, 'interfaces': None, 'minthreads': None, 'timeout': 10, 'plain': False, 'nobanner': False}>"
p2169
asbasbasbag57
(g73
g59
NtRp2170
(dp2171
g62
(dp2172
sg71
g2080
sg64
(lp2173
g57
(g78
g59
NtRp2174
(dp2175
g62
(dp2176
g82
g83
ssg71
g2170
sg64
(lp2177
g1122
asbag57
(g78
g59
NtRp2178
(dp2179
g62
(dp2180
g89
g90
ssg71
g2170
sg64
(lp2181
S':'
asbag57
(g78
g59
NtRp2182
(dp2183
g62
(dp2184
sg71
g2170
sg64
(lp2185
g57
(g58
g59
NtRp2186
(dp2187
g62
(dp2188
g70
I4
ssg71
g2182
sg64
(lp2189
S'set([])'
p2190
asbasbasbag57
(g73
g59
NtRp2191
(dp2192
g62
(dp2193
sg71
g2080
sg64
(lp2194
g57
(g78
g59
NtRp2195
(dp2196
g62
(dp2197
g82
g83
ssg71
g2191
sg64
(lp2198
g1144
asbag57
(g78
g59
NtRp2199
(dp2200
g62
(dp2201
g89
g90
ssg71
g2191
sg64
(lp2202
S':'
asbag57
(g78
g59
NtRp2203
(dp2204
g62
(dp2205
sg71
g2191
sg64
(lp2206
g57
(g58
g59
NtRp2207
(dp2208
g62
(dp2209
g70
I4
ssg71
g2203
sg64
(lp2210
g100
asbasbasbag57
(g73
g59
NtRp2211
(dp2212
g62
(dp2213
sg71
g2080
sg64
(lp2214
g57
(g78
g59
NtRp2215
(dp2216
g62
(dp2217
g82
g83
ssg71
g2211
sg64
(lp2218
g1165
asbag57
(g78
g59
NtRp2219
(dp2220
g62
(dp2221
g89
g90
ssg71
g2211
sg64
(lp2222
S':'
asbag57
(g78
g59
NtRp2223
(dp2224
g62
(dp2225
sg71
g2211
sg64
(lp2226
g57
(g58
g59
NtRp2227
(dp2228
g62
(dp2229
g70
I4
ssg71
g2223
sg64
(lp2230
g1178
asbasbasbag57
(g73
g59
NtRp2231
(dp2232
g62
(dp2233
sg71
g2080
sg64
(lp2234
g57
(g78
g59
NtRp2235
(dp2236
g62
(dp2237
g82
g83
ssg71
g2231
sg64
(lp2238
g1385
asbag57
(g78
g59
NtRp2239
(dp2240
g62
(dp2241
g89
g90
ssg71
g2231
sg64
(lp2242
S':'
asbag57
(g78
g59
NtRp2243
(dp2244
g62
(dp2245
sg71
g2231
sg64
(lp2246
g57
(g58
g59
NtRp2247
(dp2248
g62
(dp2249
g70
I4
ssg71
g2243
sg64
(lp2250
g100
asbasbasbag57
(g73
g59
NtRp2251
(dp2252
g62
(dp2253
sg71
g2080
sg64
(lp2254
g57
(g78
g59
NtRp2255
(dp2256
g62
(dp2257
g82
g83
ssg71
g2251
sg64
(lp2258
g1406
asbag57
(g78
g59
NtRp2259
(dp2260
g62
(dp2261
g89
g90
ssg71
g2251
sg64
(lp2262
S':'
asbag57
(g78
g59
NtRp2263
(dp2264
g62
(dp2265
sg71
g2251
sg64
(lp2266
g57
(g58
g59
NtRp2267
(dp2268
g62
(dp2269
g70
I4
ssg71
g2263
sg64
(lp2270
g100
asbasbasbag57
(g73
g59
NtRp2271
(dp2272
g62
(dp2273
sg71
g2080
sg64
(lp2274
g57
(g78
g59
NtRp2275
(dp2276
g62
(dp2277
g82
g83
ssg71
g2271
sg64
(lp2278
g1644
asbag57
(g78
g59
NtRp2279
(dp2280
g62
(dp2281
g89
g90
ssg71
g2271
sg64
(lp2282
S':'
asbag57
(g78
g59
NtRp2283
(dp2284
g62
(dp2285
sg71
g2271
sg64
(lp2286
g57
(g58
g59
NtRp2287
(dp2288
g62
(dp2289
g70
I4
ssg71
g2283
sg64
(lp2290
g1657
asbasbasbag57
(g73
g59
NtRp2291
(dp2292
g62
(dp2293
sg71
g2080
sg64
(lp2294
g57
(g78
g59
NtRp2295
(dp2296
g62
(dp2297
g82
g83
ssg71
g2291
sg64
(lp2298
g1687
asbag57
(g78
g59
NtRp2299
(dp2300
g62
(dp2301
g89
g90
ssg71
g2291
sg64
(lp2302
S':'
asbag57
(g78
g59
NtRp2303
(dp2304
g62
(dp2305
sg71
g2291
sg64
(lp2306
g57
(g58
g59
NtRp2307
(dp2308
g62
(dp2309
g70
I4
ssg71
g2303
sg64
(lp2310
g57
(g66
g59
NtRp2311
(dp2312
g62
(dp2313
g70
I3
ssg71
Nsg64
(lp2314
g57
(g73
g59
NtRp2315
(dp2316
g62
(dp2317
sg71
g2311
sg64
(lp2318
g57
(g78
g59
NtRp2319
(dp2320
g62
(dp2321
sg71
g2315
sg64
(lp2322
g57
(g58
g59
NtRp2323
(dp2324
g62
(dp2325
g70
I3
ssg71
g2319
sg64
(lp2326
S'1'
asbasbasbag57
(g73
g59
NtRp2327
(dp2328
g62
(dp2329
sg71
g2311
sg64
(lp2330
g57
(g78
g59
NtRp2331
(dp2332
g62
(dp2333
sg71
g2327
sg64
(lp2334
g57
(g58
g59
NtRp2335
(dp2336
g62
(dp2337
g70
I3
ssg71
g2331
sg64
(lp2338
S'99'
p2339
asbasbasbag57
(g73
g59
NtRp2340
(dp2341
g62
(dp2342
sg71
g2311
sg64
(lp2343
g57
(g78
g59
NtRp2344
(dp2345
g62
(dp2346
sg71
g2340
sg64
(lp2347
g57
(g58
g59
NtRp2348
(dp2349
g62
(dp2350
g70
I3
ssg71
g2344
sg64
(lp2351
S'7'
asbasbasbag57
(g73
g59
NtRp2352
(dp2353
g62
(dp2354
sg71
g2311
sg64
(lp2355
g57
(g78
g59
NtRp2356
(dp2357
g62
(dp2358
sg71
g2352
sg64
(lp2359
g57
(g58
g59
NtRp2360
(dp2361
g62
(dp2362
g70
I3
ssg71
g2356
sg64
(lp2363
S'datetime.datetime(2012, 3, 4, 22, 12, 8)'
p2364
asbasbasbag57
(g73
g59
NtRp2365
(dp2366
g62
(dp2367
sg71
g2311
sg64
(lp2368
g57
(g78
g59
NtRp2369
(dp2370
g62
(dp2371
sg71
g2365
sg64
(lp2372
g57
(g58
g59
NtRp2373
(dp2374
g62
(dp2375
g70
I3
ssg71
g2369
sg64
(lp2376
g1766
asbasbasbasbasbasbasbasbasbasbasbag57
(g73
g59
NtRp2377
(dp2378
g62
(dp2379
sg71
g67
sg64
(lp2380
g57
(g78
g59
NtRp2381
(dp2382
g62
(dp2383
g82
g83
ssg71
g2377
sg64
(lp2384
S'is_https'
p2385
asbag57
(g78
g59
NtRp2386
(dp2387
g62
(dp2388
g89
g90
ssg71
g2377
sg64
(lp2389
S':'
asbag57
(g78
g59
NtRp2390
(dp2391
g62
(dp2392
sg71
g2377
sg64
(lp2393
g57
(g58
g59
NtRp2394
(dp2395
g62
(dp2396
g70
I5
ssg71
g2390
sg64
(lp2397
g100
asbasbasbag57
(g73
g59
NtRp2398
(dp2399
g62
(dp2400
sg71
g67
sg64
(lp2401
g57
(g78
g59
NtRp2402
(dp2403
g62
(dp2404
g82
g83
ssg71
g2398
sg64
(lp2405
S'is_local'
p2406
asbag57
(g78
g59
NtRp2407
(dp2408
g62
(dp2409
g89
g90
ssg71
g2398
sg64
(lp2410
S':'
asbag57
(g78
g59
NtRp2411
(dp2412
g62
(dp2413
sg71
g2398
sg64
(lp2414
g57
(g58
g59
NtRp2415
(dp2416
g62
(dp2417
g70
I5
ssg71
g2411
sg64
(lp2418
g1875
asbasbasbag57
(g73
g59
NtRp2419
(dp2420
g62
(dp2421
sg71
g67
sg64
(lp2422
g57
(g78
g59
NtRp2423
(dp2424
g62
(dp2425
g82
g83
ssg71
g2419
sg64
(lp2426
S'is_restful'
p2427
asbag57
(g78
g59
NtRp2428
(dp2429
g62
(dp2430
g89
g90
ssg71
g2419
sg64
(lp2431
S':'
asbag57
(g78
g59
NtRp2432
(dp2433
g62
(dp2434
sg71
g2419
sg64
(lp2435
g57
(g58
g59
NtRp2436
(dp2437
g62
(dp2438
g70
I5
ssg71
g2432
sg64
(lp2439
g100
asbasbasbag57
(g73
g59
NtRp2440
(dp2441
g62
(dp2442
sg71
g67
sg64
(lp2443
g57
(g78
g59
NtRp2444
(dp2445
g62
(dp2446
g82
g83
ssg71
g2440
sg64
(lp2447
S'now'
p2448
asbag57
(g78
g59
NtRp2449
(dp2450
g62
(dp2451
g89
g90
ssg71
g2440
sg64
(lp2452
S':'
asbag57
(g78
g59
NtRp2453
(dp2454
g62
(dp2455
sg71
g2440
sg64
(lp2456
g57
(g58
g59
NtRp2457
(dp2458
g62
(dp2459
g70
I5
ssg71
g2453
sg64
(lp2460
S'datetime.datetime(2012, 6, 3, 19, 0, 59, 704906)'
p2461
asbasbasbag57
(g73
g59
NtRp2462
(dp2463
g62
(dp2464
sg71
g67
sg64
(lp2465
g57
(g78
g59
NtRp2466
(dp2467
g62
(dp2468
g82
g83
ssg71
g2462
sg64
(lp2469
S'post_vars'
p2470
asbag57
(g78
g59
NtRp2471
(dp2472
g62
(dp2473
g89
g90
ssg71
g2462
sg64
(lp2474
S':'
asbag57
(g78
g59
NtRp2475
(dp2476
g62
(dp2477
sg71
g2462
sg64
(lp2478
g57
(g58
g59
NtRp2479
(dp2480
g62
(dp2481
g70
I5
ssg71
g2475
sg64
(lp2482
g57
(g66
g59
NtRp2483
(dp2484
g62
(dp2485
g70
I4
ssg71
Nsg64
(lp2486
sbasbasbasbag57
(g73
g59
NtRp2487
(dp2488
g62
(dp2489
sg71
g67
sg64
(lp2490
g57
(g78
g59
NtRp2491
(dp2492
g62
(dp2493
g82
g83
ssg71
g2487
sg64
(lp2494
S'raw_args'
p2495
asbag57
(g78
g59
NtRp2496
(dp2497
g62
(dp2498
g89
g90
ssg71
g2487
sg64
(lp2499
S':'
asbag57
(g78
g59
NtRp2500
(dp2501
g62
(dp2502
sg71
g2487
sg64
(lp2503
g57
(g58
g59
NtRp2504
(dp2505
g62
(dp2506
g70
I5
ssg71
g2500
sg64
(lp2507
S'1'
asbasbasbag57
(g73
g59
NtRp2508
(dp2509
g62
(dp2510
sg71
g67
sg64
(lp2511
g57
(g78
g59
NtRp2512
(dp2513
g62
(dp2514
g82
g83
ssg71
g2508
sg64
(lp2515
S'url'
p2516
asbag57
(g78
g59
NtRp2517
(dp2518
g62
(dp2519
g89
g90
ssg71
g2508
sg64
(lp2520
S':'
asbag57
(g78
g59
NtRp2521
(dp2522
g62
(dp2523
sg71
g2508
sg64
(lp2524
g57
(g58
g59
NtRp2525
(dp2526
g62
(dp2527
g70
I5
ssg71
g2521
sg64
(lp2528
S'/Book_Shelf_copy/default/book_shelf/1'
p2529
asbasbasbag57
(g73
g59
NtRp2530
(dp2531
g62
(dp2532
sg71
g67
sg64
(lp2533
g57
(g78
g59
NtRp2534
(dp2535
g62
(dp2536
g82
g83
ssg71
g2530
sg64
(lp2537
S'utcnow'
p2538
asbag57
(g78
g59
NtRp2539
(dp2540
g62
(dp2541
g89
g90
ssg71
g2530
sg64
(lp2542
S':'
asbag57
(g78
g59
NtRp2543
(dp2544
g62
(dp2545
sg71
g2530
sg64
(lp2546
g57
(g58
g59
NtRp2547
(dp2548
g62
(dp2549
g70
I5
ssg71
g2543
sg64
(lp2550
S'datetime.datetime(2012, 6, 4, 0, 0, 59, 704922)'
p2551
asbasbasbag57
(g73
g59
NtRp2552
(dp2553
g62
(dp2554
sg71
g67
sg64
(lp2555
g57
(g78
g59
NtRp2556
(dp2557
g62
(dp2558
g82
g83
ssg71
g2552
sg64
(lp2559
S'uuid'
p2560
asbag57
(g78
g59
NtRp2561
(dp2562
g62
(dp2563
g89
g90
ssg71
g2552
sg64
(lp2564
S':'
asbag57
(g78
g59
NtRp2565
(dp2566
g62
(dp2567
sg71
g2552
sg64
(lp2568
g57
(g58
g59
NtRp2569
(dp2570
g62
(dp2571
g70
I5
ssg71
g2565
sg64
(lp2572
S'Book_Shelf_copy/127.0.0.1.2012-06-03.19-00-59.880a580c-f8a9-44b6-8b18-f53e5587e3b5'
p2573
asbasbasbag57
(g73
g59
NtRp2574
(dp2575
g62
(dp2576
sg71
g67
sg64
(lp2577
g57
(g78
g59
NtRp2578
(dp2579
g62
(dp2580
g82
g83
ssg71
g2574
sg64
(lp2581
S'vars'
p2582
asbag57
(g78
g59
NtRp2583
(dp2584
g62
(dp2585
g89
g90
ssg71
g2574
sg64
(lp2586
S':'
asbag57
(g78
g59
NtRp2587
(dp2588
g62
(dp2589
sg71
g2574
sg64
(lp2590
g57
(g58
g59
NtRp2591
(dp2592
g62
(dp2593
g70
I5
ssg71
g2587
sg64
(lp2594
g57
(g66
g59
NtRp2595
(dp2596
g62
(dp2597
g70
I4
ssg71
Nsg64
(lp2598
sbasbasbasbag57
(g73
g59
NtRp2599
(dp2600
g62
(dp2601
sg71
g67
sg64
(lp2602
g57
(g78
g59
NtRp2603
(dp2604
g62
(dp2605
g82
g83
ssg71
g2599
sg64
(lp2606
S'wsgi'
p2607
asbag57
(g78
g59
NtRp2608
(dp2609
g62
(dp2610
g89
g90
ssg71
g2599
sg64
(lp2611
S':'
asbag57
(g78
g59
NtRp2612
(dp2613
g62
(dp2614
sg71
g2599
sg64
(lp2615
g57
(g58
g59
NtRp2616
(dp2617
g62
(dp2618
g70
I5
ssg71
g2612
sg64
(lp2619
g57
(g66
g59
NtRp2620
(dp2621
g62
(dp2622
g70
I4
ssg71
Nsg64
(lp2623
g57
(g73
g59
NtRp2624
(dp2625
g62
(dp2626
sg71
g2620
sg64
(lp2627
g57
(g78
g59
NtRp2628
(dp2629
g62
(dp2630
g82
g83
ssg71
g2624
sg64
(lp2631
S'environ'
p2632
asbag57
(g78
g59
NtRp2633
(dp2634
g62
(dp2635
g89
g90
ssg71
g2624
sg64
(lp2636
S':'
asbag57
(g78
g59
NtRp2637
(dp2638
g62
(dp2639
sg71
g2624
sg64
(lp2640
g57
(g58
g59
NtRp2641
(dp2642
g62
(dp2643
g70
I4
ssg71
g2637
sg64
(lp2644
g57
(g66
g59
NtRp2645
(dp2646
g62
(dp2647
g70
I3
ssg71
Nsg64
(lp2648
g57
(g73
g59
NtRp2649
(dp2650
g62
(dp2651
sg71
g2645
sg64
(lp2652
g57
(g78
g59
NtRp2653
(dp2654
g62
(dp2655
g82
g83
ssg71
g2649
sg64
(lp2656
S'HTTP_ACCEPT'
p2657
asbag57
(g78
g59
NtRp2658
(dp2659
g62
(dp2660
g89
g90
ssg71
g2649
sg64
(lp2661
S':'
asbag57
(g78
g59
NtRp2662
(dp2663
g62
(dp2664
sg71
g2649
sg64
(lp2665
g57
(g58
g59
NtRp2666
(dp2667
g62
(dp2668
g70
I3
ssg71
g2662
sg64
(lp2669
g1200
asbasbasbag57
(g73
g59
NtRp2670
(dp2671
g62
(dp2672
sg71
g2645
sg64
(lp2673
g57
(g78
g59
NtRp2674
(dp2675
g62
(dp2676
g82
g83
ssg71
g2670
sg64
(lp2677
S'HTTP_ACCEPT_CHARSET'
p2678
asbag57
(g78
g59
NtRp2679
(dp2680
g62
(dp2681
g89
g90
ssg71
g2670
sg64
(lp2682
S':'
asbag57
(g78
g59
NtRp2683
(dp2684
g62
(dp2685
sg71
g2670
sg64
(lp2686
g57
(g58
g59
NtRp2687
(dp2688
g62
(dp2689
g70
I3
ssg71
g2683
sg64
(lp2690
g1222
asbasbasbag57
(g73
g59
NtRp2691
(dp2692
g62
(dp2693
sg71
g2645
sg64
(lp2694
g57
(g78
g59
NtRp2695
(dp2696
g62
(dp2697
g82
g83
ssg71
g2691
sg64
(lp2698
S'HTTP_ACCEPT_ENCODING'
p2699
asbag57
(g78
g59
NtRp2700
(dp2701
g62
(dp2702
g89
g90
ssg71
g2691
sg64
(lp2703
S':'
asbag57
(g78
g59
NtRp2704
(dp2705
g62
(dp2706
sg71
g2691
sg64
(lp2707
g57
(g58
g59
NtRp2708
(dp2709
g62
(dp2710
g70
I3
ssg71
g2704
sg64
(lp2711
g1244
asbasbasbag57
(g73
g59
NtRp2712
(dp2713
g62
(dp2714
sg71
g2645
sg64
(lp2715
g57
(g78
g59
NtRp2716
(dp2717
g62
(dp2718
g82
g83
ssg71
g2712
sg64
(lp2719
S'HTTP_ACCEPT_LANGUAGE'
p2720
asbag57
(g78
g59
NtRp2721
(dp2722
g62
(dp2723
g89
g90
ssg71
g2712
sg64
(lp2724
S':'
asbag57
(g78
g59
NtRp2725
(dp2726
g62
(dp2727
sg71
g2712
sg64
(lp2728
g57
(g58
g59
NtRp2729
(dp2730
g62
(dp2731
g70
I3
ssg71
g2725
sg64
(lp2732
g1266
asbasbasbag57
(g73
g59
NtRp2733
(dp2734
g62
(dp2735
sg71
g2645
sg64
(lp2736
g57
(g78
g59
NtRp2737
(dp2738
g62
(dp2739
g82
g83
ssg71
g2733
sg64
(lp2740
S'HTTP_CACHE_CONTROL'
p2741
asbag57
(g78
g59
NtRp2742
(dp2743
g62
(dp2744
g89
g90
ssg71
g2733
sg64
(lp2745
S':'
asbag57
(g78
g59
NtRp2746
(dp2747
g62
(dp2748
sg71
g2733
sg64
(lp2749
g57
(g58
g59
NtRp2750
(dp2751
g62
(dp2752
g70
I3
ssg71
g2746
sg64
(lp2753
g1288
asbasbasbag57
(g73
g59
NtRp2754
(dp2755
g62
(dp2756
sg71
g2645
sg64
(lp2757
g57
(g78
g59
NtRp2758
(dp2759
g62
(dp2760
g82
g83
ssg71
g2754
sg64
(lp2761
S'HTTP_CONNECTION'
p2762
asbag57
(g78
g59
NtRp2763
(dp2764
g62
(dp2765
g89
g90
ssg71
g2754
sg64
(lp2766
S':'
asbag57
(g78
g59
NtRp2767
(dp2768
g62
(dp2769
sg71
g2754
sg64
(lp2770
g57
(g58
g59
NtRp2771
(dp2772
g62
(dp2773
g70
I3
ssg71
g2767
sg64
(lp2774
g1310
asbasbasbag57
(g73
g59
NtRp2775
(dp2776
g62
(dp2777
sg71
g2645
sg64
(lp2778
g57
(g78
g59
NtRp2779
(dp2780
g62
(dp2781
g82
g83
ssg71
g2775
sg64
(lp2782
S'HTTP_COOKIE'
p2783
asbag57
(g78
g59
NtRp2784
(dp2785
g62
(dp2786
g89
g90
ssg71
g2775
sg64
(lp2787
S':'
asbag57
(g78
g59
NtRp2788
(dp2789
g62
(dp2790
sg71
g2775
sg64
(lp2791
g57
(g58
g59
NtRp2792
(dp2793
g62
(dp2794
g70
I3
ssg71
g2788
sg64
(lp2795
g1332
asbasbasbag57
(g73
g59
NtRp2796
(dp2797
g62
(dp2798
sg71
g2645
sg64
(lp2799
g57
(g78
g59
NtRp2800
(dp2801
g62
(dp2802
g82
g83
ssg71
g2796
sg64
(lp2803
S'HTTP_HOST'
p2804
asbag57
(g78
g59
NtRp2805
(dp2806
g62
(dp2807
g89
g90
ssg71
g2796
sg64
(lp2808
S':'
asbag57
(g78
g59
NtRp2809
(dp2810
g62
(dp2811
sg71
g2796
sg64
(lp2812
g57
(g58
g59
NtRp2813
(dp2814
g62
(dp2815
g70
I3
ssg71
g2809
sg64
(lp2816
g1354
asbasbasbag57
(g73
g59
NtRp2817
(dp2818
g62
(dp2819
sg71
g2645
sg64
(lp2820
g57
(g78
g59
NtRp2821
(dp2822
g62
(dp2823
g82
g83
ssg71
g2817
sg64
(lp2824
S'HTTP_USER_AGENT'
p2825
asbag57
(g78
g59
NtRp2826
(dp2827
g62
(dp2828
g89
g90
ssg71
g2817
sg64
(lp2829
S':'
asbag57
(g78
g59
NtRp2830
(dp2831
g62
(dp2832
sg71
g2817
sg64
(lp2833
g57
(g58
g59
NtRp2834
(dp2835
g62
(dp2836
g70
I3
ssg71
g2830
sg64
(lp2837
g1376
asbasbasbag57
(g73
g59
NtRp2838
(dp2839
g62
(dp2840
sg71
g2645
sg64
(lp2841
g57
(g78
g59
NtRp2842
(dp2843
g62
(dp2844
g82
g83
ssg71
g2838
sg64
(lp2845
S'PATH_INFO'
p2846
asbag57
(g78
g59
NtRp2847
(dp2848
g62
(dp2849
g89
g90
ssg71
g2838
sg64
(lp2850
S':'
asbag57
(g78
g59
NtRp2851
(dp2852
g62
(dp2853
sg71
g2838
sg64
(lp2854
g57
(g58
g59
NtRp2855
(dp2856
g62
(dp2857
g70
I3
ssg71
g2851
sg64
(lp2858
g1440
asbasbasbag57
(g73
g59
NtRp2859
(dp2860
g62
(dp2861
sg71
g2645
sg64
(lp2862
g57
(g78
g59
NtRp2863
(dp2864
g62
(dp2865
g82
g83
ssg71
g2859
sg64
(lp2866
S'QUERY_STRING'
p2867
asbag57
(g78
g59
NtRp2868
(dp2869
g62
(dp2870
g89
g90
ssg71
g2859
sg64
(lp2871
S':'
asbag57
(g78
g59
NtRp2872
(dp2873
g62
(dp2874
sg71
g2859
sg64
(lp2875
g57
(g58
g59
NtRp2876
(dp2877
g62
(dp2878
g70
I3
ssg71
g2872
sg64
(lp2879
S''
asbasbasbag57
(g73
g59
NtRp2880
(dp2881
g62
(dp2882
sg71
g2645
sg64
(lp2883
g57
(g78
g59
NtRp2884
(dp2885
g62
(dp2886
g82
g83
ssg71
g2880
sg64
(lp2887
S'REMOTE_ADDR'
p2888
asbag57
(g78
g59
NtRp2889
(dp2890
g62
(dp2891
g89
g90
ssg71
g2880
sg64
(lp2892
S':'
asbag57
(g78
g59
NtRp2893
(dp2894
g62
(dp2895
sg71
g2880
sg64
(lp2896
g57
(g58
g59
NtRp2897
(dp2898
g62
(dp2899
g70
I3
ssg71
g2893
sg64
(lp2900
g202
asbasbasbag57
(g73
g59
NtRp2901
(dp2902
g62
(dp2903
sg71
g2645
sg64
(lp2904
g57
(g78
g59
NtRp2905
(dp2906
g62
(dp2907
g82
g83
ssg71
g2901
sg64
(lp2908
S'REMOTE_PORT'
p2909
asbag57
(g78
g59
NtRp2910
(dp2911
g62
(dp2912
g89
g90
ssg71
g2901
sg64
(lp2913
S':'
asbag57
(g78
g59
NtRp2914
(dp2915
g62
(dp2916
sg71
g2901
sg64
(lp2917
g57
(g58
g59
NtRp2918
(dp2919
g62
(dp2920
g70
I3
ssg71
g2914
sg64
(lp2921
g1504
asbasbasbag57
(g73
g59
NtRp2922
(dp2923
g62
(dp2924
sg71
g2645
sg64
(lp2925
g57
(g78
g59
NtRp2926
(dp2927
g62
(dp2928
g82
g83
ssg71
g2922
sg64
(lp2929
S'REQUEST_METHOD'
p2930
asbag57
(g78
g59
NtRp2931
(dp2932
g62
(dp2933
g89
g90
ssg71
g2922
sg64
(lp2934
S':'
asbag57
(g78
g59
NtRp2935
(dp2936
g62
(dp2937
sg71
g2922
sg64
(lp2938
g57
(g58
g59
NtRp2939
(dp2940
g62
(dp2941
g70
I3
ssg71
g2935
sg64
(lp2942
g1526
asbasbasbag57
(g73
g59
NtRp2943
(dp2944
g62
(dp2945
sg71
g2645
sg64
(lp2946
g57
(g78
g59
NtRp2947
(dp2948
g62
(dp2949
g82
g83
ssg71
g2943
sg64
(lp2950
S'SCRIPT_NAME'
p2951
asbag57
(g78
g59
NtRp2952
(dp2953
g62
(dp2954
g89
g90
ssg71
g2943
sg64
(lp2955
S':'
asbag57
(g78
g59
NtRp2956
(dp2957
g62
(dp2958
sg71
g2943
sg64
(lp2959
g57
(g58
g59
NtRp2960
(dp2961
g62
(dp2962
g70
I3
ssg71
g2956
sg64
(lp2963
S''
asbasbasbag57
(g73
g59
NtRp2964
(dp2965
g62
(dp2966
sg71
g2645
sg64
(lp2967
g57
(g78
g59
NtRp2968
(dp2969
g62
(dp2970
g82
g83
ssg71
g2964
sg64
(lp2971
S'SERVER_NAME'
p2972
asbag57
(g78
g59
NtRp2973
(dp2974
g62
(dp2975
g89
g90
ssg71
g2964
sg64
(lp2976
S':'
asbag57
(g78
g59
NtRp2977
(dp2978
g62
(dp2979
sg71
g2964
sg64
(lp2980
g57
(g58
g59
NtRp2981
(dp2982
g62
(dp2983
g70
I3
ssg71
g2977
sg64
(lp2984
g1569
asbasbasbag57
(g73
g59
NtRp2985
(dp2986
g62
(dp2987
sg71
g2645
sg64
(lp2988
g57
(g78
g59
NtRp2989
(dp2990
g62
(dp2991
g82
g83
ssg71
g2985
sg64
(lp2992
S'SERVER_PORT'
p2993
asbag57
(g78
g59
NtRp2994
(dp2995
g62
(dp2996
g89
g90
ssg71
g2985
sg64
(lp2997
S':'
asbag57
(g78
g59
NtRp2998
(dp2999
g62
(dp3000
sg71
g2985
sg64
(lp3001
g57
(g58
g59
NtRp3002
(dp3003
g62
(dp3004
g70
I3
ssg71
g2998
sg64
(lp3005
g1591
asbasbasbag57
(g73
g59
NtRp3006
(dp3007
g62
(dp3008
sg71
g2645
sg64
(lp3009
g57
(g78
g59
NtRp3010
(dp3011
g62
(dp3012
g82
g83
ssg71
g3006
sg64
(lp3013
S'SERVER_PROTOCOL'
p3014
asbag57
(g78
g59
NtRp3015
(dp3016
g62
(dp3017
g89
g90
ssg71
g3006
sg64
(lp3018
S':'
asbag57
(g78
g59
NtRp3019
(dp3020
g62
(dp3021
sg71
g3006
sg64
(lp3022
g57
(g58
g59
NtRp3023
(dp3024
g62
(dp3025
g70
I3
ssg71
g3019
sg64
(lp3026
g1613
asbasbasbag57
(g73
g59
NtRp3027
(dp3028
g62
(dp3029
sg71
g2645
sg64
(lp3030
g57
(g78
g59
NtRp3031
(dp3032
g62
(dp3033
g82
g83
ssg71
g3027
sg64
(lp3034
S'SERVER_SOFTWARE'
p3035
asbag57
(g78
g59
NtRp3036
(dp3037
g62
(dp3038
g89
g90
ssg71
g3027
sg64
(lp3039
S':'
asbag57
(g78
g59
NtRp3040
(dp3041
g62
(dp3042
sg71
g3027
sg64
(lp3043
g57
(g58
g59
NtRp3044
(dp3045
g62
(dp3046
g70
I3
ssg71
g3040
sg64
(lp3047
g1635
asbasbasbag57
(g73
g59
NtRp3048
(dp3049
g62
(dp3050
sg71
g2645
sg64
(lp3051
g57
(g78
g59
NtRp3052
(dp3053
g62
(dp3054
g82
g83
ssg71
g3048
sg64
(lp3055
S'wsgi.errors'
p3056
asbag57
(g78
g59
NtRp3057
(dp3058
g62
(dp3059
g89
g90
ssg71
g3048
sg64
(lp3060
S':'
asbag57
(g78
g59
NtRp3061
(dp3062
g62
(dp3063
sg71
g3048
sg64
(lp3064
g57
(g58
g59
NtRp3065
(dp3066
g62
(dp3067
g70
I3
ssg71
g3061
sg64
(lp3068
S"<open file '<stderr>', mode 'w' at 0x104484270>"
p3069
asbasbasbag57
(g73
g59
NtRp3070
(dp3071
g62
(dp3072
sg71
g2645
sg64
(lp3073
g57
(g78
g59
NtRp3074
(dp3075
g62
(dp3076
g82
g83
ssg71
g3070
sg64
(lp3077
S'wsgi.file_wrapper'
p3078
asbag57
(g78
g59
NtRp3079
(dp3080
g62
(dp3081
g89
g90
ssg71
g3070
sg64
(lp3082
S':'
asbag57
(g78
g59
NtRp3083
(dp3084
g62
(dp3085
sg71
g3070
sg64
(lp3086
g57
(g58
g59
NtRp3087
(dp3088
g62
(dp3089
g70
I3
ssg71
g3083
sg64
(lp3090
S'<class wsgiref.util.FileWrapper at 0x104ebdf58>'
p3091
asbasbasbag57
(g73
g59
NtRp3092
(dp3093
g62
(dp3094
sg71
g2645
sg64
(lp3095
g57
(g78
g59
NtRp3096
(dp3097
g62
(dp3098
g82
g83
ssg71
g3092
sg64
(lp3099
S'wsgi.input'
p3100
asbag57
(g78
g59
NtRp3101
(dp3102
g62
(dp3103
g89
g90
ssg71
g3092
sg64
(lp3104
S':'
asbag57
(g78
g59
NtRp3105
(dp3106
g62
(dp3107
sg71
g3092
sg64
(lp3108
g57
(g58
g59
NtRp3109
(dp3110
g62
(dp3111
g70
I3
ssg71
g3105
sg64
(lp3112
S'<cStringIO.StringO object at 0x109a41148>'
p3113
asbasbasbag57
(g73
g59
NtRp3114
(dp3115
g62
(dp3116
sg71
g2645
sg64
(lp3117
g57
(g78
g59
NtRp3118
(dp3119
g62
(dp3120
g82
g83
ssg71
g3114
sg64
(lp3121
S'wsgi.multiprocess'
p3122
asbag57
(g78
g59
NtRp3123
(dp3124
g62
(dp3125
g89
g90
ssg71
g3114
sg64
(lp3126
S':'
asbag57
(g78
g59
NtRp3127
(dp3128
g62
(dp3129
sg71
g3114
sg64
(lp3130
g57
(g58
g59
NtRp3131
(dp3132
g62
(dp3133
g70
I3
ssg71
g3127
sg64
(lp3134
g100
asbasbasbag57
(g73
g59
NtRp3135
(dp3136
g62
(dp3137
sg71
g2645
sg64
(lp3138
g57
(g78
g59
NtRp3139
(dp3140
g62
(dp3141
g82
g83
ssg71
g3135
sg64
(lp3142
S'wsgi.multithread'
p3143
asbag57
(g78
g59
NtRp3144
(dp3145
g62
(dp3146
g89
g90
ssg71
g3135
sg64
(lp3147
S':'
asbag57
(g78
g59
NtRp3148
(dp3149
g62
(dp3150
sg71
g3135
sg64
(lp3151
g57
(g58
g59
NtRp3152
(dp3153
g62
(dp3154
g70
I3
ssg71
g3148
sg64
(lp3155
g1875
asbasbasbag57
(g73
g59
NtRp3156
(dp3157
g62
(dp3158
sg71
g2645
sg64
(lp3159
g57
(g78
g59
NtRp3160
(dp3161
g62
(dp3162
g82
g83
ssg71
g3156
sg64
(lp3163
S'wsgi.run_once'
p3164
asbag57
(g78
g59
NtRp3165
(dp3166
g62
(dp3167
g89
g90
ssg71
g3156
sg64
(lp3168
S':'
asbag57
(g78
g59
NtRp3169
(dp3170
g62
(dp3171
sg71
g3156
sg64
(lp3172
g57
(g58
g59
NtRp3173
(dp3174
g62
(dp3175
g70
I3
ssg71
g3169
sg64
(lp3176
g100
asbasbasbag57
(g73
g59
NtRp3177
(dp3178
g62
(dp3179
sg71
g2645
sg64
(lp3180
g57
(g78
g59
NtRp3181
(dp3182
g62
(dp3183
g82
g83
ssg71
g3177
sg64
(lp3184
S'wsgi.url_scheme'
p3185
asbag57
(g78
g59
NtRp3186
(dp3187
g62
(dp3188
g89
g90
ssg71
g3177
sg64
(lp3189
S':'
asbag57
(g78
g59
NtRp3190
(dp3191
g62
(dp3192
sg71
g3177
sg64
(lp3193
g57
(g58
g59
NtRp3194
(dp3195
g62
(dp3196
g70
I3
ssg71
g3190
sg64
(lp3197
g1918
asbasbasbag57
(g73
g59
NtRp3198
(dp3199
g62
(dp3200
sg71
g2645
sg64
(lp3201
g57
(g78
g59
NtRp3202
(dp3203
g62
(dp3204
g82
g83
ssg71
g3198
sg64
(lp3205
S'wsgi.version'
p3206
asbag57
(g78
g59
NtRp3207
(dp3208
g62
(dp3209
g89
g90
ssg71
g3198
sg64
(lp3210
S':'
asbag57
(g78
g59
NtRp3211
(dp3212
g62
(dp3213
sg71
g3198
sg64
(lp3214
g57
(g58
g59
NtRp3215
(dp3216
g62
(dp3217
g70
I3
ssg71
g3211
sg64
(lp3218
S'1'
asbasbasbasbasbasbasbasbasbasbasbasbasbsS'frames'
p3219
(lp3220
(dp3221
S'file'
p3222
S'/Users/ianaboneva/Dropbox/DePaul/CSC 438 - Web Applications/web2py/gluon/restricted.py'
p3223
sS'dump'
p3224
(dp3225
S'environment'
p3226
S"{'A': <class 'gluon.html.A'>, 'Auth': <class 'gluon.tools.Auth'>, 'B': <class 'gluon.html.B'>, 'BEAUTIFY': <class 'gluon.html.BEAUTIFY'>, 'BODY': <class 'gluon.html.BODY'>, 'BR': <class 'gluon.html.BR'>, 'BUTTON': <class 'gluon.html.BUTTON'>, 'CAT': <class 'gluon.html.CAT'>, 'CENTER': <class 'gluon.html.CENTER'>, 'CLEANUP': <class 'gluon.validators.CLEANUP'>, ...}"
p3227
sS'ccode'
p3228
S'<code object <module> at 0x1099f60b0, file "/Use...helf_copy/views/default/book_shelf.html", line 1>'
p3229
ssS'lnum'
p3230
I205
sS'lines'
p3231
(dp3232
I200
S'    try:'
p3233
sI201
S'        if type(code) == types.CodeType:'
p3234
sI202
S'            ccode = code'
p3235
sI203
S'        else:'
p3236
sI204
S'            ccode = compile2(code,layer)'
p3237
sI205
S'        exec ccode in environment'
p3238
sI206
S'    except HTTP:'
p3239
sI207
S'        raise'
p3240
sI208
S'    except RestrictedError:'
p3241
sI209
S'        # do not encapsulate (obfuscate) the original RestrictedError'
p3242
ssS'call'
p3243
S'(code=\'response.write(\\\'<!DOCTYPE html PUBLIC "-//W3C//D...- end #wrap -->\\\\n</body>\\\\n</html>\\\', escape=False)\', environment={\'A\': <class \'gluon.html.A\'>, \'Auth\': <class \'gluon.tools.Auth\'>, \'B\': <class \'gluon.html.B\'>, \'BEAUTIFY\': <class \'gluon.html.BEAUTIFY\'>, \'BODY\': <class \'gluon.html.BODY\'>, \'BR\': <class \'gluon.html.BR\'>, \'BUTTON\': <class \'gluon.html.BUTTON\'>, \'CAT\': <class \'gluon.html.CAT\'>, \'CENTER\': <class \'gluon.html.CENTER\'>, \'CLEANUP\': <class \'gluon.validators.CLEANUP\'>, ...}, layer=\'/Users/ianaboneva/Dropbox/DePaul/CSC 438 - Web A...ons/Book_Shelf_copy/views/default/book_shelf.html\')'
p3244
sS'func'
p3245
S'restricted'
p3246
sa(dp3247
g3222
S'/Users/ianaboneva/Dropbox/DePaul/CSC 438 - Web Applications/web2py/applications/Book_Shelf_copy/views/default/book_shelf.html'
p3248
sg3224
(dp3249
sg3230
I32
sg3231
(dp3250
I32
S'response.write(form)'
p3251
sI33
S"response.write('\\n\\n', escape=False)"
p3252
sI34
S'if len(books):'
p3253
sI35
S"    response.write('\\n    ', escape=False)"
p3254
sI36
S'    for book in books:'
p3255
sI37
S"        response.write('\\n        <p>', escape=False)"
p3256
sI38
S'        response.write(book.id)'
p3257
sI39
S"        response.write('</p>\\n    ', escape=False)"
p3258
sI40
S'        pass'
p3259
sI41
S"    response.write('\\n', escape=False)"
p3260
sI42
S'else:'
p3261
sI23
S'response.write(MENU(response.menu))'
p3262
sI24
S'response.write(\'\\n\\t\\t\\t<div id="navbar">\', escape=False)'
p3263
sI25
S"response.write('auth' in globals() and auth.navbar(separators=(' ',' | ','')))"
p3264
sI26
S'response.write(\'</div>\\n        </div>     \\n          <!-- end #menu -->  \\n        </div> \\n\\t\\t<!-- end #header -->\\n\\t   <div class="flash">\', escape=False)'
p3265
sI27
S"response.write(response.flash or '')"
p3266
sI28
S'response.write(\'</div>\\n       <div class="center_content">\\n\\t\\t\\t\', escape=False)'
p3267
sI29
S"response.write('\\n\\n<h1>', escape=False)"
p3268
sI30
S'response.write(shelf.Shelf_Name)'
p3269
sI31
S"response.write('</h1>\\n', escape=False)"
p3270
ssg3243
S'()'
p3271
sg3245
S'<module>'
p3272
sasS'pyver'
p3273
S'Python 2.7.1: /usr/bin/python'
p3274
sS'session'
p3275
g57
(g58
g59
NtRp3276
(dp3277
g62
(dp3278
sg64
(lp3279
g57
(g66
g59
NtRp3280
(dp3281
g62
(dp3282
g70
I5
ssg71
Nsg64
(lp3283
g57
(g73
g59
NtRp3284
(dp3285
g62
(dp3286
sg71
g3280
sg64
(lp3287
g57
(g78
g59
NtRp3288
(dp3289
g62
(dp3290
g82
g83
ssg71
g3284
sg64
(lp3291
S'auth'
p3292
asbag57
(g78
g59
NtRp3293
(dp3294
g62
(dp3295
g89
g90
ssg71
g3284
sg64
(lp3296
S':'
asbag57
(g78
g59
NtRp3297
(dp3298
g62
(dp3299
sg71
g3284
sg64
(lp3300
g57
(g58
g59
NtRp3301
(dp3302
g62
(dp3303
g70
I5
ssg71
g3297
sg64
(lp3304
g57
(g66
g59
NtRp3305
(dp3306
g62
(dp3307
g70
I4
ssg71
Nsg64
(lp3308
g57
(g73
g59
NtRp3309
(dp3310
g62
(dp3311
sg71
g3305
sg64
(lp3312
g57
(g78
g59
NtRp3313
(dp3314
g62
(dp3315
g82
g83
ssg71
g3309
sg64
(lp3316
S'expiration'
p3317
asbag57
(g78
g59
NtRp3318
(dp3319
g62
(dp3320
g89
g90
ssg71
g3309
sg64
(lp3321
S':'
asbag57
(g78
g59
NtRp3322
(dp3323
g62
(dp3324
sg71
g3309
sg64
(lp3325
g57
(g58
g59
NtRp3326
(dp3327
g62
(dp3328
g70
I4
ssg71
g3322
sg64
(lp3329
S'3600'
p3330
asbasbasbag57
(g73
g59
NtRp3331
(dp3332
g62
(dp3333
sg71
g3305
sg64
(lp3334
g57
(g78
g59
NtRp3335
(dp3336
g62
(dp3337
g82
g83
ssg71
g3331
sg64
(lp3338
S'hmac_key'
p3339
asbag57
(g78
g59
NtRp3340
(dp3341
g62
(dp3342
g89
g90
ssg71
g3331
sg64
(lp3343
S':'
asbag57
(g78
g59
NtRp3344
(dp3345
g62
(dp3346
sg71
g3331
sg64
(lp3347
g57
(g58
g59
NtRp3348
(dp3349
g62
(dp3350
g70
I4
ssg71
g3344
sg64
(lp3351
S'6d65ccff-e9f9-4a04-a10d-f39c9767a83a'
p3352
asbasbasbag57
(g73
g59
NtRp3353
(dp3354
g62
(dp3355
sg71
g3305
sg64
(lp3356
g57
(g78
g59
NtRp3357
(dp3358
g62
(dp3359
g82
g83
ssg71
g3353
sg64
(lp3360
S'last_visit'
p3361
asbag57
(g78
g59
NtRp3362
(dp3363
g62
(dp3364
g89
g90
ssg71
g3353
sg64
(lp3365
S':'
asbag57
(g78
g59
NtRp3366
(dp3367
g62
(dp3368
sg71
g3353
sg64
(lp3369
g57
(g58
g59
NtRp3370
(dp3371
g62
(dp3372
g70
I4
ssg71
g3366
sg64
(lp3373
S'datetime.datetime(2012, 6, 3, 18, 59, 38, 408152)'
p3374
asbasbasbag57
(g73
g59
NtRp3375
(dp3376
g62
(dp3377
sg71
g3305
sg64
(lp3378
g57
(g78
g59
NtRp3379
(dp3380
g62
(dp3381
g82
g83
ssg71
g3375
sg64
(lp3382
S'remember'
p3383
asbag57
(g78
g59
NtRp3384
(dp3385
g62
(dp3386
g89
g90
ssg71
g3375
sg64
(lp3387
S':'
asbag57
(g78
g59
NtRp3388
(dp3389
g62
(dp3390
sg71
g3375
sg64
(lp3391
g57
(g58
g59
NtRp3392
(dp3393
g62
(dp3394
g70
I4
ssg71
g3388
sg64
(lp3395
g100
asbasbasbag57
(g73
g59
NtRp3396
(dp3397
g62
(dp3398
sg71
g3305
sg64
(lp3399
g57
(g78
g59
NtRp3400
(dp3401
g62
(dp3402
g82
g83
ssg71
g3396
sg64
(lp3403
S'user'
p3404
asbag57
(g78
g59
NtRp3405
(dp3406
g62
(dp3407
g89
g90
ssg71
g3396
sg64
(lp3408
S':'
asbag57
(g78
g59
NtRp3409
(dp3410
g62
(dp3411
sg71
g3396
sg64
(lp3412
g57
(g58
g59
NtRp3413
(dp3414
g62
(dp3415
g70
I4
ssg71
g3409
sg64
(lp3416
g57
(g66
g59
NtRp3417
(dp3418
g62
(dp3419
g70
I3
ssg71
Nsg64
(lp3420
g57
(g73
g59
NtRp3421
(dp3422
g62
(dp3423
sg71
g3417
sg64
(lp3424
g57
(g78
g59
NtRp3425
(dp3426
g62
(dp3427
g82
g83
ssg71
g3421
sg64
(lp3428
S'email'
p3429
asbag57
(g78
g59
NtRp3430
(dp3431
g62
(dp3432
g89
g90
ssg71
g3421
sg64
(lp3433
S':'
asbag57
(g78
g59
NtRp3434
(dp3435
g62
(dp3436
sg71
g3421
sg64
(lp3437
g57
(g58
g59
NtRp3438
(dp3439
g62
(dp3440
g70
I3
ssg71
g3434
sg64
(lp3441
S'haha@haha.com'
p3442
asbasbasbag57
(g73
g59
NtRp3443
(dp3444
g62
(dp3445
sg71
g3417
sg64
(lp3446
g57
(g78
g59
NtRp3447
(dp3448
g62
(dp3449
g82
g83
ssg71
g3443
sg64
(lp3450
S'first_name'
p3451
asbag57
(g78
g59
NtRp3452
(dp3453
g62
(dp3454
g89
g90
ssg71
g3443
sg64
(lp3455
S':'
asbag57
(g78
g59
NtRp3456
(dp3457
g62
(dp3458
sg71
g3443
sg64
(lp3459
g57
(g58
g59
NtRp3460
(dp3461
g62
(dp3462
g70
I3
ssg71
g3456
sg64
(lp3463
S'Iana'
p3464
asbasbasbag57
(g73
g59
NtRp3465
(dp3466
g62
(dp3467
sg71
g3417
sg64
(lp3468
g57
(g78
g59
NtRp3469
(dp3470
g62
(dp3471
g82
g83
ssg71
g3465
sg64
(lp3472
S'id'
p3473
asbag57
(g78
g59
NtRp3474
(dp3475
g62
(dp3476
g89
g90
ssg71
g3465
sg64
(lp3477
S':'
asbag57
(g78
g59
NtRp3478
(dp3479
g62
(dp3480
sg71
g3465
sg64
(lp3481
g57
(g58
g59
NtRp3482
(dp3483
g62
(dp3484
g70
I3
ssg71
g3478
sg64
(lp3485
S'2'
asbasbasbag57
(g73
g59
NtRp3486
(dp3487
g62
(dp3488
sg71
g3417
sg64
(lp3489
g57
(g78
g59
NtRp3490
(dp3491
g62
(dp3492
g82
g83
ssg71
g3486
sg64
(lp3493
S'last_name'
p3494
asbag57
(g78
g59
NtRp3495
(dp3496
g62
(dp3497
g89
g90
ssg71
g3486
sg64
(lp3498
S':'
asbag57
(g78
g59
NtRp3499
(dp3500
g62
(dp3501
sg71
g3486
sg64
(lp3502
g57
(g58
g59
NtRp3503
(dp3504
g62
(dp3505
g70
I3
ssg71
g3499
sg64
(lp3506
S'Boneva'
p3507
asbasbasbag57
(g73
g59
NtRp3508
(dp3509
g62
(dp3510
sg71
g3417
sg64
(lp3511
g57
(g78
g59
NtRp3512
(dp3513
g62
(dp3514
g82
g83
ssg71
g3508
sg64
(lp3515
S'password'
p3516
asbag57
(g78
g59
NtRp3517
(dp3518
g62
(dp3519
g89
g90
ssg71
g3508
sg64
(lp3520
S':'
asbag57
(g78
g59
NtRp3521
(dp3522
g62
(dp3523
sg71
g3508
sg64
(lp3524
g57
(g58
g59
NtRp3525
(dp3526
g62
(dp3527
g70
I3
ssg71
g3521
sg64
(lp3528
S'be570e8e7b9bbc17c5aecccf653fd3d3'
p3529
asbasbasbag57
(g73
g59
NtRp3530
(dp3531
g62
(dp3532
sg71
g3417
sg64
(lp3533
g57
(g78
g59
NtRp3534
(dp3535
g62
(dp3536
g82
g83
ssg71
g3530
sg64
(lp3537
S'registration_id'
p3538
asbag57
(g78
g59
NtRp3539
(dp3540
g62
(dp3541
g89
g90
ssg71
g3530
sg64
(lp3542
S':'
asbag57
(g78
g59
NtRp3543
(dp3544
g62
(dp3545
sg71
g3530
sg64
(lp3546
g57
(g58
g59
NtRp3547
(dp3548
g62
(dp3549
g70
I3
ssg71
g3543
sg64
(lp3550
S''
asbasbasbag57
(g73
g59
NtRp3551
(dp3552
g62
(dp3553
sg71
g3417
sg64
(lp3554
g57
(g78
g59
NtRp3555
(dp3556
g62
(dp3557
g82
g83
ssg71
g3551
sg64
(lp3558
S'registration_key'
p3559
asbag57
(g78
g59
NtRp3560
(dp3561
g62
(dp3562
g89
g90
ssg71
g3551
sg64
(lp3563
S':'
asbag57
(g78
g59
NtRp3564
(dp3565
g62
(dp3566
sg71
g3551
sg64
(lp3567
g57
(g58
g59
NtRp3568
(dp3569
g62
(dp3570
g70
I3
ssg71
g3564
sg64
(lp3571
S''
asbasbasbag57
(g73
g59
NtRp3572
(dp3573
g62
(dp3574
sg71
g3417
sg64
(lp3575
g57
(g78
g59
NtRp3576
(dp3577
g62
(dp3578
g82
g83
ssg71
g3572
sg64
(lp3579
S'reset_password_key'
p3580
asbag57
(g78
g59
NtRp3581
(dp3582
g62
(dp3583
g89
g90
ssg71
g3572
sg64
(lp3584
S':'
asbag57
(g78
g59
NtRp3585
(dp3586
g62
(dp3587
sg71
g3572
sg64
(lp3588
g57
(g58
g59
NtRp3589
(dp3590
g62
(dp3591
g70
I3
ssg71
g3585
sg64
(lp3592
S''
asbasbasbasbasbasbasbag57
(g73
g59
NtRp3593
(dp3594
g62
(dp3595
sg71
g3305
sg64
(lp3596
g57
(g78
g59
NtRp3597
(dp3598
g62
(dp3599
g82
g83
ssg71
g3593
sg64
(lp3600
S'user_groups'
p3601
asbag57
(g78
g59
NtRp3602
(dp3603
g62
(dp3604
g89
g90
ssg71
g3593
sg64
(lp3605
S':'
asbag57
(g78
g59
NtRp3606
(dp3607
g62
(dp3608
sg71
g3593
sg64
(lp3609
g57
(g58
g59
NtRp3610
(dp3611
g62
(dp3612
g70
I4
ssg71
g3606
sg64
(lp3613
g57
(g66
g59
NtRp3614
(dp3615
g62
(dp3616
g70
I3
ssg71
Nsg64
(lp3617
g57
(g73
g59
NtRp3618
(dp3619
g62
(dp3620
sg71
g3614
sg64
(lp3621
g57
(g78
g59
NtRp3622
(dp3623
g62
(dp3624
g82
g83
ssg71
g3618
sg64
(lp3625
S'2'
asbag57
(g78
g59
NtRp3626
(dp3627
g62
(dp3628
g89
g90
ssg71
g3618
sg64
(lp3629
S':'
asbag57
(g78
g59
NtRp3630
(dp3631
g62
(dp3632
sg71
g3618
sg64
(lp3633
g57
(g58
g59
NtRp3634
(dp3635
g62
(dp3636
g70
I3
ssg71
g3630
sg64
(lp3637
S'user_2'
p3638
asbasbasbasbasbasbasbasbasbasbasbag57
(g73
g59
NtRp3639
(dp3640
g62
(dp3641
sg71
g3280
sg64
(lp3642
g57
(g78
g59
NtRp3643
(dp3644
g62
(dp3645
g82
g83
ssg71
g3639
sg64
(lp3646
S'last_query'
p3647
asbag57
(g78
g59
NtRp3648
(dp3649
g62
(dp3650
g89
g90
ssg71
g3639
sg64
(lp3651
S':'
asbag57
(g78
g59
NtRp3652
(dp3653
g62
(dp3654
sg71
g3639
sg64
(lp3655
g57
(g58
g59
NtRp3656
(dp3657
g62
(dp3658
g70
I5
ssg71
g3652
sg64
(lp3659
S'db.Book_Shelf_Items.id>0'
p3660
asbasbasbasbasbsS'etype'
p3661
S"<type 'exceptions.NameError'>"
p3662
sS'date'
p3663
S'Sun Jun  3 19:00:59 2012'
p3664
sS'response'
p3665
g57
(g58
g59
NtRp3666
(dp3667
g62
(dp3668
sg64
(lp3669
g57
(g66
g59
NtRp3670
(dp3671
g62
(dp3672
g70
I5
ssg71
Nsg64
(lp3673
g57
(g73
g59
NtRp3674
(dp3675
g62
(dp3676
sg71
g3670
sg64
(lp3677
g57
(g78
g59
NtRp3678
(dp3679
g62
(dp3680
g82
g83
ssg71
g3674
sg64
(lp3681
g167
asbag57
(g78
g59
NtRp3682
(dp3683
g62
(dp3684
g89
g90
ssg71
g3674
sg64
(lp3685
S':'
asbag57
(g78
g59
NtRp3686
(dp3687
g62
(dp3688
sg71
g3674
sg64
(lp3689
g57
(g58
g59
NtRp3690
(dp3691
g62
(dp3692
g70
I5
ssg71
g3686
sg64
(lp3693
S'<cStringIO.StringO object at 0x1098f85a8>'
p3694
asbasbasbag57
(g73
g59
NtRp3695
(dp3696
g62
(dp3697
sg71
g3670
sg64
(lp3698
g57
(g78
g59
NtRp3699
(dp3700
g62
(dp3701
g82
g83
ssg71
g3695
sg64
(lp3702
g233
asbag57
(g78
g59
NtRp3703
(dp3704
g62
(dp3705
g89
g90
ssg71
g3695
sg64
(lp3706
S':'
asbag57
(g78
g59
NtRp3707
(dp3708
g62
(dp3709
sg71
g3695
sg64
(lp3710
g57
(g58
g59
NtRp3711
(dp3712
g62
(dp3713
g70
I5
ssg71
g3707
sg64
(lp3714
g57
(g66
g59
NtRp3715
(dp3716
g62
(dp3717
g70
I4
ssg71
Nsg64
(lp3718
g57
(g73
g59
NtRp3719
(dp3720
g62
(dp3721
sg71
g3715
sg64
(lp3722
g57
(g78
g59
NtRp3723
(dp3724
g62
(dp3725
g82
g83
ssg71
g3719
sg64
(lp3726
S'session_id_book_shelf_copy'
p3727
asbag57
(g78
g59
NtRp3728
(dp3729
g62
(dp3730
g89
g90
ssg71
g3719
sg64
(lp3731
S':'
asbag57
(g78
g59
NtRp3732
(dp3733
g62
(dp3734
sg71
g3719
sg64
(lp3735
g57
(g58
g59
NtRp3736
(dp3737
g62
(dp3738
g70
I4
ssg71
g3732
sg64
(lp3739
g57
(g66
g59
NtRp3740
(dp3741
g62
(dp3742
g70
I3
ssg71
Nsg64
(lp3743
g57
(g73
g59
NtRp3744
(dp3745
g62
(dp3746
sg71
g3740
sg64
(lp3747
g57
(g78
g59
NtRp3748
(dp3749
g62
(dp3750
g82
g83
ssg71
g3744
sg64
(lp3751
g283
asbag57
(g78
g59
NtRp3752
(dp3753
g62
(dp3754
g89
g90
ssg71
g3744
sg64
(lp3755
S':'
asbag57
(g78
g59
NtRp3756
(dp3757
g62
(dp3758
sg71
g3744
sg64
(lp3759
g57
(g58
g59
NtRp3760
(dp3761
g62
(dp3762
g70
I3
ssg71
g3756
sg64
(lp3763
S''
asbasbasbag57
(g73
g59
NtRp3764
(dp3765
g62
(dp3766
sg71
g3740
sg64
(lp3767
g57
(g78
g59
NtRp3768
(dp3769
g62
(dp3770
g82
g83
ssg71
g3764
sg64
(lp3771
g304
asbag57
(g78
g59
NtRp3772
(dp3773
g62
(dp3774
g89
g90
ssg71
g3764
sg64
(lp3775
S':'
asbag57
(g78
g59
NtRp3776
(dp3777
g62
(dp3778
sg71
g3764
sg64
(lp3779
g57
(g58
g59
NtRp3780
(dp3781
g62
(dp3782
g70
I3
ssg71
g3776
sg64
(lp3783
S''
asbasbasbag57
(g73
g59
NtRp3784
(dp3785
g62
(dp3786
sg71
g3740
sg64
(lp3787
g57
(g78
g59
NtRp3788
(dp3789
g62
(dp3790
g82
g83
ssg71
g3784
sg64
(lp3791
g325
asbag57
(g78
g59
NtRp3792
(dp3793
g62
(dp3794
g89
g90
ssg71
g3784
sg64
(lp3795
S':'
asbag57
(g78
g59
NtRp3796
(dp3797
g62
(dp3798
sg71
g3784
sg64
(lp3799
g57
(g58
g59
NtRp3800
(dp3801
g62
(dp3802
g70
I3
ssg71
g3796
sg64
(lp3803
S''
asbasbasbag57
(g73
g59
NtRp3804
(dp3805
g62
(dp3806
sg71
g3740
sg64
(lp3807
g57
(g78
g59
NtRp3808
(dp3809
g62
(dp3810
g82
g83
ssg71
g3804
sg64
(lp3811
g346
asbag57
(g78
g59
NtRp3812
(dp3813
g62
(dp3814
g89
g90
ssg71
g3804
sg64
(lp3815
S':'
asbag57
(g78
g59
NtRp3816
(dp3817
g62
(dp3818
sg71
g3804
sg64
(lp3819
g57
(g58
g59
NtRp3820
(dp3821
g62
(dp3822
g70
I3
ssg71
g3816
sg64
(lp3823
S''
asbasbasbag57
(g73
g59
NtRp3824
(dp3825
g62
(dp3826
sg71
g3740
sg64
(lp3827
g57
(g78
g59
NtRp3828
(dp3829
g62
(dp3830
g82
g83
ssg71
g3824
sg64
(lp3831
g367
asbag57
(g78
g59
NtRp3832
(dp3833
g62
(dp3834
g89
g90
ssg71
g3824
sg64
(lp3835
S':'
asbag57
(g78
g59
NtRp3836
(dp3837
g62
(dp3838
sg71
g3824
sg64
(lp3839
g57
(g58
g59
NtRp3840
(dp3841
g62
(dp3842
g70
I3
ssg71
g3836
sg64
(lp3843
S''
asbasbasbag57
(g73
g59
NtRp3844
(dp3845
g62
(dp3846
sg71
g3740
sg64
(lp3847
g57
(g78
g59
NtRp3848
(dp3849
g62
(dp3850
g82
g83
ssg71
g3844
sg64
(lp3851
g388
asbag57
(g78
g59
NtRp3852
(dp3853
g62
(dp3854
g89
g90
ssg71
g3844
sg64
(lp3855
S':'
asbag57
(g78
g59
NtRp3856
(dp3857
g62
(dp3858
sg71
g3844
sg64
(lp3859
g57
(g58
g59
NtRp3860
(dp3861
g62
(dp3862
g70
I3
ssg71
g3856
sg64
(lp3863
S'/'
asbasbasbag57
(g73
g59
NtRp3864
(dp3865
g62
(dp3866
sg71
g3740
sg64
(lp3867
g57
(g78
g59
NtRp3868
(dp3869
g62
(dp3870
g82
g83
ssg71
g3864
sg64
(lp3871
g409
asbag57
(g78
g59
NtRp3872
(dp3873
g62
(dp3874
g89
g90
ssg71
g3864
sg64
(lp3875
S':'
asbag57
(g78
g59
NtRp3876
(dp3877
g62
(dp3878
sg71
g3864
sg64
(lp3879
g57
(g58
g59
NtRp3880
(dp3881
g62
(dp3882
g70
I3
ssg71
g3876
sg64
(lp3883
S''
asbasbasbag57
(g73
g59
NtRp3884
(dp3885
g62
(dp3886
sg71
g3740
sg64
(lp3887
g57
(g78
g59
NtRp3888
(dp3889
g62
(dp3890
g82
g83
ssg71
g3884
sg64
(lp3891
g430
asbag57
(g78
g59
NtRp3892
(dp3893
g62
(dp3894
g89
g90
ssg71
g3884
sg64
(lp3895
S':'
asbag57
(g78
g59
NtRp3896
(dp3897
g62
(dp3898
sg71
g3884
sg64
(lp3899
g57
(g58
g59
NtRp3900
(dp3901
g62
(dp3902
g70
I3
ssg71
g3896
sg64
(lp3903
S''
asbasbasbasbasbasbasbasbasbasbasbag57
(g73
g59
NtRp3904
(dp3905
g62
(dp3906
sg71
g3670
sg64
(lp3907
g57
(g78
g59
NtRp3908
(dp3909
g62
(dp3910
g82
g83
ssg71
g3904
sg64
(lp3911
S'delimiters'
p3912
asbag57
(g78
g59
NtRp3913
(dp3914
g62
(dp3915
g89
g90
ssg71
g3904
sg64
(lp3916
S':'
asbag57
(g78
g59
NtRp3917
(dp3918
g62
(dp3919
sg71
g3904
sg64
(lp3920
g57
(g58
g59
NtRp3921
(dp3922
g62
(dp3923
g70
I5
ssg71
g3917
sg64
(lp3924
g57
(g66
g59
NtRp3925
(dp3926
g62
(dp3927
g70
I4
ssg71
Nsg64
(lp3928
g57
(g73
g59
NtRp3929
(dp3930
g62
(dp3931
sg71
g3925
sg64
(lp3932
g57
(g78
g59
NtRp3933
(dp3934
g62
(dp3935
sg71
g3929
sg64
(lp3936
g57
(g58
g59
NtRp3937
(dp3938
g62
(dp3939
g70
I4
ssg71
g3933
sg64
(lp3940
S'{{'
p3941
asbasbasbag57
(g73
g59
NtRp3942
(dp3943
g62
(dp3944
sg71
g3925
sg64
(lp3945
g57
(g78
g59
NtRp3946
(dp3947
g62
(dp3948
sg71
g3942
sg64
(lp3949
g57
(g58
g59
NtRp3950
(dp3951
g62
(dp3952
g70
I4
ssg71
g3946
sg64
(lp3953
S'}}'
p3954
asbasbasbasbasbasbasbag57
(g73
g59
NtRp3955
(dp3956
g62
(dp3957
sg71
g3670
sg64
(lp3958
g57
(g78
g59
NtRp3959
(dp3960
g62
(dp3961
g82
g83
ssg71
g3955
sg64
(lp3962
S'files'
p3963
asbag57
(g78
g59
NtRp3964
(dp3965
g62
(dp3966
g89
g90
ssg71
g3955
sg64
(lp3967
S':'
asbag57
(g78
g59
NtRp3968
(dp3969
g62
(dp3970
sg71
g3955
sg64
(lp3971
g57
(g58
g59
NtRp3972
(dp3973
g62
(dp3974
g70
I5
ssg71
g3968
sg64
(lp3975
g57
(g66
g59
NtRp3976
(dp3977
g62
(dp3978
g70
I4
ssg71
Nsg64
(lp3979
g57
(g73
g59
NtRp3980
(dp3981
g62
(dp3982
sg71
g3976
sg64
(lp3983
g57
(g78
g59
NtRp3984
(dp3985
g62
(dp3986
sg71
g3980
sg64
(lp3987
g57
(g58
g59
NtRp3988
(dp3989
g62
(dp3990
g70
I4
ssg71
g3984
sg64
(lp3991
S'/Book_Shelf_copy/static/js/jquery.js'
p3992
asbasbasbag57
(g73
g59
NtRp3993
(dp3994
g62
(dp3995
sg71
g3976
sg64
(lp3996
g57
(g78
g59
NtRp3997
(dp3998
g62
(dp3999
sg71
g3993
sg64
(lp4000
g57
(g58
g59
NtRp4001
(dp4002
g62
(dp4003
g70
I4
ssg71
g3997
sg64
(lp4004
S'/Book_Shelf_copy/static/css/calendar.css'
p4005
asbasbasbag57
(g73
g59
NtRp4006
(dp4007
g62
(dp4008
sg71
g3976
sg64
(lp4009
g57
(g78
g59
NtRp4010
(dp4011
g62
(dp4012
sg71
g4006
sg64
(lp4013
g57
(g58
g59
NtRp4014
(dp4015
g62
(dp4016
g70
I4
ssg71
g4010
sg64
(lp4017
S'/Book_Shelf_copy/static/js/calendar.js'
p4018
asbasbasbag57
(g73
g59
NtRp4019
(dp4020
g62
(dp4021
sg71
g3976
sg64
(lp4022
g57
(g78
g59
NtRp4023
(dp4024
g62
(dp4025
sg71
g4019
sg64
(lp4026
g57
(g58
g59
NtRp4027
(dp4028
g62
(dp4029
g70
I4
ssg71
g4023
sg64
(lp4030
S'/Book_Shelf_copy/static/js/web2py.js'
p4031
asbasbasbasbasbasbasbag57
(g73
g59
NtRp4032
(dp4033
g62
(dp4034
sg71
g3670
sg64
(lp4035
g57
(g78
g59
NtRp4036
(dp4037
g62
(dp4038
g82
g83
ssg71
g4032
sg64
(lp4039
S'flash'
p4040
asbag57
(g78
g59
NtRp4041
(dp4042
g62
(dp4043
g89
g90
ssg71
g4032
sg64
(lp4044
S':'
asbag57
(g78
g59
NtRp4045
(dp4046
g62
(dp4047
sg71
g4032
sg64
(lp4048
g57
(g58
g59
NtRp4049
(dp4050
g62
(dp4051
g70
I5
ssg71
g4045
sg64
(lp4052
S''
asbasbasbag57
(g73
g59
NtRp4053
(dp4054
g62
(dp4055
sg71
g3670
sg64
(lp4056
g57
(g78
g59
NtRp4057
(dp4058
g62
(dp4059
g82
g83
ssg71
g4053
sg64
(lp4060
S'generic_patterns'
p4061
asbag57
(g78
g59
NtRp4062
(dp4063
g62
(dp4064
g89
g90
ssg71
g4053
sg64
(lp4065
S':'
asbag57
(g78
g59
NtRp4066
(dp4067
g62
(dp4068
sg71
g4053
sg64
(lp4069
g57
(g58
g59
NtRp4070
(dp4071
g62
(dp4072
g70
I5
ssg71
g4066
sg64
(lp4073
g57
(g66
g59
NtRp4074
(dp4075
g62
(dp4076
g70
I4
ssg71
Nsg64
(lp4077
g57
(g73
g59
NtRp4078
(dp4079
g62
(dp4080
sg71
g4074
sg64
(lp4081
g57
(g78
g59
NtRp4082
(dp4083
g62
(dp4084
sg71
g4078
sg64
(lp4085
g57
(g58
g59
NtRp4086
(dp4087
g62
(dp4088
g70
I4
ssg71
g4082
sg64
(lp4089
S'*'
asbasbasbasbasbasbasbag57
(g73
g59
NtRp4090
(dp4091
g62
(dp4092
sg71
g3670
sg64
(lp4093
g57
(g78
g59
NtRp4094
(dp4095
g62
(dp4096
g82
g83
ssg71
g4090
sg64
(lp4097
S'headers'
p4098
asbag57
(g78
g59
NtRp4099
(dp4100
g62
(dp4101
g89
g90
ssg71
g4090
sg64
(lp4102
S':'
asbag57
(g78
g59
NtRp4103
(dp4104
g62
(dp4105
sg71
g4090
sg64
(lp4106
g57
(g58
g59
NtRp4107
(dp4108
g62
(dp4109
g70
I5
ssg71
g4103
sg64
(lp4110
g57
(g66
g59
NtRp4111
(dp4112
g62
(dp4113
g70
I4
ssg71
Nsg64
(lp4114
g57
(g73
g59
NtRp4115
(dp4116
g62
(dp4117
sg71
g4111
sg64
(lp4118
g57
(g78
g59
NtRp4119
(dp4120
g62
(dp4121
g82
g83
ssg71
g4115
sg64
(lp4122
S'Cache-Control'
p4123
asbag57
(g78
g59
NtRp4124
(dp4125
g62
(dp4126
g89
g90
ssg71
g4115
sg64
(lp4127
S':'
asbag57
(g78
g59
NtRp4128
(dp4129
g62
(dp4130
sg71
g4115
sg64
(lp4131
g57
(g58
g59
NtRp4132
(dp4133
g62
(dp4134
g70
I4
ssg71
g4128
sg64
(lp4135
S'no-store, no-cache, must-revalidate, post-check=0, pre-check=0'
p4136
asbasbasbag57
(g73
g59
NtRp4137
(dp4138
g62
(dp4139
sg71
g4111
sg64
(lp4140
g57
(g78
g59
NtRp4141
(dp4142
g62
(dp4143
g82
g83
ssg71
g4137
sg64
(lp4144
S'Content-Type'
p4145
asbag57
(g78
g59
NtRp4146
(dp4147
g62
(dp4148
g89
g90
ssg71
g4137
sg64
(lp4149
S':'
asbag57
(g78
g59
NtRp4150
(dp4151
g62
(dp4152
sg71
g4137
sg64
(lp4153
g57
(g58
g59
NtRp4154
(dp4155
g62
(dp4156
g70
I4
ssg71
g4150
sg64
(lp4157
S'text/html; charset=utf-8'
p4158
asbasbasbag57
(g73
g59
NtRp4159
(dp4160
g62
(dp4161
sg71
g4111
sg64
(lp4162
g57
(g78
g59
NtRp4163
(dp4164
g62
(dp4165
g82
g83
ssg71
g4159
sg64
(lp4166
S'Expires'
p4167
asbag57
(g78
g59
NtRp4168
(dp4169
g62
(dp4170
g89
g90
ssg71
g4159
sg64
(lp4171
S':'
asbag57
(g78
g59
NtRp4172
(dp4173
g62
(dp4174
sg71
g4159
sg64
(lp4175
g57
(g58
g59
NtRp4176
(dp4177
g62
(dp4178
g70
I4
ssg71
g4172
sg64
(lp4179
S'Mon, 04 Jun 2012 00:00:59 GMT'
p4180
asbasbasbag57
(g73
g59
NtRp4181
(dp4182
g62
(dp4183
sg71
g4111
sg64
(lp4184
g57
(g78
g59
NtRp4185
(dp4186
g62
(dp4187
g82
g83
ssg71
g4181
sg64
(lp4188
S'Pragma'
p4189
asbag57
(g78
g59
NtRp4190
(dp4191
g62
(dp4192
g89
g90
ssg71
g4181
sg64
(lp4193
S':'
asbag57
(g78
g59
NtRp4194
(dp4195
g62
(dp4196
sg71
g4181
sg64
(lp4197
g57
(g58
g59
NtRp4198
(dp4199
g62
(dp4200
g70
I4
ssg71
g4194
sg64
(lp4201
S'no-cache'
p4202
asbasbasbag57
(g73
g59
NtRp4203
(dp4204
g62
(dp4205
sg71
g4111
sg64
(lp4206
g57
(g78
g59
NtRp4207
(dp4208
g62
(dp4209
g82
g83
ssg71
g4203
sg64
(lp4210
S'X-Powered-By'
p4211
asbag57
(g78
g59
NtRp4212
(dp4213
g62
(dp4214
g89
g90
ssg71
g4203
sg64
(lp4215
S':'
asbag57
(g78
g59
NtRp4216
(dp4217
g62
(dp4218
sg71
g4203
sg64
(lp4219
g57
(g58
g59
NtRp4220
(dp4221
g62
(dp4222
g70
I4
ssg71
g4216
sg64
(lp4223
S'web2py'
p4224
asbasbasbasbasbasbasbag57
(g73
g59
NtRp4225
(dp4226
g62
(dp4227
sg71
g3670
sg64
(lp4228
g57
(g78
g59
NtRp4229
(dp4230
g62
(dp4231
g82
g83
ssg71
g4225
sg64
(lp4232
S'menu'
p4233
asbag57
(g78
g59
NtRp4234
(dp4235
g62
(dp4236
g89
g90
ssg71
g4225
sg64
(lp4237
S':'
asbag57
(g78
g59
NtRp4238
(dp4239
g62
(dp4240
sg71
g4225
sg64
(lp4241
g57
(g58
g59
NtRp4242
(dp4243
g62
(dp4244
g70
I5
ssg71
g4238
sg64
(lp4245
g57
(g66
g59
NtRp4246
(dp4247
g62
(dp4248
g70
I4
ssg71
Nsg64
(lp4249
g57
(g73
g59
NtRp4250
(dp4251
g62
(dp4252
sg71
g4246
sg64
(lp4253
g57
(g78
g59
NtRp4254
(dp4255
g62
(dp4256
sg71
g4250
sg64
(lp4257
g57
(g58
g59
NtRp4258
(dp4259
g62
(dp4260
g70
I4
ssg71
g4254
sg64
(lp4261
g57
(g66
g59
NtRp4262
(dp4263
g62
(dp4264
g70
I3
ssg71
Nsg64
(lp4265
g57
(g73
g59
NtRp4266
(dp4267
g62
(dp4268
sg71
g4262
sg64
(lp4269
g57
(g78
g59
NtRp4270
(dp4271
g62
(dp4272
sg71
g4266
sg64
(lp4273
g57
(g58
g59
NtRp4274
(dp4275
g62
(dp4276
g70
I3
ssg71
g4270
sg64
(lp4277
cgluon.languages
lazyT_unpickle
p4278
(S't\x04\x00\x00\x00Home'
tRp4279
asbasbasbag57
(g73
g59
NtRp4280
(dp4281
g62
(dp4282
sg71
g4262
sg64
(lp4283
g57
(g78
g59
NtRp4284
(dp4285
g62
(dp4286
sg71
g4280
sg64
(lp4287
g57
(g58
g59
NtRp4288
(dp4289
g62
(dp4290
g70
I3
ssg71
g4284
sg64
(lp4291
g100
asbasbasbag57
(g73
g59
NtRp4292
(dp4293
g62
(dp4294
sg71
g4262
sg64
(lp4295
g57
(g78
g59
NtRp4296
(dp4297
g62
(dp4298
sg71
g4292
sg64
(lp4299
g57
(g58
g59
NtRp4300
(dp4301
g62
(dp4302
g70
I3
ssg71
g4296
sg64
(lp4303
S'/Book_Shelf_copy/default/index'
p4304
asbasbasbag57
(g73
g59
NtRp4305
(dp4306
g62
(dp4307
sg71
g4262
sg64
(lp4308
g57
(g78
g59
NtRp4309
(dp4310
g62
(dp4311
sg71
g4305
sg64
(lp4312
g57
(g58
g59
NtRp4313
(dp4314
g62
(dp4315
g70
I3
ssg71
g4309
sg64
(lp4316
g57
(g66
g59
NtRp4317
(dp4318
g62
(dp4319
g70
I2
ssg71
Nsg64
(lp4320
sbasbasbasbasbasbasbasbag57
(g73
g59
NtRp4321
(dp4322
g62
(dp4323
sg71
g4246
sg64
(lp4324
g57
(g78
g59
NtRp4325
(dp4326
g62
(dp4327
sg71
g4321
sg64
(lp4328
g57
(g58
g59
NtRp4329
(dp4330
g62
(dp4331
g70
I4
ssg71
g4325
sg64
(lp4332
g57
(g66
g59
NtRp4333
(dp4334
g62
(dp4335
g70
I3
ssg71
Nsg64
(lp4336
g57
(g73
g59
NtRp4337
(dp4338
g62
(dp4339
sg71
g4333
sg64
(lp4340
g57
(g78
g59
NtRp4341
(dp4342
g62
(dp4343
sg71
g4337
sg64
(lp4344
g57
(g58
g59
NtRp4345
(dp4346
g62
(dp4347
g70
I3
ssg71
g4341
sg64
(lp4348
g4278
(S's\x0c\x00\x00\x00User Profile'
tRp4349
asbasbasbag57
(g73
g59
NtRp4350
(dp4351
g62
(dp4352
sg71
g4333
sg64
(lp4353
g57
(g78
g59
NtRp4354
(dp4355
g62
(dp4356
sg71
g4350
sg64
(lp4357
g57
(g58
g59
NtRp4358
(dp4359
g62
(dp4360
g70
I3
ssg71
g4354
sg64
(lp4361
g100
asbasbasbag57
(g73
g59
NtRp4362
(dp4363
g62
(dp4364
sg71
g4333
sg64
(lp4365
g57
(g78
g59
NtRp4366
(dp4367
g62
(dp4368
sg71
g4362
sg64
(lp4369
g57
(g58
g59
NtRp4370
(dp4371
g62
(dp4372
g70
I3
ssg71
g4366
sg64
(lp4373
S'/Book_Shelf_copy/default/update_user_profile/2'
p4374
asbasbasbag57
(g73
g59
NtRp4375
(dp4376
g62
(dp4377
sg71
g4333
sg64
(lp4378
g57
(g78
g59
NtRp4379
(dp4380
g62
(dp4381
sg71
g4375
sg64
(lp4382
g57
(g58
g59
NtRp4383
(dp4384
g62
(dp4385
g70
I3
ssg71
g4379
sg64
(lp4386
g57
(g66
g59
NtRp4387
(dp4388
g62
(dp4389
g70
I2
ssg71
Nsg64
(lp4390
sbasbasbasbasbasbasbasbasbasbasbasbag57
(g73
g59
NtRp4391
(dp4392
g62
(dp4393
sg71
g3670
sg64
(lp4394
g57
(g78
g59
NtRp4395
(dp4396
g62
(dp4397
g82
g83
ssg71
g4391
sg64
(lp4398
S'meta'
p4399
asbag57
(g78
g59
NtRp4400
(dp4401
g62
(dp4402
g89
g90
ssg71
g4391
sg64
(lp4403
S':'
asbag57
(g78
g59
NtRp4404
(dp4405
g62
(dp4406
sg71
g4391
sg64
(lp4407
g57
(g58
g59
NtRp4408
(dp4409
g62
(dp4410
g70
I5
ssg71
g4404
sg64
(lp4411
g57
(g66
g59
NtRp4412
(dp4413
g62
(dp4414
g70
I4
ssg71
Nsg64
(lp4415
g57
(g73
g59
NtRp4416
(dp4417
g62
(dp4418
sg71
g4412
sg64
(lp4419
g57
(g78
g59
NtRp4420
(dp4421
g62
(dp4422
g82
g83
ssg71
g4416
sg64
(lp4423
S'author'
p4424
asbag57
(g78
g59
NtRp4425
(dp4426
g62
(dp4427
g89
g90
ssg71
g4416
sg64
(lp4428
S':'
asbag57
(g78
g59
NtRp4429
(dp4430
g62
(dp4431
sg71
g4416
sg64
(lp4432
g57
(g58
g59
NtRp4433
(dp4434
g62
(dp4435
g70
I4
ssg71
g4429
sg64
(lp4436
S'Your Name <you@example.com>'
p4437
asbasbasbag57
(g73
g59
NtRp4438
(dp4439
g62
(dp4440
sg71
g4412
sg64
(lp4441
g57
(g78
g59
NtRp4442
(dp4443
g62
(dp4444
g82
g83
ssg71
g4438
sg64
(lp4445
S'copyright'
p4446
asbag57
(g78
g59
NtRp4447
(dp4448
g62
(dp4449
g89
g90
ssg71
g4438
sg64
(lp4450
S':'
asbag57
(g78
g59
NtRp4451
(dp4452
g62
(dp4453
sg71
g4438
sg64
(lp4454
g57
(g58
g59
NtRp4455
(dp4456
g62
(dp4457
g70
I4
ssg71
g4451
sg64
(lp4458
S'Copyright 2011'
p4459
asbasbasbag57
(g73
g59
NtRp4460
(dp4461
g62
(dp4462
sg71
g4412
sg64
(lp4463
g57
(g78
g59
NtRp4464
(dp4465
g62
(dp4466
g82
g83
ssg71
g4460
sg64
(lp4467
S'description'
p4468
asbag57
(g78
g59
NtRp4469
(dp4470
g62
(dp4471
g89
g90
ssg71
g4460
sg64
(lp4472
S':'
asbag57
(g78
g59
NtRp4473
(dp4474
g62
(dp4475
sg71
g4460
sg64
(lp4476
g57
(g58
g59
NtRp4477
(dp4478
g62
(dp4479
g70
I4
ssg71
g4473
sg64
(lp4480
S'a cool new app'
p4481
asbasbasbag57
(g73
g59
NtRp4482
(dp4483
g62
(dp4484
sg71
g4412
sg64
(lp4485
g57
(g78
g59
NtRp4486
(dp4487
g62
(dp4488
g82
g83
ssg71
g4482
sg64
(lp4489
S'generator'
p4490
asbag57
(g78
g59
NtRp4491
(dp4492
g62
(dp4493
g89
g90
ssg71
g4482
sg64
(lp4494
S':'
asbag57
(g78
g59
NtRp4495
(dp4496
g62
(dp4497
sg71
g4482
sg64
(lp4498
g57
(g58
g59
NtRp4499
(dp4500
g62
(dp4501
g70
I4
ssg71
g4495
sg64
(lp4502
S'Web2py Web Framework'
p4503
asbasbasbag57
(g73
g59
NtRp4504
(dp4505
g62
(dp4506
sg71
g4412
sg64
(lp4507
g57
(g78
g59
NtRp4508
(dp4509
g62
(dp4510
g82
g83
ssg71
g4504
sg64
(lp4511
S'keywords'
p4512
asbag57
(g78
g59
NtRp4513
(dp4514
g62
(dp4515
g89
g90
ssg71
g4504
sg64
(lp4516
S':'
asbag57
(g78
g59
NtRp4517
(dp4518
g62
(dp4519
sg71
g4504
sg64
(lp4520
g57
(g58
g59
NtRp4521
(dp4522
g62
(dp4523
g70
I4
ssg71
g4517
sg64
(lp4524
S'web2py, python, framework'
p4525
asbasbasbasbasbasbasbag57
(g73
g59
NtRp4526
(dp4527
g62
(dp4528
sg71
g3670
sg64
(lp4529
g57
(g78
g59
NtRp4530
(dp4531
g62
(dp4532
g82
g83
ssg71
g4526
sg64
(lp4533
S'postprocessing'
p4534
asbag57
(g78
g59
NtRp4535
(dp4536
g62
(dp4537
g89
g90
ssg71
g4526
sg64
(lp4538
S':'
asbag57
(g78
g59
NtRp4539
(dp4540
g62
(dp4541
sg71
g4526
sg64
(lp4542
g57
(g58
g59
NtRp4543
(dp4544
g62
(dp4545
g70
I5
ssg71
g4539
sg64
(lp4546
g57
(g66
g59
NtRp4547
(dp4548
g62
(dp4549
g70
I4
ssg71
Nsg64
(lp4550
sbasbasbasbag57
(g73
g59
NtRp4551
(dp4552
g62
(dp4553
sg71
g3670
sg64
(lp4554
g57
(g78
g59
NtRp4555
(dp4556
g62
(dp4557
g82
g83
ssg71
g4551
sg64
(lp4558
S'session_file'
p4559
asbag57
(g78
g59
NtRp4560
(dp4561
g62
(dp4562
g89
g90
ssg71
g4551
sg64
(lp4563
S':'
asbag57
(g78
g59
NtRp4564
(dp4565
g62
(dp4566
sg71
g4551
sg64
(lp4567
g57
(g58
g59
NtRp4568
(dp4569
g62
(dp4570
g70
I5
ssg71
g4564
sg64
(lp4571
S"<open file '/Users/ianaboneva/Dropbox/DePaul/CSC 438 - Web Applications/web2py/applications/Book_Shelf_copy/sessions/127.0.0.1-eeba29a1-713d-4626-a1ad-4627ea1d2e7a', mode 'rb+' at 0x109871270>"
p4572
asbasbasbag57
(g73
g59
NtRp4573
(dp4574
g62
(dp4575
sg71
g3670
sg64
(lp4576
g57
(g78
g59
NtRp4577
(dp4578
g62
(dp4579
g82
g83
ssg71
g4573
sg64
(lp4580
S'session_filename'
p4581
asbag57
(g78
g59
NtRp4582
(dp4583
g62
(dp4584
g89
g90
ssg71
g4573
sg64
(lp4585
S':'
asbag57
(g78
g59
NtRp4586
(dp4587
g62
(dp4588
sg71
g4573
sg64
(lp4589
g57
(g58
g59
NtRp4590
(dp4591
g62
(dp4592
g70
I5
ssg71
g4586
sg64
(lp4593
S'/Users/ianaboneva/Dropbox/DePaul/CSC 438 - Web Applications/web2py/applications/Book_Shelf_copy/sessions/127.0.0.1-eeba29a1-713d-4626-a1ad-4627ea1d2e7a'
p4594
asbasbasbag57
(g73
g59
NtRp4595
(dp4596
g62
(dp4597
sg71
g3670
sg64
(lp4598
g57
(g78
g59
NtRp4599
(dp4600
g62
(dp4601
g82
g83
ssg71
g4595
sg64
(lp4602
S'session_id'
p4603
asbag57
(g78
g59
NtRp4604
(dp4605
g62
(dp4606
g89
g90
ssg71
g4595
sg64
(lp4607
S':'
asbag57
(g78
g59
NtRp4608
(dp4609
g62
(dp4610
sg71
g4595
sg64
(lp4611
g57
(g58
g59
NtRp4612
(dp4613
g62
(dp4614
g70
I5
ssg71
g4608
sg64
(lp4615
S'127.0.0.1-eeba29a1-713d-4626-a1ad-4627ea1d2e7a'
p4616
asbasbasbag57
(g73
g59
NtRp4617
(dp4618
g62
(dp4619
sg71
g3670
sg64
(lp4620
g57
(g78
g59
NtRp4621
(dp4622
g62
(dp4623
g82
g83
ssg71
g4617
sg64
(lp4624
S'session_id_name'
p4625
asbag57
(g78
g59
NtRp4626
(dp4627
g62
(dp4628
g89
g90
ssg71
g4617
sg64
(lp4629
S':'
asbag57
(g78
g59
NtRp4630
(dp4631
g62
(dp4632
sg71
g4617
sg64
(lp4633
g57
(g58
g59
NtRp4634
(dp4635
g62
(dp4636
g70
I5
ssg71
g4630
sg64
(lp4637
g3727
asbasbasbag57
(g73
g59
NtRp4638
(dp4639
g62
(dp4640
sg71
g3670
sg64
(lp4641
g57
(g78
g59
NtRp4642
(dp4643
g62
(dp4644
g82
g83
ssg71
g4638
sg64
(lp4645
S'session_locked'
p4646
asbag57
(g78
g59
NtRp4647
(dp4648
g62
(dp4649
g89
g90
ssg71
g4638
sg64
(lp4650
S':'
asbag57
(g78
g59
NtRp4651
(dp4652
g62
(dp4653
sg71
g4638
sg64
(lp4654
g57
(g58
g59
NtRp4655
(dp4656
g62
(dp4657
g70
I5
ssg71
g4651
sg64
(lp4658
g1875
asbasbasbag57
(g73
g59
NtRp4659
(dp4660
g62
(dp4661
sg71
g3670
sg64
(lp4662
g57
(g78
g59
NtRp4663
(dp4664
g62
(dp4665
g82
g83
ssg71
g4659
sg64
(lp4666
S'session_new'
p4667
asbag57
(g78
g59
NtRp4668
(dp4669
g62
(dp4670
g89
g90
ssg71
g4659
sg64
(lp4671
S':'
asbag57
(g78
g59
NtRp4672
(dp4673
g62
(dp4674
sg71
g4659
sg64
(lp4675
g57
(g58
g59
NtRp4676
(dp4677
g62
(dp4678
g70
I5
ssg71
g4672
sg64
(lp4679
g100
asbasbasbag57
(g73
g59
NtRp4680
(dp4681
g62
(dp4682
sg71
g3670
sg64
(lp4683
g57
(g78
g59
NtRp4684
(dp4685
g62
(dp4686
g82
g83
ssg71
g4680
sg64
(lp4687
S'status'
p4688
asbag57
(g78
g59
NtRp4689
(dp4690
g62
(dp4691
g89
g90
ssg71
g4680
sg64
(lp4692
S':'
asbag57
(g78
g59
NtRp4693
(dp4694
g62
(dp4695
sg71
g4680
sg64
(lp4696
g57
(g58
g59
NtRp4697
(dp4698
g62
(dp4699
g70
I5
ssg71
g4693
sg64
(lp4700
S'200'
p4701
asbasbasbag57
(g73
g59
NtRp4702
(dp4703
g62
(dp4704
sg71
g3670
sg64
(lp4705
g57
(g78
g59
NtRp4706
(dp4707
g62
(dp4708
g82
g83
ssg71
g4702
sg64
(lp4709
S'title'
p4710
asbag57
(g78
g59
NtRp4711
(dp4712
g62
(dp4713
g89
g90
ssg71
g4702
sg64
(lp4714
S':'
asbag57
(g78
g59
NtRp4715
(dp4716
g62
(dp4717
sg71
g4702
sg64
(lp4718
g57
(g58
g59
NtRp4719
(dp4720
g62
(dp4721
g70
I5
ssg71
g4715
sg64
(lp4722
S'Book Shelf Copy'
p4723
asbasbasbag57
(g73
g59
NtRp4724
(dp4725
g62
(dp4726
sg71
g3670
sg64
(lp4727
g57
(g78
g59
NtRp4728
(dp4729
g62
(dp4730
g82
g83
ssg71
g4724
sg64
(lp4731
g2560
asbag57
(g78
g59
NtRp4732
(dp4733
g62
(dp4734
g89
g90
ssg71
g4724
sg64
(lp4735
S':'
asbag57
(g78
g59
NtRp4736
(dp4737
g62
(dp4738
sg71
g4724
sg64
(lp4739
g57
(g58
g59
NtRp4740
(dp4741
g62
(dp4742
g70
I5
ssg71
g4736
sg64
(lp4743
g2573
asbasbasbag57
(g73
g59
NtRp4744
(dp4745
g62
(dp4746
sg71
g3670
sg64
(lp4747
g57
(g78
g59
NtRp4748
(dp4749
g62
(dp4750
g82
g83
ssg71
g4744
sg64
(lp4751
S'view'
p4752
asbag57
(g78
g59
NtRp4753
(dp4754
g62
(dp4755
g89
g90
ssg71
g4744
sg64
(lp4756
S':'
asbag57
(g78
g59
NtRp4757
(dp4758
g62
(dp4759
sg71
g4744
sg64
(lp4760
g57
(g58
g59
NtRp4761
(dp4762
g62
(dp4763
g70
I5
ssg71
g4757
sg64
(lp4764
S'default/book_shelf.html'
p4765
asbasbasbasbasbsS'locals'
p4766
(dp4767
S'Service'
p4768
S"<class 'gluon.tools.Service'>"
p4769
sS'OBJECT'
p4770
S"<class 'gluon.html.OBJECT'>"
p4771
sS'SQLDB'
p4772
S"<class 'gluon.dal.DAL'>"
p4773
sg3275
S"<Storage {'_formkey[Book_Profile/2]': '7c29947e-...reate]': 'ed992616-2cd5-4ff0-a284-6edf1652d342'}>"
p4774
sS'LINK'
p4775
S"<class 'gluon.html.LINK'>"
p4776
sS'BR'
p4777
S"<class 'gluon.html.BR'>"
p4778
sS'local_import'
p4779
S'<function <lambda>>'
p4780
sS'OPTGROUP'
p4781
S"<class 'gluon.html.OPTGROUP'>"
p4782
sS'__package__'
p4783
S'None'
p4784
sS'PRE'
p4785
S"<class 'gluon.html.PRE'>"
p4786
sS'IS_INT_IN_RANGE'
p4787
S"<class 'gluon.validators.IS_INT_IN_RANGE'>"
p4788
sS'IS_LOWER'
p4789
S"<class 'gluon.validators.IS_LOWER'>"
p4790
sS'IS_STRONG'
p4791
S"<class 'gluon.validators.IS_STRONG'>"
p4792
sS'cache'
p4793
S'<gluon.cache.Cache object>'
p4794
sS'IS_IN_DB'
p4795
S"<class 'gluon.validators.IS_IN_DB'>"
p4796
sS'TAG'
p4797
S'<gluon.html.__TAG__ object>'
p4798
sS'SQLField'
p4799
S"<class 'gluon.dal.Field'>"
p4800
sS'mail'
p4801
S'<gluon.tools.Mail object>'
p4802
sS'BODY'
p4803
S"<class 'gluon.html.BODY'>"
p4804
sS'IS_DATE_IN_RANGE'
p4805
S"<class 'gluon.validators.IS_DATE_IN_RANGE'>"
p4806
sS'TH'
p4807
S"<class 'gluon.html.TH'>"
p4808
sS'URL'
p4809
S'<function URL>'
p4810
sS'__file__'
p4811
S"'/Users/ianaboneva/Dropbox/DePaul/CSC 438 - Web A...ons/Book_Shelf_copy/views/default/book_shelf.html'"
p4812
sS'db'
p4813
S"<DAL {'Book_Shelf': <Table {'_db': <DAL {...}>, ...key': <gluon.dal.Field object at 0x109b2d050>}>}>"
p4814
sS'auth'
p4815
S'<gluon.tools.Auth object>'
p4816
sS'P'
S"<class 'gluon.html.P'>"
p4817
sS'TFOOT'
p4818
S"<class 'gluon.html.TFOOT'>"
p4819
sS'XHTML'
p4820
S"<class 'gluon.html.XHTML'>"
p4821
sS'ON'
p4822
g1875
sS'OL'
p4823
S"<class 'gluon.html.OL'>"
p4824
sS'TEXTAREA'
p4825
S"<class 'gluon.html.TEXTAREA'>"
p4826
sS'MENU'
p4827
S"<class 'gluon.html.MENU'>"
p4828
sS'LOAD'
p4829
S'<function LOAD>'
p4830
sS'CODE'
p4831
S"<class 'gluon.html.CODE'>"
p4832
sS'HTTP'
p4833
S"<class 'gluon.http.HTTP'>"
p4834
sS'HR'
p4835
S"<class 'gluon.html.HR'>"
p4836
sS'IS_DATETIME'
p4837
S"<class 'gluon.validators.IS_DATETIME'>"
p4838
sS'HEAD'
p4839
S"<class 'gluon.html.HEAD'>"
p4840
sS'LABEL'
p4841
S"<class 'gluon.html.LABEL'>"
p4842
sS'CLEANUP'
p4843
S"<class 'gluon.validators.CLEANUP'>"
p4844
sS'plugins'
p4845
S'<gluon.tools.PluginManager object>'
p4846
sS'SELECT'
p4847
S"<class 'gluon.html.SELECT'>"
p4848
sS'use_janrain'
p4849
S'<function use_janrain>'
p4850
sS'CENTER'
p4851
S"<class 'gluon.html.CENTER'>"
p4852
sS'prettydate'
p4853
S'<function prettydate>'
p4854
sS'Crud'
p4855
S"<class 'gluon.tools.Crud'>"
p4856
sS'Auth'
p4857
S"<class 'gluon.tools.Auth'>"
p4858
sS'__builtins__'
p4859
S"{'ArithmeticError': <type 'exceptions.ArithmeticError'>, 'AssertionError': <type 'exceptions.AssertionError'>, 'AttributeError': <type 'exceptions.AttributeError'>, 'BaseException': <type 'exceptions.BaseException'>, 'BufferError': <type 'exceptions.BufferError'>, 'BytesWarning': <type 'exceptions.BytesWarning'>, 'DeprecationWarning': <type 'exceptions.DeprecationWarning'>, 'EOFError': <type 'exceptions.EOFError'>, 'Ellipsis': Ellipsis, 'EnvironmentError': <type 'exceptions.EnvironmentError'>, ...}"
p4860
sS'BEAUTIFY'
p4861
S"<class 'gluon.html.BEAUTIFY'>"
p4862
sS'SQLFORM'
p4863
S"<class 'gluon.sqlhtml.SQLFORM'>"
p4864
sS'EM'
p4865
S"<class 'gluon.html.EM'>"
p4866
sS'redirect'
p4867
S'<function redirect>'
p4868
sS'FIELDSET'
p4869
S"<class 'gluon.html.FIELDSET'>"
p4870
sS'IS_EQUAL_TO'
p4871
S"<class 'gluon.validators.IS_EQUAL_TO'>"
p4872
sS'embed64'
p4873
S'<function embed64>'
p4874
sS'IS_LIST_OF'
p4875
S"<class 'gluon.validators.IS_LIST_OF'>"
p4876
sS'__name__'
p4877
S"'__restricted__'"
p4878
sS'EMBED'
p4879
S"<class 'gluon.html.EMBED'>"
p4880
sS'FORM'
p4881
S"<class 'gluon.html.FORM'>"
p4882
sS'shelves'
p4883
S'<gluon.dal.Rows object>'
p4884
sS'H2'
p4885
S"<class 'gluon.html.H2'>"
p4886
sS'H3'
p4887
S"<class 'gluon.html.H3'>"
p4888
sS'BUTTON'
p4889
S"<class 'gluon.html.BUTTON'>"
p4890
sS'H1'
p4891
S"<class 'gluon.html.H1'>"
p4892
sS'H6'
p4893
S"<class 'gluon.html.H6'>"
p4894
sS'H4'
p4895
S"<class 'gluon.html.H4'>"
p4896
sS'H5'
p4897
S"<class 'gluon.html.H5'>"
p4898
sS'UL'
p4899
S"<class 'gluon.html.UL'>"
p4900
sS'IS_UPPER'
p4901
S"<class 'gluon.validators.IS_UPPER'>"
p4902
sS'xmlescape'
p4903
S'<function xmlescape>'
p4904
sS'IS_TIME'
p4905
S"<class 'gluon.validators.IS_TIME'>"
p4906
sS'OPTION'
p4907
S"<class 'gluon.html.OPTION'>"
p4908
sS'TITLE'
p4909
S"<class 'gluon.html.TITLE'>"
p4910
sS'CRYPT'
p4911
S"<class 'gluon.validators.CRYPT'>"
p4912
sS'IS_EMPTY_OR'
p4913
S"<class 'gluon.validators.IS_EMPTY_OR'>"
p4914
sS'MARKMIN'
p4915
S"<class 'gluon.html.MARKMIN'>"
p4916
sS'INPUT'
p4917
S"<class 'gluon.html.INPUT'>"
p4918
sS'COL'
p4919
S"<class 'gluon.html.COL'>"
p4920
sS'service'
p4921
S'<gluon.tools.Service object>'
p4922
sS'SCRIPT'
p4923
S"<class 'gluon.html.SCRIPT'>"
p4924
sS'TABLE'
p4925
S"<class 'gluon.html.TABLE'>"
p4926
sS'IS_IPV4'
p4927
S"<class 'gluon.validators.IS_IPV4'>"
p4928
sS'IS_LENGTH'
p4929
S"<class 'gluon.validators.IS_LENGTH'>"
p4930
sS'XML'
p4931
S"<class 'gluon.html.XML'>"
p4932
sS'B'
S"<class 'gluon.html.B'>"
p4933
sS'IMG'
p4934
S"<class 'gluon.html.IMG'>"
p4935
sS'SQLTABLE'
p4936
S"<class 'gluon.sqlhtml.SQLTABLE'>"
p4937
sS'shelf'
p4938
S"<Row {'Shelf_Name': 'Mystery', 'update_record': ...ete_record': <function <lambda> at 0x109aebb18>}>"
p4939
sS'IS_MATCH'
p4940
S"<class 'gluon.validators.IS_MATCH'>"
p4941
sS'IS_ALPHANUMERIC'
p4942
S"<class 'gluon.validators.IS_ALPHANUMERIC'>"
p4943
sS'SPAN'
p4944
S"<class 'gluon.html.SPAN'>"
p4945
sS'IS_SLUG'
p4946
S"<class 'gluon.validators.IS_SLUG'>"
p4947
sS'books'
p4948
S'<gluon.dal.Rows object>'
p4949
sS'META'
p4950
S"<class 'gluon.html.META'>"
p4951
sS'IS_DATE'
p4952
S"<class 'gluon.validators.IS_DATE'>"
p4953
sS'IS_EMAIL'
p4954
S"<class 'gluon.validators.IS_EMAIL'>"
p4955
sS'IS_NOT_EMPTY'
p4956
S"<class 'gluon.validators.IS_NOT_EMPTY'>"
p4957
sS'IS_FLOAT_IN_RANGE'
p4958
S"<class 'gluon.validators.IS_FLOAT_IN_RANGE'>"
p4959
sS'TBODY'
p4960
S"<class 'gluon.html.TBODY'>"
p4961
sS'CAT'
p4962
S"<class 'gluon.html.CAT'>"
p4963
sS'Field'
p4964
S"<class 'gluon.dal.Field'>"
p4965
sS'DIV'
p4966
S"<class 'gluon.html.DIV'>"
p4967
sS'LEGEND'
p4968
S"<class 'gluon.html.LEGEND'>"
p4969
sS'COLGROUP'
p4970
S"<class 'gluon.html.COLGROUP'>"
p4971
sS'DAL'
p4972
S"<class 'gluon.dal.DAL'>"
p4973
sS'TT'
p4974
S"<class 'gluon.html.TT'>"
p4975
sS'TR'
p4976
S"<class 'gluon.html.TR'>"
p4977
sS'LI'
p4978
S"<class 'gluon.html.LI'>"
p4979
sS'IFRAME'
p4980
S"<class 'gluon.html.IFRAME'>"
p4981
sS'TD'
p4982
S"<class 'gluon.html.TD'>"
p4983
sS'PluginManager'
p4984
S"<class 'gluon.tools.PluginManager'>"
p4985
sS'IS_URL'
p4986
S"<class 'gluon.validators.IS_URL'>"
p4987
sS'A'
S"<class 'gluon.html.A'>"
p4988
sS'STYLE'
p4989
S"<class 'gluon.html.STYLE'>"
p4990
sS'IS_DATETIME_IN_RANGE'
p4991
S"<class 'gluon.validators.IS_DATETIME_IN_RANGE'>"
p4992
sS'HTML'
p4993
S"<class 'gluon.html.HTML'>"
p4994
sS'IS_IMAGE'
p4995
S"<class 'gluon.validators.IS_IMAGE'>"
p4996
sS'I'
S"<class 'gluon.html.I'>"
p4997
sS'crud'
p4998
S'<gluon.tools.Crud object>'
p4999
sS'IS_NOT_IN_DB'
p5000
S"<class 'gluon.validators.IS_NOT_IN_DB'>"
p5001
sg3665
S"<Storage {'body': <cStringIO.StringO object at 0...0x1098a6ed8>, 'view': 'default/book_shelf.html'}>"
p5002
sS'THEAD'
p5003
S"<class 'gluon.html.THEAD'>"
p5004
sS'IS_NULL_OR'
p5005
S"<class 'gluon.validators.IS_EMPTY_OR'>"
p5006
sg56
S"<Storage {'body': <cStringIO.StringO object at 0..._vars': <Storage {}>, 'post_vars': <Storage {}>}>"
p5007
sS'IS_EXPR'
p5008
S"<class 'gluon.validators.IS_EXPR'>"
p5009
sS'T'
S'<gluon.languages.translator object>'
p5010
sS'IS_IN_SET'
p5011
S"<class 'gluon.validators.IS_IN_SET'>"
p5012
sS'IS_UPLOAD_FILENAME'
p5013
S"<class 'gluon.validators.IS_UPLOAD_FILENAME'>"
p5014
sS'IS_DECIMAL_IN_RANGE'
p5015
S"<class 'gluon.validators.IS_DECIMAL_IN_RANGE'>"
p5016
sssS'traceback'
p5017
S'Traceback (most recent call last):\n  File "/Users/ianaboneva/Dropbox/DePaul/CSC 438 - Web Applications/web2py/gluon/restricted.py", line 205, in restricted\n    exec ccode in environment\n  File "/Users/ianaboneva/Dropbox/DePaul/CSC 438 - Web Applications/web2py/applications/Book_Shelf_copy/views/default/book_shelf.html", line 32, in <module>\nNameError: name \'form\' is not defined\n'
p5018
s.