(dp1
S'output'
p2
S"<type 'exceptions.IndentationError'> unindent does not match any outer indentation level (default.py, line 86)"
p3
sS'layer'
p4
S'/Users/ianaboneva/Dropbox/DePaul/CSC 438 - Web Applications/web2py/applications/Book_Shelf_copy/controllers/default.py'
p5
sS'code'
p6
S'# -*- coding: utf-8 -*-\n# this file is released under public domain and you can use without limitations\n\n#########################################################################\n## This is a samples controller\n## - index is the default action of any application\n## - user is required for authentication and authorization\n## - download is for downloading files uploaded in the db (does streaming)\n## - call exposes all registered services (none by default)\n#########################################################################\n\ndef index():\n    shelves = db(db.Book_Shelf.created_by==auth.user.id).select()\n    return locals()\n\n@auth.requires_login()\ndef create_user_profile():\n    form = SQLFORM(db.User_Profile)\n    if form.process().accepted:\n        session.flash = "Form Accepted"\n        redirect(URL(\'user_profile\'))\n    else:\n        response.flash= "This is completely wrong you weiner..TRY AGAIN!"\n    return locals()\n\n@auth.requires_login() \ndef update_user_profile():\n    record = db.User_Profile(request.args(0)) or redirect (URL(\'index\'))\n    if (auth.user.id!=record.created_by):\n        session.flash = \'access denied\'\n        redirect(URL(\'index\'))\n    form = SQLFORM(db.User_Profile, record)\n    if form.process().accepted:\n        session.flash = "Form Accepted"\n        redirect(URL(\'user_profile\'))\n    else:\n        response.flash= "This is completely wrong you weiner..TRY AGAIN!"\n    return locals()\n      \n@auth.requires_login() \ndef user_profile():\n    profiles = db(db.User_Profile.created_by==auth.user.id).select()\n    return locals()\n\n@auth.requires_login() \ndef create_book_profile():\n    form = SQLFORM(db.Book_Profile)\n    if form.process().accepted:\n        session.flash = "Form Accepted"\n        redirect(URL(\'book_profile\'))\n    else:\n        response.flash= "This is completely wrong you weiner..TRY AGAIN!"\n    return locals()\n  \n@auth.requires_login() \ndef update_book_profile():\n    record = db.Book_Profile(request.args(0)) or redirect (URL(\'index\'))\n    form = SQLFORM(db.Book_Profile, record)\n    if form.process().accepted:\n        session.flash = "Form Accepted"\n        redirect(URL(\'book_profile\'))\n    else:\n        response.flash= "This is completely wrong you weiner..TRY AGAIN!"\n    return locals()\n      \ndef book_profile():\n    book = db.Book_Profile(request.args(0)) or redirect (URL(\'index\'))\n    return locals()\n\n@auth.requires_login() \ndef create_book_shelf():\n    form = SQLFORM(db.Book_Shelf)\n    if form.process().accepted:\n        session.flash = "Form Accepted"\n    else:\n        response.flash = "WRONG!"\n    return locals()\n\n@auth.requires_login() \ndef update_book_shelf():\n    return locals()\n    \n@auth.requires_login()      \ndef book_shelf():\n\tshelf = db.Book_Shelf(request.args(0)) or redirect (URL(\'index\'))\n    return locals()\n \n@auth.requires_login()    \ndef comments():\n    return locals()\n \n@auth.requires_login()    \ndef reviews():\n    return locals()\n\n\ndef user():\n    """\n    exposes:\n    http://..../[app]/default/user/login\n    http://..../[app]/default/user/logout\n    http://..../[app]/default/user/register\n    http://..../[app]/default/user/profile\n    http://..../[app]/default/user/retrieve_password\n    http://..../[app]/default/user/change_password\n    use @auth.requires_login()\n        @auth.requires_membership(\'group name\')\n        @auth.requires_permission(\'read\',\'table name\',record_id)\n    to decorate functions that need access control\n    """\n    return dict(form=auth())\n\ndef download():\n    """\n    allows downloading of uploaded files\n    http://..../[app]/default/download/[filename]\n    """\n    return response.download(request,db)\n\n\ndef call():\n    """\n    exposes services. for example:\n    http://..../[app]/default/call/jsonrpc\n    decorate with @services.jsonrpc the functions to expose\n    supports xml, json, xmlrpc, jsonrpc, amfrpc, rss, csv\n    """\n    return service()\n\n\n@auth.requires_signature()\ndef data():\n    """\n    http://..../[app]/default/data/tables\n    http://..../[app]/default/data/create/[table]\n    http://..../[app]/default/data/read/[table]/[id]\n    http://..../[app]/default/data/update/[table]/[id]\n    http://..../[app]/default/data/delete/[table]/[id]\n    http://..../[app]/default/data/select/[table]\n    http://..../[app]/default/data/search/[table]\n    but URLs must be signed, i.e. linked with\n      A(\'table\',_href=URL(\'data/tables\',user_signature=True))\n    or with the signed load operator\n      LOAD(\'default\',\'data.load\',args=\'tables\',ajax=True,user_signature=True)\n    """\n    return dict(form=crud())\n\nresponse._vars=response._caller(book_shelf)\n'
p7
sS'snapshot'
p8
(dp9
S'exception'
p10
(dp11
S'__getslice__'
p12
S"<method-wrapper '__getslice__' of exceptions.IndentationError object>"
p13
sS'text'
p14
S"'    return locals()\\n'"
p15
sS'__str__'
p16
S"<method-wrapper '__str__' of exceptions.IndentationError object>"
p17
sS'__reduce__'
p18
S'<built-in method __reduce__ of exceptions.IndentationError object>'
p19
sS'__dict__'
p20
S'{}'
p21
sS'__sizeof__'
p22
S'<built-in method __sizeof__ of exceptions.IndentationError object>'
p23
sS'__init__'
p24
S"<method-wrapper '__init__' of exceptions.IndentationError object>"
p25
sS'__setattr__'
p26
S"<method-wrapper '__setattr__' of exceptions.IndentationError object>"
p27
sS'__reduce_ex__'
p28
S'<built-in method __reduce_ex__ of exceptions.IndentationError object>'
p29
sS'__new__'
p30
S'<built-in method __new__ of type object>'
p31
sS'__format__'
p32
S'<built-in method __format__ of exceptions.IndentationError object>'
p33
sS'__class__'
p34
S"<type 'exceptions.IndentationError'>"
p35
sS'filename'
p36
S"'/Users/ianaboneva/Dropbox/DePaul/CSC 438 - Web A...plications/Book_Shelf_copy/controllers/default.py'"
p37
sS'lineno'
p38
S'86'
p39
sS'msg'
p40
S"'unindent does not match any outer indentation level'"
p41
sS'__doc__'
p42
S"'Improper indentation.'"
p43
sS'__getitem__'
p44
S"<method-wrapper '__getitem__' of exceptions.IndentationError object>"
p45
sS'__setstate__'
p46
S'<built-in method __setstate__ of exceptions.IndentationError object>'
p47
sS'__getattribute__'
p48
S"<method-wrapper '__getattribute__' of exceptions.IndentationError object>"
p49
sS'print_file_and_line'
p50
S'None'
p51
sS'args'
p52
S"('unindent does not match any outer indentation level', ('/Users/ianaboneva/Dropbox/DePaul/CSC 438 - Web A...plications/Book_Shelf_copy/controllers/default.py', 86, 20, '    return locals()\\n'))"
p53
sS'__subclasshook__'
p54
S'<built-in method __subclasshook__ of type object>'
p55
sS'offset'
p56
S'20'
p57
sS'__unicode__'
p58
S'<built-in method __unicode__ of exceptions.IndentationError object>'
p59
sS'__delattr__'
p60
S"<method-wrapper '__delattr__' of exceptions.IndentationError object>"
p61
sS'__repr__'
p62
S"<method-wrapper '__repr__' of exceptions.IndentationError object>"
p63
sS'__hash__'
p64
S"<method-wrapper '__hash__' of exceptions.IndentationError object>"
p65
ssS'evalue'
p66
S'unindent does not match any outer indentation level (default.py, line 86)'
p67
sS'request'
p68
ccopy_reg
_reconstructor
p69
(cgluon.html
BEAUTIFY
p70
c__builtin__
object
p71
NtRp72
(dp73
S'attributes'
p74
(dp75
sS'components'
p76
(lp77
g69
(cgluon.html
TABLE
p78
g71
NtRp79
(dp80
g74
(dp81
S'level'
p82
I5
ssS'parent'
p83
Nsg76
(lp84
g69
(cgluon.html
TR
p85
g71
NtRp86
(dp87
g74
(dp88
sg83
g79
sg76
(lp89
g69
(cgluon.html
TD
p90
g71
NtRp91
(dp92
g74
(dp93
S'_style'
p94
S'font-weight:bold;vertical-align:top'
p95
ssg83
g86
sg76
(lp96
S'ajax'
p97
asbag69
(g90
g71
NtRp98
(dp99
g74
(dp100
S'_valign'
p101
S'top'
p102
ssg83
g86
sg76
(lp103
S':'
asbag69
(g90
g71
NtRp104
(dp105
g74
(dp106
sg83
g86
sg76
(lp107
g69
(g70
g71
NtRp108
(dp109
g74
(dp110
g82
I5
ssg83
g104
sg76
(lp111
S'False'
p112
asbasbasbag69
(g85
g71
NtRp113
(dp114
g74
(dp115
sg83
g79
sg76
(lp116
g69
(g90
g71
NtRp117
(dp118
g74
(dp119
g94
g95
ssg83
g113
sg76
(lp120
S'application'
p121
asbag69
(g90
g71
NtRp122
(dp123
g74
(dp124
g101
g102
ssg83
g113
sg76
(lp125
S':'
asbag69
(g90
g71
NtRp126
(dp127
g74
(dp128
sg83
g113
sg76
(lp129
g69
(g70
g71
NtRp130
(dp131
g74
(dp132
g82
I5
ssg83
g126
sg76
(lp133
S'Book_Shelf_copy'
p134
asbasbasbag69
(g85
g71
NtRp135
(dp136
g74
(dp137
sg83
g79
sg76
(lp138
g69
(g90
g71
NtRp139
(dp140
g74
(dp141
g94
g95
ssg83
g135
sg76
(lp142
g52
asbag69
(g90
g71
NtRp143
(dp144
g74
(dp145
g101
g102
ssg83
g135
sg76
(lp146
S':'
asbag69
(g90
g71
NtRp147
(dp148
g74
(dp149
sg83
g135
sg76
(lp150
g69
(g70
g71
NtRp151
(dp152
g74
(dp153
g82
I5
ssg83
g147
sg76
(lp154
g69
(g78
g71
NtRp155
(dp156
g74
(dp157
g82
I4
ssg83
Nsg76
(lp158
g69
(g85
g71
NtRp159
(dp160
g74
(dp161
sg83
g155
sg76
(lp162
g69
(g90
g71
NtRp163
(dp164
g74
(dp165
sg83
g159
sg76
(lp166
g69
(g70
g71
NtRp167
(dp168
g74
(dp169
g82
I4
ssg83
g163
sg76
(lp170
S'1'
asbasbasbasbasbasbasbag69
(g85
g71
NtRp171
(dp172
g74
(dp173
sg83
g79
sg76
(lp174
g69
(g90
g71
NtRp175
(dp176
g74
(dp177
g94
g95
ssg83
g171
sg76
(lp178
S'body'
p179
asbag69
(g90
g71
NtRp180
(dp181
g74
(dp182
g101
g102
ssg83
g171
sg76
(lp183
S':'
asbag69
(g90
g71
NtRp184
(dp185
g74
(dp186
sg83
g171
sg76
(lp187
g69
(g70
g71
NtRp188
(dp189
g74
(dp190
g82
I5
ssg83
g184
sg76
(lp191
S'<cStringIO.StringO object at 0x109fb25a8>'
p192
asbasbasbag69
(g85
g71
NtRp193
(dp194
g74
(dp195
sg83
g79
sg76
(lp196
g69
(g90
g71
NtRp197
(dp198
g74
(dp199
g94
g95
ssg83
g193
sg76
(lp200
S'client'
p201
asbag69
(g90
g71
NtRp202
(dp203
g74
(dp204
g101
g102
ssg83
g193
sg76
(lp205
S':'
asbag69
(g90
g71
NtRp206
(dp207
g74
(dp208
sg83
g193
sg76
(lp209
g69
(g70
g71
NtRp210
(dp211
g74
(dp212
g82
I5
ssg83
g206
sg76
(lp213
S'127.0.0.1'
p214
asbasbasbag69
(g85
g71
NtRp215
(dp216
g74
(dp217
sg83
g79
sg76
(lp218
g69
(g90
g71
NtRp219
(dp220
g74
(dp221
g94
g95
ssg83
g215
sg76
(lp222
S'controller'
p223
asbag69
(g90
g71
NtRp224
(dp225
g74
(dp226
g101
g102
ssg83
g215
sg76
(lp227
S':'
asbag69
(g90
g71
NtRp228
(dp229
g74
(dp230
sg83
g215
sg76
(lp231
g69
(g70
g71
NtRp232
(dp233
g74
(dp234
g82
I5
ssg83
g228
sg76
(lp235
S'default'
p236
asbasbasbag69
(g85
g71
NtRp237
(dp238
g74
(dp239
sg83
g79
sg76
(lp240
g69
(g90
g71
NtRp241
(dp242
g74
(dp243
g94
g95
ssg83
g237
sg76
(lp244
S'cookies'
p245
asbag69
(g90
g71
NtRp246
(dp247
g74
(dp248
g101
g102
ssg83
g237
sg76
(lp249
S':'
asbag69
(g90
g71
NtRp250
(dp251
g74
(dp252
sg83
g237
sg76
(lp253
g69
(g70
g71
NtRp254
(dp255
g74
(dp256
g82
I5
ssg83
g250
sg76
(lp257
g69
(g78
g71
NtRp258
(dp259
g74
(dp260
g82
I4
ssg83
Nsg76
(lp261
g69
(g85
g71
NtRp262
(dp263
g74
(dp264
sg83
g258
sg76
(lp265
g69
(g90
g71
NtRp266
(dp267
g74
(dp268
g94
g95
ssg83
g262
sg76
(lp269
S'session_id_admin'
p270
asbag69
(g90
g71
NtRp271
(dp272
g74
(dp273
g101
g102
ssg83
g262
sg76
(lp274
S':'
asbag69
(g90
g71
NtRp275
(dp276
g74
(dp277
sg83
g262
sg76
(lp278
g69
(g70
g71
NtRp279
(dp280
g74
(dp281
g82
I4
ssg83
g275
sg76
(lp282
g69
(g78
g71
NtRp283
(dp284
g74
(dp285
g82
I3
ssg83
Nsg76
(lp286
g69
(g85
g71
NtRp287
(dp288
g74
(dp289
sg83
g283
sg76
(lp290
g69
(g90
g71
NtRp291
(dp292
g74
(dp293
g94
g95
ssg83
g287
sg76
(lp294
S'comment'
p295
asbag69
(g90
g71
NtRp296
(dp297
g74
(dp298
g101
g102
ssg83
g287
sg76
(lp299
S':'
asbag69
(g90
g71
NtRp300
(dp301
g74
(dp302
sg83
g287
sg76
(lp303
g69
(g70
g71
NtRp304
(dp305
g74
(dp306
g82
I3
ssg83
g300
sg76
(lp307
S''
asbasbasbag69
(g85
g71
NtRp308
(dp309
g74
(dp310
sg83
g283
sg76
(lp311
g69
(g90
g71
NtRp312
(dp313
g74
(dp314
g94
g95
ssg83
g308
sg76
(lp315
S'domain'
p316
asbag69
(g90
g71
NtRp317
(dp318
g74
(dp319
g101
g102
ssg83
g308
sg76
(lp320
S':'
asbag69
(g90
g71
NtRp321
(dp322
g74
(dp323
sg83
g308
sg76
(lp324
g69
(g70
g71
NtRp325
(dp326
g74
(dp327
g82
I3
ssg83
g321
sg76
(lp328
S''
asbasbasbag69
(g85
g71
NtRp329
(dp330
g74
(dp331
sg83
g283
sg76
(lp332
g69
(g90
g71
NtRp333
(dp334
g74
(dp335
g94
g95
ssg83
g329
sg76
(lp336
S'expires'
p337
asbag69
(g90
g71
NtRp338
(dp339
g74
(dp340
g101
g102
ssg83
g329
sg76
(lp341
S':'
asbag69
(g90
g71
NtRp342
(dp343
g74
(dp344
sg83
g329
sg76
(lp345
g69
(g70
g71
NtRp346
(dp347
g74
(dp348
g82
I3
ssg83
g342
sg76
(lp349
S''
asbasbasbag69
(g85
g71
NtRp350
(dp351
g74
(dp352
sg83
g283
sg76
(lp353
g69
(g90
g71
NtRp354
(dp355
g74
(dp356
g94
g95
ssg83
g350
sg76
(lp357
S'httponly'
p358
asbag69
(g90
g71
NtRp359
(dp360
g74
(dp361
g101
g102
ssg83
g350
sg76
(lp362
S':'
asbag69
(g90
g71
NtRp363
(dp364
g74
(dp365
sg83
g350
sg76
(lp366
g69
(g70
g71
NtRp367
(dp368
g74
(dp369
g82
I3
ssg83
g363
sg76
(lp370
S''
asbasbasbag69
(g85
g71
NtRp371
(dp372
g74
(dp373
sg83
g283
sg76
(lp374
g69
(g90
g71
NtRp375
(dp376
g74
(dp377
g94
g95
ssg83
g371
sg76
(lp378
S'max-age'
p379
asbag69
(g90
g71
NtRp380
(dp381
g74
(dp382
g101
g102
ssg83
g371
sg76
(lp383
S':'
asbag69
(g90
g71
NtRp384
(dp385
g74
(dp386
sg83
g371
sg76
(lp387
g69
(g70
g71
NtRp388
(dp389
g74
(dp390
g82
I3
ssg83
g384
sg76
(lp391
S''
asbasbasbag69
(g85
g71
NtRp392
(dp393
g74
(dp394
sg83
g283
sg76
(lp395
g69
(g90
g71
NtRp396
(dp397
g74
(dp398
g94
g95
ssg83
g392
sg76
(lp399
S'path'
p400
asbag69
(g90
g71
NtRp401
(dp402
g74
(dp403
g101
g102
ssg83
g392
sg76
(lp404
S':'
asbag69
(g90
g71
NtRp405
(dp406
g74
(dp407
sg83
g392
sg76
(lp408
g69
(g70
g71
NtRp409
(dp410
g74
(dp411
g82
I3
ssg83
g405
sg76
(lp412
S''
asbasbasbag69
(g85
g71
NtRp413
(dp414
g74
(dp415
sg83
g283
sg76
(lp416
g69
(g90
g71
NtRp417
(dp418
g74
(dp419
g94
g95
ssg83
g413
sg76
(lp420
S'secure'
p421
asbag69
(g90
g71
NtRp422
(dp423
g74
(dp424
g101
g102
ssg83
g413
sg76
(lp425
S':'
asbag69
(g90
g71
NtRp426
(dp427
g74
(dp428
sg83
g413
sg76
(lp429
g69
(g70
g71
NtRp430
(dp431
g74
(dp432
g82
I3
ssg83
g426
sg76
(lp433
S''
asbasbasbag69
(g85
g71
NtRp434
(dp435
g74
(dp436
sg83
g283
sg76
(lp437
g69
(g90
g71
NtRp438
(dp439
g74
(dp440
g94
g95
ssg83
g434
sg76
(lp441
S'version'
p442
asbag69
(g90
g71
NtRp443
(dp444
g74
(dp445
g101
g102
ssg83
g434
sg76
(lp446
S':'
asbag69
(g90
g71
NtRp447
(dp448
g74
(dp449
sg83
g434
sg76
(lp450
g69
(g70
g71
NtRp451
(dp452
g74
(dp453
g82
I3
ssg83
g447
sg76
(lp454
S''
asbasbasbasbasbasbasbag69
(g85
g71
NtRp455
(dp456
g74
(dp457
sg83
g258
sg76
(lp458
g69
(g90
g71
NtRp459
(dp460
g74
(dp461
g94
g95
ssg83
g455
sg76
(lp462
S'session_id_book_shelf_copy'
p463
asbag69
(g90
g71
NtRp464
(dp465
g74
(dp466
g101
g102
ssg83
g455
sg76
(lp467
S':'
asbag69
(g90
g71
NtRp468
(dp469
g74
(dp470
sg83
g455
sg76
(lp471
g69
(g70
g71
NtRp472
(dp473
g74
(dp474
g82
I4
ssg83
g468
sg76
(lp475
g69
(g78
g71
NtRp476
(dp477
g74
(dp478
g82
I3
ssg83
Nsg76
(lp479
g69
(g85
g71
NtRp480
(dp481
g74
(dp482
sg83
g476
sg76
(lp483
g69
(g90
g71
NtRp484
(dp485
g74
(dp486
g94
g95
ssg83
g480
sg76
(lp487
g295
asbag69
(g90
g71
NtRp488
(dp489
g74
(dp490
g101
g102
ssg83
g480
sg76
(lp491
S':'
asbag69
(g90
g71
NtRp492
(dp493
g74
(dp494
sg83
g480
sg76
(lp495
g69
(g70
g71
NtRp496
(dp497
g74
(dp498
g82
I3
ssg83
g492
sg76
(lp499
S''
asbasbasbag69
(g85
g71
NtRp500
(dp501
g74
(dp502
sg83
g476
sg76
(lp503
g69
(g90
g71
NtRp504
(dp505
g74
(dp506
g94
g95
ssg83
g500
sg76
(lp507
g316
asbag69
(g90
g71
NtRp508
(dp509
g74
(dp510
g101
g102
ssg83
g500
sg76
(lp511
S':'
asbag69
(g90
g71
NtRp512
(dp513
g74
(dp514
sg83
g500
sg76
(lp515
g69
(g70
g71
NtRp516
(dp517
g74
(dp518
g82
I3
ssg83
g512
sg76
(lp519
S''
asbasbasbag69
(g85
g71
NtRp520
(dp521
g74
(dp522
sg83
g476
sg76
(lp523
g69
(g90
g71
NtRp524
(dp525
g74
(dp526
g94
g95
ssg83
g520
sg76
(lp527
g337
asbag69
(g90
g71
NtRp528
(dp529
g74
(dp530
g101
g102
ssg83
g520
sg76
(lp531
S':'
asbag69
(g90
g71
NtRp532
(dp533
g74
(dp534
sg83
g520
sg76
(lp535
g69
(g70
g71
NtRp536
(dp537
g74
(dp538
g82
I3
ssg83
g532
sg76
(lp539
S''
asbasbasbag69
(g85
g71
NtRp540
(dp541
g74
(dp542
sg83
g476
sg76
(lp543
g69
(g90
g71
NtRp544
(dp545
g74
(dp546
g94
g95
ssg83
g540
sg76
(lp547
g358
asbag69
(g90
g71
NtRp548
(dp549
g74
(dp550
g101
g102
ssg83
g540
sg76
(lp551
S':'
asbag69
(g90
g71
NtRp552
(dp553
g74
(dp554
sg83
g540
sg76
(lp555
g69
(g70
g71
NtRp556
(dp557
g74
(dp558
g82
I3
ssg83
g552
sg76
(lp559
S''
asbasbasbag69
(g85
g71
NtRp560
(dp561
g74
(dp562
sg83
g476
sg76
(lp563
g69
(g90
g71
NtRp564
(dp565
g74
(dp566
g94
g95
ssg83
g560
sg76
(lp567
g379
asbag69
(g90
g71
NtRp568
(dp569
g74
(dp570
g101
g102
ssg83
g560
sg76
(lp571
S':'
asbag69
(g90
g71
NtRp572
(dp573
g74
(dp574
sg83
g560
sg76
(lp575
g69
(g70
g71
NtRp576
(dp577
g74
(dp578
g82
I3
ssg83
g572
sg76
(lp579
S''
asbasbasbag69
(g85
g71
NtRp580
(dp581
g74
(dp582
sg83
g476
sg76
(lp583
g69
(g90
g71
NtRp584
(dp585
g74
(dp586
g94
g95
ssg83
g580
sg76
(lp587
g400
asbag69
(g90
g71
NtRp588
(dp589
g74
(dp590
g101
g102
ssg83
g580
sg76
(lp591
S':'
asbag69
(g90
g71
NtRp592
(dp593
g74
(dp594
sg83
g580
sg76
(lp595
g69
(g70
g71
NtRp596
(dp597
g74
(dp598
g82
I3
ssg83
g592
sg76
(lp599
S''
asbasbasbag69
(g85
g71
NtRp600
(dp601
g74
(dp602
sg83
g476
sg76
(lp603
g69
(g90
g71
NtRp604
(dp605
g74
(dp606
g94
g95
ssg83
g600
sg76
(lp607
g421
asbag69
(g90
g71
NtRp608
(dp609
g74
(dp610
g101
g102
ssg83
g600
sg76
(lp611
S':'
asbag69
(g90
g71
NtRp612
(dp613
g74
(dp614
sg83
g600
sg76
(lp615
g69
(g70
g71
NtRp616
(dp617
g74
(dp618
g82
I3
ssg83
g612
sg76
(lp619
S''
asbasbasbag69
(g85
g71
NtRp620
(dp621
g74
(dp622
sg83
g476
sg76
(lp623
g69
(g90
g71
NtRp624
(dp625
g74
(dp626
g94
g95
ssg83
g620
sg76
(lp627
g442
asbag69
(g90
g71
NtRp628
(dp629
g74
(dp630
g101
g102
ssg83
g620
sg76
(lp631
S':'
asbag69
(g90
g71
NtRp632
(dp633
g74
(dp634
sg83
g620
sg76
(lp635
g69
(g70
g71
NtRp636
(dp637
g74
(dp638
g82
I3
ssg83
g632
sg76
(lp639
S''
asbasbasbasbasbasbasbag69
(g85
g71
NtRp640
(dp641
g74
(dp642
sg83
g258
sg76
(lp643
g69
(g90
g71
NtRp644
(dp645
g74
(dp646
g94
g95
ssg83
g640
sg76
(lp647
S'session_id_todolist2'
p648
asbag69
(g90
g71
NtRp649
(dp650
g74
(dp651
g101
g102
ssg83
g640
sg76
(lp652
S':'
asbag69
(g90
g71
NtRp653
(dp654
g74
(dp655
sg83
g640
sg76
(lp656
g69
(g70
g71
NtRp657
(dp658
g74
(dp659
g82
I4
ssg83
g653
sg76
(lp660
g69
(g78
g71
NtRp661
(dp662
g74
(dp663
g82
I3
ssg83
Nsg76
(lp664
g69
(g85
g71
NtRp665
(dp666
g74
(dp667
sg83
g661
sg76
(lp668
g69
(g90
g71
NtRp669
(dp670
g74
(dp671
g94
g95
ssg83
g665
sg76
(lp672
g295
asbag69
(g90
g71
NtRp673
(dp674
g74
(dp675
g101
g102
ssg83
g665
sg76
(lp676
S':'
asbag69
(g90
g71
NtRp677
(dp678
g74
(dp679
sg83
g665
sg76
(lp680
g69
(g70
g71
NtRp681
(dp682
g74
(dp683
g82
I3
ssg83
g677
sg76
(lp684
S''
asbasbasbag69
(g85
g71
NtRp685
(dp686
g74
(dp687
sg83
g661
sg76
(lp688
g69
(g90
g71
NtRp689
(dp690
g74
(dp691
g94
g95
ssg83
g685
sg76
(lp692
g316
asbag69
(g90
g71
NtRp693
(dp694
g74
(dp695
g101
g102
ssg83
g685
sg76
(lp696
S':'
asbag69
(g90
g71
NtRp697
(dp698
g74
(dp699
sg83
g685
sg76
(lp700
g69
(g70
g71
NtRp701
(dp702
g74
(dp703
g82
I3
ssg83
g697
sg76
(lp704
S''
asbasbasbag69
(g85
g71
NtRp705
(dp706
g74
(dp707
sg83
g661
sg76
(lp708
g69
(g90
g71
NtRp709
(dp710
g74
(dp711
g94
g95
ssg83
g705
sg76
(lp712
g337
asbag69
(g90
g71
NtRp713
(dp714
g74
(dp715
g101
g102
ssg83
g705
sg76
(lp716
S':'
asbag69
(g90
g71
NtRp717
(dp718
g74
(dp719
sg83
g705
sg76
(lp720
g69
(g70
g71
NtRp721
(dp722
g74
(dp723
g82
I3
ssg83
g717
sg76
(lp724
S''
asbasbasbag69
(g85
g71
NtRp725
(dp726
g74
(dp727
sg83
g661
sg76
(lp728
g69
(g90
g71
NtRp729
(dp730
g74
(dp731
g94
g95
ssg83
g725
sg76
(lp732
g358
asbag69
(g90
g71
NtRp733
(dp734
g74
(dp735
g101
g102
ssg83
g725
sg76
(lp736
S':'
asbag69
(g90
g71
NtRp737
(dp738
g74
(dp739
sg83
g725
sg76
(lp740
g69
(g70
g71
NtRp741
(dp742
g74
(dp743
g82
I3
ssg83
g737
sg76
(lp744
S''
asbasbasbag69
(g85
g71
NtRp745
(dp746
g74
(dp747
sg83
g661
sg76
(lp748
g69
(g90
g71
NtRp749
(dp750
g74
(dp751
g94
g95
ssg83
g745
sg76
(lp752
g379
asbag69
(g90
g71
NtRp753
(dp754
g74
(dp755
g101
g102
ssg83
g745
sg76
(lp756
S':'
asbag69
(g90
g71
NtRp757
(dp758
g74
(dp759
sg83
g745
sg76
(lp760
g69
(g70
g71
NtRp761
(dp762
g74
(dp763
g82
I3
ssg83
g757
sg76
(lp764
S''
asbasbasbag69
(g85
g71
NtRp765
(dp766
g74
(dp767
sg83
g661
sg76
(lp768
g69
(g90
g71
NtRp769
(dp770
g74
(dp771
g94
g95
ssg83
g765
sg76
(lp772
g400
asbag69
(g90
g71
NtRp773
(dp774
g74
(dp775
g101
g102
ssg83
g765
sg76
(lp776
S':'
asbag69
(g90
g71
NtRp777
(dp778
g74
(dp779
sg83
g765
sg76
(lp780
g69
(g70
g71
NtRp781
(dp782
g74
(dp783
g82
I3
ssg83
g777
sg76
(lp784
S''
asbasbasbag69
(g85
g71
NtRp785
(dp786
g74
(dp787
sg83
g661
sg76
(lp788
g69
(g90
g71
NtRp789
(dp790
g74
(dp791
g94
g95
ssg83
g785
sg76
(lp792
g421
asbag69
(g90
g71
NtRp793
(dp794
g74
(dp795
g101
g102
ssg83
g785
sg76
(lp796
S':'
asbag69
(g90
g71
NtRp797
(dp798
g74
(dp799
sg83
g785
sg76
(lp800
g69
(g70
g71
NtRp801
(dp802
g74
(dp803
g82
I3
ssg83
g797
sg76
(lp804
S''
asbasbasbag69
(g85
g71
NtRp805
(dp806
g74
(dp807
sg83
g661
sg76
(lp808
g69
(g90
g71
NtRp809
(dp810
g74
(dp811
g94
g95
ssg83
g805
sg76
(lp812
g442
asbag69
(g90
g71
NtRp813
(dp814
g74
(dp815
g101
g102
ssg83
g805
sg76
(lp816
S':'
asbag69
(g90
g71
NtRp817
(dp818
g74
(dp819
sg83
g805
sg76
(lp820
g69
(g70
g71
NtRp821
(dp822
g74
(dp823
g82
I3
ssg83
g817
sg76
(lp824
S''
asbasbasbasbasbasbasbag69
(g85
g71
NtRp825
(dp826
g74
(dp827
sg83
g258
sg76
(lp828
g69
(g90
g71
NtRp829
(dp830
g74
(dp831
g94
g95
ssg83
g825
sg76
(lp832
S'session_id_welcome'
p833
asbag69
(g90
g71
NtRp834
(dp835
g74
(dp836
g101
g102
ssg83
g825
sg76
(lp837
S':'
asbag69
(g90
g71
NtRp838
(dp839
g74
(dp840
sg83
g825
sg76
(lp841
g69
(g70
g71
NtRp842
(dp843
g74
(dp844
g82
I4
ssg83
g838
sg76
(lp845
g69
(g78
g71
NtRp846
(dp847
g74
(dp848
g82
I3
ssg83
Nsg76
(lp849
g69
(g85
g71
NtRp850
(dp851
g74
(dp852
sg83
g846
sg76
(lp853
g69
(g90
g71
NtRp854
(dp855
g74
(dp856
g94
g95
ssg83
g850
sg76
(lp857
g295
asbag69
(g90
g71
NtRp858
(dp859
g74
(dp860
g101
g102
ssg83
g850
sg76
(lp861
S':'
asbag69
(g90
g71
NtRp862
(dp863
g74
(dp864
sg83
g850
sg76
(lp865
g69
(g70
g71
NtRp866
(dp867
g74
(dp868
g82
I3
ssg83
g862
sg76
(lp869
S''
asbasbasbag69
(g85
g71
NtRp870
(dp871
g74
(dp872
sg83
g846
sg76
(lp873
g69
(g90
g71
NtRp874
(dp875
g74
(dp876
g94
g95
ssg83
g870
sg76
(lp877
g316
asbag69
(g90
g71
NtRp878
(dp879
g74
(dp880
g101
g102
ssg83
g870
sg76
(lp881
S':'
asbag69
(g90
g71
NtRp882
(dp883
g74
(dp884
sg83
g870
sg76
(lp885
g69
(g70
g71
NtRp886
(dp887
g74
(dp888
g82
I3
ssg83
g882
sg76
(lp889
S''
asbasbasbag69
(g85
g71
NtRp890
(dp891
g74
(dp892
sg83
g846
sg76
(lp893
g69
(g90
g71
NtRp894
(dp895
g74
(dp896
g94
g95
ssg83
g890
sg76
(lp897
g337
asbag69
(g90
g71
NtRp898
(dp899
g74
(dp900
g101
g102
ssg83
g890
sg76
(lp901
S':'
asbag69
(g90
g71
NtRp902
(dp903
g74
(dp904
sg83
g890
sg76
(lp905
g69
(g70
g71
NtRp906
(dp907
g74
(dp908
g82
I3
ssg83
g902
sg76
(lp909
S''
asbasbasbag69
(g85
g71
NtRp910
(dp911
g74
(dp912
sg83
g846
sg76
(lp913
g69
(g90
g71
NtRp914
(dp915
g74
(dp916
g94
g95
ssg83
g910
sg76
(lp917
g358
asbag69
(g90
g71
NtRp918
(dp919
g74
(dp920
g101
g102
ssg83
g910
sg76
(lp921
S':'
asbag69
(g90
g71
NtRp922
(dp923
g74
(dp924
sg83
g910
sg76
(lp925
g69
(g70
g71
NtRp926
(dp927
g74
(dp928
g82
I3
ssg83
g922
sg76
(lp929
S''
asbasbasbag69
(g85
g71
NtRp930
(dp931
g74
(dp932
sg83
g846
sg76
(lp933
g69
(g90
g71
NtRp934
(dp935
g74
(dp936
g94
g95
ssg83
g930
sg76
(lp937
g379
asbag69
(g90
g71
NtRp938
(dp939
g74
(dp940
g101
g102
ssg83
g930
sg76
(lp941
S':'
asbag69
(g90
g71
NtRp942
(dp943
g74
(dp944
sg83
g930
sg76
(lp945
g69
(g70
g71
NtRp946
(dp947
g74
(dp948
g82
I3
ssg83
g942
sg76
(lp949
S''
asbasbasbag69
(g85
g71
NtRp950
(dp951
g74
(dp952
sg83
g846
sg76
(lp953
g69
(g90
g71
NtRp954
(dp955
g74
(dp956
g94
g95
ssg83
g950
sg76
(lp957
g400
asbag69
(g90
g71
NtRp958
(dp959
g74
(dp960
g101
g102
ssg83
g950
sg76
(lp961
S':'
asbag69
(g90
g71
NtRp962
(dp963
g74
(dp964
sg83
g950
sg76
(lp965
g69
(g70
g71
NtRp966
(dp967
g74
(dp968
g82
I3
ssg83
g962
sg76
(lp969
S''
asbasbasbag69
(g85
g71
NtRp970
(dp971
g74
(dp972
sg83
g846
sg76
(lp973
g69
(g90
g71
NtRp974
(dp975
g74
(dp976
g94
g95
ssg83
g970
sg76
(lp977
g421
asbag69
(g90
g71
NtRp978
(dp979
g74
(dp980
g101
g102
ssg83
g970
sg76
(lp981
S':'
asbag69
(g90
g71
NtRp982
(dp983
g74
(dp984
sg83
g970
sg76
(lp985
g69
(g70
g71
NtRp986
(dp987
g74
(dp988
g82
I3
ssg83
g982
sg76
(lp989
S''
asbasbasbag69
(g85
g71
NtRp990
(dp991
g74
(dp992
sg83
g846
sg76
(lp993
g69
(g90
g71
NtRp994
(dp995
g74
(dp996
g94
g95
ssg83
g990
sg76
(lp997
g442
asbag69
(g90
g71
NtRp998
(dp999
g74
(dp1000
g101
g102
ssg83
g990
sg76
(lp1001
S':'
asbag69
(g90
g71
NtRp1002
(dp1003
g74
(dp1004
sg83
g990
sg76
(lp1005
g69
(g70
g71
NtRp1006
(dp1007
g74
(dp1008
g82
I3
ssg83
g1002
sg76
(lp1009
S''
asbasbasbasbasbasbasbasbasbasbasbag69
(g85
g71
NtRp1010
(dp1011
g74
(dp1012
sg83
g79
sg76
(lp1013
g69
(g90
g71
NtRp1014
(dp1015
g74
(dp1016
g94
g95
ssg83
g1010
sg76
(lp1017
S'env'
p1018
asbag69
(g90
g71
NtRp1019
(dp1020
g74
(dp1021
g101
g102
ssg83
g1010
sg76
(lp1022
S':'
asbag69
(g90
g71
NtRp1023
(dp1024
g74
(dp1025
sg83
g1010
sg76
(lp1026
g69
(g70
g71
NtRp1027
(dp1028
g74
(dp1029
g82
I5
ssg83
g1023
sg76
(lp1030
g69
(g78
g71
NtRp1031
(dp1032
g74
(dp1033
g82
I4
ssg83
Nsg76
(lp1034
g69
(g85
g71
NtRp1035
(dp1036
g74
(dp1037
sg83
g1031
sg76
(lp1038
g69
(g90
g71
NtRp1039
(dp1040
g74
(dp1041
g94
g95
ssg83
g1035
sg76
(lp1042
S'app_folders'
p1043
asbag69
(g90
g71
NtRp1044
(dp1045
g74
(dp1046
g101
g102
ssg83
g1035
sg76
(lp1047
S':'
asbag69
(g90
g71
NtRp1048
(dp1049
g74
(dp1050
sg83
g1035
sg76
(lp1051
g69
(g70
g71
NtRp1052
(dp1053
g74
(dp1054
g82
I4
ssg83
g1048
sg76
(lp1055
S"set(['/Users/ianaboneva/Dropbox/DePaul/CSC 438 - Web Applications/web2py/applications/ToDoList2/', '/Users/ianaboneva/Dropbox/DePaul/CSC 438 - Web Applications/web2py/applications/welcome/', '/Users/ianaboneva/Dropbox/DePaul/CSC 438 - Web Applications/web2py/applications/admin/', '/Users/ianaboneva/Dropbox/DePaul/CSC 438 - Web Applications/web2py/applications/Book_Shelf_copy/'])"
p1056
asbasbasbag69
(g85
g71
NtRp1057
(dp1058
g74
(dp1059
sg83
g1031
sg76
(lp1060
g69
(g90
g71
NtRp1061
(dp1062
g74
(dp1063
g94
g95
ssg83
g1057
sg76
(lp1064
S'applications_parent'
p1065
asbag69
(g90
g71
NtRp1066
(dp1067
g74
(dp1068
g101
g102
ssg83
g1057
sg76
(lp1069
S':'
asbag69
(g90
g71
NtRp1070
(dp1071
g74
(dp1072
sg83
g1057
sg76
(lp1073
g69
(g70
g71
NtRp1074
(dp1075
g74
(dp1076
g82
I4
ssg83
g1070
sg76
(lp1077
S'/Users/ianaboneva/Dropbox/DePaul/CSC 438 - Web Applications/web2py'
p1078
asbasbasbag69
(g85
g71
NtRp1079
(dp1080
g74
(dp1081
sg83
g1031
sg76
(lp1082
g69
(g90
g71
NtRp1083
(dp1084
g74
(dp1085
g94
g95
ssg83
g1079
sg76
(lp1086
S'cmd_args'
p1087
asbag69
(g90
g71
NtRp1088
(dp1089
g74
(dp1090
g101
g102
ssg83
g1079
sg76
(lp1091
S':'
asbag69
(g90
g71
NtRp1092
(dp1093
g74
(dp1094
sg83
g1079
sg76
(lp1095
g69
(g70
g71
NtRp1096
(dp1097
g74
(dp1098
g82
I4
ssg83
g1092
sg76
(lp1099
g69
(g78
g71
NtRp1100
(dp1101
g74
(dp1102
g82
I3
ssg83
Nsg76
(lp1103
sbasbasbasbag69
(g85
g71
NtRp1104
(dp1105
g74
(dp1106
sg83
g1031
sg76
(lp1107
g69
(g90
g71
NtRp1108
(dp1109
g74
(dp1110
g94
g95
ssg83
g1104
sg76
(lp1111
S'cmd_options'
p1112
asbag69
(g90
g71
NtRp1113
(dp1114
g74
(dp1115
g101
g102
ssg83
g1104
sg76
(lp1116
S':'
asbag69
(g90
g71
NtRp1117
(dp1118
g74
(dp1119
sg83
g1104
sg76
(lp1120
g69
(g70
g71
NtRp1121
(dp1122
g74
(dp1123
g82
I4
ssg83
g1117
sg76
(lp1124
S"<Values at 0x104fc1b00: {'verbose': False, 'ip': '127.0.0.1', 'shutdown_timeout': 5, 'taskbar': False, 'nocron': False, 'pid_filename': 'httpserver.pid', 'maxthreads': None, 'softcron': False, 'server_name': 'Iana-Bonevas-MacBook-Pro.local', 'bpython': False, 'nogui': False, 'port': 8000, 'extcron': False, 'debuglevel': 30, 'test': None, 'folder': '/Users/ianaboneva/Dropbox/DePaul/CSC 438 - Web Applications/web2py', 'config': '', 'import_models': False, 'winservice': '', 'shell': None, 'run': '', 'log_filename': 'httpserver.log', 'args': [''], 'socket_timeout': 5, 'ssl_ca_certificate': None, 'scheduler': None, 'profiler_filename': None, 'ssl_private_key': '', 'password': '<ask>', 'request_queue_size': 5, 'ssl_certificate': '', 'cronjob': False, 'numthreads': None, 'quiet': False, 'interfaces': None, 'minthreads': None, 'timeout': 10, 'plain': False, 'nobanner': False}>"
p1125
asbasbasbag69
(g85
g71
NtRp1126
(dp1127
g74
(dp1128
sg83
g1031
sg76
(lp1129
g69
(g90
g71
NtRp1130
(dp1131
g74
(dp1132
g94
g95
ssg83
g1126
sg76
(lp1133
S'db_sessions'
p1134
asbag69
(g90
g71
NtRp1135
(dp1136
g74
(dp1137
g101
g102
ssg83
g1126
sg76
(lp1138
S':'
asbag69
(g90
g71
NtRp1139
(dp1140
g74
(dp1141
sg83
g1126
sg76
(lp1142
g69
(g70
g71
NtRp1143
(dp1144
g74
(dp1145
g82
I4
ssg83
g1139
sg76
(lp1146
S'set([])'
p1147
asbasbasbag69
(g85
g71
NtRp1148
(dp1149
g74
(dp1150
sg83
g1031
sg76
(lp1151
g69
(g90
g71
NtRp1152
(dp1153
g74
(dp1154
g94
g95
ssg83
g1148
sg76
(lp1155
S'debugging'
p1156
asbag69
(g90
g71
NtRp1157
(dp1158
g74
(dp1159
g101
g102
ssg83
g1148
sg76
(lp1160
S':'
asbag69
(g90
g71
NtRp1161
(dp1162
g74
(dp1163
sg83
g1148
sg76
(lp1164
g69
(g70
g71
NtRp1165
(dp1166
g74
(dp1167
g82
I4
ssg83
g1161
sg76
(lp1168
g112
asbasbasbag69
(g85
g71
NtRp1169
(dp1170
g74
(dp1171
sg83
g1031
sg76
(lp1172
g69
(g90
g71
NtRp1173
(dp1174
g74
(dp1175
g94
g95
ssg83
g1169
sg76
(lp1176
S'gluon_parent'
p1177
asbag69
(g90
g71
NtRp1178
(dp1179
g74
(dp1180
g101
g102
ssg83
g1169
sg76
(lp1181
S':'
asbag69
(g90
g71
NtRp1182
(dp1183
g74
(dp1184
sg83
g1169
sg76
(lp1185
g69
(g70
g71
NtRp1186
(dp1187
g74
(dp1188
g82
I4
ssg83
g1182
sg76
(lp1189
S'/Users/ianaboneva/Dropbox/DePaul/CSC 438 - Web Applications/web2py'
p1190
asbasbasbag69
(g85
g71
NtRp1191
(dp1192
g74
(dp1193
sg83
g1031
sg76
(lp1194
g69
(g90
g71
NtRp1195
(dp1196
g74
(dp1197
g94
g95
ssg83
g1191
sg76
(lp1198
S'http_accept'
p1199
asbag69
(g90
g71
NtRp1200
(dp1201
g74
(dp1202
g101
g102
ssg83
g1191
sg76
(lp1203
S':'
asbag69
(g90
g71
NtRp1204
(dp1205
g74
(dp1206
sg83
g1191
sg76
(lp1207
g69
(g70
g71
NtRp1208
(dp1209
g74
(dp1210
g82
I4
ssg83
g1204
sg76
(lp1211
S'text/html,application/xhtml+xml,application/xml;q=0.9,*/*;q=0.8'
p1212
asbasbasbag69
(g85
g71
NtRp1213
(dp1214
g74
(dp1215
sg83
g1031
sg76
(lp1216
g69
(g90
g71
NtRp1217
(dp1218
g74
(dp1219
g94
g95
ssg83
g1213
sg76
(lp1220
S'http_accept_charset'
p1221
asbag69
(g90
g71
NtRp1222
(dp1223
g74
(dp1224
g101
g102
ssg83
g1213
sg76
(lp1225
S':'
asbag69
(g90
g71
NtRp1226
(dp1227
g74
(dp1228
sg83
g1213
sg76
(lp1229
g69
(g70
g71
NtRp1230
(dp1231
g74
(dp1232
g82
I4
ssg83
g1226
sg76
(lp1233
S'ISO-8859-1,utf-8;q=0.7,*;q=0.3'
p1234
asbasbasbag69
(g85
g71
NtRp1235
(dp1236
g74
(dp1237
sg83
g1031
sg76
(lp1238
g69
(g90
g71
NtRp1239
(dp1240
g74
(dp1241
g94
g95
ssg83
g1235
sg76
(lp1242
S'http_accept_encoding'
p1243
asbag69
(g90
g71
NtRp1244
(dp1245
g74
(dp1246
g101
g102
ssg83
g1235
sg76
(lp1247
S':'
asbag69
(g90
g71
NtRp1248
(dp1249
g74
(dp1250
sg83
g1235
sg76
(lp1251
g69
(g70
g71
NtRp1252
(dp1253
g74
(dp1254
g82
I4
ssg83
g1248
sg76
(lp1255
S'gzip,deflate,sdch'
p1256
asbasbasbag69
(g85
g71
NtRp1257
(dp1258
g74
(dp1259
sg83
g1031
sg76
(lp1260
g69
(g90
g71
NtRp1261
(dp1262
g74
(dp1263
g94
g95
ssg83
g1257
sg76
(lp1264
S'http_accept_language'
p1265
asbag69
(g90
g71
NtRp1266
(dp1267
g74
(dp1268
g101
g102
ssg83
g1257
sg76
(lp1269
S':'
asbag69
(g90
g71
NtRp1270
(dp1271
g74
(dp1272
sg83
g1257
sg76
(lp1273
g69
(g70
g71
NtRp1274
(dp1275
g74
(dp1276
g82
I4
ssg83
g1270
sg76
(lp1277
S'en-US,en;q=0.8'
p1278
asbasbasbag69
(g85
g71
NtRp1279
(dp1280
g74
(dp1281
sg83
g1031
sg76
(lp1282
g69
(g90
g71
NtRp1283
(dp1284
g74
(dp1285
g94
g95
ssg83
g1279
sg76
(lp1286
S'http_cache_control'
p1287
asbag69
(g90
g71
NtRp1288
(dp1289
g74
(dp1290
g101
g102
ssg83
g1279
sg76
(lp1291
S':'
asbag69
(g90
g71
NtRp1292
(dp1293
g74
(dp1294
sg83
g1279
sg76
(lp1295
g69
(g70
g71
NtRp1296
(dp1297
g74
(dp1298
g82
I4
ssg83
g1292
sg76
(lp1299
S'max-age=0'
p1300
asbasbasbag69
(g85
g71
NtRp1301
(dp1302
g74
(dp1303
sg83
g1031
sg76
(lp1304
g69
(g90
g71
NtRp1305
(dp1306
g74
(dp1307
g94
g95
ssg83
g1301
sg76
(lp1308
S'http_connection'
p1309
asbag69
(g90
g71
NtRp1310
(dp1311
g74
(dp1312
g101
g102
ssg83
g1301
sg76
(lp1313
S':'
asbag69
(g90
g71
NtRp1314
(dp1315
g74
(dp1316
sg83
g1301
sg76
(lp1317
g69
(g70
g71
NtRp1318
(dp1319
g74
(dp1320
g82
I4
ssg83
g1314
sg76
(lp1321
S'keep-alive'
p1322
asbasbasbag69
(g85
g71
NtRp1323
(dp1324
g74
(dp1325
sg83
g1031
sg76
(lp1326
g69
(g90
g71
NtRp1327
(dp1328
g74
(dp1329
g94
g95
ssg83
g1323
sg76
(lp1330
S'http_cookie'
p1331
asbag69
(g90
g71
NtRp1332
(dp1333
g74
(dp1334
g101
g102
ssg83
g1323
sg76
(lp1335
S':'
asbag69
(g90
g71
NtRp1336
(dp1337
g74
(dp1338
sg83
g1323
sg76
(lp1339
g69
(g70
g71
NtRp1340
(dp1341
g74
(dp1342
g82
I4
ssg83
g1336
sg76
(lp1343
S'session_id_welcome=127.0.0.1-bffe8a2c-7cac-4fda-8379-2a112ae00c58; session_id_todolist2=127.0.0.1-477221c7-510b-4aa7-b5d2-77bae14bca92; session_id_admin=127.0.0.1-4c04cc91-8b55-4bcd-8835-a51019000e30; session_id_book_shelf_copy=127.0.0.1-eeba29a1-713d-4626-a1ad-4627ea1d2e7a'
p1344
asbasbasbag69
(g85
g71
NtRp1345
(dp1346
g74
(dp1347
sg83
g1031
sg76
(lp1348
g69
(g90
g71
NtRp1349
(dp1350
g74
(dp1351
g94
g95
ssg83
g1345
sg76
(lp1352
S'http_host'
p1353
asbag69
(g90
g71
NtRp1354
(dp1355
g74
(dp1356
g101
g102
ssg83
g1345
sg76
(lp1357
S':'
asbag69
(g90
g71
NtRp1358
(dp1359
g74
(dp1360
sg83
g1345
sg76
(lp1361
g69
(g70
g71
NtRp1362
(dp1363
g74
(dp1364
g82
I4
ssg83
g1358
sg76
(lp1365
S'127.0.0.1:8000'
p1366
asbasbasbag69
(g85
g71
NtRp1367
(dp1368
g74
(dp1369
sg83
g1031
sg76
(lp1370
g69
(g90
g71
NtRp1371
(dp1372
g74
(dp1373
g94
g95
ssg83
g1367
sg76
(lp1374
S'http_referer'
p1375
asbag69
(g90
g71
NtRp1376
(dp1377
g74
(dp1378
g101
g102
ssg83
g1367
sg76
(lp1379
S':'
asbag69
(g90
g71
NtRp1380
(dp1381
g74
(dp1382
sg83
g1367
sg76
(lp1383
g69
(g70
g71
NtRp1384
(dp1385
g74
(dp1386
g82
I4
ssg83
g1380
sg76
(lp1387
S'http://127.0.0.1:8000/Book_Shelf_copy/default/index'
p1388
asbasbasbag69
(g85
g71
NtRp1389
(dp1390
g74
(dp1391
sg83
g1031
sg76
(lp1392
g69
(g90
g71
NtRp1393
(dp1394
g74
(dp1395
g94
g95
ssg83
g1389
sg76
(lp1396
S'http_user_agent'
p1397
asbag69
(g90
g71
NtRp1398
(dp1399
g74
(dp1400
g101
g102
ssg83
g1389
sg76
(lp1401
S':'
asbag69
(g90
g71
NtRp1402
(dp1403
g74
(dp1404
sg83
g1389
sg76
(lp1405
g69
(g70
g71
NtRp1406
(dp1407
g74
(dp1408
g82
I4
ssg83
g1402
sg76
(lp1409
S'Mozilla/5.0 (Macintosh; Intel Mac OS X 10_7_4) AppleWebKit/536.5 (KHTML, like Gecko) Chrome/19.0.1084.53 Safari/536.5'
p1410
asbasbasbag69
(g85
g71
NtRp1411
(dp1412
g74
(dp1413
sg83
g1031
sg76
(lp1414
g69
(g90
g71
NtRp1415
(dp1416
g74
(dp1417
g94
g95
ssg83
g1411
sg76
(lp1418
S'is_jython'
p1419
asbag69
(g90
g71
NtRp1420
(dp1421
g74
(dp1422
g101
g102
ssg83
g1411
sg76
(lp1423
S':'
asbag69
(g90
g71
NtRp1424
(dp1425
g74
(dp1426
sg83
g1411
sg76
(lp1427
g69
(g70
g71
NtRp1428
(dp1429
g74
(dp1430
g82
I4
ssg83
g1424
sg76
(lp1431
g112
asbasbasbag69
(g85
g71
NtRp1432
(dp1433
g74
(dp1434
sg83
g1031
sg76
(lp1435
g69
(g90
g71
NtRp1436
(dp1437
g74
(dp1438
g94
g95
ssg83
g1432
sg76
(lp1439
S'is_pypy'
p1440
asbag69
(g90
g71
NtRp1441
(dp1442
g74
(dp1443
g101
g102
ssg83
g1432
sg76
(lp1444
S':'
asbag69
(g90
g71
NtRp1445
(dp1446
g74
(dp1447
sg83
g1432
sg76
(lp1448
g69
(g70
g71
NtRp1449
(dp1450
g74
(dp1451
g82
I4
ssg83
g1445
sg76
(lp1452
g112
asbasbasbag69
(g85
g71
NtRp1453
(dp1454
g74
(dp1455
sg83
g1031
sg76
(lp1456
g69
(g90
g71
NtRp1457
(dp1458
g74
(dp1459
g94
g95
ssg83
g1453
sg76
(lp1460
S'path_info'
p1461
asbag69
(g90
g71
NtRp1462
(dp1463
g74
(dp1464
g101
g102
ssg83
g1453
sg76
(lp1465
S':'
asbag69
(g90
g71
NtRp1466
(dp1467
g74
(dp1468
sg83
g1453
sg76
(lp1469
g69
(g70
g71
NtRp1470
(dp1471
g74
(dp1472
g82
I4
ssg83
g1466
sg76
(lp1473
S'/Book_Shelf_copy/default/book_shelf/1'
p1474
asbasbasbag69
(g85
g71
NtRp1475
(dp1476
g74
(dp1477
sg83
g1031
sg76
(lp1478
g69
(g90
g71
NtRp1479
(dp1480
g74
(dp1481
g94
g95
ssg83
g1475
sg76
(lp1482
S'query_string'
p1483
asbag69
(g90
g71
NtRp1484
(dp1485
g74
(dp1486
g101
g102
ssg83
g1475
sg76
(lp1487
S':'
asbag69
(g90
g71
NtRp1488
(dp1489
g74
(dp1490
sg83
g1475
sg76
(lp1491
g69
(g70
g71
NtRp1492
(dp1493
g74
(dp1494
g82
I4
ssg83
g1488
sg76
(lp1495
S''
asbasbasbag69
(g85
g71
NtRp1496
(dp1497
g74
(dp1498
sg83
g1031
sg76
(lp1499
g69
(g90
g71
NtRp1500
(dp1501
g74
(dp1502
g94
g95
ssg83
g1496
sg76
(lp1503
S'remote_addr'
p1504
asbag69
(g90
g71
NtRp1505
(dp1506
g74
(dp1507
g101
g102
ssg83
g1496
sg76
(lp1508
S':'
asbag69
(g90
g71
NtRp1509
(dp1510
g74
(dp1511
sg83
g1496
sg76
(lp1512
g69
(g70
g71
NtRp1513
(dp1514
g74
(dp1515
g82
I4
ssg83
g1509
sg76
(lp1516
g214
asbasbasbag69
(g85
g71
NtRp1517
(dp1518
g74
(dp1519
sg83
g1031
sg76
(lp1520
g69
(g90
g71
NtRp1521
(dp1522
g74
(dp1523
g94
g95
ssg83
g1517
sg76
(lp1524
S'remote_port'
p1525
asbag69
(g90
g71
NtRp1526
(dp1527
g74
(dp1528
g101
g102
ssg83
g1517
sg76
(lp1529
S':'
asbag69
(g90
g71
NtRp1530
(dp1531
g74
(dp1532
sg83
g1517
sg76
(lp1533
g69
(g70
g71
NtRp1534
(dp1535
g74
(dp1536
g82
I4
ssg83
g1530
sg76
(lp1537
S'54064'
p1538
asbasbasbag69
(g85
g71
NtRp1539
(dp1540
g74
(dp1541
sg83
g1031
sg76
(lp1542
g69
(g90
g71
NtRp1543
(dp1544
g74
(dp1545
g94
g95
ssg83
g1539
sg76
(lp1546
S'request_method'
p1547
asbag69
(g90
g71
NtRp1548
(dp1549
g74
(dp1550
g101
g102
ssg83
g1539
sg76
(lp1551
S':'
asbag69
(g90
g71
NtRp1552
(dp1553
g74
(dp1554
sg83
g1539
sg76
(lp1555
g69
(g70
g71
NtRp1556
(dp1557
g74
(dp1558
g82
I4
ssg83
g1552
sg76
(lp1559
S'GET'
p1560
asbasbasbag69
(g85
g71
NtRp1561
(dp1562
g74
(dp1563
sg83
g1031
sg76
(lp1564
g69
(g90
g71
NtRp1565
(dp1566
g74
(dp1567
g94
g95
ssg83
g1561
sg76
(lp1568
S'script_name'
p1569
asbag69
(g90
g71
NtRp1570
(dp1571
g74
(dp1572
g101
g102
ssg83
g1561
sg76
(lp1573
S':'
asbag69
(g90
g71
NtRp1574
(dp1575
g74
(dp1576
sg83
g1561
sg76
(lp1577
g69
(g70
g71
NtRp1578
(dp1579
g74
(dp1580
g82
I4
ssg83
g1574
sg76
(lp1581
S''
asbasbasbag69
(g85
g71
NtRp1582
(dp1583
g74
(dp1584
sg83
g1031
sg76
(lp1585
g69
(g90
g71
NtRp1586
(dp1587
g74
(dp1588
g94
g95
ssg83
g1582
sg76
(lp1589
S'server_name'
p1590
asbag69
(g90
g71
NtRp1591
(dp1592
g74
(dp1593
g101
g102
ssg83
g1582
sg76
(lp1594
S':'
asbag69
(g90
g71
NtRp1595
(dp1596
g74
(dp1597
sg83
g1582
sg76
(lp1598
g69
(g70
g71
NtRp1599
(dp1600
g74
(dp1601
g82
I4
ssg83
g1595
sg76
(lp1602
S'Iana-Bonevas-MacBook-Pro.local'
p1603
asbasbasbag69
(g85
g71
NtRp1604
(dp1605
g74
(dp1606
sg83
g1031
sg76
(lp1607
g69
(g90
g71
NtRp1608
(dp1609
g74
(dp1610
g94
g95
ssg83
g1604
sg76
(lp1611
S'server_port'
p1612
asbag69
(g90
g71
NtRp1613
(dp1614
g74
(dp1615
g101
g102
ssg83
g1604
sg76
(lp1616
S':'
asbag69
(g90
g71
NtRp1617
(dp1618
g74
(dp1619
sg83
g1604
sg76
(lp1620
g69
(g70
g71
NtRp1621
(dp1622
g74
(dp1623
g82
I4
ssg83
g1617
sg76
(lp1624
S'8000'
p1625
asbasbasbag69
(g85
g71
NtRp1626
(dp1627
g74
(dp1628
sg83
g1031
sg76
(lp1629
g69
(g90
g71
NtRp1630
(dp1631
g74
(dp1632
g94
g95
ssg83
g1626
sg76
(lp1633
S'server_protocol'
p1634
asbag69
(g90
g71
NtRp1635
(dp1636
g74
(dp1637
g101
g102
ssg83
g1626
sg76
(lp1638
S':'
asbag69
(g90
g71
NtRp1639
(dp1640
g74
(dp1641
sg83
g1626
sg76
(lp1642
g69
(g70
g71
NtRp1643
(dp1644
g74
(dp1645
g82
I4
ssg83
g1639
sg76
(lp1646
S'HTTP/1.1'
p1647
asbasbasbag69
(g85
g71
NtRp1648
(dp1649
g74
(dp1650
sg83
g1031
sg76
(lp1651
g69
(g90
g71
NtRp1652
(dp1653
g74
(dp1654
g94
g95
ssg83
g1648
sg76
(lp1655
S'server_software'
p1656
asbag69
(g90
g71
NtRp1657
(dp1658
g74
(dp1659
g101
g102
ssg83
g1648
sg76
(lp1660
S':'
asbag69
(g90
g71
NtRp1661
(dp1662
g74
(dp1663
sg83
g1648
sg76
(lp1664
g69
(g70
g71
NtRp1665
(dp1666
g74
(dp1667
g82
I4
ssg83
g1661
sg76
(lp1668
S'Rocket 1.2.4'
p1669
asbasbasbag69
(g85
g71
NtRp1670
(dp1671
g74
(dp1672
sg83
g1031
sg76
(lp1673
g69
(g90
g71
NtRp1674
(dp1675
g74
(dp1676
g94
g95
ssg83
g1670
sg76
(lp1677
S'web2py_crontype'
p1678
asbag69
(g90
g71
NtRp1679
(dp1680
g74
(dp1681
g101
g102
ssg83
g1670
sg76
(lp1682
S':'
asbag69
(g90
g71
NtRp1683
(dp1684
g74
(dp1685
sg83
g1670
sg76
(lp1686
g69
(g70
g71
NtRp1687
(dp1688
g74
(dp1689
g82
I4
ssg83
g1683
sg76
(lp1690
S'hard'
p1691
asbasbasbag69
(g85
g71
NtRp1692
(dp1693
g74
(dp1694
sg83
g1031
sg76
(lp1695
g69
(g90
g71
NtRp1696
(dp1697
g74
(dp1698
g94
g95
ssg83
g1692
sg76
(lp1699
S'web2py_path'
p1700
asbag69
(g90
g71
NtRp1701
(dp1702
g74
(dp1703
g101
g102
ssg83
g1692
sg76
(lp1704
S':'
asbag69
(g90
g71
NtRp1705
(dp1706
g74
(dp1707
sg83
g1692
sg76
(lp1708
g69
(g70
g71
NtRp1709
(dp1710
g74
(dp1711
g82
I4
ssg83
g1705
sg76
(lp1712
g1078
asbasbasbag69
(g85
g71
NtRp1713
(dp1714
g74
(dp1715
sg83
g1031
sg76
(lp1716
g69
(g90
g71
NtRp1717
(dp1718
g74
(dp1719
g94
g95
ssg83
g1713
sg76
(lp1720
S'web2py_version'
p1721
asbag69
(g90
g71
NtRp1722
(dp1723
g74
(dp1724
g101
g102
ssg83
g1713
sg76
(lp1725
S':'
asbag69
(g90
g71
NtRp1726
(dp1727
g74
(dp1728
sg83
g1713
sg76
(lp1729
g69
(g70
g71
NtRp1730
(dp1731
g74
(dp1732
g82
I4
ssg83
g1726
sg76
(lp1733
g69
(g78
g71
NtRp1734
(dp1735
g74
(dp1736
g82
I3
ssg83
Nsg76
(lp1737
g69
(g85
g71
NtRp1738
(dp1739
g74
(dp1740
sg83
g1734
sg76
(lp1741
g69
(g90
g71
NtRp1742
(dp1743
g74
(dp1744
sg83
g1738
sg76
(lp1745
g69
(g70
g71
NtRp1746
(dp1747
g74
(dp1748
g82
I3
ssg83
g1742
sg76
(lp1749
S'1'
asbasbasbag69
(g85
g71
NtRp1750
(dp1751
g74
(dp1752
sg83
g1734
sg76
(lp1753
g69
(g90
g71
NtRp1754
(dp1755
g74
(dp1756
sg83
g1750
sg76
(lp1757
g69
(g70
g71
NtRp1758
(dp1759
g74
(dp1760
g82
I3
ssg83
g1754
sg76
(lp1761
S'99'
p1762
asbasbasbag69
(g85
g71
NtRp1763
(dp1764
g74
(dp1765
sg83
g1734
sg76
(lp1766
g69
(g90
g71
NtRp1767
(dp1768
g74
(dp1769
sg83
g1763
sg76
(lp1770
g69
(g70
g71
NtRp1771
(dp1772
g74
(dp1773
g82
I3
ssg83
g1767
sg76
(lp1774
S'7'
asbasbasbag69
(g85
g71
NtRp1775
(dp1776
g74
(dp1777
sg83
g1734
sg76
(lp1778
g69
(g90
g71
NtRp1779
(dp1780
g74
(dp1781
sg83
g1775
sg76
(lp1782
g69
(g70
g71
NtRp1783
(dp1784
g74
(dp1785
g82
I3
ssg83
g1779
sg76
(lp1786
S'datetime.datetime(2012, 3, 4, 22, 12, 8)'
p1787
asbasbasbag69
(g85
g71
NtRp1788
(dp1789
g74
(dp1790
sg83
g1734
sg76
(lp1791
g69
(g90
g71
NtRp1792
(dp1793
g74
(dp1794
sg83
g1788
sg76
(lp1795
g69
(g70
g71
NtRp1796
(dp1797
g74
(dp1798
g82
I3
ssg83
g1792
sg76
(lp1799
S'stable'
p1800
asbasbasbasbasbasbasbag69
(g85
g71
NtRp1801
(dp1802
g74
(dp1803
sg83
g1031
sg76
(lp1804
g69
(g90
g71
NtRp1805
(dp1806
g74
(dp1807
g94
g95
ssg83
g1801
sg76
(lp1808
S'wsgi_errors'
p1809
asbag69
(g90
g71
NtRp1810
(dp1811
g74
(dp1812
g101
g102
ssg83
g1801
sg76
(lp1813
S':'
asbag69
(g90
g71
NtRp1814
(dp1815
g74
(dp1816
sg83
g1801
sg76
(lp1817
g69
(g70
g71
NtRp1818
(dp1819
g74
(dp1820
g82
I4
ssg83
g1814
sg76
(lp1821
S"<open file '<stderr>', mode 'w' at 0x104484270>"
p1822
asbasbasbag69
(g85
g71
NtRp1823
(dp1824
g74
(dp1825
sg83
g1031
sg76
(lp1826
g69
(g90
g71
NtRp1827
(dp1828
g74
(dp1829
g94
g95
ssg83
g1823
sg76
(lp1830
S'wsgi_file_wrapper'
p1831
asbag69
(g90
g71
NtRp1832
(dp1833
g74
(dp1834
g101
g102
ssg83
g1823
sg76
(lp1835
S':'
asbag69
(g90
g71
NtRp1836
(dp1837
g74
(dp1838
sg83
g1823
sg76
(lp1839
g69
(g70
g71
NtRp1840
(dp1841
g74
(dp1842
g82
I4
ssg83
g1836
sg76
(lp1843
S'<class wsgiref.util.FileWrapper at 0x104ebdf58>'
p1844
asbasbasbag69
(g85
g71
NtRp1845
(dp1846
g74
(dp1847
sg83
g1031
sg76
(lp1848
g69
(g90
g71
NtRp1849
(dp1850
g74
(dp1851
g94
g95
ssg83
g1845
sg76
(lp1852
S'wsgi_input'
p1853
asbag69
(g90
g71
NtRp1854
(dp1855
g74
(dp1856
g101
g102
ssg83
g1845
sg76
(lp1857
S':'
asbag69
(g90
g71
NtRp1858
(dp1859
g74
(dp1860
sg83
g1845
sg76
(lp1861
g69
(g70
g71
NtRp1862
(dp1863
g74
(dp1864
g82
I4
ssg83
g1858
sg76
(lp1865
S'<socket._fileobject object at 0x109b6d9d0>'
p1866
asbasbasbag69
(g85
g71
NtRp1867
(dp1868
g74
(dp1869
sg83
g1031
sg76
(lp1870
g69
(g90
g71
NtRp1871
(dp1872
g74
(dp1873
g94
g95
ssg83
g1867
sg76
(lp1874
S'wsgi_multiprocess'
p1875
asbag69
(g90
g71
NtRp1876
(dp1877
g74
(dp1878
g101
g102
ssg83
g1867
sg76
(lp1879
S':'
asbag69
(g90
g71
NtRp1880
(dp1881
g74
(dp1882
sg83
g1867
sg76
(lp1883
g69
(g70
g71
NtRp1884
(dp1885
g74
(dp1886
g82
I4
ssg83
g1880
sg76
(lp1887
g112
asbasbasbag69
(g85
g71
NtRp1888
(dp1889
g74
(dp1890
sg83
g1031
sg76
(lp1891
g69
(g90
g71
NtRp1892
(dp1893
g74
(dp1894
g94
g95
ssg83
g1888
sg76
(lp1895
S'wsgi_multithread'
p1896
asbag69
(g90
g71
NtRp1897
(dp1898
g74
(dp1899
g101
g102
ssg83
g1888
sg76
(lp1900
S':'
asbag69
(g90
g71
NtRp1901
(dp1902
g74
(dp1903
sg83
g1888
sg76
(lp1904
g69
(g70
g71
NtRp1905
(dp1906
g74
(dp1907
g82
I4
ssg83
g1901
sg76
(lp1908
S'True'
p1909
asbasbasbag69
(g85
g71
NtRp1910
(dp1911
g74
(dp1912
sg83
g1031
sg76
(lp1913
g69
(g90
g71
NtRp1914
(dp1915
g74
(dp1916
g94
g95
ssg83
g1910
sg76
(lp1917
S'wsgi_run_once'
p1918
asbag69
(g90
g71
NtRp1919
(dp1920
g74
(dp1921
g101
g102
ssg83
g1910
sg76
(lp1922
S':'
asbag69
(g90
g71
NtRp1923
(dp1924
g74
(dp1925
sg83
g1910
sg76
(lp1926
g69
(g70
g71
NtRp1927
(dp1928
g74
(dp1929
g82
I4
ssg83
g1923
sg76
(lp1930
g112
asbasbasbag69
(g85
g71
NtRp1931
(dp1932
g74
(dp1933
sg83
g1031
sg76
(lp1934
g69
(g90
g71
NtRp1935
(dp1936
g74
(dp1937
g94
g95
ssg83
g1931
sg76
(lp1938
S'wsgi_url_scheme'
p1939
asbag69
(g90
g71
NtRp1940
(dp1941
g74
(dp1942
g101
g102
ssg83
g1931
sg76
(lp1943
S':'
asbag69
(g90
g71
NtRp1944
(dp1945
g74
(dp1946
sg83
g1931
sg76
(lp1947
g69
(g70
g71
NtRp1948
(dp1949
g74
(dp1950
g82
I4
ssg83
g1944
sg76
(lp1951
S'http'
p1952
asbasbasbag69
(g85
g71
NtRp1953
(dp1954
g74
(dp1955
sg83
g1031
sg76
(lp1956
g69
(g90
g71
NtRp1957
(dp1958
g74
(dp1959
g94
g95
ssg83
g1953
sg76
(lp1960
S'wsgi_version'
p1961
asbag69
(g90
g71
NtRp1962
(dp1963
g74
(dp1964
g101
g102
ssg83
g1953
sg76
(lp1965
S':'
asbag69
(g90
g71
NtRp1966
(dp1967
g74
(dp1968
sg83
g1953
sg76
(lp1969
g69
(g70
g71
NtRp1970
(dp1971
g74
(dp1972
g82
I4
ssg83
g1966
sg76
(lp1973
g69
(g78
g71
NtRp1974
(dp1975
g74
(dp1976
g82
I3
ssg83
Nsg76
(lp1977
g69
(g85
g71
NtRp1978
(dp1979
g74
(dp1980
sg83
g1974
sg76
(lp1981
g69
(g90
g71
NtRp1982
(dp1983
g74
(dp1984
sg83
g1978
sg76
(lp1985
g69
(g70
g71
NtRp1986
(dp1987
g74
(dp1988
g82
I3
ssg83
g1982
sg76
(lp1989
S'1'
asbasbasbag69
(g85
g71
NtRp1990
(dp1991
g74
(dp1992
sg83
g1974
sg76
(lp1993
g69
(g90
g71
NtRp1994
(dp1995
g74
(dp1996
sg83
g1990
sg76
(lp1997
g69
(g70
g71
NtRp1998
(dp1999
g74
(dp2000
g82
I3
ssg83
g1994
sg76
(lp2001
S'0'
asbasbasbasbasbasbasbasbasbasbasbag69
(g85
g71
NtRp2002
(dp2003
g74
(dp2004
sg83
g79
sg76
(lp2005
g69
(g90
g71
NtRp2006
(dp2007
g74
(dp2008
g94
g95
ssg83
g2002
sg76
(lp2009
S'extension'
p2010
asbag69
(g90
g71
NtRp2011
(dp2012
g74
(dp2013
g101
g102
ssg83
g2002
sg76
(lp2014
S':'
asbag69
(g90
g71
NtRp2015
(dp2016
g74
(dp2017
sg83
g2002
sg76
(lp2018
g69
(g70
g71
NtRp2019
(dp2020
g74
(dp2021
g82
I5
ssg83
g2015
sg76
(lp2022
S'html'
p2023
asbasbasbag69
(g85
g71
NtRp2024
(dp2025
g74
(dp2026
sg83
g79
sg76
(lp2027
g69
(g90
g71
NtRp2028
(dp2029
g74
(dp2030
g94
g95
ssg83
g2024
sg76
(lp2031
S'folder'
p2032
asbag69
(g90
g71
NtRp2033
(dp2034
g74
(dp2035
g101
g102
ssg83
g2024
sg76
(lp2036
S':'
asbag69
(g90
g71
NtRp2037
(dp2038
g74
(dp2039
sg83
g2024
sg76
(lp2040
g69
(g70
g71
NtRp2041
(dp2042
g74
(dp2043
g82
I5
ssg83
g2037
sg76
(lp2044
S'/Users/ianaboneva/Dropbox/DePaul/CSC 438 - Web Applications/web2py/applications/Book_Shelf_copy/'
p2045
asbasbasbag69
(g85
g71
NtRp2046
(dp2047
g74
(dp2048
sg83
g79
sg76
(lp2049
g69
(g90
g71
NtRp2050
(dp2051
g74
(dp2052
g94
g95
ssg83
g2046
sg76
(lp2053
S'function'
p2054
asbag69
(g90
g71
NtRp2055
(dp2056
g74
(dp2057
g101
g102
ssg83
g2046
sg76
(lp2058
S':'
asbag69
(g90
g71
NtRp2059
(dp2060
g74
(dp2061
sg83
g2046
sg76
(lp2062
g69
(g70
g71
NtRp2063
(dp2064
g74
(dp2065
g82
I5
ssg83
g2059
sg76
(lp2066
S'book_shelf'
p2067
asbasbasbag69
(g85
g71
NtRp2068
(dp2069
g74
(dp2070
sg83
g79
sg76
(lp2071
g69
(g90
g71
NtRp2072
(dp2073
g74
(dp2074
g94
g95
ssg83
g2068
sg76
(lp2075
S'get_vars'
p2076
asbag69
(g90
g71
NtRp2077
(dp2078
g74
(dp2079
g101
g102
ssg83
g2068
sg76
(lp2080
S':'
asbag69
(g90
g71
NtRp2081
(dp2082
g74
(dp2083
sg83
g2068
sg76
(lp2084
g69
(g70
g71
NtRp2085
(dp2086
g74
(dp2087
g82
I5
ssg83
g2081
sg76
(lp2088
g69
(g78
g71
NtRp2089
(dp2090
g74
(dp2091
g82
I4
ssg83
Nsg76
(lp2092
sbasbasbasbag69
(g85
g71
NtRp2093
(dp2094
g74
(dp2095
sg83
g79
sg76
(lp2096
g69
(g90
g71
NtRp2097
(dp2098
g74
(dp2099
g94
g95
ssg83
g2093
sg76
(lp2100
S'global_settings'
p2101
asbag69
(g90
g71
NtRp2102
(dp2103
g74
(dp2104
g101
g102
ssg83
g2093
sg76
(lp2105
S':'
asbag69
(g90
g71
NtRp2106
(dp2107
g74
(dp2108
sg83
g2093
sg76
(lp2109
g69
(g70
g71
NtRp2110
(dp2111
g74
(dp2112
g82
I5
ssg83
g2106
sg76
(lp2113
g69
(g78
g71
NtRp2114
(dp2115
g74
(dp2116
g82
I4
ssg83
Nsg76
(lp2117
g69
(g85
g71
NtRp2118
(dp2119
g74
(dp2120
sg83
g2114
sg76
(lp2121
g69
(g90
g71
NtRp2122
(dp2123
g74
(dp2124
g94
g95
ssg83
g2118
sg76
(lp2125
g1043
asbag69
(g90
g71
NtRp2126
(dp2127
g74
(dp2128
g101
g102
ssg83
g2118
sg76
(lp2129
S':'
asbag69
(g90
g71
NtRp2130
(dp2131
g74
(dp2132
sg83
g2118
sg76
(lp2133
g69
(g70
g71
NtRp2134
(dp2135
g74
(dp2136
g82
I4
ssg83
g2130
sg76
(lp2137
S"set(['/Users/ianaboneva/Dropbox/DePaul/CSC 438 - Web Applications/web2py/applications/ToDoList2/', '/Users/ianaboneva/Dropbox/DePaul/CSC 438 - Web Applications/web2py/applications/welcome/', '/Users/ianaboneva/Dropbox/DePaul/CSC 438 - Web Applications/web2py/applications/admin/', '/Users/ianaboneva/Dropbox/DePaul/CSC 438 - Web Applications/web2py/applications/Book_Shelf_copy/'])"
p2138
asbasbasbag69
(g85
g71
NtRp2139
(dp2140
g74
(dp2141
sg83
g2114
sg76
(lp2142
g69
(g90
g71
NtRp2143
(dp2144
g74
(dp2145
g94
g95
ssg83
g2139
sg76
(lp2146
g1065
asbag69
(g90
g71
NtRp2147
(dp2148
g74
(dp2149
g101
g102
ssg83
g2139
sg76
(lp2150
S':'
asbag69
(g90
g71
NtRp2151
(dp2152
g74
(dp2153
sg83
g2139
sg76
(lp2154
g69
(g70
g71
NtRp2155
(dp2156
g74
(dp2157
g82
I4
ssg83
g2151
sg76
(lp2158
g1078
asbasbasbag69
(g85
g71
NtRp2159
(dp2160
g74
(dp2161
sg83
g2114
sg76
(lp2162
g69
(g90
g71
NtRp2163
(dp2164
g74
(dp2165
g94
g95
ssg83
g2159
sg76
(lp2166
g1087
asbag69
(g90
g71
NtRp2167
(dp2168
g74
(dp2169
g101
g102
ssg83
g2159
sg76
(lp2170
S':'
asbag69
(g90
g71
NtRp2171
(dp2172
g74
(dp2173
sg83
g2159
sg76
(lp2174
g69
(g70
g71
NtRp2175
(dp2176
g74
(dp2177
g82
I4
ssg83
g2171
sg76
(lp2178
g69
(g78
g71
NtRp2179
(dp2180
g74
(dp2181
g82
I3
ssg83
Nsg76
(lp2182
sbasbasbasbag69
(g85
g71
NtRp2183
(dp2184
g74
(dp2185
sg83
g2114
sg76
(lp2186
g69
(g90
g71
NtRp2187
(dp2188
g74
(dp2189
g94
g95
ssg83
g2183
sg76
(lp2190
g1112
asbag69
(g90
g71
NtRp2191
(dp2192
g74
(dp2193
g101
g102
ssg83
g2183
sg76
(lp2194
S':'
asbag69
(g90
g71
NtRp2195
(dp2196
g74
(dp2197
sg83
g2183
sg76
(lp2198
g69
(g70
g71
NtRp2199
(dp2200
g74
(dp2201
g82
I4
ssg83
g2195
sg76
(lp2202
S"<Values at 0x104fc1b00: {'verbose': False, 'ip': '127.0.0.1', 'shutdown_timeout': 5, 'taskbar': False, 'nocron': False, 'pid_filename': 'httpserver.pid', 'maxthreads': None, 'softcron': False, 'server_name': 'Iana-Bonevas-MacBook-Pro.local', 'bpython': False, 'nogui': False, 'port': 8000, 'extcron': False, 'debuglevel': 30, 'test': None, 'folder': '/Users/ianaboneva/Dropbox/DePaul/CSC 438 - Web Applications/web2py', 'config': '', 'import_models': False, 'winservice': '', 'shell': None, 'run': '', 'log_filename': 'httpserver.log', 'args': [''], 'socket_timeout': 5, 'ssl_ca_certificate': None, 'scheduler': None, 'profiler_filename': None, 'ssl_private_key': '', 'password': '<ask>', 'request_queue_size': 5, 'ssl_certificate': '', 'cronjob': False, 'numthreads': None, 'quiet': False, 'interfaces': None, 'minthreads': None, 'timeout': 10, 'plain': False, 'nobanner': False}>"
p2203
asbasbasbag69
(g85
g71
NtRp2204
(dp2205
g74
(dp2206
sg83
g2114
sg76
(lp2207
g69
(g90
g71
NtRp2208
(dp2209
g74
(dp2210
g94
g95
ssg83
g2204
sg76
(lp2211
g1134
asbag69
(g90
g71
NtRp2212
(dp2213
g74
(dp2214
g101
g102
ssg83
g2204
sg76
(lp2215
S':'
asbag69
(g90
g71
NtRp2216
(dp2217
g74
(dp2218
sg83
g2204
sg76
(lp2219
g69
(g70
g71
NtRp2220
(dp2221
g74
(dp2222
g82
I4
ssg83
g2216
sg76
(lp2223
S'set([])'
p2224
asbasbasbag69
(g85
g71
NtRp2225
(dp2226
g74
(dp2227
sg83
g2114
sg76
(lp2228
g69
(g90
g71
NtRp2229
(dp2230
g74
(dp2231
g94
g95
ssg83
g2225
sg76
(lp2232
g1156
asbag69
(g90
g71
NtRp2233
(dp2234
g74
(dp2235
g101
g102
ssg83
g2225
sg76
(lp2236
S':'
asbag69
(g90
g71
NtRp2237
(dp2238
g74
(dp2239
sg83
g2225
sg76
(lp2240
g69
(g70
g71
NtRp2241
(dp2242
g74
(dp2243
g82
I4
ssg83
g2237
sg76
(lp2244
g112
asbasbasbag69
(g85
g71
NtRp2245
(dp2246
g74
(dp2247
sg83
g2114
sg76
(lp2248
g69
(g90
g71
NtRp2249
(dp2250
g74
(dp2251
g94
g95
ssg83
g2245
sg76
(lp2252
g1177
asbag69
(g90
g71
NtRp2253
(dp2254
g74
(dp2255
g101
g102
ssg83
g2245
sg76
(lp2256
S':'
asbag69
(g90
g71
NtRp2257
(dp2258
g74
(dp2259
sg83
g2245
sg76
(lp2260
g69
(g70
g71
NtRp2261
(dp2262
g74
(dp2263
g82
I4
ssg83
g2257
sg76
(lp2264
g1190
asbasbasbag69
(g85
g71
NtRp2265
(dp2266
g74
(dp2267
sg83
g2114
sg76
(lp2268
g69
(g90
g71
NtRp2269
(dp2270
g74
(dp2271
g94
g95
ssg83
g2265
sg76
(lp2272
g1419
asbag69
(g90
g71
NtRp2273
(dp2274
g74
(dp2275
g101
g102
ssg83
g2265
sg76
(lp2276
S':'
asbag69
(g90
g71
NtRp2277
(dp2278
g74
(dp2279
sg83
g2265
sg76
(lp2280
g69
(g70
g71
NtRp2281
(dp2282
g74
(dp2283
g82
I4
ssg83
g2277
sg76
(lp2284
g112
asbasbasbag69
(g85
g71
NtRp2285
(dp2286
g74
(dp2287
sg83
g2114
sg76
(lp2288
g69
(g90
g71
NtRp2289
(dp2290
g74
(dp2291
g94
g95
ssg83
g2285
sg76
(lp2292
g1440
asbag69
(g90
g71
NtRp2293
(dp2294
g74
(dp2295
g101
g102
ssg83
g2285
sg76
(lp2296
S':'
asbag69
(g90
g71
NtRp2297
(dp2298
g74
(dp2299
sg83
g2285
sg76
(lp2300
g69
(g70
g71
NtRp2301
(dp2302
g74
(dp2303
g82
I4
ssg83
g2297
sg76
(lp2304
g112
asbasbasbag69
(g85
g71
NtRp2305
(dp2306
g74
(dp2307
sg83
g2114
sg76
(lp2308
g69
(g90
g71
NtRp2309
(dp2310
g74
(dp2311
g94
g95
ssg83
g2305
sg76
(lp2312
g1678
asbag69
(g90
g71
NtRp2313
(dp2314
g74
(dp2315
g101
g102
ssg83
g2305
sg76
(lp2316
S':'
asbag69
(g90
g71
NtRp2317
(dp2318
g74
(dp2319
sg83
g2305
sg76
(lp2320
g69
(g70
g71
NtRp2321
(dp2322
g74
(dp2323
g82
I4
ssg83
g2317
sg76
(lp2324
g1691
asbasbasbag69
(g85
g71
NtRp2325
(dp2326
g74
(dp2327
sg83
g2114
sg76
(lp2328
g69
(g90
g71
NtRp2329
(dp2330
g74
(dp2331
g94
g95
ssg83
g2325
sg76
(lp2332
g1721
asbag69
(g90
g71
NtRp2333
(dp2334
g74
(dp2335
g101
g102
ssg83
g2325
sg76
(lp2336
S':'
asbag69
(g90
g71
NtRp2337
(dp2338
g74
(dp2339
sg83
g2325
sg76
(lp2340
g69
(g70
g71
NtRp2341
(dp2342
g74
(dp2343
g82
I4
ssg83
g2337
sg76
(lp2344
g69
(g78
g71
NtRp2345
(dp2346
g74
(dp2347
g82
I3
ssg83
Nsg76
(lp2348
g69
(g85
g71
NtRp2349
(dp2350
g74
(dp2351
sg83
g2345
sg76
(lp2352
g69
(g90
g71
NtRp2353
(dp2354
g74
(dp2355
sg83
g2349
sg76
(lp2356
g69
(g70
g71
NtRp2357
(dp2358
g74
(dp2359
g82
I3
ssg83
g2353
sg76
(lp2360
S'1'
asbasbasbag69
(g85
g71
NtRp2361
(dp2362
g74
(dp2363
sg83
g2345
sg76
(lp2364
g69
(g90
g71
NtRp2365
(dp2366
g74
(dp2367
sg83
g2361
sg76
(lp2368
g69
(g70
g71
NtRp2369
(dp2370
g74
(dp2371
g82
I3
ssg83
g2365
sg76
(lp2372
S'99'
p2373
asbasbasbag69
(g85
g71
NtRp2374
(dp2375
g74
(dp2376
sg83
g2345
sg76
(lp2377
g69
(g90
g71
NtRp2378
(dp2379
g74
(dp2380
sg83
g2374
sg76
(lp2381
g69
(g70
g71
NtRp2382
(dp2383
g74
(dp2384
g82
I3
ssg83
g2378
sg76
(lp2385
S'7'
asbasbasbag69
(g85
g71
NtRp2386
(dp2387
g74
(dp2388
sg83
g2345
sg76
(lp2389
g69
(g90
g71
NtRp2390
(dp2391
g74
(dp2392
sg83
g2386
sg76
(lp2393
g69
(g70
g71
NtRp2394
(dp2395
g74
(dp2396
g82
I3
ssg83
g2390
sg76
(lp2397
S'datetime.datetime(2012, 3, 4, 22, 12, 8)'
p2398
asbasbasbag69
(g85
g71
NtRp2399
(dp2400
g74
(dp2401
sg83
g2345
sg76
(lp2402
g69
(g90
g71
NtRp2403
(dp2404
g74
(dp2405
sg83
g2399
sg76
(lp2406
g69
(g70
g71
NtRp2407
(dp2408
g74
(dp2409
g82
I3
ssg83
g2403
sg76
(lp2410
g1800
asbasbasbasbasbasbasbasbasbasbasbag69
(g85
g71
NtRp2411
(dp2412
g74
(dp2413
sg83
g79
sg76
(lp2414
g69
(g90
g71
NtRp2415
(dp2416
g74
(dp2417
g94
g95
ssg83
g2411
sg76
(lp2418
S'is_https'
p2419
asbag69
(g90
g71
NtRp2420
(dp2421
g74
(dp2422
g101
g102
ssg83
g2411
sg76
(lp2423
S':'
asbag69
(g90
g71
NtRp2424
(dp2425
g74
(dp2426
sg83
g2411
sg76
(lp2427
g69
(g70
g71
NtRp2428
(dp2429
g74
(dp2430
g82
I5
ssg83
g2424
sg76
(lp2431
g112
asbasbasbag69
(g85
g71
NtRp2432
(dp2433
g74
(dp2434
sg83
g79
sg76
(lp2435
g69
(g90
g71
NtRp2436
(dp2437
g74
(dp2438
g94
g95
ssg83
g2432
sg76
(lp2439
S'is_local'
p2440
asbag69
(g90
g71
NtRp2441
(dp2442
g74
(dp2443
g101
g102
ssg83
g2432
sg76
(lp2444
S':'
asbag69
(g90
g71
NtRp2445
(dp2446
g74
(dp2447
sg83
g2432
sg76
(lp2448
g69
(g70
g71
NtRp2449
(dp2450
g74
(dp2451
g82
I5
ssg83
g2445
sg76
(lp2452
g1909
asbasbasbag69
(g85
g71
NtRp2453
(dp2454
g74
(dp2455
sg83
g79
sg76
(lp2456
g69
(g90
g71
NtRp2457
(dp2458
g74
(dp2459
g94
g95
ssg83
g2453
sg76
(lp2460
S'is_restful'
p2461
asbag69
(g90
g71
NtRp2462
(dp2463
g74
(dp2464
g101
g102
ssg83
g2453
sg76
(lp2465
S':'
asbag69
(g90
g71
NtRp2466
(dp2467
g74
(dp2468
sg83
g2453
sg76
(lp2469
g69
(g70
g71
NtRp2470
(dp2471
g74
(dp2472
g82
I5
ssg83
g2466
sg76
(lp2473
g112
asbasbasbag69
(g85
g71
NtRp2474
(dp2475
g74
(dp2476
sg83
g79
sg76
(lp2477
g69
(g90
g71
NtRp2478
(dp2479
g74
(dp2480
g94
g95
ssg83
g2474
sg76
(lp2481
S'now'
p2482
asbag69
(g90
g71
NtRp2483
(dp2484
g74
(dp2485
g101
g102
ssg83
g2474
sg76
(lp2486
S':'
asbag69
(g90
g71
NtRp2487
(dp2488
g74
(dp2489
sg83
g2474
sg76
(lp2490
g69
(g70
g71
NtRp2491
(dp2492
g74
(dp2493
g82
I5
ssg83
g2487
sg76
(lp2494
S'datetime.datetime(2012, 6, 3, 18, 1, 20, 381950)'
p2495
asbasbasbag69
(g85
g71
NtRp2496
(dp2497
g74
(dp2498
sg83
g79
sg76
(lp2499
g69
(g90
g71
NtRp2500
(dp2501
g74
(dp2502
g94
g95
ssg83
g2496
sg76
(lp2503
S'post_vars'
p2504
asbag69
(g90
g71
NtRp2505
(dp2506
g74
(dp2507
g101
g102
ssg83
g2496
sg76
(lp2508
S':'
asbag69
(g90
g71
NtRp2509
(dp2510
g74
(dp2511
sg83
g2496
sg76
(lp2512
g69
(g70
g71
NtRp2513
(dp2514
g74
(dp2515
g82
I5
ssg83
g2509
sg76
(lp2516
g69
(g78
g71
NtRp2517
(dp2518
g74
(dp2519
g82
I4
ssg83
Nsg76
(lp2520
sbasbasbasbag69
(g85
g71
NtRp2521
(dp2522
g74
(dp2523
sg83
g79
sg76
(lp2524
g69
(g90
g71
NtRp2525
(dp2526
g74
(dp2527
g94
g95
ssg83
g2521
sg76
(lp2528
S'raw_args'
p2529
asbag69
(g90
g71
NtRp2530
(dp2531
g74
(dp2532
g101
g102
ssg83
g2521
sg76
(lp2533
S':'
asbag69
(g90
g71
NtRp2534
(dp2535
g74
(dp2536
sg83
g2521
sg76
(lp2537
g69
(g70
g71
NtRp2538
(dp2539
g74
(dp2540
g82
I5
ssg83
g2534
sg76
(lp2541
S'1'
asbasbasbag69
(g85
g71
NtRp2542
(dp2543
g74
(dp2544
sg83
g79
sg76
(lp2545
g69
(g90
g71
NtRp2546
(dp2547
g74
(dp2548
g94
g95
ssg83
g2542
sg76
(lp2549
S'url'
p2550
asbag69
(g90
g71
NtRp2551
(dp2552
g74
(dp2553
g101
g102
ssg83
g2542
sg76
(lp2554
S':'
asbag69
(g90
g71
NtRp2555
(dp2556
g74
(dp2557
sg83
g2542
sg76
(lp2558
g69
(g70
g71
NtRp2559
(dp2560
g74
(dp2561
g82
I5
ssg83
g2555
sg76
(lp2562
S'/Book_Shelf_copy/default/book_shelf/1'
p2563
asbasbasbag69
(g85
g71
NtRp2564
(dp2565
g74
(dp2566
sg83
g79
sg76
(lp2567
g69
(g90
g71
NtRp2568
(dp2569
g74
(dp2570
g94
g95
ssg83
g2564
sg76
(lp2571
S'utcnow'
p2572
asbag69
(g90
g71
NtRp2573
(dp2574
g74
(dp2575
g101
g102
ssg83
g2564
sg76
(lp2576
S':'
asbag69
(g90
g71
NtRp2577
(dp2578
g74
(dp2579
sg83
g2564
sg76
(lp2580
g69
(g70
g71
NtRp2581
(dp2582
g74
(dp2583
g82
I5
ssg83
g2577
sg76
(lp2584
S'datetime.datetime(2012, 6, 3, 23, 1, 20, 381963)'
p2585
asbasbasbag69
(g85
g71
NtRp2586
(dp2587
g74
(dp2588
sg83
g79
sg76
(lp2589
g69
(g90
g71
NtRp2590
(dp2591
g74
(dp2592
g94
g95
ssg83
g2586
sg76
(lp2593
S'uuid'
p2594
asbag69
(g90
g71
NtRp2595
(dp2596
g74
(dp2597
g101
g102
ssg83
g2586
sg76
(lp2598
S':'
asbag69
(g90
g71
NtRp2599
(dp2600
g74
(dp2601
sg83
g2586
sg76
(lp2602
g69
(g70
g71
NtRp2603
(dp2604
g74
(dp2605
g82
I5
ssg83
g2599
sg76
(lp2606
S'Book_Shelf_copy/127.0.0.1.2012-06-03.18-01-20.7adca803-5eee-485a-bb97-0cb69c90d593'
p2607
asbasbasbag69
(g85
g71
NtRp2608
(dp2609
g74
(dp2610
sg83
g79
sg76
(lp2611
g69
(g90
g71
NtRp2612
(dp2613
g74
(dp2614
g94
g95
ssg83
g2608
sg76
(lp2615
S'vars'
p2616
asbag69
(g90
g71
NtRp2617
(dp2618
g74
(dp2619
g101
g102
ssg83
g2608
sg76
(lp2620
S':'
asbag69
(g90
g71
NtRp2621
(dp2622
g74
(dp2623
sg83
g2608
sg76
(lp2624
g69
(g70
g71
NtRp2625
(dp2626
g74
(dp2627
g82
I5
ssg83
g2621
sg76
(lp2628
g69
(g78
g71
NtRp2629
(dp2630
g74
(dp2631
g82
I4
ssg83
Nsg76
(lp2632
sbasbasbasbag69
(g85
g71
NtRp2633
(dp2634
g74
(dp2635
sg83
g79
sg76
(lp2636
g69
(g90
g71
NtRp2637
(dp2638
g74
(dp2639
g94
g95
ssg83
g2633
sg76
(lp2640
S'wsgi'
p2641
asbag69
(g90
g71
NtRp2642
(dp2643
g74
(dp2644
g101
g102
ssg83
g2633
sg76
(lp2645
S':'
asbag69
(g90
g71
NtRp2646
(dp2647
g74
(dp2648
sg83
g2633
sg76
(lp2649
g69
(g70
g71
NtRp2650
(dp2651
g74
(dp2652
g82
I5
ssg83
g2646
sg76
(lp2653
g69
(g78
g71
NtRp2654
(dp2655
g74
(dp2656
g82
I4
ssg83
Nsg76
(lp2657
g69
(g85
g71
NtRp2658
(dp2659
g74
(dp2660
sg83
g2654
sg76
(lp2661
g69
(g90
g71
NtRp2662
(dp2663
g74
(dp2664
g94
g95
ssg83
g2658
sg76
(lp2665
S'environ'
p2666
asbag69
(g90
g71
NtRp2667
(dp2668
g74
(dp2669
g101
g102
ssg83
g2658
sg76
(lp2670
S':'
asbag69
(g90
g71
NtRp2671
(dp2672
g74
(dp2673
sg83
g2658
sg76
(lp2674
g69
(g70
g71
NtRp2675
(dp2676
g74
(dp2677
g82
I4
ssg83
g2671
sg76
(lp2678
g69
(g78
g71
NtRp2679
(dp2680
g74
(dp2681
g82
I3
ssg83
Nsg76
(lp2682
g69
(g85
g71
NtRp2683
(dp2684
g74
(dp2685
sg83
g2679
sg76
(lp2686
g69
(g90
g71
NtRp2687
(dp2688
g74
(dp2689
g94
g95
ssg83
g2683
sg76
(lp2690
S'HTTP_ACCEPT'
p2691
asbag69
(g90
g71
NtRp2692
(dp2693
g74
(dp2694
g101
g102
ssg83
g2683
sg76
(lp2695
S':'
asbag69
(g90
g71
NtRp2696
(dp2697
g74
(dp2698
sg83
g2683
sg76
(lp2699
g69
(g70
g71
NtRp2700
(dp2701
g74
(dp2702
g82
I3
ssg83
g2696
sg76
(lp2703
g1212
asbasbasbag69
(g85
g71
NtRp2704
(dp2705
g74
(dp2706
sg83
g2679
sg76
(lp2707
g69
(g90
g71
NtRp2708
(dp2709
g74
(dp2710
g94
g95
ssg83
g2704
sg76
(lp2711
S'HTTP_ACCEPT_CHARSET'
p2712
asbag69
(g90
g71
NtRp2713
(dp2714
g74
(dp2715
g101
g102
ssg83
g2704
sg76
(lp2716
S':'
asbag69
(g90
g71
NtRp2717
(dp2718
g74
(dp2719
sg83
g2704
sg76
(lp2720
g69
(g70
g71
NtRp2721
(dp2722
g74
(dp2723
g82
I3
ssg83
g2717
sg76
(lp2724
g1234
asbasbasbag69
(g85
g71
NtRp2725
(dp2726
g74
(dp2727
sg83
g2679
sg76
(lp2728
g69
(g90
g71
NtRp2729
(dp2730
g74
(dp2731
g94
g95
ssg83
g2725
sg76
(lp2732
S'HTTP_ACCEPT_ENCODING'
p2733
asbag69
(g90
g71
NtRp2734
(dp2735
g74
(dp2736
g101
g102
ssg83
g2725
sg76
(lp2737
S':'
asbag69
(g90
g71
NtRp2738
(dp2739
g74
(dp2740
sg83
g2725
sg76
(lp2741
g69
(g70
g71
NtRp2742
(dp2743
g74
(dp2744
g82
I3
ssg83
g2738
sg76
(lp2745
g1256
asbasbasbag69
(g85
g71
NtRp2746
(dp2747
g74
(dp2748
sg83
g2679
sg76
(lp2749
g69
(g90
g71
NtRp2750
(dp2751
g74
(dp2752
g94
g95
ssg83
g2746
sg76
(lp2753
S'HTTP_ACCEPT_LANGUAGE'
p2754
asbag69
(g90
g71
NtRp2755
(dp2756
g74
(dp2757
g101
g102
ssg83
g2746
sg76
(lp2758
S':'
asbag69
(g90
g71
NtRp2759
(dp2760
g74
(dp2761
sg83
g2746
sg76
(lp2762
g69
(g70
g71
NtRp2763
(dp2764
g74
(dp2765
g82
I3
ssg83
g2759
sg76
(lp2766
g1278
asbasbasbag69
(g85
g71
NtRp2767
(dp2768
g74
(dp2769
sg83
g2679
sg76
(lp2770
g69
(g90
g71
NtRp2771
(dp2772
g74
(dp2773
g94
g95
ssg83
g2767
sg76
(lp2774
S'HTTP_CACHE_CONTROL'
p2775
asbag69
(g90
g71
NtRp2776
(dp2777
g74
(dp2778
g101
g102
ssg83
g2767
sg76
(lp2779
S':'
asbag69
(g90
g71
NtRp2780
(dp2781
g74
(dp2782
sg83
g2767
sg76
(lp2783
g69
(g70
g71
NtRp2784
(dp2785
g74
(dp2786
g82
I3
ssg83
g2780
sg76
(lp2787
g1300
asbasbasbag69
(g85
g71
NtRp2788
(dp2789
g74
(dp2790
sg83
g2679
sg76
(lp2791
g69
(g90
g71
NtRp2792
(dp2793
g74
(dp2794
g94
g95
ssg83
g2788
sg76
(lp2795
S'HTTP_CONNECTION'
p2796
asbag69
(g90
g71
NtRp2797
(dp2798
g74
(dp2799
g101
g102
ssg83
g2788
sg76
(lp2800
S':'
asbag69
(g90
g71
NtRp2801
(dp2802
g74
(dp2803
sg83
g2788
sg76
(lp2804
g69
(g70
g71
NtRp2805
(dp2806
g74
(dp2807
g82
I3
ssg83
g2801
sg76
(lp2808
g1322
asbasbasbag69
(g85
g71
NtRp2809
(dp2810
g74
(dp2811
sg83
g2679
sg76
(lp2812
g69
(g90
g71
NtRp2813
(dp2814
g74
(dp2815
g94
g95
ssg83
g2809
sg76
(lp2816
S'HTTP_COOKIE'
p2817
asbag69
(g90
g71
NtRp2818
(dp2819
g74
(dp2820
g101
g102
ssg83
g2809
sg76
(lp2821
S':'
asbag69
(g90
g71
NtRp2822
(dp2823
g74
(dp2824
sg83
g2809
sg76
(lp2825
g69
(g70
g71
NtRp2826
(dp2827
g74
(dp2828
g82
I3
ssg83
g2822
sg76
(lp2829
g1344
asbasbasbag69
(g85
g71
NtRp2830
(dp2831
g74
(dp2832
sg83
g2679
sg76
(lp2833
g69
(g90
g71
NtRp2834
(dp2835
g74
(dp2836
g94
g95
ssg83
g2830
sg76
(lp2837
S'HTTP_HOST'
p2838
asbag69
(g90
g71
NtRp2839
(dp2840
g74
(dp2841
g101
g102
ssg83
g2830
sg76
(lp2842
S':'
asbag69
(g90
g71
NtRp2843
(dp2844
g74
(dp2845
sg83
g2830
sg76
(lp2846
g69
(g70
g71
NtRp2847
(dp2848
g74
(dp2849
g82
I3
ssg83
g2843
sg76
(lp2850
g1366
asbasbasbag69
(g85
g71
NtRp2851
(dp2852
g74
(dp2853
sg83
g2679
sg76
(lp2854
g69
(g90
g71
NtRp2855
(dp2856
g74
(dp2857
g94
g95
ssg83
g2851
sg76
(lp2858
S'HTTP_REFERER'
p2859
asbag69
(g90
g71
NtRp2860
(dp2861
g74
(dp2862
g101
g102
ssg83
g2851
sg76
(lp2863
S':'
asbag69
(g90
g71
NtRp2864
(dp2865
g74
(dp2866
sg83
g2851
sg76
(lp2867
g69
(g70
g71
NtRp2868
(dp2869
g74
(dp2870
g82
I3
ssg83
g2864
sg76
(lp2871
g1388
asbasbasbag69
(g85
g71
NtRp2872
(dp2873
g74
(dp2874
sg83
g2679
sg76
(lp2875
g69
(g90
g71
NtRp2876
(dp2877
g74
(dp2878
g94
g95
ssg83
g2872
sg76
(lp2879
S'HTTP_USER_AGENT'
p2880
asbag69
(g90
g71
NtRp2881
(dp2882
g74
(dp2883
g101
g102
ssg83
g2872
sg76
(lp2884
S':'
asbag69
(g90
g71
NtRp2885
(dp2886
g74
(dp2887
sg83
g2872
sg76
(lp2888
g69
(g70
g71
NtRp2889
(dp2890
g74
(dp2891
g82
I3
ssg83
g2885
sg76
(lp2892
g1410
asbasbasbag69
(g85
g71
NtRp2893
(dp2894
g74
(dp2895
sg83
g2679
sg76
(lp2896
g69
(g90
g71
NtRp2897
(dp2898
g74
(dp2899
g94
g95
ssg83
g2893
sg76
(lp2900
S'PATH_INFO'
p2901
asbag69
(g90
g71
NtRp2902
(dp2903
g74
(dp2904
g101
g102
ssg83
g2893
sg76
(lp2905
S':'
asbag69
(g90
g71
NtRp2906
(dp2907
g74
(dp2908
sg83
g2893
sg76
(lp2909
g69
(g70
g71
NtRp2910
(dp2911
g74
(dp2912
g82
I3
ssg83
g2906
sg76
(lp2913
g1474
asbasbasbag69
(g85
g71
NtRp2914
(dp2915
g74
(dp2916
sg83
g2679
sg76
(lp2917
g69
(g90
g71
NtRp2918
(dp2919
g74
(dp2920
g94
g95
ssg83
g2914
sg76
(lp2921
S'QUERY_STRING'
p2922
asbag69
(g90
g71
NtRp2923
(dp2924
g74
(dp2925
g101
g102
ssg83
g2914
sg76
(lp2926
S':'
asbag69
(g90
g71
NtRp2927
(dp2928
g74
(dp2929
sg83
g2914
sg76
(lp2930
g69
(g70
g71
NtRp2931
(dp2932
g74
(dp2933
g82
I3
ssg83
g2927
sg76
(lp2934
S''
asbasbasbag69
(g85
g71
NtRp2935
(dp2936
g74
(dp2937
sg83
g2679
sg76
(lp2938
g69
(g90
g71
NtRp2939
(dp2940
g74
(dp2941
g94
g95
ssg83
g2935
sg76
(lp2942
S'REMOTE_ADDR'
p2943
asbag69
(g90
g71
NtRp2944
(dp2945
g74
(dp2946
g101
g102
ssg83
g2935
sg76
(lp2947
S':'
asbag69
(g90
g71
NtRp2948
(dp2949
g74
(dp2950
sg83
g2935
sg76
(lp2951
g69
(g70
g71
NtRp2952
(dp2953
g74
(dp2954
g82
I3
ssg83
g2948
sg76
(lp2955
g214
asbasbasbag69
(g85
g71
NtRp2956
(dp2957
g74
(dp2958
sg83
g2679
sg76
(lp2959
g69
(g90
g71
NtRp2960
(dp2961
g74
(dp2962
g94
g95
ssg83
g2956
sg76
(lp2963
S'REMOTE_PORT'
p2964
asbag69
(g90
g71
NtRp2965
(dp2966
g74
(dp2967
g101
g102
ssg83
g2956
sg76
(lp2968
S':'
asbag69
(g90
g71
NtRp2969
(dp2970
g74
(dp2971
sg83
g2956
sg76
(lp2972
g69
(g70
g71
NtRp2973
(dp2974
g74
(dp2975
g82
I3
ssg83
g2969
sg76
(lp2976
g1538
asbasbasbag69
(g85
g71
NtRp2977
(dp2978
g74
(dp2979
sg83
g2679
sg76
(lp2980
g69
(g90
g71
NtRp2981
(dp2982
g74
(dp2983
g94
g95
ssg83
g2977
sg76
(lp2984
S'REQUEST_METHOD'
p2985
asbag69
(g90
g71
NtRp2986
(dp2987
g74
(dp2988
g101
g102
ssg83
g2977
sg76
(lp2989
S':'
asbag69
(g90
g71
NtRp2990
(dp2991
g74
(dp2992
sg83
g2977
sg76
(lp2993
g69
(g70
g71
NtRp2994
(dp2995
g74
(dp2996
g82
I3
ssg83
g2990
sg76
(lp2997
g1560
asbasbasbag69
(g85
g71
NtRp2998
(dp2999
g74
(dp3000
sg83
g2679
sg76
(lp3001
g69
(g90
g71
NtRp3002
(dp3003
g74
(dp3004
g94
g95
ssg83
g2998
sg76
(lp3005
S'SCRIPT_NAME'
p3006
asbag69
(g90
g71
NtRp3007
(dp3008
g74
(dp3009
g101
g102
ssg83
g2998
sg76
(lp3010
S':'
asbag69
(g90
g71
NtRp3011
(dp3012
g74
(dp3013
sg83
g2998
sg76
(lp3014
g69
(g70
g71
NtRp3015
(dp3016
g74
(dp3017
g82
I3
ssg83
g3011
sg76
(lp3018
S''
asbasbasbag69
(g85
g71
NtRp3019
(dp3020
g74
(dp3021
sg83
g2679
sg76
(lp3022
g69
(g90
g71
NtRp3023
(dp3024
g74
(dp3025
g94
g95
ssg83
g3019
sg76
(lp3026
S'SERVER_NAME'
p3027
asbag69
(g90
g71
NtRp3028
(dp3029
g74
(dp3030
g101
g102
ssg83
g3019
sg76
(lp3031
S':'
asbag69
(g90
g71
NtRp3032
(dp3033
g74
(dp3034
sg83
g3019
sg76
(lp3035
g69
(g70
g71
NtRp3036
(dp3037
g74
(dp3038
g82
I3
ssg83
g3032
sg76
(lp3039
g1603
asbasbasbag69
(g85
g71
NtRp3040
(dp3041
g74
(dp3042
sg83
g2679
sg76
(lp3043
g69
(g90
g71
NtRp3044
(dp3045
g74
(dp3046
g94
g95
ssg83
g3040
sg76
(lp3047
S'SERVER_PORT'
p3048
asbag69
(g90
g71
NtRp3049
(dp3050
g74
(dp3051
g101
g102
ssg83
g3040
sg76
(lp3052
S':'
asbag69
(g90
g71
NtRp3053
(dp3054
g74
(dp3055
sg83
g3040
sg76
(lp3056
g69
(g70
g71
NtRp3057
(dp3058
g74
(dp3059
g82
I3
ssg83
g3053
sg76
(lp3060
g1625
asbasbasbag69
(g85
g71
NtRp3061
(dp3062
g74
(dp3063
sg83
g2679
sg76
(lp3064
g69
(g90
g71
NtRp3065
(dp3066
g74
(dp3067
g94
g95
ssg83
g3061
sg76
(lp3068
S'SERVER_PROTOCOL'
p3069
asbag69
(g90
g71
NtRp3070
(dp3071
g74
(dp3072
g101
g102
ssg83
g3061
sg76
(lp3073
S':'
asbag69
(g90
g71
NtRp3074
(dp3075
g74
(dp3076
sg83
g3061
sg76
(lp3077
g69
(g70
g71
NtRp3078
(dp3079
g74
(dp3080
g82
I3
ssg83
g3074
sg76
(lp3081
g1647
asbasbasbag69
(g85
g71
NtRp3082
(dp3083
g74
(dp3084
sg83
g2679
sg76
(lp3085
g69
(g90
g71
NtRp3086
(dp3087
g74
(dp3088
g94
g95
ssg83
g3082
sg76
(lp3089
S'SERVER_SOFTWARE'
p3090
asbag69
(g90
g71
NtRp3091
(dp3092
g74
(dp3093
g101
g102
ssg83
g3082
sg76
(lp3094
S':'
asbag69
(g90
g71
NtRp3095
(dp3096
g74
(dp3097
sg83
g3082
sg76
(lp3098
g69
(g70
g71
NtRp3099
(dp3100
g74
(dp3101
g82
I3
ssg83
g3095
sg76
(lp3102
g1669
asbasbasbag69
(g85
g71
NtRp3103
(dp3104
g74
(dp3105
sg83
g2679
sg76
(lp3106
g69
(g90
g71
NtRp3107
(dp3108
g74
(dp3109
g94
g95
ssg83
g3103
sg76
(lp3110
S'wsgi.errors'
p3111
asbag69
(g90
g71
NtRp3112
(dp3113
g74
(dp3114
g101
g102
ssg83
g3103
sg76
(lp3115
S':'
asbag69
(g90
g71
NtRp3116
(dp3117
g74
(dp3118
sg83
g3103
sg76
(lp3119
g69
(g70
g71
NtRp3120
(dp3121
g74
(dp3122
g82
I3
ssg83
g3116
sg76
(lp3123
S"<open file '<stderr>', mode 'w' at 0x104484270>"
p3124
asbasbasbag69
(g85
g71
NtRp3125
(dp3126
g74
(dp3127
sg83
g2679
sg76
(lp3128
g69
(g90
g71
NtRp3129
(dp3130
g74
(dp3131
g94
g95
ssg83
g3125
sg76
(lp3132
S'wsgi.file_wrapper'
p3133
asbag69
(g90
g71
NtRp3134
(dp3135
g74
(dp3136
g101
g102
ssg83
g3125
sg76
(lp3137
S':'
asbag69
(g90
g71
NtRp3138
(dp3139
g74
(dp3140
sg83
g3125
sg76
(lp3141
g69
(g70
g71
NtRp3142
(dp3143
g74
(dp3144
g82
I3
ssg83
g3138
sg76
(lp3145
S'<class wsgiref.util.FileWrapper at 0x104ebdf58>'
p3146
asbasbasbag69
(g85
g71
NtRp3147
(dp3148
g74
(dp3149
sg83
g2679
sg76
(lp3150
g69
(g90
g71
NtRp3151
(dp3152
g74
(dp3153
g94
g95
ssg83
g3147
sg76
(lp3154
S'wsgi.input'
p3155
asbag69
(g90
g71
NtRp3156
(dp3157
g74
(dp3158
g101
g102
ssg83
g3147
sg76
(lp3159
S':'
asbag69
(g90
g71
NtRp3160
(dp3161
g74
(dp3162
sg83
g3147
sg76
(lp3163
g69
(g70
g71
NtRp3164
(dp3165
g74
(dp3166
g82
I3
ssg83
g3160
sg76
(lp3167
S'<cStringIO.StringO object at 0x109fb25a8>'
p3168
asbasbasbag69
(g85
g71
NtRp3169
(dp3170
g74
(dp3171
sg83
g2679
sg76
(lp3172
g69
(g90
g71
NtRp3173
(dp3174
g74
(dp3175
g94
g95
ssg83
g3169
sg76
(lp3176
S'wsgi.multiprocess'
p3177
asbag69
(g90
g71
NtRp3178
(dp3179
g74
(dp3180
g101
g102
ssg83
g3169
sg76
(lp3181
S':'
asbag69
(g90
g71
NtRp3182
(dp3183
g74
(dp3184
sg83
g3169
sg76
(lp3185
g69
(g70
g71
NtRp3186
(dp3187
g74
(dp3188
g82
I3
ssg83
g3182
sg76
(lp3189
g112
asbasbasbag69
(g85
g71
NtRp3190
(dp3191
g74
(dp3192
sg83
g2679
sg76
(lp3193
g69
(g90
g71
NtRp3194
(dp3195
g74
(dp3196
g94
g95
ssg83
g3190
sg76
(lp3197
S'wsgi.multithread'
p3198
asbag69
(g90
g71
NtRp3199
(dp3200
g74
(dp3201
g101
g102
ssg83
g3190
sg76
(lp3202
S':'
asbag69
(g90
g71
NtRp3203
(dp3204
g74
(dp3205
sg83
g3190
sg76
(lp3206
g69
(g70
g71
NtRp3207
(dp3208
g74
(dp3209
g82
I3
ssg83
g3203
sg76
(lp3210
g1909
asbasbasbag69
(g85
g71
NtRp3211
(dp3212
g74
(dp3213
sg83
g2679
sg76
(lp3214
g69
(g90
g71
NtRp3215
(dp3216
g74
(dp3217
g94
g95
ssg83
g3211
sg76
(lp3218
S'wsgi.run_once'
p3219
asbag69
(g90
g71
NtRp3220
(dp3221
g74
(dp3222
g101
g102
ssg83
g3211
sg76
(lp3223
S':'
asbag69
(g90
g71
NtRp3224
(dp3225
g74
(dp3226
sg83
g3211
sg76
(lp3227
g69
(g70
g71
NtRp3228
(dp3229
g74
(dp3230
g82
I3
ssg83
g3224
sg76
(lp3231
g112
asbasbasbag69
(g85
g71
NtRp3232
(dp3233
g74
(dp3234
sg83
g2679
sg76
(lp3235
g69
(g90
g71
NtRp3236
(dp3237
g74
(dp3238
g94
g95
ssg83
g3232
sg76
(lp3239
S'wsgi.url_scheme'
p3240
asbag69
(g90
g71
NtRp3241
(dp3242
g74
(dp3243
g101
g102
ssg83
g3232
sg76
(lp3244
S':'
asbag69
(g90
g71
NtRp3245
(dp3246
g74
(dp3247
sg83
g3232
sg76
(lp3248
g69
(g70
g71
NtRp3249
(dp3250
g74
(dp3251
g82
I3
ssg83
g3245
sg76
(lp3252
g1952
asbasbasbag69
(g85
g71
NtRp3253
(dp3254
g74
(dp3255
sg83
g2679
sg76
(lp3256
g69
(g90
g71
NtRp3257
(dp3258
g74
(dp3259
g94
g95
ssg83
g3253
sg76
(lp3260
S'wsgi.version'
p3261
asbag69
(g90
g71
NtRp3262
(dp3263
g74
(dp3264
g101
g102
ssg83
g3253
sg76
(lp3265
S':'
asbag69
(g90
g71
NtRp3266
(dp3267
g74
(dp3268
sg83
g3253
sg76
(lp3269
g69
(g70
g71
NtRp3270
(dp3271
g74
(dp3272
g82
I3
ssg83
g3266
sg76
(lp3273
S'1'
asbasbasbasbasbasbasbasbasbasbasbasbasbsS'frames'
p3274
(lp3275
(dp3276
S'file'
p3277
S'/Users/ianaboneva/Dropbox/DePaul/CSC 438 - Web Applications/web2py/gluon/restricted.py'
p3278
sS'dump'
p3279
(dp3280
S'code'
p3281
S"'# -*- coding: utf-8 -*-\\n# this file is released ...())\\n\\nresponse._vars=response._caller(book_shelf)\\n'"
p3282
sS'layer'
p3283
S"'/Users/ianaboneva/Dropbox/DePaul/CSC 438 - Web A...plications/Book_Shelf_copy/controllers/default.py'"
p3284
sS'global compile2'
p3285
S'<function compile2>'
p3286
sS'ccode'
p3287
S'undefined'
p3288
ssS'lnum'
p3289
I204
sS'lines'
p3290
(dp3291
I199
S"    environment['__name__'] = '__restricted__'"
p3292
sI200
S'    try:'
p3293
sI201
S'        if type(code) == types.CodeType:'
p3294
sI202
S'            ccode = code'
p3295
sI203
S'        else:'
p3296
sI204
S'            ccode = compile2(code,layer)'
p3297
sI205
S'        exec ccode in environment'
p3298
sI206
S'    except HTTP:'
p3299
sI207
S'        raise'
p3300
sI208
S'    except RestrictedError:'
p3301
ssS'call'
p3302
S"(code='# -*- coding: utf-8 -*-\\n# this file is released ...())\\n\\nresponse._vars=response._caller(book_shelf)\\n', environment={'A': <class 'gluon.html.A'>, 'Auth': <class 'gluon.tools.Auth'>, 'B': <class 'gluon.html.B'>, 'BEAUTIFY': <class 'gluon.html.BEAUTIFY'>, 'BODY': <class 'gluon.html.BODY'>, 'BR': <class 'gluon.html.BR'>, 'BUTTON': <class 'gluon.html.BUTTON'>, 'CAT': <class 'gluon.html.CAT'>, 'CENTER': <class 'gluon.html.CENTER'>, 'CLEANUP': <class 'gluon.validators.CLEANUP'>, ...}, layer='/Users/ianaboneva/Dropbox/DePaul/CSC 438 - Web A...plications/Book_Shelf_copy/controllers/default.py')"
p3303
sS'func'
p3304
S'restricted'
p3305
sa(dp3306
g3277
S'/Users/ianaboneva/Dropbox/DePaul/CSC 438 - Web Applications/web2py/gluon/restricted.py'
p3307
sg3279
(dp3308
S'builtincompile'
p3309
S'<built-in function compile>'
p3310
sS'code'
p3311
S"'# -*- coding: utf-8 -*-\\n# this file is released ...())\\n\\nresponse._vars=response._caller(book_shelf)\\n'"
p3312
sS'code.rstrip'
p3313
S'<built-in method rstrip of str object>'
p3314
sS').replace'
p3315
g3288
sS'layer'
p3316
S"'/Users/ianaboneva/Dropbox/DePaul/CSC 438 - Web A...plications/Book_Shelf_copy/controllers/default.py'"
p3317
ssg3289
I189
sg3290
(dp3318
I192
S'    """'
p3319
sI193
S'    runs code in environment and returns the output. if an exception occurs'
p3320
sI184
S''
sI185
S'def compile2(code,layer):'
p3321
sI186
S'    """'
p3322
sI187
S"    The +'\\n' is necessary else compile fails when code ends in a comment."
p3323
sI188
S'    """'
p3324
sI189
S"    return compile(code.rstrip().replace('\\r\\n','\\n')+'\\n', layer, 'exec')"
p3325
sI190
S''
sI191
S"def restricted(code, environment=None, layer='Unknown'):"
p3326
ssg3302
S"(code='# -*- coding: utf-8 -*-\\n# this file is released ...())\\n\\nresponse._vars=response._caller(book_shelf)\\n', layer='/Users/ianaboneva/Dropbox/DePaul/CSC 438 - Web A...plications/Book_Shelf_copy/controllers/default.py')"
p3327
sg3304
S'compile2'
p3328
sasS'pyver'
p3329
S'Python 2.7.1: /usr/bin/python'
p3330
sS'session'
p3331
g69
(g70
g71
NtRp3332
(dp3333
g74
(dp3334
sg76
(lp3335
g69
(g78
g71
NtRp3336
(dp3337
g74
(dp3338
g82
I5
ssg83
Nsg76
(lp3339
g69
(g85
g71
NtRp3340
(dp3341
g74
(dp3342
sg83
g3336
sg76
(lp3343
g69
(g90
g71
NtRp3344
(dp3345
g74
(dp3346
g94
g95
ssg83
g3340
sg76
(lp3347
S'auth'
p3348
asbag69
(g90
g71
NtRp3349
(dp3350
g74
(dp3351
g101
g102
ssg83
g3340
sg76
(lp3352
S':'
asbag69
(g90
g71
NtRp3353
(dp3354
g74
(dp3355
sg83
g3340
sg76
(lp3356
g69
(g70
g71
NtRp3357
(dp3358
g74
(dp3359
g82
I5
ssg83
g3353
sg76
(lp3360
g69
(g78
g71
NtRp3361
(dp3362
g74
(dp3363
g82
I4
ssg83
Nsg76
(lp3364
g69
(g85
g71
NtRp3365
(dp3366
g74
(dp3367
sg83
g3361
sg76
(lp3368
g69
(g90
g71
NtRp3369
(dp3370
g74
(dp3371
g94
g95
ssg83
g3365
sg76
(lp3372
S'expiration'
p3373
asbag69
(g90
g71
NtRp3374
(dp3375
g74
(dp3376
g101
g102
ssg83
g3365
sg76
(lp3377
S':'
asbag69
(g90
g71
NtRp3378
(dp3379
g74
(dp3380
sg83
g3365
sg76
(lp3381
g69
(g70
g71
NtRp3382
(dp3383
g74
(dp3384
g82
I4
ssg83
g3378
sg76
(lp3385
S'3600'
p3386
asbasbasbag69
(g85
g71
NtRp3387
(dp3388
g74
(dp3389
sg83
g3361
sg76
(lp3390
g69
(g90
g71
NtRp3391
(dp3392
g74
(dp3393
g94
g95
ssg83
g3387
sg76
(lp3394
S'hmac_key'
p3395
asbag69
(g90
g71
NtRp3396
(dp3397
g74
(dp3398
g101
g102
ssg83
g3387
sg76
(lp3399
S':'
asbag69
(g90
g71
NtRp3400
(dp3401
g74
(dp3402
sg83
g3387
sg76
(lp3403
g69
(g70
g71
NtRp3404
(dp3405
g74
(dp3406
g82
I4
ssg83
g3400
sg76
(lp3407
S'6d65ccff-e9f9-4a04-a10d-f39c9767a83a'
p3408
asbasbasbag69
(g85
g71
NtRp3409
(dp3410
g74
(dp3411
sg83
g3361
sg76
(lp3412
g69
(g90
g71
NtRp3413
(dp3414
g74
(dp3415
g94
g95
ssg83
g3409
sg76
(lp3416
S'last_visit'
p3417
asbag69
(g90
g71
NtRp3418
(dp3419
g74
(dp3420
g101
g102
ssg83
g3409
sg76
(lp3421
S':'
asbag69
(g90
g71
NtRp3422
(dp3423
g74
(dp3424
sg83
g3409
sg76
(lp3425
g69
(g70
g71
NtRp3426
(dp3427
g74
(dp3428
g82
I4
ssg83
g3422
sg76
(lp3429
S'datetime.datetime(2012, 6, 3, 17, 59, 4, 183384)'
p3430
asbasbasbag69
(g85
g71
NtRp3431
(dp3432
g74
(dp3433
sg83
g3361
sg76
(lp3434
g69
(g90
g71
NtRp3435
(dp3436
g74
(dp3437
g94
g95
ssg83
g3431
sg76
(lp3438
S'remember'
p3439
asbag69
(g90
g71
NtRp3440
(dp3441
g74
(dp3442
g101
g102
ssg83
g3431
sg76
(lp3443
S':'
asbag69
(g90
g71
NtRp3444
(dp3445
g74
(dp3446
sg83
g3431
sg76
(lp3447
g69
(g70
g71
NtRp3448
(dp3449
g74
(dp3450
g82
I4
ssg83
g3444
sg76
(lp3451
g112
asbasbasbag69
(g85
g71
NtRp3452
(dp3453
g74
(dp3454
sg83
g3361
sg76
(lp3455
g69
(g90
g71
NtRp3456
(dp3457
g74
(dp3458
g94
g95
ssg83
g3452
sg76
(lp3459
S'user'
p3460
asbag69
(g90
g71
NtRp3461
(dp3462
g74
(dp3463
g101
g102
ssg83
g3452
sg76
(lp3464
S':'
asbag69
(g90
g71
NtRp3465
(dp3466
g74
(dp3467
sg83
g3452
sg76
(lp3468
g69
(g70
g71
NtRp3469
(dp3470
g74
(dp3471
g82
I4
ssg83
g3465
sg76
(lp3472
g69
(g78
g71
NtRp3473
(dp3474
g74
(dp3475
g82
I3
ssg83
Nsg76
(lp3476
g69
(g85
g71
NtRp3477
(dp3478
g74
(dp3479
sg83
g3473
sg76
(lp3480
g69
(g90
g71
NtRp3481
(dp3482
g74
(dp3483
g94
g95
ssg83
g3477
sg76
(lp3484
S'email'
p3485
asbag69
(g90
g71
NtRp3486
(dp3487
g74
(dp3488
g101
g102
ssg83
g3477
sg76
(lp3489
S':'
asbag69
(g90
g71
NtRp3490
(dp3491
g74
(dp3492
sg83
g3477
sg76
(lp3493
g69
(g70
g71
NtRp3494
(dp3495
g74
(dp3496
g82
I3
ssg83
g3490
sg76
(lp3497
S'haha@haha.com'
p3498
asbasbasbag69
(g85
g71
NtRp3499
(dp3500
g74
(dp3501
sg83
g3473
sg76
(lp3502
g69
(g90
g71
NtRp3503
(dp3504
g74
(dp3505
g94
g95
ssg83
g3499
sg76
(lp3506
S'first_name'
p3507
asbag69
(g90
g71
NtRp3508
(dp3509
g74
(dp3510
g101
g102
ssg83
g3499
sg76
(lp3511
S':'
asbag69
(g90
g71
NtRp3512
(dp3513
g74
(dp3514
sg83
g3499
sg76
(lp3515
g69
(g70
g71
NtRp3516
(dp3517
g74
(dp3518
g82
I3
ssg83
g3512
sg76
(lp3519
S'Iana'
p3520
asbasbasbag69
(g85
g71
NtRp3521
(dp3522
g74
(dp3523
sg83
g3473
sg76
(lp3524
g69
(g90
g71
NtRp3525
(dp3526
g74
(dp3527
g94
g95
ssg83
g3521
sg76
(lp3528
S'id'
p3529
asbag69
(g90
g71
NtRp3530
(dp3531
g74
(dp3532
g101
g102
ssg83
g3521
sg76
(lp3533
S':'
asbag69
(g90
g71
NtRp3534
(dp3535
g74
(dp3536
sg83
g3521
sg76
(lp3537
g69
(g70
g71
NtRp3538
(dp3539
g74
(dp3540
g82
I3
ssg83
g3534
sg76
(lp3541
S'2'
asbasbasbag69
(g85
g71
NtRp3542
(dp3543
g74
(dp3544
sg83
g3473
sg76
(lp3545
g69
(g90
g71
NtRp3546
(dp3547
g74
(dp3548
g94
g95
ssg83
g3542
sg76
(lp3549
S'last_name'
p3550
asbag69
(g90
g71
NtRp3551
(dp3552
g74
(dp3553
g101
g102
ssg83
g3542
sg76
(lp3554
S':'
asbag69
(g90
g71
NtRp3555
(dp3556
g74
(dp3557
sg83
g3542
sg76
(lp3558
g69
(g70
g71
NtRp3559
(dp3560
g74
(dp3561
g82
I3
ssg83
g3555
sg76
(lp3562
S'Boneva'
p3563
asbasbasbag69
(g85
g71
NtRp3564
(dp3565
g74
(dp3566
sg83
g3473
sg76
(lp3567
g69
(g90
g71
NtRp3568
(dp3569
g74
(dp3570
g94
g95
ssg83
g3564
sg76
(lp3571
S'password'
p3572
asbag69
(g90
g71
NtRp3573
(dp3574
g74
(dp3575
g101
g102
ssg83
g3564
sg76
(lp3576
S':'
asbag69
(g90
g71
NtRp3577
(dp3578
g74
(dp3579
sg83
g3564
sg76
(lp3580
g69
(g70
g71
NtRp3581
(dp3582
g74
(dp3583
g82
I3
ssg83
g3577
sg76
(lp3584
S'be570e8e7b9bbc17c5aecccf653fd3d3'
p3585
asbasbasbag69
(g85
g71
NtRp3586
(dp3587
g74
(dp3588
sg83
g3473
sg76
(lp3589
g69
(g90
g71
NtRp3590
(dp3591
g74
(dp3592
g94
g95
ssg83
g3586
sg76
(lp3593
S'registration_id'
p3594
asbag69
(g90
g71
NtRp3595
(dp3596
g74
(dp3597
g101
g102
ssg83
g3586
sg76
(lp3598
S':'
asbag69
(g90
g71
NtRp3599
(dp3600
g74
(dp3601
sg83
g3586
sg76
(lp3602
g69
(g70
g71
NtRp3603
(dp3604
g74
(dp3605
g82
I3
ssg83
g3599
sg76
(lp3606
S''
asbasbasbag69
(g85
g71
NtRp3607
(dp3608
g74
(dp3609
sg83
g3473
sg76
(lp3610
g69
(g90
g71
NtRp3611
(dp3612
g74
(dp3613
g94
g95
ssg83
g3607
sg76
(lp3614
S'registration_key'
p3615
asbag69
(g90
g71
NtRp3616
(dp3617
g74
(dp3618
g101
g102
ssg83
g3607
sg76
(lp3619
S':'
asbag69
(g90
g71
NtRp3620
(dp3621
g74
(dp3622
sg83
g3607
sg76
(lp3623
g69
(g70
g71
NtRp3624
(dp3625
g74
(dp3626
g82
I3
ssg83
g3620
sg76
(lp3627
S''
asbasbasbag69
(g85
g71
NtRp3628
(dp3629
g74
(dp3630
sg83
g3473
sg76
(lp3631
g69
(g90
g71
NtRp3632
(dp3633
g74
(dp3634
g94
g95
ssg83
g3628
sg76
(lp3635
S'reset_password_key'
p3636
asbag69
(g90
g71
NtRp3637
(dp3638
g74
(dp3639
g101
g102
ssg83
g3628
sg76
(lp3640
S':'
asbag69
(g90
g71
NtRp3641
(dp3642
g74
(dp3643
sg83
g3628
sg76
(lp3644
g69
(g70
g71
NtRp3645
(dp3646
g74
(dp3647
g82
I3
ssg83
g3641
sg76
(lp3648
S''
asbasbasbasbasbasbasbag69
(g85
g71
NtRp3649
(dp3650
g74
(dp3651
sg83
g3361
sg76
(lp3652
g69
(g90
g71
NtRp3653
(dp3654
g74
(dp3655
g94
g95
ssg83
g3649
sg76
(lp3656
S'user_groups'
p3657
asbag69
(g90
g71
NtRp3658
(dp3659
g74
(dp3660
g101
g102
ssg83
g3649
sg76
(lp3661
S':'
asbag69
(g90
g71
NtRp3662
(dp3663
g74
(dp3664
sg83
g3649
sg76
(lp3665
g69
(g70
g71
NtRp3666
(dp3667
g74
(dp3668
g82
I4
ssg83
g3662
sg76
(lp3669
g69
(g78
g71
NtRp3670
(dp3671
g74
(dp3672
g82
I3
ssg83
Nsg76
(lp3673
g69
(g85
g71
NtRp3674
(dp3675
g74
(dp3676
sg83
g3670
sg76
(lp3677
g69
(g90
g71
NtRp3678
(dp3679
g74
(dp3680
g94
g95
ssg83
g3674
sg76
(lp3681
S'2'
asbag69
(g90
g71
NtRp3682
(dp3683
g74
(dp3684
g101
g102
ssg83
g3674
sg76
(lp3685
S':'
asbag69
(g90
g71
NtRp3686
(dp3687
g74
(dp3688
sg83
g3674
sg76
(lp3689
g69
(g70
g71
NtRp3690
(dp3691
g74
(dp3692
g82
I3
ssg83
g3686
sg76
(lp3693
S'user_2'
p3694
asbasbasbasbasbasbasbasbasbasbasbag69
(g85
g71
NtRp3695
(dp3696
g74
(dp3697
sg83
g3336
sg76
(lp3698
g69
(g90
g71
NtRp3699
(dp3700
g74
(dp3701
g94
g95
ssg83
g3695
sg76
(lp3702
S'last_query'
p3703
asbag69
(g90
g71
NtRp3704
(dp3705
g74
(dp3706
g101
g102
ssg83
g3695
sg76
(lp3707
S':'
asbag69
(g90
g71
NtRp3708
(dp3709
g74
(dp3710
sg83
g3695
sg76
(lp3711
g69
(g70
g71
NtRp3712
(dp3713
g74
(dp3714
g82
I5
ssg83
g3708
sg76
(lp3715
S'db.Book_Shelf_Items.id>0'
p3716
asbasbasbasbasbsS'etype'
p3717
S"<type 'exceptions.IndentationError'>"
p3718
sS'date'
p3719
S'Sun Jun  3 18:01:20 2012'
p3720
sS'response'
p3721
g69
(g70
g71
NtRp3722
(dp3723
g74
(dp3724
sg76
(lp3725
g69
(g78
g71
NtRp3726
(dp3727
g74
(dp3728
g82
I5
ssg83
Nsg76
(lp3729
g69
(g85
g71
NtRp3730
(dp3731
g74
(dp3732
sg83
g3726
sg76
(lp3733
g69
(g90
g71
NtRp3734
(dp3735
g74
(dp3736
g94
g95
ssg83
g3730
sg76
(lp3737
g179
asbag69
(g90
g71
NtRp3738
(dp3739
g74
(dp3740
g101
g102
ssg83
g3730
sg76
(lp3741
S':'
asbag69
(g90
g71
NtRp3742
(dp3743
g74
(dp3744
sg83
g3730
sg76
(lp3745
g69
(g70
g71
NtRp3746
(dp3747
g74
(dp3748
g82
I5
ssg83
g3742
sg76
(lp3749
S'<cStringIO.StringO object at 0x109fbcb90>'
p3750
asbasbasbag69
(g85
g71
NtRp3751
(dp3752
g74
(dp3753
sg83
g3726
sg76
(lp3754
g69
(g90
g71
NtRp3755
(dp3756
g74
(dp3757
g94
g95
ssg83
g3751
sg76
(lp3758
g245
asbag69
(g90
g71
NtRp3759
(dp3760
g74
(dp3761
g101
g102
ssg83
g3751
sg76
(lp3762
S':'
asbag69
(g90
g71
NtRp3763
(dp3764
g74
(dp3765
sg83
g3751
sg76
(lp3766
g69
(g70
g71
NtRp3767
(dp3768
g74
(dp3769
g82
I5
ssg83
g3763
sg76
(lp3770
g69
(g78
g71
NtRp3771
(dp3772
g74
(dp3773
g82
I4
ssg83
Nsg76
(lp3774
g69
(g85
g71
NtRp3775
(dp3776
g74
(dp3777
sg83
g3771
sg76
(lp3778
g69
(g90
g71
NtRp3779
(dp3780
g74
(dp3781
g94
g95
ssg83
g3775
sg76
(lp3782
S'session_id_book_shelf_copy'
p3783
asbag69
(g90
g71
NtRp3784
(dp3785
g74
(dp3786
g101
g102
ssg83
g3775
sg76
(lp3787
S':'
asbag69
(g90
g71
NtRp3788
(dp3789
g74
(dp3790
sg83
g3775
sg76
(lp3791
g69
(g70
g71
NtRp3792
(dp3793
g74
(dp3794
g82
I4
ssg83
g3788
sg76
(lp3795
g69
(g78
g71
NtRp3796
(dp3797
g74
(dp3798
g82
I3
ssg83
Nsg76
(lp3799
g69
(g85
g71
NtRp3800
(dp3801
g74
(dp3802
sg83
g3796
sg76
(lp3803
g69
(g90
g71
NtRp3804
(dp3805
g74
(dp3806
g94
g95
ssg83
g3800
sg76
(lp3807
g295
asbag69
(g90
g71
NtRp3808
(dp3809
g74
(dp3810
g101
g102
ssg83
g3800
sg76
(lp3811
S':'
asbag69
(g90
g71
NtRp3812
(dp3813
g74
(dp3814
sg83
g3800
sg76
(lp3815
g69
(g70
g71
NtRp3816
(dp3817
g74
(dp3818
g82
I3
ssg83
g3812
sg76
(lp3819
S''
asbasbasbag69
(g85
g71
NtRp3820
(dp3821
g74
(dp3822
sg83
g3796
sg76
(lp3823
g69
(g90
g71
NtRp3824
(dp3825
g74
(dp3826
g94
g95
ssg83
g3820
sg76
(lp3827
g316
asbag69
(g90
g71
NtRp3828
(dp3829
g74
(dp3830
g101
g102
ssg83
g3820
sg76
(lp3831
S':'
asbag69
(g90
g71
NtRp3832
(dp3833
g74
(dp3834
sg83
g3820
sg76
(lp3835
g69
(g70
g71
NtRp3836
(dp3837
g74
(dp3838
g82
I3
ssg83
g3832
sg76
(lp3839
S''
asbasbasbag69
(g85
g71
NtRp3840
(dp3841
g74
(dp3842
sg83
g3796
sg76
(lp3843
g69
(g90
g71
NtRp3844
(dp3845
g74
(dp3846
g94
g95
ssg83
g3840
sg76
(lp3847
g337
asbag69
(g90
g71
NtRp3848
(dp3849
g74
(dp3850
g101
g102
ssg83
g3840
sg76
(lp3851
S':'
asbag69
(g90
g71
NtRp3852
(dp3853
g74
(dp3854
sg83
g3840
sg76
(lp3855
g69
(g70
g71
NtRp3856
(dp3857
g74
(dp3858
g82
I3
ssg83
g3852
sg76
(lp3859
S''
asbasbasbag69
(g85
g71
NtRp3860
(dp3861
g74
(dp3862
sg83
g3796
sg76
(lp3863
g69
(g90
g71
NtRp3864
(dp3865
g74
(dp3866
g94
g95
ssg83
g3860
sg76
(lp3867
g358
asbag69
(g90
g71
NtRp3868
(dp3869
g74
(dp3870
g101
g102
ssg83
g3860
sg76
(lp3871
S':'
asbag69
(g90
g71
NtRp3872
(dp3873
g74
(dp3874
sg83
g3860
sg76
(lp3875
g69
(g70
g71
NtRp3876
(dp3877
g74
(dp3878
g82
I3
ssg83
g3872
sg76
(lp3879
S''
asbasbasbag69
(g85
g71
NtRp3880
(dp3881
g74
(dp3882
sg83
g3796
sg76
(lp3883
g69
(g90
g71
NtRp3884
(dp3885
g74
(dp3886
g94
g95
ssg83
g3880
sg76
(lp3887
g379
asbag69
(g90
g71
NtRp3888
(dp3889
g74
(dp3890
g101
g102
ssg83
g3880
sg76
(lp3891
S':'
asbag69
(g90
g71
NtRp3892
(dp3893
g74
(dp3894
sg83
g3880
sg76
(lp3895
g69
(g70
g71
NtRp3896
(dp3897
g74
(dp3898
g82
I3
ssg83
g3892
sg76
(lp3899
S''
asbasbasbag69
(g85
g71
NtRp3900
(dp3901
g74
(dp3902
sg83
g3796
sg76
(lp3903
g69
(g90
g71
NtRp3904
(dp3905
g74
(dp3906
g94
g95
ssg83
g3900
sg76
(lp3907
g400
asbag69
(g90
g71
NtRp3908
(dp3909
g74
(dp3910
g101
g102
ssg83
g3900
sg76
(lp3911
S':'
asbag69
(g90
g71
NtRp3912
(dp3913
g74
(dp3914
sg83
g3900
sg76
(lp3915
g69
(g70
g71
NtRp3916
(dp3917
g74
(dp3918
g82
I3
ssg83
g3912
sg76
(lp3919
S'/'
asbasbasbag69
(g85
g71
NtRp3920
(dp3921
g74
(dp3922
sg83
g3796
sg76
(lp3923
g69
(g90
g71
NtRp3924
(dp3925
g74
(dp3926
g94
g95
ssg83
g3920
sg76
(lp3927
g421
asbag69
(g90
g71
NtRp3928
(dp3929
g74
(dp3930
g101
g102
ssg83
g3920
sg76
(lp3931
S':'
asbag69
(g90
g71
NtRp3932
(dp3933
g74
(dp3934
sg83
g3920
sg76
(lp3935
g69
(g70
g71
NtRp3936
(dp3937
g74
(dp3938
g82
I3
ssg83
g3932
sg76
(lp3939
S''
asbasbasbag69
(g85
g71
NtRp3940
(dp3941
g74
(dp3942
sg83
g3796
sg76
(lp3943
g69
(g90
g71
NtRp3944
(dp3945
g74
(dp3946
g94
g95
ssg83
g3940
sg76
(lp3947
g442
asbag69
(g90
g71
NtRp3948
(dp3949
g74
(dp3950
g101
g102
ssg83
g3940
sg76
(lp3951
S':'
asbag69
(g90
g71
NtRp3952
(dp3953
g74
(dp3954
sg83
g3940
sg76
(lp3955
g69
(g70
g71
NtRp3956
(dp3957
g74
(dp3958
g82
I3
ssg83
g3952
sg76
(lp3959
S''
asbasbasbasbasbasbasbasbasbasbasbag69
(g85
g71
NtRp3960
(dp3961
g74
(dp3962
sg83
g3726
sg76
(lp3963
g69
(g90
g71
NtRp3964
(dp3965
g74
(dp3966
g94
g95
ssg83
g3960
sg76
(lp3967
S'delimiters'
p3968
asbag69
(g90
g71
NtRp3969
(dp3970
g74
(dp3971
g101
g102
ssg83
g3960
sg76
(lp3972
S':'
asbag69
(g90
g71
NtRp3973
(dp3974
g74
(dp3975
sg83
g3960
sg76
(lp3976
g69
(g70
g71
NtRp3977
(dp3978
g74
(dp3979
g82
I5
ssg83
g3973
sg76
(lp3980
g69
(g78
g71
NtRp3981
(dp3982
g74
(dp3983
g82
I4
ssg83
Nsg76
(lp3984
g69
(g85
g71
NtRp3985
(dp3986
g74
(dp3987
sg83
g3981
sg76
(lp3988
g69
(g90
g71
NtRp3989
(dp3990
g74
(dp3991
sg83
g3985
sg76
(lp3992
g69
(g70
g71
NtRp3993
(dp3994
g74
(dp3995
g82
I4
ssg83
g3989
sg76
(lp3996
S'{{'
p3997
asbasbasbag69
(g85
g71
NtRp3998
(dp3999
g74
(dp4000
sg83
g3981
sg76
(lp4001
g69
(g90
g71
NtRp4002
(dp4003
g74
(dp4004
sg83
g3998
sg76
(lp4005
g69
(g70
g71
NtRp4006
(dp4007
g74
(dp4008
g82
I4
ssg83
g4002
sg76
(lp4009
S'}}'
p4010
asbasbasbasbasbasbasbag69
(g85
g71
NtRp4011
(dp4012
g74
(dp4013
sg83
g3726
sg76
(lp4014
g69
(g90
g71
NtRp4015
(dp4016
g74
(dp4017
g94
g95
ssg83
g4011
sg76
(lp4018
S'files'
p4019
asbag69
(g90
g71
NtRp4020
(dp4021
g74
(dp4022
g101
g102
ssg83
g4011
sg76
(lp4023
S':'
asbag69
(g90
g71
NtRp4024
(dp4025
g74
(dp4026
sg83
g4011
sg76
(lp4027
g69
(g70
g71
NtRp4028
(dp4029
g74
(dp4030
g82
I5
ssg83
g4024
sg76
(lp4031
g69
(g78
g71
NtRp4032
(dp4033
g74
(dp4034
g82
I4
ssg83
Nsg76
(lp4035
sbasbasbasbag69
(g85
g71
NtRp4036
(dp4037
g74
(dp4038
sg83
g3726
sg76
(lp4039
g69
(g90
g71
NtRp4040
(dp4041
g74
(dp4042
g94
g95
ssg83
g4036
sg76
(lp4043
S'flash'
p4044
asbag69
(g90
g71
NtRp4045
(dp4046
g74
(dp4047
g101
g102
ssg83
g4036
sg76
(lp4048
S':'
asbag69
(g90
g71
NtRp4049
(dp4050
g74
(dp4051
sg83
g4036
sg76
(lp4052
g69
(g70
g71
NtRp4053
(dp4054
g74
(dp4055
g82
I5
ssg83
g4049
sg76
(lp4056
S''
asbasbasbag69
(g85
g71
NtRp4057
(dp4058
g74
(dp4059
sg83
g3726
sg76
(lp4060
g69
(g90
g71
NtRp4061
(dp4062
g74
(dp4063
g94
g95
ssg83
g4057
sg76
(lp4064
S'generic_patterns'
p4065
asbag69
(g90
g71
NtRp4066
(dp4067
g74
(dp4068
g101
g102
ssg83
g4057
sg76
(lp4069
S':'
asbag69
(g90
g71
NtRp4070
(dp4071
g74
(dp4072
sg83
g4057
sg76
(lp4073
g69
(g70
g71
NtRp4074
(dp4075
g74
(dp4076
g82
I5
ssg83
g4070
sg76
(lp4077
g69
(g78
g71
NtRp4078
(dp4079
g74
(dp4080
g82
I4
ssg83
Nsg76
(lp4081
g69
(g85
g71
NtRp4082
(dp4083
g74
(dp4084
sg83
g4078
sg76
(lp4085
g69
(g90
g71
NtRp4086
(dp4087
g74
(dp4088
sg83
g4082
sg76
(lp4089
g69
(g70
g71
NtRp4090
(dp4091
g74
(dp4092
g82
I4
ssg83
g4086
sg76
(lp4093
S'*'
asbasbasbasbasbasbasbag69
(g85
g71
NtRp4094
(dp4095
g74
(dp4096
sg83
g3726
sg76
(lp4097
g69
(g90
g71
NtRp4098
(dp4099
g74
(dp4100
g94
g95
ssg83
g4094
sg76
(lp4101
S'headers'
p4102
asbag69
(g90
g71
NtRp4103
(dp4104
g74
(dp4105
g101
g102
ssg83
g4094
sg76
(lp4106
S':'
asbag69
(g90
g71
NtRp4107
(dp4108
g74
(dp4109
sg83
g4094
sg76
(lp4110
g69
(g70
g71
NtRp4111
(dp4112
g74
(dp4113
g82
I5
ssg83
g4107
sg76
(lp4114
g69
(g78
g71
NtRp4115
(dp4116
g74
(dp4117
g82
I4
ssg83
Nsg76
(lp4118
g69
(g85
g71
NtRp4119
(dp4120
g74
(dp4121
sg83
g4115
sg76
(lp4122
g69
(g90
g71
NtRp4123
(dp4124
g74
(dp4125
g94
g95
ssg83
g4119
sg76
(lp4126
S'Cache-Control'
p4127
asbag69
(g90
g71
NtRp4128
(dp4129
g74
(dp4130
g101
g102
ssg83
g4119
sg76
(lp4131
S':'
asbag69
(g90
g71
NtRp4132
(dp4133
g74
(dp4134
sg83
g4119
sg76
(lp4135
g69
(g70
g71
NtRp4136
(dp4137
g74
(dp4138
g82
I4
ssg83
g4132
sg76
(lp4139
S'no-store, no-cache, must-revalidate, post-check=0, pre-check=0'
p4140
asbasbasbag69
(g85
g71
NtRp4141
(dp4142
g74
(dp4143
sg83
g4115
sg76
(lp4144
g69
(g90
g71
NtRp4145
(dp4146
g74
(dp4147
g94
g95
ssg83
g4141
sg76
(lp4148
S'Content-Type'
p4149
asbag69
(g90
g71
NtRp4150
(dp4151
g74
(dp4152
g101
g102
ssg83
g4141
sg76
(lp4153
S':'
asbag69
(g90
g71
NtRp4154
(dp4155
g74
(dp4156
sg83
g4141
sg76
(lp4157
g69
(g70
g71
NtRp4158
(dp4159
g74
(dp4160
g82
I4
ssg83
g4154
sg76
(lp4161
S'text/html; charset=utf-8'
p4162
asbasbasbag69
(g85
g71
NtRp4163
(dp4164
g74
(dp4165
sg83
g4115
sg76
(lp4166
g69
(g90
g71
NtRp4167
(dp4168
g74
(dp4169
g94
g95
ssg83
g4163
sg76
(lp4170
S'Expires'
p4171
asbag69
(g90
g71
NtRp4172
(dp4173
g74
(dp4174
g101
g102
ssg83
g4163
sg76
(lp4175
S':'
asbag69
(g90
g71
NtRp4176
(dp4177
g74
(dp4178
sg83
g4163
sg76
(lp4179
g69
(g70
g71
NtRp4180
(dp4181
g74
(dp4182
g82
I4
ssg83
g4176
sg76
(lp4183
S'Sun, 03 Jun 2012 23:01:20 GMT'
p4184
asbasbasbag69
(g85
g71
NtRp4185
(dp4186
g74
(dp4187
sg83
g4115
sg76
(lp4188
g69
(g90
g71
NtRp4189
(dp4190
g74
(dp4191
g94
g95
ssg83
g4185
sg76
(lp4192
S'Pragma'
p4193
asbag69
(g90
g71
NtRp4194
(dp4195
g74
(dp4196
g101
g102
ssg83
g4185
sg76
(lp4197
S':'
asbag69
(g90
g71
NtRp4198
(dp4199
g74
(dp4200
sg83
g4185
sg76
(lp4201
g69
(g70
g71
NtRp4202
(dp4203
g74
(dp4204
g82
I4
ssg83
g4198
sg76
(lp4205
S'no-cache'
p4206
asbasbasbag69
(g85
g71
NtRp4207
(dp4208
g74
(dp4209
sg83
g4115
sg76
(lp4210
g69
(g90
g71
NtRp4211
(dp4212
g74
(dp4213
g94
g95
ssg83
g4207
sg76
(lp4214
S'X-Powered-By'
p4215
asbag69
(g90
g71
NtRp4216
(dp4217
g74
(dp4218
g101
g102
ssg83
g4207
sg76
(lp4219
S':'
asbag69
(g90
g71
NtRp4220
(dp4221
g74
(dp4222
sg83
g4207
sg76
(lp4223
g69
(g70
g71
NtRp4224
(dp4225
g74
(dp4226
g82
I4
ssg83
g4220
sg76
(lp4227
S'web2py'
p4228
asbasbasbasbasbasbasbag69
(g85
g71
NtRp4229
(dp4230
g74
(dp4231
sg83
g3726
sg76
(lp4232
g69
(g90
g71
NtRp4233
(dp4234
g74
(dp4235
g94
g95
ssg83
g4229
sg76
(lp4236
S'menu'
p4237
asbag69
(g90
g71
NtRp4238
(dp4239
g74
(dp4240
g101
g102
ssg83
g4229
sg76
(lp4241
S':'
asbag69
(g90
g71
NtRp4242
(dp4243
g74
(dp4244
sg83
g4229
sg76
(lp4245
g69
(g70
g71
NtRp4246
(dp4247
g74
(dp4248
g82
I5
ssg83
g4242
sg76
(lp4249
g69
(g78
g71
NtRp4250
(dp4251
g74
(dp4252
g82
I4
ssg83
Nsg76
(lp4253
g69
(g85
g71
NtRp4254
(dp4255
g74
(dp4256
sg83
g4250
sg76
(lp4257
g69
(g90
g71
NtRp4258
(dp4259
g74
(dp4260
sg83
g4254
sg76
(lp4261
g69
(g70
g71
NtRp4262
(dp4263
g74
(dp4264
g82
I4
ssg83
g4258
sg76
(lp4265
g69
(g78
g71
NtRp4266
(dp4267
g74
(dp4268
g82
I3
ssg83
Nsg76
(lp4269
g69
(g85
g71
NtRp4270
(dp4271
g74
(dp4272
sg83
g4266
sg76
(lp4273
g69
(g90
g71
NtRp4274
(dp4275
g74
(dp4276
sg83
g4270
sg76
(lp4277
g69
(g70
g71
NtRp4278
(dp4279
g74
(dp4280
g82
I3
ssg83
g4274
sg76
(lp4281
cgluon.languages
lazyT_unpickle
p4282
(S't\x04\x00\x00\x00Home'
tRp4283
asbasbasbag69
(g85
g71
NtRp4284
(dp4285
g74
(dp4286
sg83
g4266
sg76
(lp4287
g69
(g90
g71
NtRp4288
(dp4289
g74
(dp4290
sg83
g4284
sg76
(lp4291
g69
(g70
g71
NtRp4292
(dp4293
g74
(dp4294
g82
I3
ssg83
g4288
sg76
(lp4295
g112
asbasbasbag69
(g85
g71
NtRp4296
(dp4297
g74
(dp4298
sg83
g4266
sg76
(lp4299
g69
(g90
g71
NtRp4300
(dp4301
g74
(dp4302
sg83
g4296
sg76
(lp4303
g69
(g70
g71
NtRp4304
(dp4305
g74
(dp4306
g82
I3
ssg83
g4300
sg76
(lp4307
S'/Book_Shelf_copy/default/index'
p4308
asbasbasbag69
(g85
g71
NtRp4309
(dp4310
g74
(dp4311
sg83
g4266
sg76
(lp4312
g69
(g90
g71
NtRp4313
(dp4314
g74
(dp4315
sg83
g4309
sg76
(lp4316
g69
(g70
g71
NtRp4317
(dp4318
g74
(dp4319
g82
I3
ssg83
g4313
sg76
(lp4320
g69
(g78
g71
NtRp4321
(dp4322
g74
(dp4323
g82
I2
ssg83
Nsg76
(lp4324
sbasbasbasbasbasbasbasbag69
(g85
g71
NtRp4325
(dp4326
g74
(dp4327
sg83
g4250
sg76
(lp4328
g69
(g90
g71
NtRp4329
(dp4330
g74
(dp4331
sg83
g4325
sg76
(lp4332
g69
(g70
g71
NtRp4333
(dp4334
g74
(dp4335
g82
I4
ssg83
g4329
sg76
(lp4336
g69
(g78
g71
NtRp4337
(dp4338
g74
(dp4339
g82
I3
ssg83
Nsg76
(lp4340
g69
(g85
g71
NtRp4341
(dp4342
g74
(dp4343
sg83
g4337
sg76
(lp4344
g69
(g90
g71
NtRp4345
(dp4346
g74
(dp4347
sg83
g4341
sg76
(lp4348
g69
(g70
g71
NtRp4349
(dp4350
g74
(dp4351
g82
I3
ssg83
g4345
sg76
(lp4352
g4282
(S's\x0c\x00\x00\x00User Profile'
tRp4353
asbasbasbag69
(g85
g71
NtRp4354
(dp4355
g74
(dp4356
sg83
g4337
sg76
(lp4357
g69
(g90
g71
NtRp4358
(dp4359
g74
(dp4360
sg83
g4354
sg76
(lp4361
g69
(g70
g71
NtRp4362
(dp4363
g74
(dp4364
g82
I3
ssg83
g4358
sg76
(lp4365
g112
asbasbasbag69
(g85
g71
NtRp4366
(dp4367
g74
(dp4368
sg83
g4337
sg76
(lp4369
g69
(g90
g71
NtRp4370
(dp4371
g74
(dp4372
sg83
g4366
sg76
(lp4373
g69
(g70
g71
NtRp4374
(dp4375
g74
(dp4376
g82
I3
ssg83
g4370
sg76
(lp4377
S'None'
p4378
asbasbasbag69
(g85
g71
NtRp4379
(dp4380
g74
(dp4381
sg83
g4337
sg76
(lp4382
g69
(g90
g71
NtRp4383
(dp4384
g74
(dp4385
sg83
g4379
sg76
(lp4386
g69
(g70
g71
NtRp4387
(dp4388
g74
(dp4389
g82
I3
ssg83
g4383
sg76
(lp4390
g69
(g78
g71
NtRp4391
(dp4392
g74
(dp4393
g82
I2
ssg83
Nsg76
(lp4394
g69
(g85
g71
NtRp4395
(dp4396
g74
(dp4397
sg83
g4391
sg76
(lp4398
g69
(g90
g71
NtRp4399
(dp4400
g74
(dp4401
sg83
g4395
sg76
(lp4402
g69
(g70
g71
NtRp4403
(dp4404
g74
(dp4405
g82
I2
ssg83
g4399
sg76
(lp4406
g69
(g78
g71
NtRp4407
(dp4408
g74
(dp4409
g82
I1
ssg83
Nsg76
(lp4410
g69
(g85
g71
NtRp4411
(dp4412
g74
(dp4413
sg83
g4407
sg76
(lp4414
g69
(g90
g71
NtRp4415
(dp4416
g74
(dp4417
sg83
g4411
sg76
(lp4418
g69
(g70
g71
NtRp4419
(dp4420
g74
(dp4421
g82
I1
ssg83
g4415
sg76
(lp4422
g4282
(S's\x0c\x00\x00\x00User Profile'
tRp4423
asbasbasbag69
(g85
g71
NtRp4424
(dp4425
g74
(dp4426
sg83
g4407
sg76
(lp4427
g69
(g90
g71
NtRp4428
(dp4429
g74
(dp4430
sg83
g4424
sg76
(lp4431
g69
(g70
g71
NtRp4432
(dp4433
g74
(dp4434
g82
I1
ssg83
g4428
sg76
(lp4435
I00
asbasbasbag69
(g85
g71
NtRp4436
(dp4437
g74
(dp4438
sg83
g4407
sg76
(lp4439
g69
(g90
g71
NtRp4440
(dp4441
g74
(dp4442
sg83
g4436
sg76
(lp4443
g69
(g70
g71
NtRp4444
(dp4445
g74
(dp4446
g82
I1
ssg83
g4440
sg76
(lp4447
S'/Book_Shelf_copy/default/user_profile'
p4448
asbasbasbasbasbasbasbag69
(g85
g71
NtRp4449
(dp4450
g74
(dp4451
sg83
g4391
sg76
(lp4452
g69
(g90
g71
NtRp4453
(dp4454
g74
(dp4455
sg83
g4449
sg76
(lp4456
g69
(g70
g71
NtRp4457
(dp4458
g74
(dp4459
g82
I2
ssg83
g4453
sg76
(lp4460
g69
(g78
g71
NtRp4461
(dp4462
g74
(dp4463
g82
I1
ssg83
Nsg76
(lp4464
g69
(g85
g71
NtRp4465
(dp4466
g74
(dp4467
sg83
g4461
sg76
(lp4468
g69
(g90
g71
NtRp4469
(dp4470
g74
(dp4471
sg83
g4465
sg76
(lp4472
g69
(g70
g71
NtRp4473
(dp4474
g74
(dp4475
g82
I1
ssg83
g4469
sg76
(lp4476
g4282
(S's\x13\x00\x00\x00Create User Profile'
tRp4477
asbasbasbag69
(g85
g71
NtRp4478
(dp4479
g74
(dp4480
sg83
g4461
sg76
(lp4481
g69
(g90
g71
NtRp4482
(dp4483
g74
(dp4484
sg83
g4478
sg76
(lp4485
g69
(g70
g71
NtRp4486
(dp4487
g74
(dp4488
g82
I1
ssg83
g4482
sg76
(lp4489
I00
asbasbasbag69
(g85
g71
NtRp4490
(dp4491
g74
(dp4492
sg83
g4461
sg76
(lp4493
g69
(g90
g71
NtRp4494
(dp4495
g74
(dp4496
sg83
g4490
sg76
(lp4497
g69
(g70
g71
NtRp4498
(dp4499
g74
(dp4500
g82
I1
ssg83
g4494
sg76
(lp4501
S'/Book_Shelf_copy/default/create_user_profile'
p4502
asbasbasbasbasbasbasbag69
(g85
g71
NtRp4503
(dp4504
g74
(dp4505
sg83
g4391
sg76
(lp4506
g69
(g90
g71
NtRp4507
(dp4508
g74
(dp4509
sg83
g4503
sg76
(lp4510
g69
(g70
g71
NtRp4511
(dp4512
g74
(dp4513
g82
I2
ssg83
g4507
sg76
(lp4514
g69
(g78
g71
NtRp4515
(dp4516
g74
(dp4517
g82
I1
ssg83
Nsg76
(lp4518
g69
(g85
g71
NtRp4519
(dp4520
g74
(dp4521
sg83
g4515
sg76
(lp4522
g69
(g90
g71
NtRp4523
(dp4524
g74
(dp4525
sg83
g4519
sg76
(lp4526
g69
(g70
g71
NtRp4527
(dp4528
g74
(dp4529
g82
I1
ssg83
g4523
sg76
(lp4530
g4282
(S's\x13\x00\x00\x00Update User Profile'
tRp4531
asbasbasbag69
(g85
g71
NtRp4532
(dp4533
g74
(dp4534
sg83
g4515
sg76
(lp4535
g69
(g90
g71
NtRp4536
(dp4537
g74
(dp4538
sg83
g4532
sg76
(lp4539
g69
(g70
g71
NtRp4540
(dp4541
g74
(dp4542
g82
I1
ssg83
g4536
sg76
(lp4543
I00
asbasbasbag69
(g85
g71
NtRp4544
(dp4545
g74
(dp4546
sg83
g4515
sg76
(lp4547
g69
(g90
g71
NtRp4548
(dp4549
g74
(dp4550
sg83
g4544
sg76
(lp4551
g69
(g70
g71
NtRp4552
(dp4553
g74
(dp4554
g82
I1
ssg83
g4548
sg76
(lp4555
S'/Book_Shelf_copy/default/update_user_profile'
p4556
asbasbasbasbasbasbasbasbasbasbasbasbasbasbasbag69
(g85
g71
NtRp4557
(dp4558
g74
(dp4559
sg83
g4250
sg76
(lp4560
g69
(g90
g71
NtRp4561
(dp4562
g74
(dp4563
sg83
g4557
sg76
(lp4564
g69
(g70
g71
NtRp4565
(dp4566
g74
(dp4567
g82
I4
ssg83
g4561
sg76
(lp4568
g69
(g78
g71
NtRp4569
(dp4570
g74
(dp4571
g82
I3
ssg83
Nsg76
(lp4572
g69
(g85
g71
NtRp4573
(dp4574
g74
(dp4575
sg83
g4569
sg76
(lp4576
g69
(g90
g71
NtRp4577
(dp4578
g74
(dp4579
sg83
g4573
sg76
(lp4580
g69
(g70
g71
NtRp4581
(dp4582
g74
(dp4583
g82
I3
ssg83
g4577
sg76
(lp4584
g4282
(S't\x04\x00\x00\x00Book'
tRp4585
asbasbasbag69
(g85
g71
NtRp4586
(dp4587
g74
(dp4588
sg83
g4569
sg76
(lp4589
g69
(g90
g71
NtRp4590
(dp4591
g74
(dp4592
sg83
g4586
sg76
(lp4593
g69
(g70
g71
NtRp4594
(dp4595
g74
(dp4596
g82
I3
ssg83
g4590
sg76
(lp4597
g112
asbasbasbag69
(g85
g71
NtRp4598
(dp4599
g74
(dp4600
sg83
g4569
sg76
(lp4601
g69
(g90
g71
NtRp4602
(dp4603
g74
(dp4604
sg83
g4598
sg76
(lp4605
g69
(g70
g71
NtRp4606
(dp4607
g74
(dp4608
g82
I3
ssg83
g4602
sg76
(lp4609
S'None'
p4610
asbasbasbag69
(g85
g71
NtRp4611
(dp4612
g74
(dp4613
sg83
g4569
sg76
(lp4614
g69
(g90
g71
NtRp4615
(dp4616
g74
(dp4617
sg83
g4611
sg76
(lp4618
g69
(g70
g71
NtRp4619
(dp4620
g74
(dp4621
g82
I3
ssg83
g4615
sg76
(lp4622
g69
(g78
g71
NtRp4623
(dp4624
g74
(dp4625
g82
I2
ssg83
Nsg76
(lp4626
g69
(g85
g71
NtRp4627
(dp4628
g74
(dp4629
sg83
g4623
sg76
(lp4630
g69
(g90
g71
NtRp4631
(dp4632
g74
(dp4633
sg83
g4627
sg76
(lp4634
g69
(g70
g71
NtRp4635
(dp4636
g74
(dp4637
g82
I2
ssg83
g4631
sg76
(lp4638
g69
(g78
g71
NtRp4639
(dp4640
g74
(dp4641
g82
I1
ssg83
Nsg76
(lp4642
g69
(g85
g71
NtRp4643
(dp4644
g74
(dp4645
sg83
g4639
sg76
(lp4646
g69
(g90
g71
NtRp4647
(dp4648
g74
(dp4649
sg83
g4643
sg76
(lp4650
g69
(g70
g71
NtRp4651
(dp4652
g74
(dp4653
g82
I1
ssg83
g4647
sg76
(lp4654
g4282
(S's\x0c\x00\x00\x00Book Profile'
tRp4655
asbasbasbag69
(g85
g71
NtRp4656
(dp4657
g74
(dp4658
sg83
g4639
sg76
(lp4659
g69
(g90
g71
NtRp4660
(dp4661
g74
(dp4662
sg83
g4656
sg76
(lp4663
g69
(g70
g71
NtRp4664
(dp4665
g74
(dp4666
g82
I1
ssg83
g4660
sg76
(lp4667
I00
asbasbasbag69
(g85
g71
NtRp4668
(dp4669
g74
(dp4670
sg83
g4639
sg76
(lp4671
g69
(g90
g71
NtRp4672
(dp4673
g74
(dp4674
sg83
g4668
sg76
(lp4675
g69
(g70
g71
NtRp4676
(dp4677
g74
(dp4678
g82
I1
ssg83
g4672
sg76
(lp4679
S'/Book_Shelf_copy/default/book_profile'
p4680
asbasbasbasbasbasbasbag69
(g85
g71
NtRp4681
(dp4682
g74
(dp4683
sg83
g4623
sg76
(lp4684
g69
(g90
g71
NtRp4685
(dp4686
g74
(dp4687
sg83
g4681
sg76
(lp4688
g69
(g70
g71
NtRp4689
(dp4690
g74
(dp4691
g82
I2
ssg83
g4685
sg76
(lp4692
g69
(g78
g71
NtRp4693
(dp4694
g74
(dp4695
g82
I1
ssg83
Nsg76
(lp4696
g69
(g85
g71
NtRp4697
(dp4698
g74
(dp4699
sg83
g4693
sg76
(lp4700
g69
(g90
g71
NtRp4701
(dp4702
g74
(dp4703
sg83
g4697
sg76
(lp4704
g69
(g70
g71
NtRp4705
(dp4706
g74
(dp4707
g82
I1
ssg83
g4701
sg76
(lp4708
g4282
(S's\x13\x00\x00\x00Create Book Profile'
tRp4709
asbasbasbag69
(g85
g71
NtRp4710
(dp4711
g74
(dp4712
sg83
g4693
sg76
(lp4713
g69
(g90
g71
NtRp4714
(dp4715
g74
(dp4716
sg83
g4710
sg76
(lp4717
g69
(g70
g71
NtRp4718
(dp4719
g74
(dp4720
g82
I1
ssg83
g4714
sg76
(lp4721
I00
asbasbasbag69
(g85
g71
NtRp4722
(dp4723
g74
(dp4724
sg83
g4693
sg76
(lp4725
g69
(g90
g71
NtRp4726
(dp4727
g74
(dp4728
sg83
g4722
sg76
(lp4729
g69
(g70
g71
NtRp4730
(dp4731
g74
(dp4732
g82
I1
ssg83
g4726
sg76
(lp4733
S'/Book_Shelf_copy/default/create_book_profile'
p4734
asbasbasbasbasbasbasbag69
(g85
g71
NtRp4735
(dp4736
g74
(dp4737
sg83
g4623
sg76
(lp4738
g69
(g90
g71
NtRp4739
(dp4740
g74
(dp4741
sg83
g4735
sg76
(lp4742
g69
(g70
g71
NtRp4743
(dp4744
g74
(dp4745
g82
I2
ssg83
g4739
sg76
(lp4746
g69
(g78
g71
NtRp4747
(dp4748
g74
(dp4749
g82
I1
ssg83
Nsg76
(lp4750
g69
(g85
g71
NtRp4751
(dp4752
g74
(dp4753
sg83
g4747
sg76
(lp4754
g69
(g90
g71
NtRp4755
(dp4756
g74
(dp4757
sg83
g4751
sg76
(lp4758
g69
(g70
g71
NtRp4759
(dp4760
g74
(dp4761
g82
I1
ssg83
g4755
sg76
(lp4762
g4282
(S's\x13\x00\x00\x00Update Book Profile'
tRp4763
asbasbasbag69
(g85
g71
NtRp4764
(dp4765
g74
(dp4766
sg83
g4747
sg76
(lp4767
g69
(g90
g71
NtRp4768
(dp4769
g74
(dp4770
sg83
g4764
sg76
(lp4771
g69
(g70
g71
NtRp4772
(dp4773
g74
(dp4774
g82
I1
ssg83
g4768
sg76
(lp4775
I00
asbasbasbag69
(g85
g71
NtRp4776
(dp4777
g74
(dp4778
sg83
g4747
sg76
(lp4779
g69
(g90
g71
NtRp4780
(dp4781
g74
(dp4782
sg83
g4776
sg76
(lp4783
g69
(g70
g71
NtRp4784
(dp4785
g74
(dp4786
g82
I1
ssg83
g4780
sg76
(lp4787
S'/Book_Shelf_copy/default/update_book_profile'
p4788
asbasbasbasbasbasbasbasbasbasbasbasbasbasbasbag69
(g85
g71
NtRp4789
(dp4790
g74
(dp4791
sg83
g4250
sg76
(lp4792
g69
(g90
g71
NtRp4793
(dp4794
g74
(dp4795
sg83
g4789
sg76
(lp4796
g69
(g70
g71
NtRp4797
(dp4798
g74
(dp4799
g82
I4
ssg83
g4793
sg76
(lp4800
g69
(g78
g71
NtRp4801
(dp4802
g74
(dp4803
g82
I3
ssg83
Nsg76
(lp4804
g69
(g85
g71
NtRp4805
(dp4806
g74
(dp4807
sg83
g4801
sg76
(lp4808
g69
(g90
g71
NtRp4809
(dp4810
g74
(dp4811
sg83
g4805
sg76
(lp4812
g69
(g70
g71
NtRp4813
(dp4814
g74
(dp4815
g82
I3
ssg83
g4809
sg76
(lp4816
g4282
(S's\n\x00\x00\x00Book Shelf'
tRp4817
asbasbasbag69
(g85
g71
NtRp4818
(dp4819
g74
(dp4820
sg83
g4801
sg76
(lp4821
g69
(g90
g71
NtRp4822
(dp4823
g74
(dp4824
sg83
g4818
sg76
(lp4825
g69
(g70
g71
NtRp4826
(dp4827
g74
(dp4828
g82
I3
ssg83
g4822
sg76
(lp4829
g112
asbasbasbag69
(g85
g71
NtRp4830
(dp4831
g74
(dp4832
sg83
g4801
sg76
(lp4833
g69
(g90
g71
NtRp4834
(dp4835
g74
(dp4836
sg83
g4830
sg76
(lp4837
g69
(g70
g71
NtRp4838
(dp4839
g74
(dp4840
g82
I3
ssg83
g4834
sg76
(lp4841
S'None'
p4842
asbasbasbag69
(g85
g71
NtRp4843
(dp4844
g74
(dp4845
sg83
g4801
sg76
(lp4846
g69
(g90
g71
NtRp4847
(dp4848
g74
(dp4849
sg83
g4843
sg76
(lp4850
g69
(g70
g71
NtRp4851
(dp4852
g74
(dp4853
g82
I3
ssg83
g4847
sg76
(lp4854
g69
(g78
g71
NtRp4855
(dp4856
g74
(dp4857
g82
I2
ssg83
Nsg76
(lp4858
g69
(g85
g71
NtRp4859
(dp4860
g74
(dp4861
sg83
g4855
sg76
(lp4862
g69
(g90
g71
NtRp4863
(dp4864
g74
(dp4865
sg83
g4859
sg76
(lp4866
g69
(g70
g71
NtRp4867
(dp4868
g74
(dp4869
g82
I2
ssg83
g4863
sg76
(lp4870
g69
(g78
g71
NtRp4871
(dp4872
g74
(dp4873
g82
I1
ssg83
Nsg76
(lp4874
g69
(g85
g71
NtRp4875
(dp4876
g74
(dp4877
sg83
g4871
sg76
(lp4878
g69
(g90
g71
NtRp4879
(dp4880
g74
(dp4881
sg83
g4875
sg76
(lp4882
g69
(g70
g71
NtRp4883
(dp4884
g74
(dp4885
g82
I1
ssg83
g4879
sg76
(lp4886
g4282
(S's\n\x00\x00\x00Book Shelf'
tRp4887
asbasbasbag69
(g85
g71
NtRp4888
(dp4889
g74
(dp4890
sg83
g4871
sg76
(lp4891
g69
(g90
g71
NtRp4892
(dp4893
g74
(dp4894
sg83
g4888
sg76
(lp4895
g69
(g70
g71
NtRp4896
(dp4897
g74
(dp4898
g82
I1
ssg83
g4892
sg76
(lp4899
I00
asbasbasbag69
(g85
g71
NtRp4900
(dp4901
g74
(dp4902
sg83
g4871
sg76
(lp4903
g69
(g90
g71
NtRp4904
(dp4905
g74
(dp4906
sg83
g4900
sg76
(lp4907
g69
(g70
g71
NtRp4908
(dp4909
g74
(dp4910
g82
I1
ssg83
g4904
sg76
(lp4911
S'/Book_Shelf_copy/default/book_shelf'
p4912
asbasbasbasbasbasbasbag69
(g85
g71
NtRp4913
(dp4914
g74
(dp4915
sg83
g4855
sg76
(lp4916
g69
(g90
g71
NtRp4917
(dp4918
g74
(dp4919
sg83
g4913
sg76
(lp4920
g69
(g70
g71
NtRp4921
(dp4922
g74
(dp4923
g82
I2
ssg83
g4917
sg76
(lp4924
g69
(g78
g71
NtRp4925
(dp4926
g74
(dp4927
g82
I1
ssg83
Nsg76
(lp4928
g69
(g85
g71
NtRp4929
(dp4930
g74
(dp4931
sg83
g4925
sg76
(lp4932
g69
(g90
g71
NtRp4933
(dp4934
g74
(dp4935
sg83
g4929
sg76
(lp4936
g69
(g70
g71
NtRp4937
(dp4938
g74
(dp4939
g82
I1
ssg83
g4933
sg76
(lp4940
g4282
(S's\x11\x00\x00\x00Create Book Shelf'
tRp4941
asbasbasbag69
(g85
g71
NtRp4942
(dp4943
g74
(dp4944
sg83
g4925
sg76
(lp4945
g69
(g90
g71
NtRp4946
(dp4947
g74
(dp4948
sg83
g4942
sg76
(lp4949
g69
(g70
g71
NtRp4950
(dp4951
g74
(dp4952
g82
I1
ssg83
g4946
sg76
(lp4953
I00
asbasbasbag69
(g85
g71
NtRp4954
(dp4955
g74
(dp4956
sg83
g4925
sg76
(lp4957
g69
(g90
g71
NtRp4958
(dp4959
g74
(dp4960
sg83
g4954
sg76
(lp4961
g69
(g70
g71
NtRp4962
(dp4963
g74
(dp4964
g82
I1
ssg83
g4958
sg76
(lp4965
S'/Book_Shelf_copy/default/create_book_shelf'
p4966
asbasbasbasbasbasbasbag69
(g85
g71
NtRp4967
(dp4968
g74
(dp4969
sg83
g4855
sg76
(lp4970
g69
(g90
g71
NtRp4971
(dp4972
g74
(dp4973
sg83
g4967
sg76
(lp4974
g69
(g70
g71
NtRp4975
(dp4976
g74
(dp4977
g82
I2
ssg83
g4971
sg76
(lp4978
g69
(g78
g71
NtRp4979
(dp4980
g74
(dp4981
g82
I1
ssg83
Nsg76
(lp4982
g69
(g85
g71
NtRp4983
(dp4984
g74
(dp4985
sg83
g4979
sg76
(lp4986
g69
(g90
g71
NtRp4987
(dp4988
g74
(dp4989
sg83
g4983
sg76
(lp4990
g69
(g70
g71
NtRp4991
(dp4992
g74
(dp4993
g82
I1
ssg83
g4987
sg76
(lp4994
g4282
(S's\x11\x00\x00\x00Update Book Shelf'
tRp4995
asbasbasbag69
(g85
g71
NtRp4996
(dp4997
g74
(dp4998
sg83
g4979
sg76
(lp4999
g69
(g90
g71
NtRp5000
(dp5001
g74
(dp5002
sg83
g4996
sg76
(lp5003
g69
(g70
g71
NtRp5004
(dp5005
g74
(dp5006
g82
I1
ssg83
g5000
sg76
(lp5007
I00
asbasbasbag69
(g85
g71
NtRp5008
(dp5009
g74
(dp5010
sg83
g4979
sg76
(lp5011
g69
(g90
g71
NtRp5012
(dp5013
g74
(dp5014
sg83
g5008
sg76
(lp5015
g69
(g70
g71
NtRp5016
(dp5017
g74
(dp5018
g82
I1
ssg83
g5012
sg76
(lp5019
S'/Book_Shelf_copy/default/update_book_shelf'
p5020
asbasbasbasbasbasbasbasbasbasbasbasbasbasbasbag69
(g85
g71
NtRp5021
(dp5022
g74
(dp5023
sg83
g4250
sg76
(lp5024
g69
(g90
g71
NtRp5025
(dp5026
g74
(dp5027
sg83
g5021
sg76
(lp5028
g69
(g70
g71
NtRp5029
(dp5030
g74
(dp5031
g82
I4
ssg83
g5025
sg76
(lp5032
g69
(g78
g71
NtRp5033
(dp5034
g74
(dp5035
g82
I3
ssg83
Nsg76
(lp5036
g69
(g85
g71
NtRp5037
(dp5038
g74
(dp5039
sg83
g5033
sg76
(lp5040
g69
(g90
g71
NtRp5041
(dp5042
g74
(dp5043
sg83
g5037
sg76
(lp5044
g69
(g70
g71
NtRp5045
(dp5046
g74
(dp5047
g82
I3
ssg83
g5041
sg76
(lp5048
g69
(cgluon.html
SPAN
p5049
g71
NtRp5050
(dp5051
g74
(dp5052
g94
S'color:yellow'
p5053
ssg83
Nsg76
(lp5054
g4228
asbasbasbasbag69
(g85
g71
NtRp5055
(dp5056
g74
(dp5057
sg83
g5033
sg76
(lp5058
g69
(g90
g71
NtRp5059
(dp5060
g74
(dp5061
sg83
g5055
sg76
(lp5062
g69
(g70
g71
NtRp5063
(dp5064
g74
(dp5065
g82
I3
ssg83
g5059
sg76
(lp5066
g112
asbasbasbag69
(g85
g71
NtRp5067
(dp5068
g74
(dp5069
sg83
g5033
sg76
(lp5070
g69
(g90
g71
NtRp5071
(dp5072
g74
(dp5073
sg83
g5067
sg76
(lp5074
g69
(g70
g71
NtRp5075
(dp5076
g74
(dp5077
g82
I3
ssg83
g5071
sg76
(lp5078
S'None'
p5079
asbasbasbag69
(g85
g71
NtRp5080
(dp5081
g74
(dp5082
sg83
g5033
sg76
(lp5083
g69
(g90
g71
NtRp5084
(dp5085
g74
(dp5086
sg83
g5080
sg76
(lp5087
g69
(g70
g71
NtRp5088
(dp5089
g74
(dp5090
g82
I3
ssg83
g5084
sg76
(lp5091
g69
(g78
g71
NtRp5092
(dp5093
g74
(dp5094
g82
I2
ssg83
Nsg76
(lp5095
g69
(g85
g71
NtRp5096
(dp5097
g74
(dp5098
sg83
g5092
sg76
(lp5099
g69
(g90
g71
NtRp5100
(dp5101
g74
(dp5102
sg83
g5096
sg76
(lp5103
g69
(g70
g71
NtRp5104
(dp5105
g74
(dp5106
g82
I2
ssg83
g5100
sg76
(lp5107
g69
(g78
g71
NtRp5108
(dp5109
g74
(dp5110
g82
I1
ssg83
Nsg76
(lp5111
g69
(g85
g71
NtRp5112
(dp5113
g74
(dp5114
sg83
g5108
sg76
(lp5115
g69
(g90
g71
NtRp5116
(dp5117
g74
(dp5118
sg83
g5112
sg76
(lp5119
g69
(g70
g71
NtRp5120
(dp5121
g74
(dp5122
g82
I1
ssg83
g5116
sg76
(lp5123
g4282
(S's\x08\x00\x00\x00My Sites'
tRp5124
asbasbasbag69
(g85
g71
NtRp5125
(dp5126
g74
(dp5127
sg83
g5108
sg76
(lp5128
g69
(g90
g71
NtRp5129
(dp5130
g74
(dp5131
sg83
g5125
sg76
(lp5132
g69
(g70
g71
NtRp5133
(dp5134
g74
(dp5135
g82
I1
ssg83
g5129
sg76
(lp5136
I00
asbasbasbag69
(g85
g71
NtRp5137
(dp5138
g74
(dp5139
sg83
g5108
sg76
(lp5140
g69
(g90
g71
NtRp5141
(dp5142
g74
(dp5143
sg83
g5137
sg76
(lp5144
g69
(g70
g71
NtRp5145
(dp5146
g74
(dp5147
g82
I1
ssg83
g5141
sg76
(lp5148
S'/admin/default/site'
p5149
asbasbasbasbasbasbasbag69
(g85
g71
NtRp5150
(dp5151
g74
(dp5152
sg83
g5092
sg76
(lp5153
g69
(g90
g71
NtRp5154
(dp5155
g74
(dp5156
sg83
g5150
sg76
(lp5157
g69
(g70
g71
NtRp5158
(dp5159
g74
(dp5160
g82
I2
ssg83
g5154
sg76
(lp5161
g69
(g78
g71
NtRp5162
(dp5163
g74
(dp5164
g82
I1
ssg83
Nsg76
(lp5165
g69
(g85
g71
NtRp5166
(dp5167
g74
(dp5168
sg83
g5162
sg76
(lp5169
g69
(g90
g71
NtRp5170
(dp5171
g74
(dp5172
sg83
g5166
sg76
(lp5173
g69
(g70
g71
NtRp5174
(dp5175
g74
(dp5176
g82
I1
ssg83
g5170
sg76
(lp5177
g4282
(S's\x08\x00\x00\x00This App'
tRp5178
asbasbasbag69
(g85
g71
NtRp5179
(dp5180
g74
(dp5181
sg83
g5162
sg76
(lp5182
g69
(g90
g71
NtRp5183
(dp5184
g74
(dp5185
sg83
g5179
sg76
(lp5186
g69
(g70
g71
NtRp5187
(dp5188
g74
(dp5189
g82
I1
ssg83
g5183
sg76
(lp5190
I00
asbasbasbag69
(g85
g71
NtRp5191
(dp5192
g74
(dp5193
sg83
g5162
sg76
(lp5194
g69
(g90
g71
NtRp5195
(dp5196
g74
(dp5197
sg83
g5191
sg76
(lp5198
g69
(g70
g71
NtRp5199
(dp5200
g74
(dp5201
g82
I1
ssg83
g5195
sg76
(lp5202
S'/admin/default/design/Book_Shelf_copy'
p5203
asbasbasbag69
(g85
g71
NtRp5204
(dp5205
g74
(dp5206
sg83
g5162
sg76
(lp5207
g69
(g90
g71
NtRp5208
(dp5209
g74
(dp5210
sg83
g5204
sg76
(lp5211
g69
(g70
g71
NtRp5212
(dp5213
g74
(dp5214
g82
I1
ssg83
g5208
sg76
(lp5215
(lp5216
(g4282
(S't\n\x00\x00\x00Controller'
tRp5217
I00
S'/admin/default/edit/Book_Shelf_copy/controllers/default.py'
tp5218
a(g4282
(S't\x04\x00\x00\x00View'
tRp5219
I00
S'/admin/default/edit/Book_Shelf_copy/views/default/book_shelf.html'
tp5220
a(g4282
(S't\x06\x00\x00\x00Layout'
tRp5221
I00
S'/admin/default/edit/Book_Shelf_copy/views/layout.html'
tp5222
a(g4282
(S't\n\x00\x00\x00Stylesheet'
tRp5223
I00
S'/admin/default/edit/Book_Shelf_copy/static/css/web2py.css'
tp5224
a(g4282
(S's\x08\x00\x00\x00DB Model'
tRp5225
I00
S'/admin/default/edit/Book_Shelf_copy/models/db.py'
tp5226
a(g4282
(S's\n\x00\x00\x00Menu Model'
tRp5227
I00
S'/admin/default/edit/Book_Shelf_copy/models/menu.py'
tp5228
a(g4282
(S't\x08\x00\x00\x00Database'
tRp5229
I00
S'/Book_Shelf_copy/appadmin/index'
tp5230
a(g4282
(S't\x06\x00\x00\x00Errors'
tRp5231
I00
S'/admin/default/errors/Book_Shelf_copy'
tp5232
a(g4282
(S't\x05\x00\x00\x00About'
tRp5233
I00
S'/admin/default/about/Book_Shelf_copy'
tp5234
aasbasbasbasbasbasbasbag69
(g85
g71
NtRp5235
(dp5236
g74
(dp5237
sg83
g5092
sg76
(lp5238
g69
(g90
g71
NtRp5239
(dp5240
g74
(dp5241
sg83
g5235
sg76
(lp5242
g69
(g70
g71
NtRp5243
(dp5244
g74
(dp5245
g82
I2
ssg83
g5239
sg76
(lp5246
g69
(g78
g71
NtRp5247
(dp5248
g74
(dp5249
g82
I1
ssg83
Nsg76
(lp5250
g69
(g85
g71
NtRp5251
(dp5252
g74
(dp5253
sg83
g5247
sg76
(lp5254
g69
(g90
g71
NtRp5255
(dp5256
g74
(dp5257
sg83
g5251
sg76
(lp5258
g69
(g70
g71
NtRp5259
(dp5260
g74
(dp5261
g82
I1
ssg83
g5255
sg76
(lp5262
S'web2py.com'
p5263
asbasbasbag69
(g85
g71
NtRp5264
(dp5265
g74
(dp5266
sg83
g5247
sg76
(lp5267
g69
(g90
g71
NtRp5268
(dp5269
g74
(dp5270
sg83
g5264
sg76
(lp5271
g69
(g70
g71
NtRp5272
(dp5273
g74
(dp5274
g82
I1
ssg83
g5268
sg76
(lp5275
I00
asbasbasbag69
(g85
g71
NtRp5276
(dp5277
g74
(dp5278
sg83
g5247
sg76
(lp5279
g69
(g90
g71
NtRp5280
(dp5281
g74
(dp5282
sg83
g5276
sg76
(lp5283
g69
(g70
g71
NtRp5284
(dp5285
g74
(dp5286
g82
I1
ssg83
g5280
sg76
(lp5287
S'http://www.web2py.com'
p5288
asbasbasbag69
(g85
g71
NtRp5289
(dp5290
g74
(dp5291
sg83
g5247
sg76
(lp5292
g69
(g90
g71
NtRp5293
(dp5294
g74
(dp5295
sg83
g5289
sg76
(lp5296
g69
(g70
g71
NtRp5297
(dp5298
g74
(dp5299
g82
I1
ssg83
g5293
sg76
(lp5300
(lp5301
(g4282
(S't\x08\x00\x00\x00Download'
tRp5302
I00
S'http://www.web2py.com/examples/default/download'
p5303
tp5304
a(g4282
(S't\x07\x00\x00\x00Support'
tRp5305
I00
S'http://www.web2py.com/examples/default/support'
p5306
tp5307
a(g4282
(S't\x04\x00\x00\x00Demo'
tRp5308
I00
S'http://web2py.com/demo_admin'
p5309
tp5310
a(g4282
(S's\x0e\x00\x00\x00Quick Examples'
tRp5311
I00
S'http://web2py.com/examples/default/examples'
p5312
tp5313
a(g4282
(S't\x03\x00\x00\x00FAQ'
tRp5314
I00
S'http://web2py.com/AlterEgo'
p5315
tp5316
a(g4282
(S't\x06\x00\x00\x00Videos'
tRp5317
I00
S'http://www.web2py.com/examples/default/videos/'
p5318
tp5319
a(g4282
(S's\x11\x00\x00\x00Free Applications'
tRp5320
I00
S'http://web2py.com/appliances'
p5321
tp5322
a(g4282
(S't\x07\x00\x00\x00Plugins'
tRp5323
I00
S'http://web2py.com/plugins'
p5324
tp5325
a(g4282
(S't\x07\x00\x00\x00Layouts'
tRp5326
I00
S'http://web2py.com/layouts'
p5327
tp5328
a(g4282
(S't\x07\x00\x00\x00Recipes'
tRp5329
I00
S'http://web2pyslices.com/'
p5330
tp5331
a(g4282
(S't\x08\x00\x00\x00Semantic'
tRp5332
I00
S'http://web2py.com/semantic'
p5333
tp5334
aasbasbasbasbasbasbasbag69
(g85
g71
NtRp5335
(dp5336
g74
(dp5337
sg83
g5092
sg76
(lp5338
g69
(g90
g71
NtRp5339
(dp5340
g74
(dp5341
sg83
g5335
sg76
(lp5342
g69
(g70
g71
NtRp5343
(dp5344
g74
(dp5345
g82
I2
ssg83
g5339
sg76
(lp5346
g69
(g78
g71
NtRp5347
(dp5348
g74
(dp5349
g82
I1
ssg83
Nsg76
(lp5350
g69
(g85
g71
NtRp5351
(dp5352
g74
(dp5353
sg83
g5347
sg76
(lp5354
g69
(g90
g71
NtRp5355
(dp5356
g74
(dp5357
sg83
g5351
sg76
(lp5358
g69
(g70
g71
NtRp5359
(dp5360
g74
(dp5361
g82
I1
ssg83
g5355
sg76
(lp5362
g4282
(S't\r\x00\x00\x00Documentation'
tRp5363
asbasbasbag69
(g85
g71
NtRp5364
(dp5365
g74
(dp5366
sg83
g5347
sg76
(lp5367
g69
(g90
g71
NtRp5368
(dp5369
g74
(dp5370
sg83
g5364
sg76
(lp5371
g69
(g70
g71
NtRp5372
(dp5373
g74
(dp5374
g82
I1
ssg83
g5368
sg76
(lp5375
I00
asbasbasbag69
(g85
g71
NtRp5376
(dp5377
g74
(dp5378
sg83
g5347
sg76
(lp5379
g69
(g90
g71
NtRp5380
(dp5381
g74
(dp5382
sg83
g5376
sg76
(lp5383
g69
(g70
g71
NtRp5384
(dp5385
g74
(dp5386
g82
I1
ssg83
g5380
sg76
(lp5387
S'http://www.web2py.com/book'
p5388
asbasbasbag69
(g85
g71
NtRp5389
(dp5390
g74
(dp5391
sg83
g5347
sg76
(lp5392
g69
(g90
g71
NtRp5393
(dp5394
g74
(dp5395
sg83
g5389
sg76
(lp5396
g69
(g70
g71
NtRp5397
(dp5398
g74
(dp5399
g82
I1
ssg83
g5393
sg76
(lp5400
(lp5401
(g4282
(S't\x07\x00\x00\x00Preface'
tRp5402
I00
S'http://www.web2py.com/book/default/chapter/00'
p5403
tp5404
a(g4282
(S't\x0c\x00\x00\x00Introduction'
tRp5405
I00
S'http://www.web2py.com/book/default/chapter/01'
p5406
tp5407
a(g4282
(S't\x06\x00\x00\x00Python'
tRp5408
I00
S'http://www.web2py.com/book/default/chapter/02'
p5409
tp5410
a(g4282
(S't\x08\x00\x00\x00Overview'
tRp5411
I00
S'http://www.web2py.com/book/default/chapter/03'
p5412
tp5413
a(g4282
(S's\x08\x00\x00\x00The Core'
tRp5414
I00
S'http://www.web2py.com/book/default/chapter/04'
p5415
tp5416
a(g4282
(S's\t\x00\x00\x00The Views'
tRp5417
I00
S'http://www.web2py.com/book/default/chapter/05'
p5418
tp5419
a(g4282
(S't\x08\x00\x00\x00Database'
tRp5420
I00
S'http://www.web2py.com/book/default/chapter/06'
p5421
tp5422
a(g4282
(S's\x14\x00\x00\x00Forms and Validators'
tRp5423
I00
S'http://www.web2py.com/book/default/chapter/07'
p5424
tp5425
a(g4282
(S's\r\x00\x00\x00Email and SMS'
tRp5426
I00
S'http://www.web2py.com/book/default/chapter/08'
p5427
tp5428
a(g4282
(S's\x0e\x00\x00\x00Access Control'
tRp5429
I00
S'http://www.web2py.com/book/default/chapter/09'
p5430
tp5431
a(g4282
(S't\x08\x00\x00\x00Services'
tRp5432
I00
S'http://www.web2py.com/book/default/chapter/10'
p5433
tp5434
a(g4282
(S's\x0c\x00\x00\x00Ajax Recipes'
tRp5435
I00
S'http://www.web2py.com/book/default/chapter/11'
p5436
tp5437
a(g4282
(S's\x16\x00\x00\x00Components and Plugins'
tRp5438
I00
S'http://www.web2py.com/book/default/chapter/12'
p5439
tp5440
a(g4282
(S's\x12\x00\x00\x00Deployment Recipes'
tRp5441
I00
S'http://www.web2py.com/book/default/chapter/13'
p5442
tp5443
a(g4282
(S's\r\x00\x00\x00Other Recipes'
tRp5444
I00
S'http://www.web2py.com/book/default/chapter/14'
p5445
tp5446
a(g4282
(S's\r\x00\x00\x00Buy this book'
tRp5447
I00
S'http://stores.lulu.com/web2py'
p5448
tp5449
aasbasbasbasbasbasbasbag69
(g85
g71
NtRp5450
(dp5451
g74
(dp5452
sg83
g5092
sg76
(lp5453
g69
(g90
g71
NtRp5454
(dp5455
g74
(dp5456
sg83
g5450
sg76
(lp5457
g69
(g70
g71
NtRp5458
(dp5459
g74
(dp5460
g82
I2
ssg83
g5454
sg76
(lp5461
g69
(g78
g71
NtRp5462
(dp5463
g74
(dp5464
g82
I1
ssg83
Nsg76
(lp5465
g69
(g85
g71
NtRp5466
(dp5467
g74
(dp5468
sg83
g5462
sg76
(lp5469
g69
(g90
g71
NtRp5470
(dp5471
g74
(dp5472
sg83
g5466
sg76
(lp5473
g69
(g70
g71
NtRp5474
(dp5475
g74
(dp5476
g82
I1
ssg83
g5470
sg76
(lp5477
g4282
(S't\t\x00\x00\x00Community'
tRp5478
asbasbasbag69
(g85
g71
NtRp5479
(dp5480
g74
(dp5481
sg83
g5462
sg76
(lp5482
g69
(g90
g71
NtRp5483
(dp5484
g74
(dp5485
sg83
g5479
sg76
(lp5486
g69
(g70
g71
NtRp5487
(dp5488
g74
(dp5489
g82
I1
ssg83
g5483
sg76
(lp5490
I00
asbasbasbag69
(g85
g71
NtRp5491
(dp5492
g74
(dp5493
sg83
g5462
sg76
(lp5494
g69
(g90
g71
NtRp5495
(dp5496
g74
(dp5497
sg83
g5491
sg76
(lp5498
g69
(g70
g71
NtRp5499
(dp5500
g74
(dp5501
g82
I1
ssg83
g5495
sg76
(lp5502
Nasbasbasbag69
(g85
g71
NtRp5503
(dp5504
g74
(dp5505
sg83
g5462
sg76
(lp5506
g69
(g90
g71
NtRp5507
(dp5508
g74
(dp5509
sg83
g5503
sg76
(lp5510
g69
(g70
g71
NtRp5511
(dp5512
g74
(dp5513
g82
I1
ssg83
g5507
sg76
(lp5514
(lp5515
(g4282
(S't\x06\x00\x00\x00Groups'
tRp5516
I00
S'http://www.web2py.com/examples/default/usergroups'
p5517
tp5518
a(g4282
(S't\x07\x00\x00\x00Twitter'
tRp5519
I00
S'http://twitter.com/web2py'
p5520
tp5521
a(g4282
(S's\t\x00\x00\x00Live Chat'
tRp5522
I00
S'http://webchat.freenode.net/?channels=web2py'
p5523
tp5524
aasbasbasbasbasbasbasbag69
(g85
g71
NtRp5525
(dp5526
g74
(dp5527
sg83
g5092
sg76
(lp5528
g69
(g90
g71
NtRp5529
(dp5530
g74
(dp5531
sg83
g5525
sg76
(lp5532
g69
(g70
g71
NtRp5533
(dp5534
g74
(dp5535
g82
I2
ssg83
g5529
sg76
(lp5536
g69
(g78
g71
NtRp5537
(dp5538
g74
(dp5539
g82
I1
ssg83
Nsg76
(lp5540
g69
(g85
g71
NtRp5541
(dp5542
g74
(dp5543
sg83
g5537
sg76
(lp5544
g69
(g90
g71
NtRp5545
(dp5546
g74
(dp5547
sg83
g5541
sg76
(lp5548
g69
(g70
g71
NtRp5549
(dp5550
g74
(dp5551
g82
I1
ssg83
g5545
sg76
(lp5552
g4282
(S't\x07\x00\x00\x00Plugins'
tRp5553
asbasbasbag69
(g85
g71
NtRp5554
(dp5555
g74
(dp5556
sg83
g5537
sg76
(lp5557
g69
(g90
g71
NtRp5558
(dp5559
g74
(dp5560
sg83
g5554
sg76
(lp5561
g69
(g70
g71
NtRp5562
(dp5563
g74
(dp5564
g82
I1
ssg83
g5558
sg76
(lp5565
I00
asbasbasbag69
(g85
g71
NtRp5566
(dp5567
g74
(dp5568
sg83
g5537
sg76
(lp5569
g69
(g90
g71
NtRp5570
(dp5571
g74
(dp5572
sg83
g5566
sg76
(lp5573
g69
(g70
g71
NtRp5574
(dp5575
g74
(dp5576
g82
I1
ssg83
g5570
sg76
(lp5577
Nasbasbasbag69
(g85
g71
NtRp5578
(dp5579
g74
(dp5580
sg83
g5537
sg76
(lp5581
g69
(g90
g71
NtRp5582
(dp5583
g74
(dp5584
sg83
g5578
sg76
(lp5585
g69
(g70
g71
NtRp5586
(dp5587
g74
(dp5588
g82
I1
ssg83
g5582
sg76
(lp5589
(lp5590
(S'plugin_wiki'
p5591
I00
S'http://web2py.com/examples/default/download'
p5592
tp5593
a(g4282
(S's\r\x00\x00\x00Other Plugins'
tRp5594
I00
g5324
tp5595
a(g4282
(S's\x0e\x00\x00\x00Layout Plugins'
tRp5596
I00
g5327
tp5597
aasbasbasbasbasbasbasbasbasbasbasbasbasbasbasbasbasbasbasbag69
(g85
g71
NtRp5598
(dp5599
g74
(dp5600
sg83
g3726
sg76
(lp5601
g69
(g90
g71
NtRp5602
(dp5603
g74
(dp5604
g94
g95
ssg83
g5598
sg76
(lp5605
S'meta'
p5606
asbag69
(g90
g71
NtRp5607
(dp5608
g74
(dp5609
g101
g102
ssg83
g5598
sg76
(lp5610
S':'
asbag69
(g90
g71
NtRp5611
(dp5612
g74
(dp5613
sg83
g5598
sg76
(lp5614
g69
(g70
g71
NtRp5615
(dp5616
g74
(dp5617
g82
I5
ssg83
g5611
sg76
(lp5618
g69
(g78
g71
NtRp5619
(dp5620
g74
(dp5621
g82
I4
ssg83
Nsg76
(lp5622
g69
(g85
g71
NtRp5623
(dp5624
g74
(dp5625
sg83
g5619
sg76
(lp5626
g69
(g90
g71
NtRp5627
(dp5628
g74
(dp5629
g94
g95
ssg83
g5623
sg76
(lp5630
S'author'
p5631
asbag69
(g90
g71
NtRp5632
(dp5633
g74
(dp5634
g101
g102
ssg83
g5623
sg76
(lp5635
S':'
asbag69
(g90
g71
NtRp5636
(dp5637
g74
(dp5638
sg83
g5623
sg76
(lp5639
g69
(g70
g71
NtRp5640
(dp5641
g74
(dp5642
g82
I4
ssg83
g5636
sg76
(lp5643
S'Your Name <you@example.com>'
p5644
asbasbasbag69
(g85
g71
NtRp5645
(dp5646
g74
(dp5647
sg83
g5619
sg76
(lp5648
g69
(g90
g71
NtRp5649
(dp5650
g74
(dp5651
g94
g95
ssg83
g5645
sg76
(lp5652
S'copyright'
p5653
asbag69
(g90
g71
NtRp5654
(dp5655
g74
(dp5656
g101
g102
ssg83
g5645
sg76
(lp5657
S':'
asbag69
(g90
g71
NtRp5658
(dp5659
g74
(dp5660
sg83
g5645
sg76
(lp5661
g69
(g70
g71
NtRp5662
(dp5663
g74
(dp5664
g82
I4
ssg83
g5658
sg76
(lp5665
S'Copyright 2011'
p5666
asbasbasbag69
(g85
g71
NtRp5667
(dp5668
g74
(dp5669
sg83
g5619
sg76
(lp5670
g69
(g90
g71
NtRp5671
(dp5672
g74
(dp5673
g94
g95
ssg83
g5667
sg76
(lp5674
S'description'
p5675
asbag69
(g90
g71
NtRp5676
(dp5677
g74
(dp5678
g101
g102
ssg83
g5667
sg76
(lp5679
S':'
asbag69
(g90
g71
NtRp5680
(dp5681
g74
(dp5682
sg83
g5667
sg76
(lp5683
g69
(g70
g71
NtRp5684
(dp5685
g74
(dp5686
g82
I4
ssg83
g5680
sg76
(lp5687
S'a cool new app'
p5688
asbasbasbag69
(g85
g71
NtRp5689
(dp5690
g74
(dp5691
sg83
g5619
sg76
(lp5692
g69
(g90
g71
NtRp5693
(dp5694
g74
(dp5695
g94
g95
ssg83
g5689
sg76
(lp5696
S'generator'
p5697
asbag69
(g90
g71
NtRp5698
(dp5699
g74
(dp5700
g101
g102
ssg83
g5689
sg76
(lp5701
S':'
asbag69
(g90
g71
NtRp5702
(dp5703
g74
(dp5704
sg83
g5689
sg76
(lp5705
g69
(g70
g71
NtRp5706
(dp5707
g74
(dp5708
g82
I4
ssg83
g5702
sg76
(lp5709
S'Web2py Web Framework'
p5710
asbasbasbag69
(g85
g71
NtRp5711
(dp5712
g74
(dp5713
sg83
g5619
sg76
(lp5714
g69
(g90
g71
NtRp5715
(dp5716
g74
(dp5717
g94
g95
ssg83
g5711
sg76
(lp5718
S'keywords'
p5719
asbag69
(g90
g71
NtRp5720
(dp5721
g74
(dp5722
g101
g102
ssg83
g5711
sg76
(lp5723
S':'
asbag69
(g90
g71
NtRp5724
(dp5725
g74
(dp5726
sg83
g5711
sg76
(lp5727
g69
(g70
g71
NtRp5728
(dp5729
g74
(dp5730
g82
I4
ssg83
g5724
sg76
(lp5731
S'web2py, python, framework'
p5732
asbasbasbasbasbasbasbag69
(g85
g71
NtRp5733
(dp5734
g74
(dp5735
sg83
g3726
sg76
(lp5736
g69
(g90
g71
NtRp5737
(dp5738
g74
(dp5739
g94
g95
ssg83
g5733
sg76
(lp5740
S'postprocessing'
p5741
asbag69
(g90
g71
NtRp5742
(dp5743
g74
(dp5744
g101
g102
ssg83
g5733
sg76
(lp5745
S':'
asbag69
(g90
g71
NtRp5746
(dp5747
g74
(dp5748
sg83
g5733
sg76
(lp5749
g69
(g70
g71
NtRp5750
(dp5751
g74
(dp5752
g82
I5
ssg83
g5746
sg76
(lp5753
g69
(g78
g71
NtRp5754
(dp5755
g74
(dp5756
g82
I4
ssg83
Nsg76
(lp5757
sbasbasbasbag69
(g85
g71
NtRp5758
(dp5759
g74
(dp5760
sg83
g3726
sg76
(lp5761
g69
(g90
g71
NtRp5762
(dp5763
g74
(dp5764
g94
g95
ssg83
g5758
sg76
(lp5765
S'session_file'
p5766
asbag69
(g90
g71
NtRp5767
(dp5768
g74
(dp5769
g101
g102
ssg83
g5758
sg76
(lp5770
S':'
asbag69
(g90
g71
NtRp5771
(dp5772
g74
(dp5773
sg83
g5758
sg76
(lp5774
g69
(g70
g71
NtRp5775
(dp5776
g74
(dp5777
g82
I5
ssg83
g5771
sg76
(lp5778
S"<open file '/Users/ianaboneva/Dropbox/DePaul/CSC 438 - Web Applications/web2py/applications/Book_Shelf_copy/sessions/127.0.0.1-eeba29a1-713d-4626-a1ad-4627ea1d2e7a', mode 'rb+' at 0x109871e40>"
p5779
asbasbasbag69
(g85
g71
NtRp5780
(dp5781
g74
(dp5782
sg83
g3726
sg76
(lp5783
g69
(g90
g71
NtRp5784
(dp5785
g74
(dp5786
g94
g95
ssg83
g5780
sg76
(lp5787
S'session_filename'
p5788
asbag69
(g90
g71
NtRp5789
(dp5790
g74
(dp5791
g101
g102
ssg83
g5780
sg76
(lp5792
S':'
asbag69
(g90
g71
NtRp5793
(dp5794
g74
(dp5795
sg83
g5780
sg76
(lp5796
g69
(g70
g71
NtRp5797
(dp5798
g74
(dp5799
g82
I5
ssg83
g5793
sg76
(lp5800
S'/Users/ianaboneva/Dropbox/DePaul/CSC 438 - Web Applications/web2py/applications/Book_Shelf_copy/sessions/127.0.0.1-eeba29a1-713d-4626-a1ad-4627ea1d2e7a'
p5801
asbasbasbag69
(g85
g71
NtRp5802
(dp5803
g74
(dp5804
sg83
g3726
sg76
(lp5805
g69
(g90
g71
NtRp5806
(dp5807
g74
(dp5808
g94
g95
ssg83
g5802
sg76
(lp5809
S'session_id'
p5810
asbag69
(g90
g71
NtRp5811
(dp5812
g74
(dp5813
g101
g102
ssg83
g5802
sg76
(lp5814
S':'
asbag69
(g90
g71
NtRp5815
(dp5816
g74
(dp5817
sg83
g5802
sg76
(lp5818
g69
(g70
g71
NtRp5819
(dp5820
g74
(dp5821
g82
I5
ssg83
g5815
sg76
(lp5822
S'127.0.0.1-eeba29a1-713d-4626-a1ad-4627ea1d2e7a'
p5823
asbasbasbag69
(g85
g71
NtRp5824
(dp5825
g74
(dp5826
sg83
g3726
sg76
(lp5827
g69
(g90
g71
NtRp5828
(dp5829
g74
(dp5830
g94
g95
ssg83
g5824
sg76
(lp5831
S'session_id_name'
p5832
asbag69
(g90
g71
NtRp5833
(dp5834
g74
(dp5835
g101
g102
ssg83
g5824
sg76
(lp5836
S':'
asbag69
(g90
g71
NtRp5837
(dp5838
g74
(dp5839
sg83
g5824
sg76
(lp5840
g69
(g70
g71
NtRp5841
(dp5842
g74
(dp5843
g82
I5
ssg83
g5837
sg76
(lp5844
g3783
asbasbasbag69
(g85
g71
NtRp5845
(dp5846
g74
(dp5847
sg83
g3726
sg76
(lp5848
g69
(g90
g71
NtRp5849
(dp5850
g74
(dp5851
g94
g95
ssg83
g5845
sg76
(lp5852
S'session_locked'
p5853
asbag69
(g90
g71
NtRp5854
(dp5855
g74
(dp5856
g101
g102
ssg83
g5845
sg76
(lp5857
S':'
asbag69
(g90
g71
NtRp5858
(dp5859
g74
(dp5860
sg83
g5845
sg76
(lp5861
g69
(g70
g71
NtRp5862
(dp5863
g74
(dp5864
g82
I5
ssg83
g5858
sg76
(lp5865
g1909
asbasbasbag69
(g85
g71
NtRp5866
(dp5867
g74
(dp5868
sg83
g3726
sg76
(lp5869
g69
(g90
g71
NtRp5870
(dp5871
g74
(dp5872
g94
g95
ssg83
g5866
sg76
(lp5873
S'session_new'
p5874
asbag69
(g90
g71
NtRp5875
(dp5876
g74
(dp5877
g101
g102
ssg83
g5866
sg76
(lp5878
S':'
asbag69
(g90
g71
NtRp5879
(dp5880
g74
(dp5881
sg83
g5866
sg76
(lp5882
g69
(g70
g71
NtRp5883
(dp5884
g74
(dp5885
g82
I5
ssg83
g5879
sg76
(lp5886
g112
asbasbasbag69
(g85
g71
NtRp5887
(dp5888
g74
(dp5889
sg83
g3726
sg76
(lp5890
g69
(g90
g71
NtRp5891
(dp5892
g74
(dp5893
g94
g95
ssg83
g5887
sg76
(lp5894
S'status'
p5895
asbag69
(g90
g71
NtRp5896
(dp5897
g74
(dp5898
g101
g102
ssg83
g5887
sg76
(lp5899
S':'
asbag69
(g90
g71
NtRp5900
(dp5901
g74
(dp5902
sg83
g5887
sg76
(lp5903
g69
(g70
g71
NtRp5904
(dp5905
g74
(dp5906
g82
I5
ssg83
g5900
sg76
(lp5907
S'200'
p5908
asbasbasbag69
(g85
g71
NtRp5909
(dp5910
g74
(dp5911
sg83
g3726
sg76
(lp5912
g69
(g90
g71
NtRp5913
(dp5914
g74
(dp5915
g94
g95
ssg83
g5909
sg76
(lp5916
S'subtitle'
p5917
asbag69
(g90
g71
NtRp5918
(dp5919
g74
(dp5920
g101
g102
ssg83
g5909
sg76
(lp5921
S':'
asbag69
(g90
g71
NtRp5922
(dp5923
g74
(dp5924
sg83
g5909
sg76
(lp5925
g69
(g70
g71
NtRp5926
(dp5927
g74
(dp5928
g82
I5
ssg83
g5922
sg76
(lp5929
g4282
(S's\r\x00\x00\x00customize me!'
tRp5930
asbasbasbag69
(g85
g71
NtRp5931
(dp5932
g74
(dp5933
sg83
g3726
sg76
(lp5934
g69
(g90
g71
NtRp5935
(dp5936
g74
(dp5937
g94
g95
ssg83
g5931
sg76
(lp5938
S'title'
p5939
asbag69
(g90
g71
NtRp5940
(dp5941
g74
(dp5942
g101
g102
ssg83
g5931
sg76
(lp5943
S':'
asbag69
(g90
g71
NtRp5944
(dp5945
g74
(dp5946
sg83
g5931
sg76
(lp5947
g69
(g70
g71
NtRp5948
(dp5949
g74
(dp5950
g82
I5
ssg83
g5944
sg76
(lp5951
S'Book Shelf Copy'
p5952
asbasbasbag69
(g85
g71
NtRp5953
(dp5954
g74
(dp5955
sg83
g3726
sg76
(lp5956
g69
(g90
g71
NtRp5957
(dp5958
g74
(dp5959
g94
g95
ssg83
g5953
sg76
(lp5960
g2594
asbag69
(g90
g71
NtRp5961
(dp5962
g74
(dp5963
g101
g102
ssg83
g5953
sg76
(lp5964
S':'
asbag69
(g90
g71
NtRp5965
(dp5966
g74
(dp5967
sg83
g5953
sg76
(lp5968
g69
(g70
g71
NtRp5969
(dp5970
g74
(dp5971
g82
I5
ssg83
g5965
sg76
(lp5972
g2607
asbasbasbag69
(g85
g71
NtRp5973
(dp5974
g74
(dp5975
sg83
g3726
sg76
(lp5976
g69
(g90
g71
NtRp5977
(dp5978
g74
(dp5979
g94
g95
ssg83
g5973
sg76
(lp5980
S'view'
p5981
asbag69
(g90
g71
NtRp5982
(dp5983
g74
(dp5984
g101
g102
ssg83
g5973
sg76
(lp5985
S':'
asbag69
(g90
g71
NtRp5986
(dp5987
g74
(dp5988
sg83
g5973
sg76
(lp5989
g69
(g70
g71
NtRp5990
(dp5991
g74
(dp5992
g82
I5
ssg83
g5986
sg76
(lp5993
S'default/book_shelf.html'
p5994
asbasbasbasbasbsS'locals'
p5995
(dp5996
g4
S"'/Users/ianaboneva/Dropbox/DePaul/CSC 438 - Web A...plications/Book_Shelf_copy/controllers/default.py'"
p5997
sg6
S"'# -*- coding: utf-8 -*-\\n# this file is released ...())\\n\\nresponse._vars=response._caller(book_shelf)\\n'"
p5998
sssS'traceback'
p5999
S'Traceback (most recent call last):\n  File "/Users/ianaboneva/Dropbox/DePaul/CSC 438 - Web Applications/web2py/gluon/restricted.py", line 204, in restricted\n    ccode = compile2(code,layer)\n  File "/Users/ianaboneva/Dropbox/DePaul/CSC 438 - Web Applications/web2py/gluon/restricted.py", line 189, in compile2\n    return compile(code.rstrip().replace(\'\\r\\n\',\'\\n\')+\'\\n\', layer, \'exec\')\n  File "/Users/ianaboneva/Dropbox/DePaul/CSC 438 - Web Applications/web2py/applications/Book_Shelf_copy/controllers/default.py", line 86\n    return locals()\n                  ^\nIndentationError: unindent does not match any outer indentation level\n'
p6000
s.