(dp1
S'output'
p2
S"<type 'exceptions.IndentationError'> unindent does not match any outer indentation level (default.py, line 73)"
p3
sS'layer'
p4
S'/Users/ianaboneva/Downloads/web2py/applications/Book_Shelf/controllers/default.py'
p5
sS'code'
p6
S'# -*- coding: utf-8 -*-\n# this file is released under public domain and you can use without limitations\n\n#########################################################################\n## This is a samples controller\n## - index is the default action of any application\n## - user is required for authentication and authorization\n## - download is for downloading files uploaded in the db (does streaming)\n## - call exposes all registered services (none by default)\n#########################################################################\n\ndef index():\n    \n    response.flash = "Welcome to Book Shelf!"\n    return dict(message=T(\'Hello Readers!\'))\n\n@auth.requires_login()\ndef create_user_profile():\n    form = SQLFORM(db.User_Profile)\n    if form.process().accepted:\n        session.flash = "Form Accepted"\n        redirect(URL(\'user_profile\'))\n    else:\n        response.flash= "This is completely wrong you weiner..TRY AGAIN!"\n    return locals()\n\n@auth.requires_login() \ndef update_user_profile():\n    record = db.User_Profile(request.args(0)) or redirect (URL(\'index\'))\n    if (auth.user.id!=record.created_by):\n    \tsession.flash = \'access denied\'\n    \tredirect(URL(\'index\'))\n    form = SQLFORM(db.User_Profile, record)\n    if form.process().accepted:\n        session.flash = "Form Accepted"\n        redirect(URL(\'user_profile\'))\n    else:\n        response.flash= "This is completely wrong you weiner..TRY AGAIN!"\n    return locals()\n      \n@auth.requires_login() \ndef user_profile():\n    profiles = db(db.User_Profile.created_by==auth.user.id).select()\n    return locals()\n\n@auth.requires_login() \ndef create_book_profile():\n    return locals()\n  \n@auth.requires_login() \ndef update_book_profile():\n    return locals()\n      \ndef book_profile():\n    return locals()\n\n@auth.requires_login() \ndef create_book_shelf():\n\tform = SQLFORM(db.Book_Shelf)\n\tif form.process().accepted:\n\t\tsession.flash = "Form Accepted"\n\telse:\n\t\tresponse.flash = "WRONG!"\n\treturn locals()\n\n@auth.requires_login() \ndef update_book_shelf():\n    return locals()\n    \n@auth.requires_login()      \ndef book_shelf():\n\tshelves = db(db.Book_Shelf.created_by==auth.user.id).select()\n    return locals()\n \n@auth.requires_login()    \ndef comments():\n    return locals()\n \n@auth.requires_login()    \ndef reviews():\n    return locals()\n\n\ndef user():\n    """\n    exposes:\n    http://..../[app]/default/user/login\n    http://..../[app]/default/user/logout\n    http://..../[app]/default/user/register\n    http://..../[app]/default/user/profile\n    http://..../[app]/default/user/retrieve_password\n    http://..../[app]/default/user/change_password\n    use @auth.requires_login()\n        @auth.requires_membership(\'group name\')\n        @auth.requires_permission(\'read\',\'table name\',record_id)\n    to decorate functions that need access control\n    """\n    return dict(form=auth())\n\ndef download():\n    """\n    allows downloading of uploaded files\n    http://..../[app]/default/download/[filename]\n    """\n    return response.download(request,db)\n\n\ndef call():\n    """\n    exposes services. for example:\n    http://..../[app]/default/call/jsonrpc\n    decorate with @services.jsonrpc the functions to expose\n    supports xml, json, xmlrpc, jsonrpc, amfrpc, rss, csv\n    """\n    return service()\n\n\n@auth.requires_signature()\ndef data():\n    """\n    http://..../[app]/default/data/tables\n    http://..../[app]/default/data/create/[table]\n    http://..../[app]/default/data/read/[table]/[id]\n    http://..../[app]/default/data/update/[table]/[id]\n    http://..../[app]/default/data/delete/[table]/[id]\n    http://..../[app]/default/data/select/[table]\n    http://..../[app]/default/data/search/[table]\n    but URLs must be signed, i.e. linked with\n      A(\'table\',_href=URL(\'data/tables\',user_signature=True))\n    or with the signed load operator\n      LOAD(\'default\',\'data.load\',args=\'tables\',ajax=True,user_signature=True)\n    """\n    return dict(form=crud())\n\nresponse._vars=response._caller(create_book_shelf)\n'
p7
sS'snapshot'
p8
(dp9
S'exception'
p10
(dp11
S'__getslice__'
p12
S"<method-wrapper '__getslice__' of exceptions.IndentationError object>"
p13
sS'text'
p14
S"'    return locals()\\n'"
p15
sS'__str__'
p16
S"<method-wrapper '__str__' of exceptions.IndentationError object>"
p17
sS'__reduce__'
p18
S'<built-in method __reduce__ of exceptions.IndentationError object>'
p19
sS'__dict__'
p20
S'{}'
p21
sS'__sizeof__'
p22
S'<built-in method __sizeof__ of exceptions.IndentationError object>'
p23
sS'__init__'
p24
S"<method-wrapper '__init__' of exceptions.IndentationError object>"
p25
sS'__setattr__'
p26
S"<method-wrapper '__setattr__' of exceptions.IndentationError object>"
p27
sS'__reduce_ex__'
p28
S'<built-in method __reduce_ex__ of exceptions.IndentationError object>'
p29
sS'__new__'
p30
S'<built-in method __new__ of type object>'
p31
sS'__format__'
p32
S'<built-in method __format__ of exceptions.IndentationError object>'
p33
sS'__class__'
p34
S"<type 'exceptions.IndentationError'>"
p35
sS'filename'
p36
S"'/Users/ianaboneva/Downloads/web2py/applications/Book_Shelf/controllers/default.py'"
p37
sS'lineno'
p38
S'73'
p39
sS'msg'
p40
S"'unindent does not match any outer indentation level'"
p41
sS'__doc__'
p42
S"'Improper indentation.'"
p43
sS'__getitem__'
p44
S"<method-wrapper '__getitem__' of exceptions.IndentationError object>"
p45
sS'__setstate__'
p46
S'<built-in method __setstate__ of exceptions.IndentationError object>'
p47
sS'__getattribute__'
p48
S"<method-wrapper '__getattribute__' of exceptions.IndentationError object>"
p49
sS'print_file_and_line'
p50
S'None'
p51
sS'args'
p52
S"('unindent does not match any outer indentation level', ('/Users/ianaboneva/Downloads/web2py/applications/Book_Shelf/controllers/default.py', 73, 20, '    return locals()\\n'))"
p53
sS'__subclasshook__'
p54
S'<built-in method __subclasshook__ of type object>'
p55
sS'offset'
p56
S'20'
p57
sS'__unicode__'
p58
S'<built-in method __unicode__ of exceptions.IndentationError object>'
p59
sS'__delattr__'
p60
S"<method-wrapper '__delattr__' of exceptions.IndentationError object>"
p61
sS'__repr__'
p62
S"<method-wrapper '__repr__' of exceptions.IndentationError object>"
p63
sS'__hash__'
p64
S"<method-wrapper '__hash__' of exceptions.IndentationError object>"
p65
ssS'evalue'
p66
S'unindent does not match any outer indentation level (default.py, line 73)'
p67
sS'request'
p68
ccopy_reg
_reconstructor
p69
(cgluon.html
BEAUTIFY
p70
c__builtin__
object
p71
NtRp72
(dp73
S'attributes'
p74
(dp75
sS'components'
p76
(lp77
g69
(cgluon.html
TABLE
p78
g71
NtRp79
(dp80
g74
(dp81
S'level'
p82
I5
ssS'parent'
p83
Nsg76
(lp84
g69
(cgluon.html
TR
p85
g71
NtRp86
(dp87
g74
(dp88
sg83
g79
sg76
(lp89
g69
(cgluon.html
TD
p90
g71
NtRp91
(dp92
g74
(dp93
S'_style'
p94
S'font-weight:bold;vertical-align:top'
p95
ssg83
g86
sg76
(lp96
S'ajax'
p97
asbag69
(g90
g71
NtRp98
(dp99
g74
(dp100
S'_valign'
p101
S'top'
p102
ssg83
g86
sg76
(lp103
S':'
asbag69
(g90
g71
NtRp104
(dp105
g74
(dp106
sg83
g86
sg76
(lp107
g69
(g70
g71
NtRp108
(dp109
g74
(dp110
g82
I5
ssg83
g104
sg76
(lp111
S'False'
p112
asbasbasbag69
(g85
g71
NtRp113
(dp114
g74
(dp115
sg83
g79
sg76
(lp116
g69
(g90
g71
NtRp117
(dp118
g74
(dp119
g94
g95
ssg83
g113
sg76
(lp120
S'application'
p121
asbag69
(g90
g71
NtRp122
(dp123
g74
(dp124
g101
g102
ssg83
g113
sg76
(lp125
S':'
asbag69
(g90
g71
NtRp126
(dp127
g74
(dp128
sg83
g113
sg76
(lp129
g69
(g70
g71
NtRp130
(dp131
g74
(dp132
g82
I5
ssg83
g126
sg76
(lp133
S'Book_Shelf'
p134
asbasbasbag69
(g85
g71
NtRp135
(dp136
g74
(dp137
sg83
g79
sg76
(lp138
g69
(g90
g71
NtRp139
(dp140
g74
(dp141
g94
g95
ssg83
g135
sg76
(lp142
g52
asbag69
(g90
g71
NtRp143
(dp144
g74
(dp145
g101
g102
ssg83
g135
sg76
(lp146
S':'
asbag69
(g90
g71
NtRp147
(dp148
g74
(dp149
sg83
g135
sg76
(lp150
g69
(g70
g71
NtRp151
(dp152
g74
(dp153
g82
I5
ssg83
g147
sg76
(lp154
g69
(g78
g71
NtRp155
(dp156
g74
(dp157
g82
I4
ssg83
Nsg76
(lp158
sbasbasbasbag69
(g85
g71
NtRp159
(dp160
g74
(dp161
sg83
g79
sg76
(lp162
g69
(g90
g71
NtRp163
(dp164
g74
(dp165
g94
g95
ssg83
g159
sg76
(lp166
S'body'
p167
asbag69
(g90
g71
NtRp168
(dp169
g74
(dp170
g101
g102
ssg83
g159
sg76
(lp171
S':'
asbag69
(g90
g71
NtRp172
(dp173
g74
(dp174
sg83
g159
sg76
(lp175
g69
(g70
g71
NtRp176
(dp177
g74
(dp178
g82
I5
ssg83
g172
sg76
(lp179
S'<cStringIO.StringO object at 0x1076d3c70>'
p180
asbasbasbag69
(g85
g71
NtRp181
(dp182
g74
(dp183
sg83
g79
sg76
(lp184
g69
(g90
g71
NtRp185
(dp186
g74
(dp187
g94
g95
ssg83
g181
sg76
(lp188
S'client'
p189
asbag69
(g90
g71
NtRp190
(dp191
g74
(dp192
g101
g102
ssg83
g181
sg76
(lp193
S':'
asbag69
(g90
g71
NtRp194
(dp195
g74
(dp196
sg83
g181
sg76
(lp197
g69
(g70
g71
NtRp198
(dp199
g74
(dp200
g82
I5
ssg83
g194
sg76
(lp201
S'127.0.0.1'
p202
asbasbasbag69
(g85
g71
NtRp203
(dp204
g74
(dp205
sg83
g79
sg76
(lp206
g69
(g90
g71
NtRp207
(dp208
g74
(dp209
g94
g95
ssg83
g203
sg76
(lp210
S'controller'
p211
asbag69
(g90
g71
NtRp212
(dp213
g74
(dp214
g101
g102
ssg83
g203
sg76
(lp215
S':'
asbag69
(g90
g71
NtRp216
(dp217
g74
(dp218
sg83
g203
sg76
(lp219
g69
(g70
g71
NtRp220
(dp221
g74
(dp222
g82
I5
ssg83
g216
sg76
(lp223
S'default'
p224
asbasbasbag69
(g85
g71
NtRp225
(dp226
g74
(dp227
sg83
g79
sg76
(lp228
g69
(g90
g71
NtRp229
(dp230
g74
(dp231
g94
g95
ssg83
g225
sg76
(lp232
S'cookies'
p233
asbag69
(g90
g71
NtRp234
(dp235
g74
(dp236
g101
g102
ssg83
g225
sg76
(lp237
S':'
asbag69
(g90
g71
NtRp238
(dp239
g74
(dp240
sg83
g225
sg76
(lp241
g69
(g70
g71
NtRp242
(dp243
g74
(dp244
g82
I5
ssg83
g238
sg76
(lp245
g69
(g78
g71
NtRp246
(dp247
g74
(dp248
g82
I4
ssg83
Nsg76
(lp249
g69
(g85
g71
NtRp250
(dp251
g74
(dp252
sg83
g246
sg76
(lp253
g69
(g90
g71
NtRp254
(dp255
g74
(dp256
g94
g95
ssg83
g250
sg76
(lp257
S'session_id_admin'
p258
asbag69
(g90
g71
NtRp259
(dp260
g74
(dp261
g101
g102
ssg83
g250
sg76
(lp262
S':'
asbag69
(g90
g71
NtRp263
(dp264
g74
(dp265
sg83
g250
sg76
(lp266
g69
(g70
g71
NtRp267
(dp268
g74
(dp269
g82
I4
ssg83
g263
sg76
(lp270
g69
(g78
g71
NtRp271
(dp272
g74
(dp273
g82
I3
ssg83
Nsg76
(lp274
g69
(g85
g71
NtRp275
(dp276
g74
(dp277
sg83
g271
sg76
(lp278
g69
(g90
g71
NtRp279
(dp280
g74
(dp281
g94
g95
ssg83
g275
sg76
(lp282
S'comment'
p283
asbag69
(g90
g71
NtRp284
(dp285
g74
(dp286
g101
g102
ssg83
g275
sg76
(lp287
S':'
asbag69
(g90
g71
NtRp288
(dp289
g74
(dp290
sg83
g275
sg76
(lp291
g69
(g70
g71
NtRp292
(dp293
g74
(dp294
g82
I3
ssg83
g288
sg76
(lp295
S''
asbasbasbag69
(g85
g71
NtRp296
(dp297
g74
(dp298
sg83
g271
sg76
(lp299
g69
(g90
g71
NtRp300
(dp301
g74
(dp302
g94
g95
ssg83
g296
sg76
(lp303
S'domain'
p304
asbag69
(g90
g71
NtRp305
(dp306
g74
(dp307
g101
g102
ssg83
g296
sg76
(lp308
S':'
asbag69
(g90
g71
NtRp309
(dp310
g74
(dp311
sg83
g296
sg76
(lp312
g69
(g70
g71
NtRp313
(dp314
g74
(dp315
g82
I3
ssg83
g309
sg76
(lp316
S''
asbasbasbag69
(g85
g71
NtRp317
(dp318
g74
(dp319
sg83
g271
sg76
(lp320
g69
(g90
g71
NtRp321
(dp322
g74
(dp323
g94
g95
ssg83
g317
sg76
(lp324
S'expires'
p325
asbag69
(g90
g71
NtRp326
(dp327
g74
(dp328
g101
g102
ssg83
g317
sg76
(lp329
S':'
asbag69
(g90
g71
NtRp330
(dp331
g74
(dp332
sg83
g317
sg76
(lp333
g69
(g70
g71
NtRp334
(dp335
g74
(dp336
g82
I3
ssg83
g330
sg76
(lp337
S''
asbasbasbag69
(g85
g71
NtRp338
(dp339
g74
(dp340
sg83
g271
sg76
(lp341
g69
(g90
g71
NtRp342
(dp343
g74
(dp344
g94
g95
ssg83
g338
sg76
(lp345
S'httponly'
p346
asbag69
(g90
g71
NtRp347
(dp348
g74
(dp349
g101
g102
ssg83
g338
sg76
(lp350
S':'
asbag69
(g90
g71
NtRp351
(dp352
g74
(dp353
sg83
g338
sg76
(lp354
g69
(g70
g71
NtRp355
(dp356
g74
(dp357
g82
I3
ssg83
g351
sg76
(lp358
S''
asbasbasbag69
(g85
g71
NtRp359
(dp360
g74
(dp361
sg83
g271
sg76
(lp362
g69
(g90
g71
NtRp363
(dp364
g74
(dp365
g94
g95
ssg83
g359
sg76
(lp366
S'max-age'
p367
asbag69
(g90
g71
NtRp368
(dp369
g74
(dp370
g101
g102
ssg83
g359
sg76
(lp371
S':'
asbag69
(g90
g71
NtRp372
(dp373
g74
(dp374
sg83
g359
sg76
(lp375
g69
(g70
g71
NtRp376
(dp377
g74
(dp378
g82
I3
ssg83
g372
sg76
(lp379
S''
asbasbasbag69
(g85
g71
NtRp380
(dp381
g74
(dp382
sg83
g271
sg76
(lp383
g69
(g90
g71
NtRp384
(dp385
g74
(dp386
g94
g95
ssg83
g380
sg76
(lp387
S'path'
p388
asbag69
(g90
g71
NtRp389
(dp390
g74
(dp391
g101
g102
ssg83
g380
sg76
(lp392
S':'
asbag69
(g90
g71
NtRp393
(dp394
g74
(dp395
sg83
g380
sg76
(lp396
g69
(g70
g71
NtRp397
(dp398
g74
(dp399
g82
I3
ssg83
g393
sg76
(lp400
S''
asbasbasbag69
(g85
g71
NtRp401
(dp402
g74
(dp403
sg83
g271
sg76
(lp404
g69
(g90
g71
NtRp405
(dp406
g74
(dp407
g94
g95
ssg83
g401
sg76
(lp408
S'secure'
p409
asbag69
(g90
g71
NtRp410
(dp411
g74
(dp412
g101
g102
ssg83
g401
sg76
(lp413
S':'
asbag69
(g90
g71
NtRp414
(dp415
g74
(dp416
sg83
g401
sg76
(lp417
g69
(g70
g71
NtRp418
(dp419
g74
(dp420
g82
I3
ssg83
g414
sg76
(lp421
S''
asbasbasbag69
(g85
g71
NtRp422
(dp423
g74
(dp424
sg83
g271
sg76
(lp425
g69
(g90
g71
NtRp426
(dp427
g74
(dp428
g94
g95
ssg83
g422
sg76
(lp429
S'version'
p430
asbag69
(g90
g71
NtRp431
(dp432
g74
(dp433
g101
g102
ssg83
g422
sg76
(lp434
S':'
asbag69
(g90
g71
NtRp435
(dp436
g74
(dp437
sg83
g422
sg76
(lp438
g69
(g70
g71
NtRp439
(dp440
g74
(dp441
g82
I3
ssg83
g435
sg76
(lp442
S''
asbasbasbasbasbasbasbag69
(g85
g71
NtRp443
(dp444
g74
(dp445
sg83
g246
sg76
(lp446
g69
(g90
g71
NtRp447
(dp448
g74
(dp449
g94
g95
ssg83
g443
sg76
(lp450
S'session_id_book_shelf'
p451
asbag69
(g90
g71
NtRp452
(dp453
g74
(dp454
g101
g102
ssg83
g443
sg76
(lp455
S':'
asbag69
(g90
g71
NtRp456
(dp457
g74
(dp458
sg83
g443
sg76
(lp459
g69
(g70
g71
NtRp460
(dp461
g74
(dp462
g82
I4
ssg83
g456
sg76
(lp463
g69
(g78
g71
NtRp464
(dp465
g74
(dp466
g82
I3
ssg83
Nsg76
(lp467
g69
(g85
g71
NtRp468
(dp469
g74
(dp470
sg83
g464
sg76
(lp471
g69
(g90
g71
NtRp472
(dp473
g74
(dp474
g94
g95
ssg83
g468
sg76
(lp475
g283
asbag69
(g90
g71
NtRp476
(dp477
g74
(dp478
g101
g102
ssg83
g468
sg76
(lp479
S':'
asbag69
(g90
g71
NtRp480
(dp481
g74
(dp482
sg83
g468
sg76
(lp483
g69
(g70
g71
NtRp484
(dp485
g74
(dp486
g82
I3
ssg83
g480
sg76
(lp487
S''
asbasbasbag69
(g85
g71
NtRp488
(dp489
g74
(dp490
sg83
g464
sg76
(lp491
g69
(g90
g71
NtRp492
(dp493
g74
(dp494
g94
g95
ssg83
g488
sg76
(lp495
g304
asbag69
(g90
g71
NtRp496
(dp497
g74
(dp498
g101
g102
ssg83
g488
sg76
(lp499
S':'
asbag69
(g90
g71
NtRp500
(dp501
g74
(dp502
sg83
g488
sg76
(lp503
g69
(g70
g71
NtRp504
(dp505
g74
(dp506
g82
I3
ssg83
g500
sg76
(lp507
S''
asbasbasbag69
(g85
g71
NtRp508
(dp509
g74
(dp510
sg83
g464
sg76
(lp511
g69
(g90
g71
NtRp512
(dp513
g74
(dp514
g94
g95
ssg83
g508
sg76
(lp515
g325
asbag69
(g90
g71
NtRp516
(dp517
g74
(dp518
g101
g102
ssg83
g508
sg76
(lp519
S':'
asbag69
(g90
g71
NtRp520
(dp521
g74
(dp522
sg83
g508
sg76
(lp523
g69
(g70
g71
NtRp524
(dp525
g74
(dp526
g82
I3
ssg83
g520
sg76
(lp527
S''
asbasbasbag69
(g85
g71
NtRp528
(dp529
g74
(dp530
sg83
g464
sg76
(lp531
g69
(g90
g71
NtRp532
(dp533
g74
(dp534
g94
g95
ssg83
g528
sg76
(lp535
g346
asbag69
(g90
g71
NtRp536
(dp537
g74
(dp538
g101
g102
ssg83
g528
sg76
(lp539
S':'
asbag69
(g90
g71
NtRp540
(dp541
g74
(dp542
sg83
g528
sg76
(lp543
g69
(g70
g71
NtRp544
(dp545
g74
(dp546
g82
I3
ssg83
g540
sg76
(lp547
S''
asbasbasbag69
(g85
g71
NtRp548
(dp549
g74
(dp550
sg83
g464
sg76
(lp551
g69
(g90
g71
NtRp552
(dp553
g74
(dp554
g94
g95
ssg83
g548
sg76
(lp555
g367
asbag69
(g90
g71
NtRp556
(dp557
g74
(dp558
g101
g102
ssg83
g548
sg76
(lp559
S':'
asbag69
(g90
g71
NtRp560
(dp561
g74
(dp562
sg83
g548
sg76
(lp563
g69
(g70
g71
NtRp564
(dp565
g74
(dp566
g82
I3
ssg83
g560
sg76
(lp567
S''
asbasbasbag69
(g85
g71
NtRp568
(dp569
g74
(dp570
sg83
g464
sg76
(lp571
g69
(g90
g71
NtRp572
(dp573
g74
(dp574
g94
g95
ssg83
g568
sg76
(lp575
g388
asbag69
(g90
g71
NtRp576
(dp577
g74
(dp578
g101
g102
ssg83
g568
sg76
(lp579
S':'
asbag69
(g90
g71
NtRp580
(dp581
g74
(dp582
sg83
g568
sg76
(lp583
g69
(g70
g71
NtRp584
(dp585
g74
(dp586
g82
I3
ssg83
g580
sg76
(lp587
S''
asbasbasbag69
(g85
g71
NtRp588
(dp589
g74
(dp590
sg83
g464
sg76
(lp591
g69
(g90
g71
NtRp592
(dp593
g74
(dp594
g94
g95
ssg83
g588
sg76
(lp595
g409
asbag69
(g90
g71
NtRp596
(dp597
g74
(dp598
g101
g102
ssg83
g588
sg76
(lp599
S':'
asbag69
(g90
g71
NtRp600
(dp601
g74
(dp602
sg83
g588
sg76
(lp603
g69
(g70
g71
NtRp604
(dp605
g74
(dp606
g82
I3
ssg83
g600
sg76
(lp607
S''
asbasbasbag69
(g85
g71
NtRp608
(dp609
g74
(dp610
sg83
g464
sg76
(lp611
g69
(g90
g71
NtRp612
(dp613
g74
(dp614
g94
g95
ssg83
g608
sg76
(lp615
g430
asbag69
(g90
g71
NtRp616
(dp617
g74
(dp618
g101
g102
ssg83
g608
sg76
(lp619
S':'
asbag69
(g90
g71
NtRp620
(dp621
g74
(dp622
sg83
g608
sg76
(lp623
g69
(g70
g71
NtRp624
(dp625
g74
(dp626
g82
I3
ssg83
g620
sg76
(lp627
S''
asbasbasbasbasbasbasbag69
(g85
g71
NtRp628
(dp629
g74
(dp630
sg83
g246
sg76
(lp631
g69
(g90
g71
NtRp632
(dp633
g74
(dp634
g94
g95
ssg83
g628
sg76
(lp635
S'session_id_welcome'
p636
asbag69
(g90
g71
NtRp637
(dp638
g74
(dp639
g101
g102
ssg83
g628
sg76
(lp640
S':'
asbag69
(g90
g71
NtRp641
(dp642
g74
(dp643
sg83
g628
sg76
(lp644
g69
(g70
g71
NtRp645
(dp646
g74
(dp647
g82
I4
ssg83
g641
sg76
(lp648
g69
(g78
g71
NtRp649
(dp650
g74
(dp651
g82
I3
ssg83
Nsg76
(lp652
g69
(g85
g71
NtRp653
(dp654
g74
(dp655
sg83
g649
sg76
(lp656
g69
(g90
g71
NtRp657
(dp658
g74
(dp659
g94
g95
ssg83
g653
sg76
(lp660
g283
asbag69
(g90
g71
NtRp661
(dp662
g74
(dp663
g101
g102
ssg83
g653
sg76
(lp664
S':'
asbag69
(g90
g71
NtRp665
(dp666
g74
(dp667
sg83
g653
sg76
(lp668
g69
(g70
g71
NtRp669
(dp670
g74
(dp671
g82
I3
ssg83
g665
sg76
(lp672
S''
asbasbasbag69
(g85
g71
NtRp673
(dp674
g74
(dp675
sg83
g649
sg76
(lp676
g69
(g90
g71
NtRp677
(dp678
g74
(dp679
g94
g95
ssg83
g673
sg76
(lp680
g304
asbag69
(g90
g71
NtRp681
(dp682
g74
(dp683
g101
g102
ssg83
g673
sg76
(lp684
S':'
asbag69
(g90
g71
NtRp685
(dp686
g74
(dp687
sg83
g673
sg76
(lp688
g69
(g70
g71
NtRp689
(dp690
g74
(dp691
g82
I3
ssg83
g685
sg76
(lp692
S''
asbasbasbag69
(g85
g71
NtRp693
(dp694
g74
(dp695
sg83
g649
sg76
(lp696
g69
(g90
g71
NtRp697
(dp698
g74
(dp699
g94
g95
ssg83
g693
sg76
(lp700
g325
asbag69
(g90
g71
NtRp701
(dp702
g74
(dp703
g101
g102
ssg83
g693
sg76
(lp704
S':'
asbag69
(g90
g71
NtRp705
(dp706
g74
(dp707
sg83
g693
sg76
(lp708
g69
(g70
g71
NtRp709
(dp710
g74
(dp711
g82
I3
ssg83
g705
sg76
(lp712
S''
asbasbasbag69
(g85
g71
NtRp713
(dp714
g74
(dp715
sg83
g649
sg76
(lp716
g69
(g90
g71
NtRp717
(dp718
g74
(dp719
g94
g95
ssg83
g713
sg76
(lp720
g346
asbag69
(g90
g71
NtRp721
(dp722
g74
(dp723
g101
g102
ssg83
g713
sg76
(lp724
S':'
asbag69
(g90
g71
NtRp725
(dp726
g74
(dp727
sg83
g713
sg76
(lp728
g69
(g70
g71
NtRp729
(dp730
g74
(dp731
g82
I3
ssg83
g725
sg76
(lp732
S''
asbasbasbag69
(g85
g71
NtRp733
(dp734
g74
(dp735
sg83
g649
sg76
(lp736
g69
(g90
g71
NtRp737
(dp738
g74
(dp739
g94
g95
ssg83
g733
sg76
(lp740
g367
asbag69
(g90
g71
NtRp741
(dp742
g74
(dp743
g101
g102
ssg83
g733
sg76
(lp744
S':'
asbag69
(g90
g71
NtRp745
(dp746
g74
(dp747
sg83
g733
sg76
(lp748
g69
(g70
g71
NtRp749
(dp750
g74
(dp751
g82
I3
ssg83
g745
sg76
(lp752
S''
asbasbasbag69
(g85
g71
NtRp753
(dp754
g74
(dp755
sg83
g649
sg76
(lp756
g69
(g90
g71
NtRp757
(dp758
g74
(dp759
g94
g95
ssg83
g753
sg76
(lp760
g388
asbag69
(g90
g71
NtRp761
(dp762
g74
(dp763
g101
g102
ssg83
g753
sg76
(lp764
S':'
asbag69
(g90
g71
NtRp765
(dp766
g74
(dp767
sg83
g753
sg76
(lp768
g69
(g70
g71
NtRp769
(dp770
g74
(dp771
g82
I3
ssg83
g765
sg76
(lp772
S''
asbasbasbag69
(g85
g71
NtRp773
(dp774
g74
(dp775
sg83
g649
sg76
(lp776
g69
(g90
g71
NtRp777
(dp778
g74
(dp779
g94
g95
ssg83
g773
sg76
(lp780
g409
asbag69
(g90
g71
NtRp781
(dp782
g74
(dp783
g101
g102
ssg83
g773
sg76
(lp784
S':'
asbag69
(g90
g71
NtRp785
(dp786
g74
(dp787
sg83
g773
sg76
(lp788
g69
(g70
g71
NtRp789
(dp790
g74
(dp791
g82
I3
ssg83
g785
sg76
(lp792
S''
asbasbasbag69
(g85
g71
NtRp793
(dp794
g74
(dp795
sg83
g649
sg76
(lp796
g69
(g90
g71
NtRp797
(dp798
g74
(dp799
g94
g95
ssg83
g793
sg76
(lp800
g430
asbag69
(g90
g71
NtRp801
(dp802
g74
(dp803
g101
g102
ssg83
g793
sg76
(lp804
S':'
asbag69
(g90
g71
NtRp805
(dp806
g74
(dp807
sg83
g793
sg76
(lp808
g69
(g70
g71
NtRp809
(dp810
g74
(dp811
g82
I3
ssg83
g805
sg76
(lp812
S''
asbasbasbasbasbasbasbasbasbasbasbag69
(g85
g71
NtRp813
(dp814
g74
(dp815
sg83
g79
sg76
(lp816
g69
(g90
g71
NtRp817
(dp818
g74
(dp819
g94
g95
ssg83
g813
sg76
(lp820
S'env'
p821
asbag69
(g90
g71
NtRp822
(dp823
g74
(dp824
g101
g102
ssg83
g813
sg76
(lp825
S':'
asbag69
(g90
g71
NtRp826
(dp827
g74
(dp828
sg83
g813
sg76
(lp829
g69
(g70
g71
NtRp830
(dp831
g74
(dp832
g82
I5
ssg83
g826
sg76
(lp833
g69
(g78
g71
NtRp834
(dp835
g74
(dp836
g82
I4
ssg83
Nsg76
(lp837
g69
(g85
g71
NtRp838
(dp839
g74
(dp840
sg83
g834
sg76
(lp841
g69
(g90
g71
NtRp842
(dp843
g74
(dp844
g94
g95
ssg83
g838
sg76
(lp845
S'app_folders'
p846
asbag69
(g90
g71
NtRp847
(dp848
g74
(dp849
g101
g102
ssg83
g838
sg76
(lp850
S':'
asbag69
(g90
g71
NtRp851
(dp852
g74
(dp853
sg83
g838
sg76
(lp854
g69
(g70
g71
NtRp855
(dp856
g74
(dp857
g82
I4
ssg83
g851
sg76
(lp858
S"set(['/Users/ianaboneva/Downloads/web2py/applications/welcome/', '/Users/ianaboneva/Downloads/web2py/applications/Book_Shelf/', '/Users/ianaboneva/Downloads/web2py/applications/admin/'])"
p859
asbasbasbag69
(g85
g71
NtRp860
(dp861
g74
(dp862
sg83
g834
sg76
(lp863
g69
(g90
g71
NtRp864
(dp865
g74
(dp866
g94
g95
ssg83
g860
sg76
(lp867
S'applications_parent'
p868
asbag69
(g90
g71
NtRp869
(dp870
g74
(dp871
g101
g102
ssg83
g860
sg76
(lp872
S':'
asbag69
(g90
g71
NtRp873
(dp874
g74
(dp875
sg83
g860
sg76
(lp876
g69
(g70
g71
NtRp877
(dp878
g74
(dp879
g82
I4
ssg83
g873
sg76
(lp880
S'/Users/ianaboneva/Downloads/web2py'
p881
asbasbasbag69
(g85
g71
NtRp882
(dp883
g74
(dp884
sg83
g834
sg76
(lp885
g69
(g90
g71
NtRp886
(dp887
g74
(dp888
g94
g95
ssg83
g882
sg76
(lp889
S'cmd_args'
p890
asbag69
(g90
g71
NtRp891
(dp892
g74
(dp893
g101
g102
ssg83
g882
sg76
(lp894
S':'
asbag69
(g90
g71
NtRp895
(dp896
g74
(dp897
sg83
g882
sg76
(lp898
g69
(g70
g71
NtRp899
(dp900
g74
(dp901
g82
I4
ssg83
g895
sg76
(lp902
g69
(g78
g71
NtRp903
(dp904
g74
(dp905
g82
I3
ssg83
Nsg76
(lp906
sbasbasbasbag69
(g85
g71
NtRp907
(dp908
g74
(dp909
sg83
g834
sg76
(lp910
g69
(g90
g71
NtRp911
(dp912
g74
(dp913
g94
g95
ssg83
g907
sg76
(lp914
S'cmd_options'
p915
asbag69
(g90
g71
NtRp916
(dp917
g74
(dp918
g101
g102
ssg83
g907
sg76
(lp919
S':'
asbag69
(g90
g71
NtRp920
(dp921
g74
(dp922
sg83
g907
sg76
(lp923
g69
(g70
g71
NtRp924
(dp925
g74
(dp926
g82
I4
ssg83
g920
sg76
(lp927
S"<Values at 0x102cbec68: {'verbose': False, 'ip': '127.0.0.1', 'shutdown_timeout': 5, 'taskbar': False, 'nocron': False, 'pid_filename': 'httpserver.pid', 'maxthreads': None, 'softcron': False, 'server_name': 'Iana-Bonevas-MacBook-Pro.local', 'bpython': False, 'nogui': False, 'port': 8000, 'extcron': False, 'debuglevel': 30, 'test': None, 'folder': '/Users/ianaboneva/Downloads/web2py', 'config': '', 'import_models': False, 'winservice': '', 'shell': None, 'run': '', 'log_filename': 'httpserver.log', 'args': [''], 'socket_timeout': 5, 'ssl_ca_certificate': None, 'scheduler': None, 'profiler_filename': None, 'ssl_private_key': '', 'password': '<ask>', 'request_queue_size': 5, 'ssl_certificate': '', 'cronjob': False, 'numthreads': None, 'quiet': False, 'interfaces': None, 'minthreads': None, 'timeout': 10, 'plain': False, 'nobanner': False}>"
p928
asbasbasbag69
(g85
g71
NtRp929
(dp930
g74
(dp931
sg83
g834
sg76
(lp932
g69
(g90
g71
NtRp933
(dp934
g74
(dp935
g94
g95
ssg83
g929
sg76
(lp936
S'db_sessions'
p937
asbag69
(g90
g71
NtRp938
(dp939
g74
(dp940
g101
g102
ssg83
g929
sg76
(lp941
S':'
asbag69
(g90
g71
NtRp942
(dp943
g74
(dp944
sg83
g929
sg76
(lp945
g69
(g70
g71
NtRp946
(dp947
g74
(dp948
g82
I4
ssg83
g942
sg76
(lp949
S'set([])'
p950
asbasbasbag69
(g85
g71
NtRp951
(dp952
g74
(dp953
sg83
g834
sg76
(lp954
g69
(g90
g71
NtRp955
(dp956
g74
(dp957
g94
g95
ssg83
g951
sg76
(lp958
S'debugging'
p959
asbag69
(g90
g71
NtRp960
(dp961
g74
(dp962
g101
g102
ssg83
g951
sg76
(lp963
S':'
asbag69
(g90
g71
NtRp964
(dp965
g74
(dp966
sg83
g951
sg76
(lp967
g69
(g70
g71
NtRp968
(dp969
g74
(dp970
g82
I4
ssg83
g964
sg76
(lp971
g112
asbasbasbag69
(g85
g71
NtRp972
(dp973
g74
(dp974
sg83
g834
sg76
(lp975
g69
(g90
g71
NtRp976
(dp977
g74
(dp978
g94
g95
ssg83
g972
sg76
(lp979
S'gluon_parent'
p980
asbag69
(g90
g71
NtRp981
(dp982
g74
(dp983
g101
g102
ssg83
g972
sg76
(lp984
S':'
asbag69
(g90
g71
NtRp985
(dp986
g74
(dp987
sg83
g972
sg76
(lp988
g69
(g70
g71
NtRp989
(dp990
g74
(dp991
g82
I4
ssg83
g985
sg76
(lp992
S'/Users/ianaboneva/Downloads/web2py'
p993
asbasbasbag69
(g85
g71
NtRp994
(dp995
g74
(dp996
sg83
g834
sg76
(lp997
g69
(g90
g71
NtRp998
(dp999
g74
(dp1000
g94
g95
ssg83
g994
sg76
(lp1001
S'http_accept'
p1002
asbag69
(g90
g71
NtRp1003
(dp1004
g74
(dp1005
g101
g102
ssg83
g994
sg76
(lp1006
S':'
asbag69
(g90
g71
NtRp1007
(dp1008
g74
(dp1009
sg83
g994
sg76
(lp1010
g69
(g70
g71
NtRp1011
(dp1012
g74
(dp1013
g82
I4
ssg83
g1007
sg76
(lp1014
S'text/html,application/xhtml+xml,application/xml;q=0.9,*/*;q=0.8'
p1015
asbasbasbag69
(g85
g71
NtRp1016
(dp1017
g74
(dp1018
sg83
g834
sg76
(lp1019
g69
(g90
g71
NtRp1020
(dp1021
g74
(dp1022
g94
g95
ssg83
g1016
sg76
(lp1023
S'http_accept_charset'
p1024
asbag69
(g90
g71
NtRp1025
(dp1026
g74
(dp1027
g101
g102
ssg83
g1016
sg76
(lp1028
S':'
asbag69
(g90
g71
NtRp1029
(dp1030
g74
(dp1031
sg83
g1016
sg76
(lp1032
g69
(g70
g71
NtRp1033
(dp1034
g74
(dp1035
g82
I4
ssg83
g1029
sg76
(lp1036
S'ISO-8859-1,utf-8;q=0.7,*;q=0.3'
p1037
asbasbasbag69
(g85
g71
NtRp1038
(dp1039
g74
(dp1040
sg83
g834
sg76
(lp1041
g69
(g90
g71
NtRp1042
(dp1043
g74
(dp1044
g94
g95
ssg83
g1038
sg76
(lp1045
S'http_accept_encoding'
p1046
asbag69
(g90
g71
NtRp1047
(dp1048
g74
(dp1049
g101
g102
ssg83
g1038
sg76
(lp1050
S':'
asbag69
(g90
g71
NtRp1051
(dp1052
g74
(dp1053
sg83
g1038
sg76
(lp1054
g69
(g70
g71
NtRp1055
(dp1056
g74
(dp1057
g82
I4
ssg83
g1051
sg76
(lp1058
S'gzip,deflate,sdch'
p1059
asbasbasbag69
(g85
g71
NtRp1060
(dp1061
g74
(dp1062
sg83
g834
sg76
(lp1063
g69
(g90
g71
NtRp1064
(dp1065
g74
(dp1066
g94
g95
ssg83
g1060
sg76
(lp1067
S'http_accept_language'
p1068
asbag69
(g90
g71
NtRp1069
(dp1070
g74
(dp1071
g101
g102
ssg83
g1060
sg76
(lp1072
S':'
asbag69
(g90
g71
NtRp1073
(dp1074
g74
(dp1075
sg83
g1060
sg76
(lp1076
g69
(g70
g71
NtRp1077
(dp1078
g74
(dp1079
g82
I4
ssg83
g1073
sg76
(lp1080
S'en-US,en;q=0.8'
p1081
asbasbasbag69
(g85
g71
NtRp1082
(dp1083
g74
(dp1084
sg83
g834
sg76
(lp1085
g69
(g90
g71
NtRp1086
(dp1087
g74
(dp1088
g94
g95
ssg83
g1082
sg76
(lp1089
S'http_cache_control'
p1090
asbag69
(g90
g71
NtRp1091
(dp1092
g74
(dp1093
g101
g102
ssg83
g1082
sg76
(lp1094
S':'
asbag69
(g90
g71
NtRp1095
(dp1096
g74
(dp1097
sg83
g1082
sg76
(lp1098
g69
(g70
g71
NtRp1099
(dp1100
g74
(dp1101
g82
I4
ssg83
g1095
sg76
(lp1102
S'max-age=0'
p1103
asbasbasbag69
(g85
g71
NtRp1104
(dp1105
g74
(dp1106
sg83
g834
sg76
(lp1107
g69
(g90
g71
NtRp1108
(dp1109
g74
(dp1110
g94
g95
ssg83
g1104
sg76
(lp1111
S'http_connection'
p1112
asbag69
(g90
g71
NtRp1113
(dp1114
g74
(dp1115
g101
g102
ssg83
g1104
sg76
(lp1116
S':'
asbag69
(g90
g71
NtRp1117
(dp1118
g74
(dp1119
sg83
g1104
sg76
(lp1120
g69
(g70
g71
NtRp1121
(dp1122
g74
(dp1123
g82
I4
ssg83
g1117
sg76
(lp1124
S'keep-alive'
p1125
asbasbasbag69
(g85
g71
NtRp1126
(dp1127
g74
(dp1128
sg83
g834
sg76
(lp1129
g69
(g90
g71
NtRp1130
(dp1131
g74
(dp1132
g94
g95
ssg83
g1126
sg76
(lp1133
S'http_cookie'
p1134
asbag69
(g90
g71
NtRp1135
(dp1136
g74
(dp1137
g101
g102
ssg83
g1126
sg76
(lp1138
S':'
asbag69
(g90
g71
NtRp1139
(dp1140
g74
(dp1141
sg83
g1126
sg76
(lp1142
g69
(g70
g71
NtRp1143
(dp1144
g74
(dp1145
g82
I4
ssg83
g1139
sg76
(lp1146
S'session_id_welcome=127.0.0.1-6ce6420c-4a3f-49a0-bafb-df6b1393f482; session_id_book_shelf=127.0.0.1-abc01c71-8844-4aa9-8d94-40c83b0e7587; session_id_admin=127.0.0.1-a3a129ed-9759-476f-9741-9a720e2166b5'
p1147
asbasbasbag69
(g85
g71
NtRp1148
(dp1149
g74
(dp1150
sg83
g834
sg76
(lp1151
g69
(g90
g71
NtRp1152
(dp1153
g74
(dp1154
g94
g95
ssg83
g1148
sg76
(lp1155
S'http_host'
p1156
asbag69
(g90
g71
NtRp1157
(dp1158
g74
(dp1159
g101
g102
ssg83
g1148
sg76
(lp1160
S':'
asbag69
(g90
g71
NtRp1161
(dp1162
g74
(dp1163
sg83
g1148
sg76
(lp1164
g69
(g70
g71
NtRp1165
(dp1166
g74
(dp1167
g82
I4
ssg83
g1161
sg76
(lp1168
S'127.0.0.1:8000'
p1169
asbasbasbag69
(g85
g71
NtRp1170
(dp1171
g74
(dp1172
sg83
g834
sg76
(lp1173
g69
(g90
g71
NtRp1174
(dp1175
g74
(dp1176
g94
g95
ssg83
g1170
sg76
(lp1177
S'http_user_agent'
p1178
asbag69
(g90
g71
NtRp1179
(dp1180
g74
(dp1181
g101
g102
ssg83
g1170
sg76
(lp1182
S':'
asbag69
(g90
g71
NtRp1183
(dp1184
g74
(dp1185
sg83
g1170
sg76
(lp1186
g69
(g70
g71
NtRp1187
(dp1188
g74
(dp1189
g82
I4
ssg83
g1183
sg76
(lp1190
S'Mozilla/5.0 (Macintosh; Intel Mac OS X 10_7_3) AppleWebKit/536.5 (KHTML, like Gecko) Chrome/19.0.1084.46 Safari/536.5'
p1191
asbasbasbag69
(g85
g71
NtRp1192
(dp1193
g74
(dp1194
sg83
g834
sg76
(lp1195
g69
(g90
g71
NtRp1196
(dp1197
g74
(dp1198
g94
g95
ssg83
g1192
sg76
(lp1199
S'is_jython'
p1200
asbag69
(g90
g71
NtRp1201
(dp1202
g74
(dp1203
g101
g102
ssg83
g1192
sg76
(lp1204
S':'
asbag69
(g90
g71
NtRp1205
(dp1206
g74
(dp1207
sg83
g1192
sg76
(lp1208
g69
(g70
g71
NtRp1209
(dp1210
g74
(dp1211
g82
I4
ssg83
g1205
sg76
(lp1212
g112
asbasbasbag69
(g85
g71
NtRp1213
(dp1214
g74
(dp1215
sg83
g834
sg76
(lp1216
g69
(g90
g71
NtRp1217
(dp1218
g74
(dp1219
g94
g95
ssg83
g1213
sg76
(lp1220
S'is_pypy'
p1221
asbag69
(g90
g71
NtRp1222
(dp1223
g74
(dp1224
g101
g102
ssg83
g1213
sg76
(lp1225
S':'
asbag69
(g90
g71
NtRp1226
(dp1227
g74
(dp1228
sg83
g1213
sg76
(lp1229
g69
(g70
g71
NtRp1230
(dp1231
g74
(dp1232
g82
I4
ssg83
g1226
sg76
(lp1233
g112
asbasbasbag69
(g85
g71
NtRp1234
(dp1235
g74
(dp1236
sg83
g834
sg76
(lp1237
g69
(g90
g71
NtRp1238
(dp1239
g74
(dp1240
g94
g95
ssg83
g1234
sg76
(lp1241
S'path_info'
p1242
asbag69
(g90
g71
NtRp1243
(dp1244
g74
(dp1245
g101
g102
ssg83
g1234
sg76
(lp1246
S':'
asbag69
(g90
g71
NtRp1247
(dp1248
g74
(dp1249
sg83
g1234
sg76
(lp1250
g69
(g70
g71
NtRp1251
(dp1252
g74
(dp1253
g82
I4
ssg83
g1247
sg76
(lp1254
S'/Book_Shelf/default/create_book_shelf'
p1255
asbasbasbag69
(g85
g71
NtRp1256
(dp1257
g74
(dp1258
sg83
g834
sg76
(lp1259
g69
(g90
g71
NtRp1260
(dp1261
g74
(dp1262
g94
g95
ssg83
g1256
sg76
(lp1263
S'query_string'
p1264
asbag69
(g90
g71
NtRp1265
(dp1266
g74
(dp1267
g101
g102
ssg83
g1256
sg76
(lp1268
S':'
asbag69
(g90
g71
NtRp1269
(dp1270
g74
(dp1271
sg83
g1256
sg76
(lp1272
g69
(g70
g71
NtRp1273
(dp1274
g74
(dp1275
g82
I4
ssg83
g1269
sg76
(lp1276
S''
asbasbasbag69
(g85
g71
NtRp1277
(dp1278
g74
(dp1279
sg83
g834
sg76
(lp1280
g69
(g90
g71
NtRp1281
(dp1282
g74
(dp1283
g94
g95
ssg83
g1277
sg76
(lp1284
S'remote_addr'
p1285
asbag69
(g90
g71
NtRp1286
(dp1287
g74
(dp1288
g101
g102
ssg83
g1277
sg76
(lp1289
S':'
asbag69
(g90
g71
NtRp1290
(dp1291
g74
(dp1292
sg83
g1277
sg76
(lp1293
g69
(g70
g71
NtRp1294
(dp1295
g74
(dp1296
g82
I4
ssg83
g1290
sg76
(lp1297
g202
asbasbasbag69
(g85
g71
NtRp1298
(dp1299
g74
(dp1300
sg83
g834
sg76
(lp1301
g69
(g90
g71
NtRp1302
(dp1303
g74
(dp1304
g94
g95
ssg83
g1298
sg76
(lp1305
S'remote_port'
p1306
asbag69
(g90
g71
NtRp1307
(dp1308
g74
(dp1309
g101
g102
ssg83
g1298
sg76
(lp1310
S':'
asbag69
(g90
g71
NtRp1311
(dp1312
g74
(dp1313
sg83
g1298
sg76
(lp1314
g69
(g70
g71
NtRp1315
(dp1316
g74
(dp1317
g82
I4
ssg83
g1311
sg76
(lp1318
S'52028'
p1319
asbasbasbag69
(g85
g71
NtRp1320
(dp1321
g74
(dp1322
sg83
g834
sg76
(lp1323
g69
(g90
g71
NtRp1324
(dp1325
g74
(dp1326
g94
g95
ssg83
g1320
sg76
(lp1327
S'request_method'
p1328
asbag69
(g90
g71
NtRp1329
(dp1330
g74
(dp1331
g101
g102
ssg83
g1320
sg76
(lp1332
S':'
asbag69
(g90
g71
NtRp1333
(dp1334
g74
(dp1335
sg83
g1320
sg76
(lp1336
g69
(g70
g71
NtRp1337
(dp1338
g74
(dp1339
g82
I4
ssg83
g1333
sg76
(lp1340
S'GET'
p1341
asbasbasbag69
(g85
g71
NtRp1342
(dp1343
g74
(dp1344
sg83
g834
sg76
(lp1345
g69
(g90
g71
NtRp1346
(dp1347
g74
(dp1348
g94
g95
ssg83
g1342
sg76
(lp1349
S'script_name'
p1350
asbag69
(g90
g71
NtRp1351
(dp1352
g74
(dp1353
g101
g102
ssg83
g1342
sg76
(lp1354
S':'
asbag69
(g90
g71
NtRp1355
(dp1356
g74
(dp1357
sg83
g1342
sg76
(lp1358
g69
(g70
g71
NtRp1359
(dp1360
g74
(dp1361
g82
I4
ssg83
g1355
sg76
(lp1362
S''
asbasbasbag69
(g85
g71
NtRp1363
(dp1364
g74
(dp1365
sg83
g834
sg76
(lp1366
g69
(g90
g71
NtRp1367
(dp1368
g74
(dp1369
g94
g95
ssg83
g1363
sg76
(lp1370
S'server_name'
p1371
asbag69
(g90
g71
NtRp1372
(dp1373
g74
(dp1374
g101
g102
ssg83
g1363
sg76
(lp1375
S':'
asbag69
(g90
g71
NtRp1376
(dp1377
g74
(dp1378
sg83
g1363
sg76
(lp1379
g69
(g70
g71
NtRp1380
(dp1381
g74
(dp1382
g82
I4
ssg83
g1376
sg76
(lp1383
S'Iana-Bonevas-MacBook-Pro.local'
p1384
asbasbasbag69
(g85
g71
NtRp1385
(dp1386
g74
(dp1387
sg83
g834
sg76
(lp1388
g69
(g90
g71
NtRp1389
(dp1390
g74
(dp1391
g94
g95
ssg83
g1385
sg76
(lp1392
S'server_port'
p1393
asbag69
(g90
g71
NtRp1394
(dp1395
g74
(dp1396
g101
g102
ssg83
g1385
sg76
(lp1397
S':'
asbag69
(g90
g71
NtRp1398
(dp1399
g74
(dp1400
sg83
g1385
sg76
(lp1401
g69
(g70
g71
NtRp1402
(dp1403
g74
(dp1404
g82
I4
ssg83
g1398
sg76
(lp1405
S'8000'
p1406
asbasbasbag69
(g85
g71
NtRp1407
(dp1408
g74
(dp1409
sg83
g834
sg76
(lp1410
g69
(g90
g71
NtRp1411
(dp1412
g74
(dp1413
g94
g95
ssg83
g1407
sg76
(lp1414
S'server_protocol'
p1415
asbag69
(g90
g71
NtRp1416
(dp1417
g74
(dp1418
g101
g102
ssg83
g1407
sg76
(lp1419
S':'
asbag69
(g90
g71
NtRp1420
(dp1421
g74
(dp1422
sg83
g1407
sg76
(lp1423
g69
(g70
g71
NtRp1424
(dp1425
g74
(dp1426
g82
I4
ssg83
g1420
sg76
(lp1427
S'HTTP/1.1'
p1428
asbasbasbag69
(g85
g71
NtRp1429
(dp1430
g74
(dp1431
sg83
g834
sg76
(lp1432
g69
(g90
g71
NtRp1433
(dp1434
g74
(dp1435
g94
g95
ssg83
g1429
sg76
(lp1436
S'server_software'
p1437
asbag69
(g90
g71
NtRp1438
(dp1439
g74
(dp1440
g101
g102
ssg83
g1429
sg76
(lp1441
S':'
asbag69
(g90
g71
NtRp1442
(dp1443
g74
(dp1444
sg83
g1429
sg76
(lp1445
g69
(g70
g71
NtRp1446
(dp1447
g74
(dp1448
g82
I4
ssg83
g1442
sg76
(lp1449
S'Rocket 1.2.4'
p1450
asbasbasbag69
(g85
g71
NtRp1451
(dp1452
g74
(dp1453
sg83
g834
sg76
(lp1454
g69
(g90
g71
NtRp1455
(dp1456
g74
(dp1457
g94
g95
ssg83
g1451
sg76
(lp1458
S'web2py_crontype'
p1459
asbag69
(g90
g71
NtRp1460
(dp1461
g74
(dp1462
g101
g102
ssg83
g1451
sg76
(lp1463
S':'
asbag69
(g90
g71
NtRp1464
(dp1465
g74
(dp1466
sg83
g1451
sg76
(lp1467
g69
(g70
g71
NtRp1468
(dp1469
g74
(dp1470
g82
I4
ssg83
g1464
sg76
(lp1471
S'hard'
p1472
asbasbasbag69
(g85
g71
NtRp1473
(dp1474
g74
(dp1475
sg83
g834
sg76
(lp1476
g69
(g90
g71
NtRp1477
(dp1478
g74
(dp1479
g94
g95
ssg83
g1473
sg76
(lp1480
S'web2py_path'
p1481
asbag69
(g90
g71
NtRp1482
(dp1483
g74
(dp1484
g101
g102
ssg83
g1473
sg76
(lp1485
S':'
asbag69
(g90
g71
NtRp1486
(dp1487
g74
(dp1488
sg83
g1473
sg76
(lp1489
g69
(g70
g71
NtRp1490
(dp1491
g74
(dp1492
g82
I4
ssg83
g1486
sg76
(lp1493
g881
asbasbasbag69
(g85
g71
NtRp1494
(dp1495
g74
(dp1496
sg83
g834
sg76
(lp1497
g69
(g90
g71
NtRp1498
(dp1499
g74
(dp1500
g94
g95
ssg83
g1494
sg76
(lp1501
S'web2py_version'
p1502
asbag69
(g90
g71
NtRp1503
(dp1504
g74
(dp1505
g101
g102
ssg83
g1494
sg76
(lp1506
S':'
asbag69
(g90
g71
NtRp1507
(dp1508
g74
(dp1509
sg83
g1494
sg76
(lp1510
g69
(g70
g71
NtRp1511
(dp1512
g74
(dp1513
g82
I4
ssg83
g1507
sg76
(lp1514
g69
(g78
g71
NtRp1515
(dp1516
g74
(dp1517
g82
I3
ssg83
Nsg76
(lp1518
g69
(g85
g71
NtRp1519
(dp1520
g74
(dp1521
sg83
g1515
sg76
(lp1522
g69
(g90
g71
NtRp1523
(dp1524
g74
(dp1525
sg83
g1519
sg76
(lp1526
g69
(g70
g71
NtRp1527
(dp1528
g74
(dp1529
g82
I3
ssg83
g1523
sg76
(lp1530
S'1'
asbasbasbag69
(g85
g71
NtRp1531
(dp1532
g74
(dp1533
sg83
g1515
sg76
(lp1534
g69
(g90
g71
NtRp1535
(dp1536
g74
(dp1537
sg83
g1531
sg76
(lp1538
g69
(g70
g71
NtRp1539
(dp1540
g74
(dp1541
g82
I3
ssg83
g1535
sg76
(lp1542
S'99'
p1543
asbasbasbag69
(g85
g71
NtRp1544
(dp1545
g74
(dp1546
sg83
g1515
sg76
(lp1547
g69
(g90
g71
NtRp1548
(dp1549
g74
(dp1550
sg83
g1544
sg76
(lp1551
g69
(g70
g71
NtRp1552
(dp1553
g74
(dp1554
g82
I3
ssg83
g1548
sg76
(lp1555
S'7'
asbasbasbag69
(g85
g71
NtRp1556
(dp1557
g74
(dp1558
sg83
g1515
sg76
(lp1559
g69
(g90
g71
NtRp1560
(dp1561
g74
(dp1562
sg83
g1556
sg76
(lp1563
g69
(g70
g71
NtRp1564
(dp1565
g74
(dp1566
g82
I3
ssg83
g1560
sg76
(lp1567
S'datetime.datetime(2012, 3, 4, 22, 12, 8)'
p1568
asbasbasbag69
(g85
g71
NtRp1569
(dp1570
g74
(dp1571
sg83
g1515
sg76
(lp1572
g69
(g90
g71
NtRp1573
(dp1574
g74
(dp1575
sg83
g1569
sg76
(lp1576
g69
(g70
g71
NtRp1577
(dp1578
g74
(dp1579
g82
I3
ssg83
g1573
sg76
(lp1580
S'stable'
p1581
asbasbasbasbasbasbasbag69
(g85
g71
NtRp1582
(dp1583
g74
(dp1584
sg83
g834
sg76
(lp1585
g69
(g90
g71
NtRp1586
(dp1587
g74
(dp1588
g94
g95
ssg83
g1582
sg76
(lp1589
S'wsgi_errors'
p1590
asbag69
(g90
g71
NtRp1591
(dp1592
g74
(dp1593
g101
g102
ssg83
g1582
sg76
(lp1594
S':'
asbag69
(g90
g71
NtRp1595
(dp1596
g74
(dp1597
sg83
g1582
sg76
(lp1598
g69
(g70
g71
NtRp1599
(dp1600
g74
(dp1601
g82
I4
ssg83
g1595
sg76
(lp1602
S"<open file '<stderr>', mode 'w' at 0x102156270>"
p1603
asbasbasbag69
(g85
g71
NtRp1604
(dp1605
g74
(dp1606
sg83
g834
sg76
(lp1607
g69
(g90
g71
NtRp1608
(dp1609
g74
(dp1610
g94
g95
ssg83
g1604
sg76
(lp1611
S'wsgi_file_wrapper'
p1612
asbag69
(g90
g71
NtRp1613
(dp1614
g74
(dp1615
g101
g102
ssg83
g1604
sg76
(lp1616
S':'
asbag69
(g90
g71
NtRp1617
(dp1618
g74
(dp1619
sg83
g1604
sg76
(lp1620
g69
(g70
g71
NtRp1621
(dp1622
g74
(dp1623
g82
I4
ssg83
g1617
sg76
(lp1624
S'<class wsgiref.util.FileWrapper at 0x102bbdc18>'
p1625
asbasbasbag69
(g85
g71
NtRp1626
(dp1627
g74
(dp1628
sg83
g834
sg76
(lp1629
g69
(g90
g71
NtRp1630
(dp1631
g74
(dp1632
g94
g95
ssg83
g1626
sg76
(lp1633
S'wsgi_input'
p1634
asbag69
(g90
g71
NtRp1635
(dp1636
g74
(dp1637
g101
g102
ssg83
g1626
sg76
(lp1638
S':'
asbag69
(g90
g71
NtRp1639
(dp1640
g74
(dp1641
sg83
g1626
sg76
(lp1642
g69
(g70
g71
NtRp1643
(dp1644
g74
(dp1645
g82
I4
ssg83
g1639
sg76
(lp1646
S'<socket._fileobject object at 0x1065d4150>'
p1647
asbasbasbag69
(g85
g71
NtRp1648
(dp1649
g74
(dp1650
sg83
g834
sg76
(lp1651
g69
(g90
g71
NtRp1652
(dp1653
g74
(dp1654
g94
g95
ssg83
g1648
sg76
(lp1655
S'wsgi_multiprocess'
p1656
asbag69
(g90
g71
NtRp1657
(dp1658
g74
(dp1659
g101
g102
ssg83
g1648
sg76
(lp1660
S':'
asbag69
(g90
g71
NtRp1661
(dp1662
g74
(dp1663
sg83
g1648
sg76
(lp1664
g69
(g70
g71
NtRp1665
(dp1666
g74
(dp1667
g82
I4
ssg83
g1661
sg76
(lp1668
g112
asbasbasbag69
(g85
g71
NtRp1669
(dp1670
g74
(dp1671
sg83
g834
sg76
(lp1672
g69
(g90
g71
NtRp1673
(dp1674
g74
(dp1675
g94
g95
ssg83
g1669
sg76
(lp1676
S'wsgi_multithread'
p1677
asbag69
(g90
g71
NtRp1678
(dp1679
g74
(dp1680
g101
g102
ssg83
g1669
sg76
(lp1681
S':'
asbag69
(g90
g71
NtRp1682
(dp1683
g74
(dp1684
sg83
g1669
sg76
(lp1685
g69
(g70
g71
NtRp1686
(dp1687
g74
(dp1688
g82
I4
ssg83
g1682
sg76
(lp1689
S'True'
p1690
asbasbasbag69
(g85
g71
NtRp1691
(dp1692
g74
(dp1693
sg83
g834
sg76
(lp1694
g69
(g90
g71
NtRp1695
(dp1696
g74
(dp1697
g94
g95
ssg83
g1691
sg76
(lp1698
S'wsgi_run_once'
p1699
asbag69
(g90
g71
NtRp1700
(dp1701
g74
(dp1702
g101
g102
ssg83
g1691
sg76
(lp1703
S':'
asbag69
(g90
g71
NtRp1704
(dp1705
g74
(dp1706
sg83
g1691
sg76
(lp1707
g69
(g70
g71
NtRp1708
(dp1709
g74
(dp1710
g82
I4
ssg83
g1704
sg76
(lp1711
g112
asbasbasbag69
(g85
g71
NtRp1712
(dp1713
g74
(dp1714
sg83
g834
sg76
(lp1715
g69
(g90
g71
NtRp1716
(dp1717
g74
(dp1718
g94
g95
ssg83
g1712
sg76
(lp1719
S'wsgi_url_scheme'
p1720
asbag69
(g90
g71
NtRp1721
(dp1722
g74
(dp1723
g101
g102
ssg83
g1712
sg76
(lp1724
S':'
asbag69
(g90
g71
NtRp1725
(dp1726
g74
(dp1727
sg83
g1712
sg76
(lp1728
g69
(g70
g71
NtRp1729
(dp1730
g74
(dp1731
g82
I4
ssg83
g1725
sg76
(lp1732
S'http'
p1733
asbasbasbag69
(g85
g71
NtRp1734
(dp1735
g74
(dp1736
sg83
g834
sg76
(lp1737
g69
(g90
g71
NtRp1738
(dp1739
g74
(dp1740
g94
g95
ssg83
g1734
sg76
(lp1741
S'wsgi_version'
p1742
asbag69
(g90
g71
NtRp1743
(dp1744
g74
(dp1745
g101
g102
ssg83
g1734
sg76
(lp1746
S':'
asbag69
(g90
g71
NtRp1747
(dp1748
g74
(dp1749
sg83
g1734
sg76
(lp1750
g69
(g70
g71
NtRp1751
(dp1752
g74
(dp1753
g82
I4
ssg83
g1747
sg76
(lp1754
g69
(g78
g71
NtRp1755
(dp1756
g74
(dp1757
g82
I3
ssg83
Nsg76
(lp1758
g69
(g85
g71
NtRp1759
(dp1760
g74
(dp1761
sg83
g1755
sg76
(lp1762
g69
(g90
g71
NtRp1763
(dp1764
g74
(dp1765
sg83
g1759
sg76
(lp1766
g69
(g70
g71
NtRp1767
(dp1768
g74
(dp1769
g82
I3
ssg83
g1763
sg76
(lp1770
S'1'
asbasbasbag69
(g85
g71
NtRp1771
(dp1772
g74
(dp1773
sg83
g1755
sg76
(lp1774
g69
(g90
g71
NtRp1775
(dp1776
g74
(dp1777
sg83
g1771
sg76
(lp1778
g69
(g70
g71
NtRp1779
(dp1780
g74
(dp1781
g82
I3
ssg83
g1775
sg76
(lp1782
S'0'
asbasbasbasbasbasbasbasbasbasbasbag69
(g85
g71
NtRp1783
(dp1784
g74
(dp1785
sg83
g79
sg76
(lp1786
g69
(g90
g71
NtRp1787
(dp1788
g74
(dp1789
g94
g95
ssg83
g1783
sg76
(lp1790
S'extension'
p1791
asbag69
(g90
g71
NtRp1792
(dp1793
g74
(dp1794
g101
g102
ssg83
g1783
sg76
(lp1795
S':'
asbag69
(g90
g71
NtRp1796
(dp1797
g74
(dp1798
sg83
g1783
sg76
(lp1799
g69
(g70
g71
NtRp1800
(dp1801
g74
(dp1802
g82
I5
ssg83
g1796
sg76
(lp1803
S'html'
p1804
asbasbasbag69
(g85
g71
NtRp1805
(dp1806
g74
(dp1807
sg83
g79
sg76
(lp1808
g69
(g90
g71
NtRp1809
(dp1810
g74
(dp1811
g94
g95
ssg83
g1805
sg76
(lp1812
S'folder'
p1813
asbag69
(g90
g71
NtRp1814
(dp1815
g74
(dp1816
g101
g102
ssg83
g1805
sg76
(lp1817
S':'
asbag69
(g90
g71
NtRp1818
(dp1819
g74
(dp1820
sg83
g1805
sg76
(lp1821
g69
(g70
g71
NtRp1822
(dp1823
g74
(dp1824
g82
I5
ssg83
g1818
sg76
(lp1825
S'/Users/ianaboneva/Downloads/web2py/applications/Book_Shelf/'
p1826
asbasbasbag69
(g85
g71
NtRp1827
(dp1828
g74
(dp1829
sg83
g79
sg76
(lp1830
g69
(g90
g71
NtRp1831
(dp1832
g74
(dp1833
g94
g95
ssg83
g1827
sg76
(lp1834
S'function'
p1835
asbag69
(g90
g71
NtRp1836
(dp1837
g74
(dp1838
g101
g102
ssg83
g1827
sg76
(lp1839
S':'
asbag69
(g90
g71
NtRp1840
(dp1841
g74
(dp1842
sg83
g1827
sg76
(lp1843
g69
(g70
g71
NtRp1844
(dp1845
g74
(dp1846
g82
I5
ssg83
g1840
sg76
(lp1847
S'create_book_shelf'
p1848
asbasbasbag69
(g85
g71
NtRp1849
(dp1850
g74
(dp1851
sg83
g79
sg76
(lp1852
g69
(g90
g71
NtRp1853
(dp1854
g74
(dp1855
g94
g95
ssg83
g1849
sg76
(lp1856
S'get_vars'
p1857
asbag69
(g90
g71
NtRp1858
(dp1859
g74
(dp1860
g101
g102
ssg83
g1849
sg76
(lp1861
S':'
asbag69
(g90
g71
NtRp1862
(dp1863
g74
(dp1864
sg83
g1849
sg76
(lp1865
g69
(g70
g71
NtRp1866
(dp1867
g74
(dp1868
g82
I5
ssg83
g1862
sg76
(lp1869
g69
(g78
g71
NtRp1870
(dp1871
g74
(dp1872
g82
I4
ssg83
Nsg76
(lp1873
sbasbasbasbag69
(g85
g71
NtRp1874
(dp1875
g74
(dp1876
sg83
g79
sg76
(lp1877
g69
(g90
g71
NtRp1878
(dp1879
g74
(dp1880
g94
g95
ssg83
g1874
sg76
(lp1881
S'global_settings'
p1882
asbag69
(g90
g71
NtRp1883
(dp1884
g74
(dp1885
g101
g102
ssg83
g1874
sg76
(lp1886
S':'
asbag69
(g90
g71
NtRp1887
(dp1888
g74
(dp1889
sg83
g1874
sg76
(lp1890
g69
(g70
g71
NtRp1891
(dp1892
g74
(dp1893
g82
I5
ssg83
g1887
sg76
(lp1894
g69
(g78
g71
NtRp1895
(dp1896
g74
(dp1897
g82
I4
ssg83
Nsg76
(lp1898
g69
(g85
g71
NtRp1899
(dp1900
g74
(dp1901
sg83
g1895
sg76
(lp1902
g69
(g90
g71
NtRp1903
(dp1904
g74
(dp1905
g94
g95
ssg83
g1899
sg76
(lp1906
g846
asbag69
(g90
g71
NtRp1907
(dp1908
g74
(dp1909
g101
g102
ssg83
g1899
sg76
(lp1910
S':'
asbag69
(g90
g71
NtRp1911
(dp1912
g74
(dp1913
sg83
g1899
sg76
(lp1914
g69
(g70
g71
NtRp1915
(dp1916
g74
(dp1917
g82
I4
ssg83
g1911
sg76
(lp1918
S"set(['/Users/ianaboneva/Downloads/web2py/applications/welcome/', '/Users/ianaboneva/Downloads/web2py/applications/Book_Shelf/', '/Users/ianaboneva/Downloads/web2py/applications/admin/'])"
p1919
asbasbasbag69
(g85
g71
NtRp1920
(dp1921
g74
(dp1922
sg83
g1895
sg76
(lp1923
g69
(g90
g71
NtRp1924
(dp1925
g74
(dp1926
g94
g95
ssg83
g1920
sg76
(lp1927
g868
asbag69
(g90
g71
NtRp1928
(dp1929
g74
(dp1930
g101
g102
ssg83
g1920
sg76
(lp1931
S':'
asbag69
(g90
g71
NtRp1932
(dp1933
g74
(dp1934
sg83
g1920
sg76
(lp1935
g69
(g70
g71
NtRp1936
(dp1937
g74
(dp1938
g82
I4
ssg83
g1932
sg76
(lp1939
g881
asbasbasbag69
(g85
g71
NtRp1940
(dp1941
g74
(dp1942
sg83
g1895
sg76
(lp1943
g69
(g90
g71
NtRp1944
(dp1945
g74
(dp1946
g94
g95
ssg83
g1940
sg76
(lp1947
g890
asbag69
(g90
g71
NtRp1948
(dp1949
g74
(dp1950
g101
g102
ssg83
g1940
sg76
(lp1951
S':'
asbag69
(g90
g71
NtRp1952
(dp1953
g74
(dp1954
sg83
g1940
sg76
(lp1955
g69
(g70
g71
NtRp1956
(dp1957
g74
(dp1958
g82
I4
ssg83
g1952
sg76
(lp1959
g69
(g78
g71
NtRp1960
(dp1961
g74
(dp1962
g82
I3
ssg83
Nsg76
(lp1963
sbasbasbasbag69
(g85
g71
NtRp1964
(dp1965
g74
(dp1966
sg83
g1895
sg76
(lp1967
g69
(g90
g71
NtRp1968
(dp1969
g74
(dp1970
g94
g95
ssg83
g1964
sg76
(lp1971
g915
asbag69
(g90
g71
NtRp1972
(dp1973
g74
(dp1974
g101
g102
ssg83
g1964
sg76
(lp1975
S':'
asbag69
(g90
g71
NtRp1976
(dp1977
g74
(dp1978
sg83
g1964
sg76
(lp1979
g69
(g70
g71
NtRp1980
(dp1981
g74
(dp1982
g82
I4
ssg83
g1976
sg76
(lp1983
S"<Values at 0x102cbec68: {'verbose': False, 'ip': '127.0.0.1', 'shutdown_timeout': 5, 'taskbar': False, 'nocron': False, 'pid_filename': 'httpserver.pid', 'maxthreads': None, 'softcron': False, 'server_name': 'Iana-Bonevas-MacBook-Pro.local', 'bpython': False, 'nogui': False, 'port': 8000, 'extcron': False, 'debuglevel': 30, 'test': None, 'folder': '/Users/ianaboneva/Downloads/web2py', 'config': '', 'import_models': False, 'winservice': '', 'shell': None, 'run': '', 'log_filename': 'httpserver.log', 'args': [''], 'socket_timeout': 5, 'ssl_ca_certificate': None, 'scheduler': None, 'profiler_filename': None, 'ssl_private_key': '', 'password': '<ask>', 'request_queue_size': 5, 'ssl_certificate': '', 'cronjob': False, 'numthreads': None, 'quiet': False, 'interfaces': None, 'minthreads': None, 'timeout': 10, 'plain': False, 'nobanner': False}>"
p1984
asbasbasbag69
(g85
g71
NtRp1985
(dp1986
g74
(dp1987
sg83
g1895
sg76
(lp1988
g69
(g90
g71
NtRp1989
(dp1990
g74
(dp1991
g94
g95
ssg83
g1985
sg76
(lp1992
g937
asbag69
(g90
g71
NtRp1993
(dp1994
g74
(dp1995
g101
g102
ssg83
g1985
sg76
(lp1996
S':'
asbag69
(g90
g71
NtRp1997
(dp1998
g74
(dp1999
sg83
g1985
sg76
(lp2000
g69
(g70
g71
NtRp2001
(dp2002
g74
(dp2003
g82
I4
ssg83
g1997
sg76
(lp2004
S'set([])'
p2005
asbasbasbag69
(g85
g71
NtRp2006
(dp2007
g74
(dp2008
sg83
g1895
sg76
(lp2009
g69
(g90
g71
NtRp2010
(dp2011
g74
(dp2012
g94
g95
ssg83
g2006
sg76
(lp2013
g959
asbag69
(g90
g71
NtRp2014
(dp2015
g74
(dp2016
g101
g102
ssg83
g2006
sg76
(lp2017
S':'
asbag69
(g90
g71
NtRp2018
(dp2019
g74
(dp2020
sg83
g2006
sg76
(lp2021
g69
(g70
g71
NtRp2022
(dp2023
g74
(dp2024
g82
I4
ssg83
g2018
sg76
(lp2025
g112
asbasbasbag69
(g85
g71
NtRp2026
(dp2027
g74
(dp2028
sg83
g1895
sg76
(lp2029
g69
(g90
g71
NtRp2030
(dp2031
g74
(dp2032
g94
g95
ssg83
g2026
sg76
(lp2033
g980
asbag69
(g90
g71
NtRp2034
(dp2035
g74
(dp2036
g101
g102
ssg83
g2026
sg76
(lp2037
S':'
asbag69
(g90
g71
NtRp2038
(dp2039
g74
(dp2040
sg83
g2026
sg76
(lp2041
g69
(g70
g71
NtRp2042
(dp2043
g74
(dp2044
g82
I4
ssg83
g2038
sg76
(lp2045
g993
asbasbasbag69
(g85
g71
NtRp2046
(dp2047
g74
(dp2048
sg83
g1895
sg76
(lp2049
g69
(g90
g71
NtRp2050
(dp2051
g74
(dp2052
g94
g95
ssg83
g2046
sg76
(lp2053
g1200
asbag69
(g90
g71
NtRp2054
(dp2055
g74
(dp2056
g101
g102
ssg83
g2046
sg76
(lp2057
S':'
asbag69
(g90
g71
NtRp2058
(dp2059
g74
(dp2060
sg83
g2046
sg76
(lp2061
g69
(g70
g71
NtRp2062
(dp2063
g74
(dp2064
g82
I4
ssg83
g2058
sg76
(lp2065
g112
asbasbasbag69
(g85
g71
NtRp2066
(dp2067
g74
(dp2068
sg83
g1895
sg76
(lp2069
g69
(g90
g71
NtRp2070
(dp2071
g74
(dp2072
g94
g95
ssg83
g2066
sg76
(lp2073
g1221
asbag69
(g90
g71
NtRp2074
(dp2075
g74
(dp2076
g101
g102
ssg83
g2066
sg76
(lp2077
S':'
asbag69
(g90
g71
NtRp2078
(dp2079
g74
(dp2080
sg83
g2066
sg76
(lp2081
g69
(g70
g71
NtRp2082
(dp2083
g74
(dp2084
g82
I4
ssg83
g2078
sg76
(lp2085
g112
asbasbasbag69
(g85
g71
NtRp2086
(dp2087
g74
(dp2088
sg83
g1895
sg76
(lp2089
g69
(g90
g71
NtRp2090
(dp2091
g74
(dp2092
g94
g95
ssg83
g2086
sg76
(lp2093
g1459
asbag69
(g90
g71
NtRp2094
(dp2095
g74
(dp2096
g101
g102
ssg83
g2086
sg76
(lp2097
S':'
asbag69
(g90
g71
NtRp2098
(dp2099
g74
(dp2100
sg83
g2086
sg76
(lp2101
g69
(g70
g71
NtRp2102
(dp2103
g74
(dp2104
g82
I4
ssg83
g2098
sg76
(lp2105
g1472
asbasbasbag69
(g85
g71
NtRp2106
(dp2107
g74
(dp2108
sg83
g1895
sg76
(lp2109
g69
(g90
g71
NtRp2110
(dp2111
g74
(dp2112
g94
g95
ssg83
g2106
sg76
(lp2113
g1502
asbag69
(g90
g71
NtRp2114
(dp2115
g74
(dp2116
g101
g102
ssg83
g2106
sg76
(lp2117
S':'
asbag69
(g90
g71
NtRp2118
(dp2119
g74
(dp2120
sg83
g2106
sg76
(lp2121
g69
(g70
g71
NtRp2122
(dp2123
g74
(dp2124
g82
I4
ssg83
g2118
sg76
(lp2125
g69
(g78
g71
NtRp2126
(dp2127
g74
(dp2128
g82
I3
ssg83
Nsg76
(lp2129
g69
(g85
g71
NtRp2130
(dp2131
g74
(dp2132
sg83
g2126
sg76
(lp2133
g69
(g90
g71
NtRp2134
(dp2135
g74
(dp2136
sg83
g2130
sg76
(lp2137
g69
(g70
g71
NtRp2138
(dp2139
g74
(dp2140
g82
I3
ssg83
g2134
sg76
(lp2141
S'1'
asbasbasbag69
(g85
g71
NtRp2142
(dp2143
g74
(dp2144
sg83
g2126
sg76
(lp2145
g69
(g90
g71
NtRp2146
(dp2147
g74
(dp2148
sg83
g2142
sg76
(lp2149
g69
(g70
g71
NtRp2150
(dp2151
g74
(dp2152
g82
I3
ssg83
g2146
sg76
(lp2153
S'99'
p2154
asbasbasbag69
(g85
g71
NtRp2155
(dp2156
g74
(dp2157
sg83
g2126
sg76
(lp2158
g69
(g90
g71
NtRp2159
(dp2160
g74
(dp2161
sg83
g2155
sg76
(lp2162
g69
(g70
g71
NtRp2163
(dp2164
g74
(dp2165
g82
I3
ssg83
g2159
sg76
(lp2166
S'7'
asbasbasbag69
(g85
g71
NtRp2167
(dp2168
g74
(dp2169
sg83
g2126
sg76
(lp2170
g69
(g90
g71
NtRp2171
(dp2172
g74
(dp2173
sg83
g2167
sg76
(lp2174
g69
(g70
g71
NtRp2175
(dp2176
g74
(dp2177
g82
I3
ssg83
g2171
sg76
(lp2178
S'datetime.datetime(2012, 3, 4, 22, 12, 8)'
p2179
asbasbasbag69
(g85
g71
NtRp2180
(dp2181
g74
(dp2182
sg83
g2126
sg76
(lp2183
g69
(g90
g71
NtRp2184
(dp2185
g74
(dp2186
sg83
g2180
sg76
(lp2187
g69
(g70
g71
NtRp2188
(dp2189
g74
(dp2190
g82
I3
ssg83
g2184
sg76
(lp2191
g1581
asbasbasbasbasbasbasbasbasbasbasbag69
(g85
g71
NtRp2192
(dp2193
g74
(dp2194
sg83
g79
sg76
(lp2195
g69
(g90
g71
NtRp2196
(dp2197
g74
(dp2198
g94
g95
ssg83
g2192
sg76
(lp2199
S'is_https'
p2200
asbag69
(g90
g71
NtRp2201
(dp2202
g74
(dp2203
g101
g102
ssg83
g2192
sg76
(lp2204
S':'
asbag69
(g90
g71
NtRp2205
(dp2206
g74
(dp2207
sg83
g2192
sg76
(lp2208
g69
(g70
g71
NtRp2209
(dp2210
g74
(dp2211
g82
I5
ssg83
g2205
sg76
(lp2212
g112
asbasbasbag69
(g85
g71
NtRp2213
(dp2214
g74
(dp2215
sg83
g79
sg76
(lp2216
g69
(g90
g71
NtRp2217
(dp2218
g74
(dp2219
g94
g95
ssg83
g2213
sg76
(lp2220
S'is_local'
p2221
asbag69
(g90
g71
NtRp2222
(dp2223
g74
(dp2224
g101
g102
ssg83
g2213
sg76
(lp2225
S':'
asbag69
(g90
g71
NtRp2226
(dp2227
g74
(dp2228
sg83
g2213
sg76
(lp2229
g69
(g70
g71
NtRp2230
(dp2231
g74
(dp2232
g82
I5
ssg83
g2226
sg76
(lp2233
g1690
asbasbasbag69
(g85
g71
NtRp2234
(dp2235
g74
(dp2236
sg83
g79
sg76
(lp2237
g69
(g90
g71
NtRp2238
(dp2239
g74
(dp2240
g94
g95
ssg83
g2234
sg76
(lp2241
S'is_restful'
p2242
asbag69
(g90
g71
NtRp2243
(dp2244
g74
(dp2245
g101
g102
ssg83
g2234
sg76
(lp2246
S':'
asbag69
(g90
g71
NtRp2247
(dp2248
g74
(dp2249
sg83
g2234
sg76
(lp2250
g69
(g70
g71
NtRp2251
(dp2252
g74
(dp2253
g82
I5
ssg83
g2247
sg76
(lp2254
g112
asbasbasbag69
(g85
g71
NtRp2255
(dp2256
g74
(dp2257
sg83
g79
sg76
(lp2258
g69
(g90
g71
NtRp2259
(dp2260
g74
(dp2261
g94
g95
ssg83
g2255
sg76
(lp2262
S'now'
p2263
asbag69
(g90
g71
NtRp2264
(dp2265
g74
(dp2266
g101
g102
ssg83
g2255
sg76
(lp2267
S':'
asbag69
(g90
g71
NtRp2268
(dp2269
g74
(dp2270
sg83
g2255
sg76
(lp2271
g69
(g70
g71
NtRp2272
(dp2273
g74
(dp2274
g82
I5
ssg83
g2268
sg76
(lp2275
S'datetime.datetime(2012, 5, 21, 19, 25, 49, 257680)'
p2276
asbasbasbag69
(g85
g71
NtRp2277
(dp2278
g74
(dp2279
sg83
g79
sg76
(lp2280
g69
(g90
g71
NtRp2281
(dp2282
g74
(dp2283
g94
g95
ssg83
g2277
sg76
(lp2284
S'post_vars'
p2285
asbag69
(g90
g71
NtRp2286
(dp2287
g74
(dp2288
g101
g102
ssg83
g2277
sg76
(lp2289
S':'
asbag69
(g90
g71
NtRp2290
(dp2291
g74
(dp2292
sg83
g2277
sg76
(lp2293
g69
(g70
g71
NtRp2294
(dp2295
g74
(dp2296
g82
I5
ssg83
g2290
sg76
(lp2297
g69
(g78
g71
NtRp2298
(dp2299
g74
(dp2300
g82
I4
ssg83
Nsg76
(lp2301
sbasbasbasbag69
(g85
g71
NtRp2302
(dp2303
g74
(dp2304
sg83
g79
sg76
(lp2305
g69
(g90
g71
NtRp2306
(dp2307
g74
(dp2308
g94
g95
ssg83
g2302
sg76
(lp2309
S'url'
p2310
asbag69
(g90
g71
NtRp2311
(dp2312
g74
(dp2313
g101
g102
ssg83
g2302
sg76
(lp2314
S':'
asbag69
(g90
g71
NtRp2315
(dp2316
g74
(dp2317
sg83
g2302
sg76
(lp2318
g69
(g70
g71
NtRp2319
(dp2320
g74
(dp2321
g82
I5
ssg83
g2315
sg76
(lp2322
S'/Book_Shelf/default/create_book_shelf'
p2323
asbasbasbag69
(g85
g71
NtRp2324
(dp2325
g74
(dp2326
sg83
g79
sg76
(lp2327
g69
(g90
g71
NtRp2328
(dp2329
g74
(dp2330
g94
g95
ssg83
g2324
sg76
(lp2331
S'utcnow'
p2332
asbag69
(g90
g71
NtRp2333
(dp2334
g74
(dp2335
g101
g102
ssg83
g2324
sg76
(lp2336
S':'
asbag69
(g90
g71
NtRp2337
(dp2338
g74
(dp2339
sg83
g2324
sg76
(lp2340
g69
(g70
g71
NtRp2341
(dp2342
g74
(dp2343
g82
I5
ssg83
g2337
sg76
(lp2344
S'datetime.datetime(2012, 5, 22, 0, 25, 49, 257693)'
p2345
asbasbasbag69
(g85
g71
NtRp2346
(dp2347
g74
(dp2348
sg83
g79
sg76
(lp2349
g69
(g90
g71
NtRp2350
(dp2351
g74
(dp2352
g94
g95
ssg83
g2346
sg76
(lp2353
S'uuid'
p2354
asbag69
(g90
g71
NtRp2355
(dp2356
g74
(dp2357
g101
g102
ssg83
g2346
sg76
(lp2358
S':'
asbag69
(g90
g71
NtRp2359
(dp2360
g74
(dp2361
sg83
g2346
sg76
(lp2362
g69
(g70
g71
NtRp2363
(dp2364
g74
(dp2365
g82
I5
ssg83
g2359
sg76
(lp2366
S'Book_Shelf/127.0.0.1.2012-05-21.19-25-49.4fff359f-16de-4f4a-adf2-608945f5fc8c'
p2367
asbasbasbag69
(g85
g71
NtRp2368
(dp2369
g74
(dp2370
sg83
g79
sg76
(lp2371
g69
(g90
g71
NtRp2372
(dp2373
g74
(dp2374
g94
g95
ssg83
g2368
sg76
(lp2375
S'vars'
p2376
asbag69
(g90
g71
NtRp2377
(dp2378
g74
(dp2379
g101
g102
ssg83
g2368
sg76
(lp2380
S':'
asbag69
(g90
g71
NtRp2381
(dp2382
g74
(dp2383
sg83
g2368
sg76
(lp2384
g69
(g70
g71
NtRp2385
(dp2386
g74
(dp2387
g82
I5
ssg83
g2381
sg76
(lp2388
g69
(g78
g71
NtRp2389
(dp2390
g74
(dp2391
g82
I4
ssg83
Nsg76
(lp2392
sbasbasbasbag69
(g85
g71
NtRp2393
(dp2394
g74
(dp2395
sg83
g79
sg76
(lp2396
g69
(g90
g71
NtRp2397
(dp2398
g74
(dp2399
g94
g95
ssg83
g2393
sg76
(lp2400
S'wsgi'
p2401
asbag69
(g90
g71
NtRp2402
(dp2403
g74
(dp2404
g101
g102
ssg83
g2393
sg76
(lp2405
S':'
asbag69
(g90
g71
NtRp2406
(dp2407
g74
(dp2408
sg83
g2393
sg76
(lp2409
g69
(g70
g71
NtRp2410
(dp2411
g74
(dp2412
g82
I5
ssg83
g2406
sg76
(lp2413
g69
(g78
g71
NtRp2414
(dp2415
g74
(dp2416
g82
I4
ssg83
Nsg76
(lp2417
g69
(g85
g71
NtRp2418
(dp2419
g74
(dp2420
sg83
g2414
sg76
(lp2421
g69
(g90
g71
NtRp2422
(dp2423
g74
(dp2424
g94
g95
ssg83
g2418
sg76
(lp2425
S'environ'
p2426
asbag69
(g90
g71
NtRp2427
(dp2428
g74
(dp2429
g101
g102
ssg83
g2418
sg76
(lp2430
S':'
asbag69
(g90
g71
NtRp2431
(dp2432
g74
(dp2433
sg83
g2418
sg76
(lp2434
g69
(g70
g71
NtRp2435
(dp2436
g74
(dp2437
g82
I4
ssg83
g2431
sg76
(lp2438
g69
(g78
g71
NtRp2439
(dp2440
g74
(dp2441
g82
I3
ssg83
Nsg76
(lp2442
g69
(g85
g71
NtRp2443
(dp2444
g74
(dp2445
sg83
g2439
sg76
(lp2446
g69
(g90
g71
NtRp2447
(dp2448
g74
(dp2449
g94
g95
ssg83
g2443
sg76
(lp2450
S'HTTP_ACCEPT'
p2451
asbag69
(g90
g71
NtRp2452
(dp2453
g74
(dp2454
g101
g102
ssg83
g2443
sg76
(lp2455
S':'
asbag69
(g90
g71
NtRp2456
(dp2457
g74
(dp2458
sg83
g2443
sg76
(lp2459
g69
(g70
g71
NtRp2460
(dp2461
g74
(dp2462
g82
I3
ssg83
g2456
sg76
(lp2463
g1015
asbasbasbag69
(g85
g71
NtRp2464
(dp2465
g74
(dp2466
sg83
g2439
sg76
(lp2467
g69
(g90
g71
NtRp2468
(dp2469
g74
(dp2470
g94
g95
ssg83
g2464
sg76
(lp2471
S'HTTP_ACCEPT_CHARSET'
p2472
asbag69
(g90
g71
NtRp2473
(dp2474
g74
(dp2475
g101
g102
ssg83
g2464
sg76
(lp2476
S':'
asbag69
(g90
g71
NtRp2477
(dp2478
g74
(dp2479
sg83
g2464
sg76
(lp2480
g69
(g70
g71
NtRp2481
(dp2482
g74
(dp2483
g82
I3
ssg83
g2477
sg76
(lp2484
g1037
asbasbasbag69
(g85
g71
NtRp2485
(dp2486
g74
(dp2487
sg83
g2439
sg76
(lp2488
g69
(g90
g71
NtRp2489
(dp2490
g74
(dp2491
g94
g95
ssg83
g2485
sg76
(lp2492
S'HTTP_ACCEPT_ENCODING'
p2493
asbag69
(g90
g71
NtRp2494
(dp2495
g74
(dp2496
g101
g102
ssg83
g2485
sg76
(lp2497
S':'
asbag69
(g90
g71
NtRp2498
(dp2499
g74
(dp2500
sg83
g2485
sg76
(lp2501
g69
(g70
g71
NtRp2502
(dp2503
g74
(dp2504
g82
I3
ssg83
g2498
sg76
(lp2505
g1059
asbasbasbag69
(g85
g71
NtRp2506
(dp2507
g74
(dp2508
sg83
g2439
sg76
(lp2509
g69
(g90
g71
NtRp2510
(dp2511
g74
(dp2512
g94
g95
ssg83
g2506
sg76
(lp2513
S'HTTP_ACCEPT_LANGUAGE'
p2514
asbag69
(g90
g71
NtRp2515
(dp2516
g74
(dp2517
g101
g102
ssg83
g2506
sg76
(lp2518
S':'
asbag69
(g90
g71
NtRp2519
(dp2520
g74
(dp2521
sg83
g2506
sg76
(lp2522
g69
(g70
g71
NtRp2523
(dp2524
g74
(dp2525
g82
I3
ssg83
g2519
sg76
(lp2526
g1081
asbasbasbag69
(g85
g71
NtRp2527
(dp2528
g74
(dp2529
sg83
g2439
sg76
(lp2530
g69
(g90
g71
NtRp2531
(dp2532
g74
(dp2533
g94
g95
ssg83
g2527
sg76
(lp2534
S'HTTP_CACHE_CONTROL'
p2535
asbag69
(g90
g71
NtRp2536
(dp2537
g74
(dp2538
g101
g102
ssg83
g2527
sg76
(lp2539
S':'
asbag69
(g90
g71
NtRp2540
(dp2541
g74
(dp2542
sg83
g2527
sg76
(lp2543
g69
(g70
g71
NtRp2544
(dp2545
g74
(dp2546
g82
I3
ssg83
g2540
sg76
(lp2547
g1103
asbasbasbag69
(g85
g71
NtRp2548
(dp2549
g74
(dp2550
sg83
g2439
sg76
(lp2551
g69
(g90
g71
NtRp2552
(dp2553
g74
(dp2554
g94
g95
ssg83
g2548
sg76
(lp2555
S'HTTP_CONNECTION'
p2556
asbag69
(g90
g71
NtRp2557
(dp2558
g74
(dp2559
g101
g102
ssg83
g2548
sg76
(lp2560
S':'
asbag69
(g90
g71
NtRp2561
(dp2562
g74
(dp2563
sg83
g2548
sg76
(lp2564
g69
(g70
g71
NtRp2565
(dp2566
g74
(dp2567
g82
I3
ssg83
g2561
sg76
(lp2568
g1125
asbasbasbag69
(g85
g71
NtRp2569
(dp2570
g74
(dp2571
sg83
g2439
sg76
(lp2572
g69
(g90
g71
NtRp2573
(dp2574
g74
(dp2575
g94
g95
ssg83
g2569
sg76
(lp2576
S'HTTP_COOKIE'
p2577
asbag69
(g90
g71
NtRp2578
(dp2579
g74
(dp2580
g101
g102
ssg83
g2569
sg76
(lp2581
S':'
asbag69
(g90
g71
NtRp2582
(dp2583
g74
(dp2584
sg83
g2569
sg76
(lp2585
g69
(g70
g71
NtRp2586
(dp2587
g74
(dp2588
g82
I3
ssg83
g2582
sg76
(lp2589
g1147
asbasbasbag69
(g85
g71
NtRp2590
(dp2591
g74
(dp2592
sg83
g2439
sg76
(lp2593
g69
(g90
g71
NtRp2594
(dp2595
g74
(dp2596
g94
g95
ssg83
g2590
sg76
(lp2597
S'HTTP_HOST'
p2598
asbag69
(g90
g71
NtRp2599
(dp2600
g74
(dp2601
g101
g102
ssg83
g2590
sg76
(lp2602
S':'
asbag69
(g90
g71
NtRp2603
(dp2604
g74
(dp2605
sg83
g2590
sg76
(lp2606
g69
(g70
g71
NtRp2607
(dp2608
g74
(dp2609
g82
I3
ssg83
g2603
sg76
(lp2610
g1169
asbasbasbag69
(g85
g71
NtRp2611
(dp2612
g74
(dp2613
sg83
g2439
sg76
(lp2614
g69
(g90
g71
NtRp2615
(dp2616
g74
(dp2617
g94
g95
ssg83
g2611
sg76
(lp2618
S'HTTP_USER_AGENT'
p2619
asbag69
(g90
g71
NtRp2620
(dp2621
g74
(dp2622
g101
g102
ssg83
g2611
sg76
(lp2623
S':'
asbag69
(g90
g71
NtRp2624
(dp2625
g74
(dp2626
sg83
g2611
sg76
(lp2627
g69
(g70
g71
NtRp2628
(dp2629
g74
(dp2630
g82
I3
ssg83
g2624
sg76
(lp2631
g1191
asbasbasbag69
(g85
g71
NtRp2632
(dp2633
g74
(dp2634
sg83
g2439
sg76
(lp2635
g69
(g90
g71
NtRp2636
(dp2637
g74
(dp2638
g94
g95
ssg83
g2632
sg76
(lp2639
S'PATH_INFO'
p2640
asbag69
(g90
g71
NtRp2641
(dp2642
g74
(dp2643
g101
g102
ssg83
g2632
sg76
(lp2644
S':'
asbag69
(g90
g71
NtRp2645
(dp2646
g74
(dp2647
sg83
g2632
sg76
(lp2648
g69
(g70
g71
NtRp2649
(dp2650
g74
(dp2651
g82
I3
ssg83
g2645
sg76
(lp2652
g1255
asbasbasbag69
(g85
g71
NtRp2653
(dp2654
g74
(dp2655
sg83
g2439
sg76
(lp2656
g69
(g90
g71
NtRp2657
(dp2658
g74
(dp2659
g94
g95
ssg83
g2653
sg76
(lp2660
S'QUERY_STRING'
p2661
asbag69
(g90
g71
NtRp2662
(dp2663
g74
(dp2664
g101
g102
ssg83
g2653
sg76
(lp2665
S':'
asbag69
(g90
g71
NtRp2666
(dp2667
g74
(dp2668
sg83
g2653
sg76
(lp2669
g69
(g70
g71
NtRp2670
(dp2671
g74
(dp2672
g82
I3
ssg83
g2666
sg76
(lp2673
S''
asbasbasbag69
(g85
g71
NtRp2674
(dp2675
g74
(dp2676
sg83
g2439
sg76
(lp2677
g69
(g90
g71
NtRp2678
(dp2679
g74
(dp2680
g94
g95
ssg83
g2674
sg76
(lp2681
S'REMOTE_ADDR'
p2682
asbag69
(g90
g71
NtRp2683
(dp2684
g74
(dp2685
g101
g102
ssg83
g2674
sg76
(lp2686
S':'
asbag69
(g90
g71
NtRp2687
(dp2688
g74
(dp2689
sg83
g2674
sg76
(lp2690
g69
(g70
g71
NtRp2691
(dp2692
g74
(dp2693
g82
I3
ssg83
g2687
sg76
(lp2694
g202
asbasbasbag69
(g85
g71
NtRp2695
(dp2696
g74
(dp2697
sg83
g2439
sg76
(lp2698
g69
(g90
g71
NtRp2699
(dp2700
g74
(dp2701
g94
g95
ssg83
g2695
sg76
(lp2702
S'REMOTE_PORT'
p2703
asbag69
(g90
g71
NtRp2704
(dp2705
g74
(dp2706
g101
g102
ssg83
g2695
sg76
(lp2707
S':'
asbag69
(g90
g71
NtRp2708
(dp2709
g74
(dp2710
sg83
g2695
sg76
(lp2711
g69
(g70
g71
NtRp2712
(dp2713
g74
(dp2714
g82
I3
ssg83
g2708
sg76
(lp2715
g1319
asbasbasbag69
(g85
g71
NtRp2716
(dp2717
g74
(dp2718
sg83
g2439
sg76
(lp2719
g69
(g90
g71
NtRp2720
(dp2721
g74
(dp2722
g94
g95
ssg83
g2716
sg76
(lp2723
S'REQUEST_METHOD'
p2724
asbag69
(g90
g71
NtRp2725
(dp2726
g74
(dp2727
g101
g102
ssg83
g2716
sg76
(lp2728
S':'
asbag69
(g90
g71
NtRp2729
(dp2730
g74
(dp2731
sg83
g2716
sg76
(lp2732
g69
(g70
g71
NtRp2733
(dp2734
g74
(dp2735
g82
I3
ssg83
g2729
sg76
(lp2736
g1341
asbasbasbag69
(g85
g71
NtRp2737
(dp2738
g74
(dp2739
sg83
g2439
sg76
(lp2740
g69
(g90
g71
NtRp2741
(dp2742
g74
(dp2743
g94
g95
ssg83
g2737
sg76
(lp2744
S'SCRIPT_NAME'
p2745
asbag69
(g90
g71
NtRp2746
(dp2747
g74
(dp2748
g101
g102
ssg83
g2737
sg76
(lp2749
S':'
asbag69
(g90
g71
NtRp2750
(dp2751
g74
(dp2752
sg83
g2737
sg76
(lp2753
g69
(g70
g71
NtRp2754
(dp2755
g74
(dp2756
g82
I3
ssg83
g2750
sg76
(lp2757
S''
asbasbasbag69
(g85
g71
NtRp2758
(dp2759
g74
(dp2760
sg83
g2439
sg76
(lp2761
g69
(g90
g71
NtRp2762
(dp2763
g74
(dp2764
g94
g95
ssg83
g2758
sg76
(lp2765
S'SERVER_NAME'
p2766
asbag69
(g90
g71
NtRp2767
(dp2768
g74
(dp2769
g101
g102
ssg83
g2758
sg76
(lp2770
S':'
asbag69
(g90
g71
NtRp2771
(dp2772
g74
(dp2773
sg83
g2758
sg76
(lp2774
g69
(g70
g71
NtRp2775
(dp2776
g74
(dp2777
g82
I3
ssg83
g2771
sg76
(lp2778
g1384
asbasbasbag69
(g85
g71
NtRp2779
(dp2780
g74
(dp2781
sg83
g2439
sg76
(lp2782
g69
(g90
g71
NtRp2783
(dp2784
g74
(dp2785
g94
g95
ssg83
g2779
sg76
(lp2786
S'SERVER_PORT'
p2787
asbag69
(g90
g71
NtRp2788
(dp2789
g74
(dp2790
g101
g102
ssg83
g2779
sg76
(lp2791
S':'
asbag69
(g90
g71
NtRp2792
(dp2793
g74
(dp2794
sg83
g2779
sg76
(lp2795
g69
(g70
g71
NtRp2796
(dp2797
g74
(dp2798
g82
I3
ssg83
g2792
sg76
(lp2799
g1406
asbasbasbag69
(g85
g71
NtRp2800
(dp2801
g74
(dp2802
sg83
g2439
sg76
(lp2803
g69
(g90
g71
NtRp2804
(dp2805
g74
(dp2806
g94
g95
ssg83
g2800
sg76
(lp2807
S'SERVER_PROTOCOL'
p2808
asbag69
(g90
g71
NtRp2809
(dp2810
g74
(dp2811
g101
g102
ssg83
g2800
sg76
(lp2812
S':'
asbag69
(g90
g71
NtRp2813
(dp2814
g74
(dp2815
sg83
g2800
sg76
(lp2816
g69
(g70
g71
NtRp2817
(dp2818
g74
(dp2819
g82
I3
ssg83
g2813
sg76
(lp2820
g1428
asbasbasbag69
(g85
g71
NtRp2821
(dp2822
g74
(dp2823
sg83
g2439
sg76
(lp2824
g69
(g90
g71
NtRp2825
(dp2826
g74
(dp2827
g94
g95
ssg83
g2821
sg76
(lp2828
S'SERVER_SOFTWARE'
p2829
asbag69
(g90
g71
NtRp2830
(dp2831
g74
(dp2832
g101
g102
ssg83
g2821
sg76
(lp2833
S':'
asbag69
(g90
g71
NtRp2834
(dp2835
g74
(dp2836
sg83
g2821
sg76
(lp2837
g69
(g70
g71
NtRp2838
(dp2839
g74
(dp2840
g82
I3
ssg83
g2834
sg76
(lp2841
g1450
asbasbasbag69
(g85
g71
NtRp2842
(dp2843
g74
(dp2844
sg83
g2439
sg76
(lp2845
g69
(g90
g71
NtRp2846
(dp2847
g74
(dp2848
g94
g95
ssg83
g2842
sg76
(lp2849
S'wsgi.errors'
p2850
asbag69
(g90
g71
NtRp2851
(dp2852
g74
(dp2853
g101
g102
ssg83
g2842
sg76
(lp2854
S':'
asbag69
(g90
g71
NtRp2855
(dp2856
g74
(dp2857
sg83
g2842
sg76
(lp2858
g69
(g70
g71
NtRp2859
(dp2860
g74
(dp2861
g82
I3
ssg83
g2855
sg76
(lp2862
S"<open file '<stderr>', mode 'w' at 0x102156270>"
p2863
asbasbasbag69
(g85
g71
NtRp2864
(dp2865
g74
(dp2866
sg83
g2439
sg76
(lp2867
g69
(g90
g71
NtRp2868
(dp2869
g74
(dp2870
g94
g95
ssg83
g2864
sg76
(lp2871
S'wsgi.file_wrapper'
p2872
asbag69
(g90
g71
NtRp2873
(dp2874
g74
(dp2875
g101
g102
ssg83
g2864
sg76
(lp2876
S':'
asbag69
(g90
g71
NtRp2877
(dp2878
g74
(dp2879
sg83
g2864
sg76
(lp2880
g69
(g70
g71
NtRp2881
(dp2882
g74
(dp2883
g82
I3
ssg83
g2877
sg76
(lp2884
S'<class wsgiref.util.FileWrapper at 0x102bbdc18>'
p2885
asbasbasbag69
(g85
g71
NtRp2886
(dp2887
g74
(dp2888
sg83
g2439
sg76
(lp2889
g69
(g90
g71
NtRp2890
(dp2891
g74
(dp2892
g94
g95
ssg83
g2886
sg76
(lp2893
S'wsgi.input'
p2894
asbag69
(g90
g71
NtRp2895
(dp2896
g74
(dp2897
g101
g102
ssg83
g2886
sg76
(lp2898
S':'
asbag69
(g90
g71
NtRp2899
(dp2900
g74
(dp2901
sg83
g2886
sg76
(lp2902
g69
(g70
g71
NtRp2903
(dp2904
g74
(dp2905
g82
I3
ssg83
g2899
sg76
(lp2906
S'<cStringIO.StringO object at 0x1076d3c70>'
p2907
asbasbasbag69
(g85
g71
NtRp2908
(dp2909
g74
(dp2910
sg83
g2439
sg76
(lp2911
g69
(g90
g71
NtRp2912
(dp2913
g74
(dp2914
g94
g95
ssg83
g2908
sg76
(lp2915
S'wsgi.multiprocess'
p2916
asbag69
(g90
g71
NtRp2917
(dp2918
g74
(dp2919
g101
g102
ssg83
g2908
sg76
(lp2920
S':'
asbag69
(g90
g71
NtRp2921
(dp2922
g74
(dp2923
sg83
g2908
sg76
(lp2924
g69
(g70
g71
NtRp2925
(dp2926
g74
(dp2927
g82
I3
ssg83
g2921
sg76
(lp2928
g112
asbasbasbag69
(g85
g71
NtRp2929
(dp2930
g74
(dp2931
sg83
g2439
sg76
(lp2932
g69
(g90
g71
NtRp2933
(dp2934
g74
(dp2935
g94
g95
ssg83
g2929
sg76
(lp2936
S'wsgi.multithread'
p2937
asbag69
(g90
g71
NtRp2938
(dp2939
g74
(dp2940
g101
g102
ssg83
g2929
sg76
(lp2941
S':'
asbag69
(g90
g71
NtRp2942
(dp2943
g74
(dp2944
sg83
g2929
sg76
(lp2945
g69
(g70
g71
NtRp2946
(dp2947
g74
(dp2948
g82
I3
ssg83
g2942
sg76
(lp2949
g1690
asbasbasbag69
(g85
g71
NtRp2950
(dp2951
g74
(dp2952
sg83
g2439
sg76
(lp2953
g69
(g90
g71
NtRp2954
(dp2955
g74
(dp2956
g94
g95
ssg83
g2950
sg76
(lp2957
S'wsgi.run_once'
p2958
asbag69
(g90
g71
NtRp2959
(dp2960
g74
(dp2961
g101
g102
ssg83
g2950
sg76
(lp2962
S':'
asbag69
(g90
g71
NtRp2963
(dp2964
g74
(dp2965
sg83
g2950
sg76
(lp2966
g69
(g70
g71
NtRp2967
(dp2968
g74
(dp2969
g82
I3
ssg83
g2963
sg76
(lp2970
g112
asbasbasbag69
(g85
g71
NtRp2971
(dp2972
g74
(dp2973
sg83
g2439
sg76
(lp2974
g69
(g90
g71
NtRp2975
(dp2976
g74
(dp2977
g94
g95
ssg83
g2971
sg76
(lp2978
S'wsgi.url_scheme'
p2979
asbag69
(g90
g71
NtRp2980
(dp2981
g74
(dp2982
g101
g102
ssg83
g2971
sg76
(lp2983
S':'
asbag69
(g90
g71
NtRp2984
(dp2985
g74
(dp2986
sg83
g2971
sg76
(lp2987
g69
(g70
g71
NtRp2988
(dp2989
g74
(dp2990
g82
I3
ssg83
g2984
sg76
(lp2991
g1733
asbasbasbag69
(g85
g71
NtRp2992
(dp2993
g74
(dp2994
sg83
g2439
sg76
(lp2995
g69
(g90
g71
NtRp2996
(dp2997
g74
(dp2998
g94
g95
ssg83
g2992
sg76
(lp2999
S'wsgi.version'
p3000
asbag69
(g90
g71
NtRp3001
(dp3002
g74
(dp3003
g101
g102
ssg83
g2992
sg76
(lp3004
S':'
asbag69
(g90
g71
NtRp3005
(dp3006
g74
(dp3007
sg83
g2992
sg76
(lp3008
g69
(g70
g71
NtRp3009
(dp3010
g74
(dp3011
g82
I3
ssg83
g3005
sg76
(lp3012
S'1'
asbasbasbasbasbasbasbasbasbasbasbasbasbsS'frames'
p3013
(lp3014
(dp3015
S'file'
p3016
S'/Users/ianaboneva/Downloads/web2py/gluon/restricted.py'
p3017
sS'dump'
p3018
(dp3019
S'code'
p3020
S"'# -*- coding: utf-8 -*-\\n# this file is released ...sponse._vars=response._caller(create_book_shelf)\\n'"
p3021
sS'layer'
p3022
S"'/Users/ianaboneva/Downloads/web2py/applications/Book_Shelf/controllers/default.py'"
p3023
sS'global compile2'
p3024
S'<function compile2>'
p3025
sS'ccode'
p3026
S'undefined'
p3027
ssS'lnum'
p3028
I204
sS'lines'
p3029
(dp3030
I199
S"    environment['__name__'] = '__restricted__'"
p3031
sI200
S'    try:'
p3032
sI201
S'        if type(code) == types.CodeType:'
p3033
sI202
S'            ccode = code'
p3034
sI203
S'        else:'
p3035
sI204
S'            ccode = compile2(code,layer)'
p3036
sI205
S'        exec ccode in environment'
p3037
sI206
S'    except HTTP:'
p3038
sI207
S'        raise'
p3039
sI208
S'    except RestrictedError:'
p3040
ssS'call'
p3041
S"(code='# -*- coding: utf-8 -*-\\n# this file is released ...sponse._vars=response._caller(create_book_shelf)\\n', environment={'A': <class 'gluon.html.A'>, 'Auth': <class 'gluon.tools.Auth'>, 'B': <class 'gluon.html.B'>, 'BEAUTIFY': <class 'gluon.html.BEAUTIFY'>, 'BODY': <class 'gluon.html.BODY'>, 'BR': <class 'gluon.html.BR'>, 'BUTTON': <class 'gluon.html.BUTTON'>, 'CAT': <class 'gluon.html.CAT'>, 'CENTER': <class 'gluon.html.CENTER'>, 'CLEANUP': <class 'gluon.validators.CLEANUP'>, ...}, layer='/Users/ianaboneva/Downloads/web2py/applications/Book_Shelf/controllers/default.py')"
p3042
sS'func'
p3043
S'restricted'
p3044
sa(dp3045
g3016
S'/Users/ianaboneva/Downloads/web2py/gluon/restricted.py'
p3046
sg3018
(dp3047
S'builtincompile'
p3048
S'<built-in function compile>'
p3049
sS'code'
p3050
S"'# -*- coding: utf-8 -*-\\n# this file is released ...sponse._vars=response._caller(create_book_shelf)\\n'"
p3051
sS'code.rstrip'
p3052
S'<built-in method rstrip of str object>'
p3053
sS').replace'
p3054
g3027
sS'layer'
p3055
S"'/Users/ianaboneva/Downloads/web2py/applications/Book_Shelf/controllers/default.py'"
p3056
ssg3028
I189
sg3029
(dp3057
I192
S'    """'
p3058
sI193
S'    runs code in environment and returns the output. if an exception occurs'
p3059
sI184
S''
sI185
S'def compile2(code,layer):'
p3060
sI186
S'    """'
p3061
sI187
S"    The +'\\n' is necessary else compile fails when code ends in a comment."
p3062
sI188
S'    """'
p3063
sI189
S"    return compile(code.rstrip().replace('\\r\\n','\\n')+'\\n', layer, 'exec')"
p3064
sI190
S''
sI191
S"def restricted(code, environment=None, layer='Unknown'):"
p3065
ssg3041
S"(code='# -*- coding: utf-8 -*-\\n# this file is released ...sponse._vars=response._caller(create_book_shelf)\\n', layer='/Users/ianaboneva/Downloads/web2py/applications/Book_Shelf/controllers/default.py')"
p3066
sg3043
S'compile2'
p3067
sasS'pyver'
p3068
S'Python 2.7.1: /usr/bin/python'
p3069
sS'session'
p3070
g69
(g70
g71
NtRp3071
(dp3072
g74
(dp3073
sg76
(lp3074
g69
(g78
g71
NtRp3075
(dp3076
g74
(dp3077
g82
I5
ssg83
Nsg76
(lp3078
g69
(g85
g71
NtRp3079
(dp3080
g74
(dp3081
sg83
g3075
sg76
(lp3082
g69
(g90
g71
NtRp3083
(dp3084
g74
(dp3085
g94
g95
ssg83
g3079
sg76
(lp3086
S'auth'
p3087
asbag69
(g90
g71
NtRp3088
(dp3089
g74
(dp3090
g101
g102
ssg83
g3079
sg76
(lp3091
S':'
asbag69
(g90
g71
NtRp3092
(dp3093
g74
(dp3094
sg83
g3079
sg76
(lp3095
g69
(g70
g71
NtRp3096
(dp3097
g74
(dp3098
g82
I5
ssg83
g3092
sg76
(lp3099
g69
(g78
g71
NtRp3100
(dp3101
g74
(dp3102
g82
I4
ssg83
Nsg76
(lp3103
g69
(g85
g71
NtRp3104
(dp3105
g74
(dp3106
sg83
g3100
sg76
(lp3107
g69
(g90
g71
NtRp3108
(dp3109
g74
(dp3110
g94
g95
ssg83
g3104
sg76
(lp3111
S'expiration'
p3112
asbag69
(g90
g71
NtRp3113
(dp3114
g74
(dp3115
g101
g102
ssg83
g3104
sg76
(lp3116
S':'
asbag69
(g90
g71
NtRp3117
(dp3118
g74
(dp3119
sg83
g3104
sg76
(lp3120
g69
(g70
g71
NtRp3121
(dp3122
g74
(dp3123
g82
I4
ssg83
g3117
sg76
(lp3124
S'3600'
p3125
asbasbasbag69
(g85
g71
NtRp3126
(dp3127
g74
(dp3128
sg83
g3100
sg76
(lp3129
g69
(g90
g71
NtRp3130
(dp3131
g74
(dp3132
g94
g95
ssg83
g3126
sg76
(lp3133
S'hmac_key'
p3134
asbag69
(g90
g71
NtRp3135
(dp3136
g74
(dp3137
g101
g102
ssg83
g3126
sg76
(lp3138
S':'
asbag69
(g90
g71
NtRp3139
(dp3140
g74
(dp3141
sg83
g3126
sg76
(lp3142
g69
(g70
g71
NtRp3143
(dp3144
g74
(dp3145
g82
I4
ssg83
g3139
sg76
(lp3146
S'25ab3be6-b908-46ad-b000-d0cedd2de181'
p3147
asbasbasbag69
(g85
g71
NtRp3148
(dp3149
g74
(dp3150
sg83
g3100
sg76
(lp3151
g69
(g90
g71
NtRp3152
(dp3153
g74
(dp3154
g94
g95
ssg83
g3148
sg76
(lp3155
S'last_visit'
p3156
asbag69
(g90
g71
NtRp3157
(dp3158
g74
(dp3159
g101
g102
ssg83
g3148
sg76
(lp3160
S':'
asbag69
(g90
g71
NtRp3161
(dp3162
g74
(dp3163
sg83
g3148
sg76
(lp3164
g69
(g70
g71
NtRp3165
(dp3166
g74
(dp3167
g82
I4
ssg83
g3161
sg76
(lp3168
S'datetime.datetime(2012, 5, 21, 19, 23, 50, 354489)'
p3169
asbasbasbag69
(g85
g71
NtRp3170
(dp3171
g74
(dp3172
sg83
g3100
sg76
(lp3173
g69
(g90
g71
NtRp3174
(dp3175
g74
(dp3176
g94
g95
ssg83
g3170
sg76
(lp3177
S'user'
p3178
asbag69
(g90
g71
NtRp3179
(dp3180
g74
(dp3181
g101
g102
ssg83
g3170
sg76
(lp3182
S':'
asbag69
(g90
g71
NtRp3183
(dp3184
g74
(dp3185
sg83
g3170
sg76
(lp3186
g69
(g70
g71
NtRp3187
(dp3188
g74
(dp3189
g82
I4
ssg83
g3183
sg76
(lp3190
g69
(g78
g71
NtRp3191
(dp3192
g74
(dp3193
g82
I3
ssg83
Nsg76
(lp3194
g69
(g85
g71
NtRp3195
(dp3196
g74
(dp3197
sg83
g3191
sg76
(lp3198
g69
(g90
g71
NtRp3199
(dp3200
g74
(dp3201
g94
g95
ssg83
g3195
sg76
(lp3202
S'email'
p3203
asbag69
(g90
g71
NtRp3204
(dp3205
g74
(dp3206
g101
g102
ssg83
g3195
sg76
(lp3207
S':'
asbag69
(g90
g71
NtRp3208
(dp3209
g74
(dp3210
sg83
g3195
sg76
(lp3211
g69
(g70
g71
NtRp3212
(dp3213
g74
(dp3214
g82
I3
ssg83
g3208
sg76
(lp3215
S'haha@haha.com'
p3216
asbasbasbag69
(g85
g71
NtRp3217
(dp3218
g74
(dp3219
sg83
g3191
sg76
(lp3220
g69
(g90
g71
NtRp3221
(dp3222
g74
(dp3223
g94
g95
ssg83
g3217
sg76
(lp3224
S'first_name'
p3225
asbag69
(g90
g71
NtRp3226
(dp3227
g74
(dp3228
g101
g102
ssg83
g3217
sg76
(lp3229
S':'
asbag69
(g90
g71
NtRp3230
(dp3231
g74
(dp3232
sg83
g3217
sg76
(lp3233
g69
(g70
g71
NtRp3234
(dp3235
g74
(dp3236
g82
I3
ssg83
g3230
sg76
(lp3237
S'Iana'
p3238
asbasbasbag69
(g85
g71
NtRp3239
(dp3240
g74
(dp3241
sg83
g3191
sg76
(lp3242
g69
(g90
g71
NtRp3243
(dp3244
g74
(dp3245
g94
g95
ssg83
g3239
sg76
(lp3246
S'id'
p3247
asbag69
(g90
g71
NtRp3248
(dp3249
g74
(dp3250
g101
g102
ssg83
g3239
sg76
(lp3251
S':'
asbag69
(g90
g71
NtRp3252
(dp3253
g74
(dp3254
sg83
g3239
sg76
(lp3255
g69
(g70
g71
NtRp3256
(dp3257
g74
(dp3258
g82
I3
ssg83
g3252
sg76
(lp3259
S'2'
asbasbasbag69
(g85
g71
NtRp3260
(dp3261
g74
(dp3262
sg83
g3191
sg76
(lp3263
g69
(g90
g71
NtRp3264
(dp3265
g74
(dp3266
g94
g95
ssg83
g3260
sg76
(lp3267
S'last_name'
p3268
asbag69
(g90
g71
NtRp3269
(dp3270
g74
(dp3271
g101
g102
ssg83
g3260
sg76
(lp3272
S':'
asbag69
(g90
g71
NtRp3273
(dp3274
g74
(dp3275
sg83
g3260
sg76
(lp3276
g69
(g70
g71
NtRp3277
(dp3278
g74
(dp3279
g82
I3
ssg83
g3273
sg76
(lp3280
S'Boneva'
p3281
asbasbasbag69
(g85
g71
NtRp3282
(dp3283
g74
(dp3284
sg83
g3191
sg76
(lp3285
g69
(g90
g71
NtRp3286
(dp3287
g74
(dp3288
g94
g95
ssg83
g3282
sg76
(lp3289
S'password'
p3290
asbag69
(g90
g71
NtRp3291
(dp3292
g74
(dp3293
g101
g102
ssg83
g3282
sg76
(lp3294
S':'
asbag69
(g90
g71
NtRp3295
(dp3296
g74
(dp3297
sg83
g3282
sg76
(lp3298
g69
(g70
g71
NtRp3299
(dp3300
g74
(dp3301
g82
I3
ssg83
g3295
sg76
(lp3302
S'be570e8e7b9bbc17c5aecccf653fd3d3'
p3303
asbasbasbag69
(g85
g71
NtRp3304
(dp3305
g74
(dp3306
sg83
g3191
sg76
(lp3307
g69
(g90
g71
NtRp3308
(dp3309
g74
(dp3310
g94
g95
ssg83
g3304
sg76
(lp3311
S'registration_id'
p3312
asbag69
(g90
g71
NtRp3313
(dp3314
g74
(dp3315
g101
g102
ssg83
g3304
sg76
(lp3316
S':'
asbag69
(g90
g71
NtRp3317
(dp3318
g74
(dp3319
sg83
g3304
sg76
(lp3320
g69
(g70
g71
NtRp3321
(dp3322
g74
(dp3323
g82
I3
ssg83
g3317
sg76
(lp3324
S''
asbasbasbag69
(g85
g71
NtRp3325
(dp3326
g74
(dp3327
sg83
g3191
sg76
(lp3328
g69
(g90
g71
NtRp3329
(dp3330
g74
(dp3331
g94
g95
ssg83
g3325
sg76
(lp3332
S'registration_key'
p3333
asbag69
(g90
g71
NtRp3334
(dp3335
g74
(dp3336
g101
g102
ssg83
g3325
sg76
(lp3337
S':'
asbag69
(g90
g71
NtRp3338
(dp3339
g74
(dp3340
sg83
g3325
sg76
(lp3341
g69
(g70
g71
NtRp3342
(dp3343
g74
(dp3344
g82
I3
ssg83
g3338
sg76
(lp3345
S''
asbasbasbag69
(g85
g71
NtRp3346
(dp3347
g74
(dp3348
sg83
g3191
sg76
(lp3349
g69
(g90
g71
NtRp3350
(dp3351
g74
(dp3352
g94
g95
ssg83
g3346
sg76
(lp3353
S'reset_password_key'
p3354
asbag69
(g90
g71
NtRp3355
(dp3356
g74
(dp3357
g101
g102
ssg83
g3346
sg76
(lp3358
S':'
asbag69
(g90
g71
NtRp3359
(dp3360
g74
(dp3361
sg83
g3346
sg76
(lp3362
g69
(g70
g71
NtRp3363
(dp3364
g74
(dp3365
g82
I3
ssg83
g3359
sg76
(lp3366
S''
asbasbasbasbasbasbasbag69
(g85
g71
NtRp3367
(dp3368
g74
(dp3369
sg83
g3100
sg76
(lp3370
g69
(g90
g71
NtRp3371
(dp3372
g74
(dp3373
g94
g95
ssg83
g3367
sg76
(lp3374
S'user_groups'
p3375
asbag69
(g90
g71
NtRp3376
(dp3377
g74
(dp3378
g101
g102
ssg83
g3367
sg76
(lp3379
S':'
asbag69
(g90
g71
NtRp3380
(dp3381
g74
(dp3382
sg83
g3367
sg76
(lp3383
g69
(g70
g71
NtRp3384
(dp3385
g74
(dp3386
g82
I4
ssg83
g3380
sg76
(lp3387
g69
(g78
g71
NtRp3388
(dp3389
g74
(dp3390
g82
I3
ssg83
Nsg76
(lp3391
g69
(g85
g71
NtRp3392
(dp3393
g74
(dp3394
sg83
g3388
sg76
(lp3395
g69
(g90
g71
NtRp3396
(dp3397
g74
(dp3398
g94
g95
ssg83
g3392
sg76
(lp3399
S'2'
asbag69
(g90
g71
NtRp3400
(dp3401
g74
(dp3402
g101
g102
ssg83
g3392
sg76
(lp3403
S':'
asbag69
(g90
g71
NtRp3404
(dp3405
g74
(dp3406
sg83
g3392
sg76
(lp3407
g69
(g70
g71
NtRp3408
(dp3409
g74
(dp3410
g82
I3
ssg83
g3404
sg76
(lp3411
S'user_2'
p3412
asbasbasbasbasbasbasbasbasbasbasbag69
(g85
g71
NtRp3413
(dp3414
g74
(dp3415
sg83
g3075
sg76
(lp3416
g69
(g90
g71
NtRp3417
(dp3418
g74
(dp3419
g94
g95
ssg83
g3413
sg76
(lp3420
S'last_query'
p3421
asbag69
(g90
g71
NtRp3422
(dp3423
g74
(dp3424
g101
g102
ssg83
g3413
sg76
(lp3425
S':'
asbag69
(g90
g71
NtRp3426
(dp3427
g74
(dp3428
sg83
g3413
sg76
(lp3429
g69
(g70
g71
NtRp3430
(dp3431
g74
(dp3432
g82
I5
ssg83
g3426
sg76
(lp3433
S'db.User_Profile.id>0'
p3434
asbasbasbasbasbsS'etype'
p3435
S"<type 'exceptions.IndentationError'>"
p3436
sS'date'
p3437
S'Mon May 21 19:25:49 2012'
p3438
sS'response'
p3439
g69
(g70
g71
NtRp3440
(dp3441
g74
(dp3442
sg76
(lp3443
g69
(g78
g71
NtRp3444
(dp3445
g74
(dp3446
g82
I5
ssg83
Nsg76
(lp3447
g69
(g85
g71
NtRp3448
(dp3449
g74
(dp3450
sg83
g3444
sg76
(lp3451
g69
(g90
g71
NtRp3452
(dp3453
g74
(dp3454
g94
g95
ssg83
g3448
sg76
(lp3455
g167
asbag69
(g90
g71
NtRp3456
(dp3457
g74
(dp3458
g101
g102
ssg83
g3448
sg76
(lp3459
S':'
asbag69
(g90
g71
NtRp3460
(dp3461
g74
(dp3462
sg83
g3448
sg76
(lp3463
g69
(g70
g71
NtRp3464
(dp3465
g74
(dp3466
g82
I5
ssg83
g3460
sg76
(lp3467
S'<cStringIO.StringO object at 0x107738b90>'
p3468
asbasbasbag69
(g85
g71
NtRp3469
(dp3470
g74
(dp3471
sg83
g3444
sg76
(lp3472
g69
(g90
g71
NtRp3473
(dp3474
g74
(dp3475
g94
g95
ssg83
g3469
sg76
(lp3476
g233
asbag69
(g90
g71
NtRp3477
(dp3478
g74
(dp3479
g101
g102
ssg83
g3469
sg76
(lp3480
S':'
asbag69
(g90
g71
NtRp3481
(dp3482
g74
(dp3483
sg83
g3469
sg76
(lp3484
g69
(g70
g71
NtRp3485
(dp3486
g74
(dp3487
g82
I5
ssg83
g3481
sg76
(lp3488
g69
(g78
g71
NtRp3489
(dp3490
g74
(dp3491
g82
I4
ssg83
Nsg76
(lp3492
g69
(g85
g71
NtRp3493
(dp3494
g74
(dp3495
sg83
g3489
sg76
(lp3496
g69
(g90
g71
NtRp3497
(dp3498
g74
(dp3499
g94
g95
ssg83
g3493
sg76
(lp3500
S'session_id_book_shelf'
p3501
asbag69
(g90
g71
NtRp3502
(dp3503
g74
(dp3504
g101
g102
ssg83
g3493
sg76
(lp3505
S':'
asbag69
(g90
g71
NtRp3506
(dp3507
g74
(dp3508
sg83
g3493
sg76
(lp3509
g69
(g70
g71
NtRp3510
(dp3511
g74
(dp3512
g82
I4
ssg83
g3506
sg76
(lp3513
g69
(g78
g71
NtRp3514
(dp3515
g74
(dp3516
g82
I3
ssg83
Nsg76
(lp3517
g69
(g85
g71
NtRp3518
(dp3519
g74
(dp3520
sg83
g3514
sg76
(lp3521
g69
(g90
g71
NtRp3522
(dp3523
g74
(dp3524
g94
g95
ssg83
g3518
sg76
(lp3525
g283
asbag69
(g90
g71
NtRp3526
(dp3527
g74
(dp3528
g101
g102
ssg83
g3518
sg76
(lp3529
S':'
asbag69
(g90
g71
NtRp3530
(dp3531
g74
(dp3532
sg83
g3518
sg76
(lp3533
g69
(g70
g71
NtRp3534
(dp3535
g74
(dp3536
g82
I3
ssg83
g3530
sg76
(lp3537
S''
asbasbasbag69
(g85
g71
NtRp3538
(dp3539
g74
(dp3540
sg83
g3514
sg76
(lp3541
g69
(g90
g71
NtRp3542
(dp3543
g74
(dp3544
g94
g95
ssg83
g3538
sg76
(lp3545
g304
asbag69
(g90
g71
NtRp3546
(dp3547
g74
(dp3548
g101
g102
ssg83
g3538
sg76
(lp3549
S':'
asbag69
(g90
g71
NtRp3550
(dp3551
g74
(dp3552
sg83
g3538
sg76
(lp3553
g69
(g70
g71
NtRp3554
(dp3555
g74
(dp3556
g82
I3
ssg83
g3550
sg76
(lp3557
S''
asbasbasbag69
(g85
g71
NtRp3558
(dp3559
g74
(dp3560
sg83
g3514
sg76
(lp3561
g69
(g90
g71
NtRp3562
(dp3563
g74
(dp3564
g94
g95
ssg83
g3558
sg76
(lp3565
g325
asbag69
(g90
g71
NtRp3566
(dp3567
g74
(dp3568
g101
g102
ssg83
g3558
sg76
(lp3569
S':'
asbag69
(g90
g71
NtRp3570
(dp3571
g74
(dp3572
sg83
g3558
sg76
(lp3573
g69
(g70
g71
NtRp3574
(dp3575
g74
(dp3576
g82
I3
ssg83
g3570
sg76
(lp3577
S''
asbasbasbag69
(g85
g71
NtRp3578
(dp3579
g74
(dp3580
sg83
g3514
sg76
(lp3581
g69
(g90
g71
NtRp3582
(dp3583
g74
(dp3584
g94
g95
ssg83
g3578
sg76
(lp3585
g346
asbag69
(g90
g71
NtRp3586
(dp3587
g74
(dp3588
g101
g102
ssg83
g3578
sg76
(lp3589
S':'
asbag69
(g90
g71
NtRp3590
(dp3591
g74
(dp3592
sg83
g3578
sg76
(lp3593
g69
(g70
g71
NtRp3594
(dp3595
g74
(dp3596
g82
I3
ssg83
g3590
sg76
(lp3597
S''
asbasbasbag69
(g85
g71
NtRp3598
(dp3599
g74
(dp3600
sg83
g3514
sg76
(lp3601
g69
(g90
g71
NtRp3602
(dp3603
g74
(dp3604
g94
g95
ssg83
g3598
sg76
(lp3605
g367
asbag69
(g90
g71
NtRp3606
(dp3607
g74
(dp3608
g101
g102
ssg83
g3598
sg76
(lp3609
S':'
asbag69
(g90
g71
NtRp3610
(dp3611
g74
(dp3612
sg83
g3598
sg76
(lp3613
g69
(g70
g71
NtRp3614
(dp3615
g74
(dp3616
g82
I3
ssg83
g3610
sg76
(lp3617
S''
asbasbasbag69
(g85
g71
NtRp3618
(dp3619
g74
(dp3620
sg83
g3514
sg76
(lp3621
g69
(g90
g71
NtRp3622
(dp3623
g74
(dp3624
g94
g95
ssg83
g3618
sg76
(lp3625
g388
asbag69
(g90
g71
NtRp3626
(dp3627
g74
(dp3628
g101
g102
ssg83
g3618
sg76
(lp3629
S':'
asbag69
(g90
g71
NtRp3630
(dp3631
g74
(dp3632
sg83
g3618
sg76
(lp3633
g69
(g70
g71
NtRp3634
(dp3635
g74
(dp3636
g82
I3
ssg83
g3630
sg76
(lp3637
S'/'
asbasbasbag69
(g85
g71
NtRp3638
(dp3639
g74
(dp3640
sg83
g3514
sg76
(lp3641
g69
(g90
g71
NtRp3642
(dp3643
g74
(dp3644
g94
g95
ssg83
g3638
sg76
(lp3645
g409
asbag69
(g90
g71
NtRp3646
(dp3647
g74
(dp3648
g101
g102
ssg83
g3638
sg76
(lp3649
S':'
asbag69
(g90
g71
NtRp3650
(dp3651
g74
(dp3652
sg83
g3638
sg76
(lp3653
g69
(g70
g71
NtRp3654
(dp3655
g74
(dp3656
g82
I3
ssg83
g3650
sg76
(lp3657
S''
asbasbasbag69
(g85
g71
NtRp3658
(dp3659
g74
(dp3660
sg83
g3514
sg76
(lp3661
g69
(g90
g71
NtRp3662
(dp3663
g74
(dp3664
g94
g95
ssg83
g3658
sg76
(lp3665
g430
asbag69
(g90
g71
NtRp3666
(dp3667
g74
(dp3668
g101
g102
ssg83
g3658
sg76
(lp3669
S':'
asbag69
(g90
g71
NtRp3670
(dp3671
g74
(dp3672
sg83
g3658
sg76
(lp3673
g69
(g70
g71
NtRp3674
(dp3675
g74
(dp3676
g82
I3
ssg83
g3670
sg76
(lp3677
S''
asbasbasbasbasbasbasbasbasbasbasbag69
(g85
g71
NtRp3678
(dp3679
g74
(dp3680
sg83
g3444
sg76
(lp3681
g69
(g90
g71
NtRp3682
(dp3683
g74
(dp3684
g94
g95
ssg83
g3678
sg76
(lp3685
S'delimiters'
p3686
asbag69
(g90
g71
NtRp3687
(dp3688
g74
(dp3689
g101
g102
ssg83
g3678
sg76
(lp3690
S':'
asbag69
(g90
g71
NtRp3691
(dp3692
g74
(dp3693
sg83
g3678
sg76
(lp3694
g69
(g70
g71
NtRp3695
(dp3696
g74
(dp3697
g82
I5
ssg83
g3691
sg76
(lp3698
g69
(g78
g71
NtRp3699
(dp3700
g74
(dp3701
g82
I4
ssg83
Nsg76
(lp3702
g69
(g85
g71
NtRp3703
(dp3704
g74
(dp3705
sg83
g3699
sg76
(lp3706
g69
(g90
g71
NtRp3707
(dp3708
g74
(dp3709
sg83
g3703
sg76
(lp3710
g69
(g70
g71
NtRp3711
(dp3712
g74
(dp3713
g82
I4
ssg83
g3707
sg76
(lp3714
S'{{'
p3715
asbasbasbag69
(g85
g71
NtRp3716
(dp3717
g74
(dp3718
sg83
g3699
sg76
(lp3719
g69
(g90
g71
NtRp3720
(dp3721
g74
(dp3722
sg83
g3716
sg76
(lp3723
g69
(g70
g71
NtRp3724
(dp3725
g74
(dp3726
g82
I4
ssg83
g3720
sg76
(lp3727
S'}}'
p3728
asbasbasbasbasbasbasbag69
(g85
g71
NtRp3729
(dp3730
g74
(dp3731
sg83
g3444
sg76
(lp3732
g69
(g90
g71
NtRp3733
(dp3734
g74
(dp3735
g94
g95
ssg83
g3729
sg76
(lp3736
S'files'
p3737
asbag69
(g90
g71
NtRp3738
(dp3739
g74
(dp3740
g101
g102
ssg83
g3729
sg76
(lp3741
S':'
asbag69
(g90
g71
NtRp3742
(dp3743
g74
(dp3744
sg83
g3729
sg76
(lp3745
g69
(g70
g71
NtRp3746
(dp3747
g74
(dp3748
g82
I5
ssg83
g3742
sg76
(lp3749
g69
(g78
g71
NtRp3750
(dp3751
g74
(dp3752
g82
I4
ssg83
Nsg76
(lp3753
sbasbasbasbag69
(g85
g71
NtRp3754
(dp3755
g74
(dp3756
sg83
g3444
sg76
(lp3757
g69
(g90
g71
NtRp3758
(dp3759
g74
(dp3760
g94
g95
ssg83
g3754
sg76
(lp3761
S'flash'
p3762
asbag69
(g90
g71
NtRp3763
(dp3764
g74
(dp3765
g101
g102
ssg83
g3754
sg76
(lp3766
S':'
asbag69
(g90
g71
NtRp3767
(dp3768
g74
(dp3769
sg83
g3754
sg76
(lp3770
g69
(g70
g71
NtRp3771
(dp3772
g74
(dp3773
g82
I5
ssg83
g3767
sg76
(lp3774
S''
asbasbasbag69
(g85
g71
NtRp3775
(dp3776
g74
(dp3777
sg83
g3444
sg76
(lp3778
g69
(g90
g71
NtRp3779
(dp3780
g74
(dp3781
g94
g95
ssg83
g3775
sg76
(lp3782
S'generic_patterns'
p3783
asbag69
(g90
g71
NtRp3784
(dp3785
g74
(dp3786
g101
g102
ssg83
g3775
sg76
(lp3787
S':'
asbag69
(g90
g71
NtRp3788
(dp3789
g74
(dp3790
sg83
g3775
sg76
(lp3791
g69
(g70
g71
NtRp3792
(dp3793
g74
(dp3794
g82
I5
ssg83
g3788
sg76
(lp3795
g69
(g78
g71
NtRp3796
(dp3797
g74
(dp3798
g82
I4
ssg83
Nsg76
(lp3799
g69
(g85
g71
NtRp3800
(dp3801
g74
(dp3802
sg83
g3796
sg76
(lp3803
g69
(g90
g71
NtRp3804
(dp3805
g74
(dp3806
sg83
g3800
sg76
(lp3807
g69
(g70
g71
NtRp3808
(dp3809
g74
(dp3810
g82
I4
ssg83
g3804
sg76
(lp3811
S'*'
asbasbasbasbasbasbasbag69
(g85
g71
NtRp3812
(dp3813
g74
(dp3814
sg83
g3444
sg76
(lp3815
g69
(g90
g71
NtRp3816
(dp3817
g74
(dp3818
g94
g95
ssg83
g3812
sg76
(lp3819
S'headers'
p3820
asbag69
(g90
g71
NtRp3821
(dp3822
g74
(dp3823
g101
g102
ssg83
g3812
sg76
(lp3824
S':'
asbag69
(g90
g71
NtRp3825
(dp3826
g74
(dp3827
sg83
g3812
sg76
(lp3828
g69
(g70
g71
NtRp3829
(dp3830
g74
(dp3831
g82
I5
ssg83
g3825
sg76
(lp3832
g69
(g78
g71
NtRp3833
(dp3834
g74
(dp3835
g82
I4
ssg83
Nsg76
(lp3836
g69
(g85
g71
NtRp3837
(dp3838
g74
(dp3839
sg83
g3833
sg76
(lp3840
g69
(g90
g71
NtRp3841
(dp3842
g74
(dp3843
g94
g95
ssg83
g3837
sg76
(lp3844
S'Cache-Control'
p3845
asbag69
(g90
g71
NtRp3846
(dp3847
g74
(dp3848
g101
g102
ssg83
g3837
sg76
(lp3849
S':'
asbag69
(g90
g71
NtRp3850
(dp3851
g74
(dp3852
sg83
g3837
sg76
(lp3853
g69
(g70
g71
NtRp3854
(dp3855
g74
(dp3856
g82
I4
ssg83
g3850
sg76
(lp3857
S'no-store, no-cache, must-revalidate, post-check=0, pre-check=0'
p3858
asbasbasbag69
(g85
g71
NtRp3859
(dp3860
g74
(dp3861
sg83
g3833
sg76
(lp3862
g69
(g90
g71
NtRp3863
(dp3864
g74
(dp3865
g94
g95
ssg83
g3859
sg76
(lp3866
S'Content-Type'
p3867
asbag69
(g90
g71
NtRp3868
(dp3869
g74
(dp3870
g101
g102
ssg83
g3859
sg76
(lp3871
S':'
asbag69
(g90
g71
NtRp3872
(dp3873
g74
(dp3874
sg83
g3859
sg76
(lp3875
g69
(g70
g71
NtRp3876
(dp3877
g74
(dp3878
g82
I4
ssg83
g3872
sg76
(lp3879
S'text/html; charset=utf-8'
p3880
asbasbasbag69
(g85
g71
NtRp3881
(dp3882
g74
(dp3883
sg83
g3833
sg76
(lp3884
g69
(g90
g71
NtRp3885
(dp3886
g74
(dp3887
g94
g95
ssg83
g3881
sg76
(lp3888
S'Expires'
p3889
asbag69
(g90
g71
NtRp3890
(dp3891
g74
(dp3892
g101
g102
ssg83
g3881
sg76
(lp3893
S':'
asbag69
(g90
g71
NtRp3894
(dp3895
g74
(dp3896
sg83
g3881
sg76
(lp3897
g69
(g70
g71
NtRp3898
(dp3899
g74
(dp3900
g82
I4
ssg83
g3894
sg76
(lp3901
S'Tue, 22 May 2012 00:25:49 GMT'
p3902
asbasbasbag69
(g85
g71
NtRp3903
(dp3904
g74
(dp3905
sg83
g3833
sg76
(lp3906
g69
(g90
g71
NtRp3907
(dp3908
g74
(dp3909
g94
g95
ssg83
g3903
sg76
(lp3910
S'Pragma'
p3911
asbag69
(g90
g71
NtRp3912
(dp3913
g74
(dp3914
g101
g102
ssg83
g3903
sg76
(lp3915
S':'
asbag69
(g90
g71
NtRp3916
(dp3917
g74
(dp3918
sg83
g3903
sg76
(lp3919
g69
(g70
g71
NtRp3920
(dp3921
g74
(dp3922
g82
I4
ssg83
g3916
sg76
(lp3923
S'no-cache'
p3924
asbasbasbag69
(g85
g71
NtRp3925
(dp3926
g74
(dp3927
sg83
g3833
sg76
(lp3928
g69
(g90
g71
NtRp3929
(dp3930
g74
(dp3931
g94
g95
ssg83
g3925
sg76
(lp3932
S'X-Powered-By'
p3933
asbag69
(g90
g71
NtRp3934
(dp3935
g74
(dp3936
g101
g102
ssg83
g3925
sg76
(lp3937
S':'
asbag69
(g90
g71
NtRp3938
(dp3939
g74
(dp3940
sg83
g3925
sg76
(lp3941
g69
(g70
g71
NtRp3942
(dp3943
g74
(dp3944
g82
I4
ssg83
g3938
sg76
(lp3945
S'web2py'
p3946
asbasbasbasbasbasbasbag69
(g85
g71
NtRp3947
(dp3948
g74
(dp3949
sg83
g3444
sg76
(lp3950
g69
(g90
g71
NtRp3951
(dp3952
g74
(dp3953
g94
g95
ssg83
g3947
sg76
(lp3954
S'menu'
p3955
asbag69
(g90
g71
NtRp3956
(dp3957
g74
(dp3958
g101
g102
ssg83
g3947
sg76
(lp3959
S':'
asbag69
(g90
g71
NtRp3960
(dp3961
g74
(dp3962
sg83
g3947
sg76
(lp3963
g69
(g70
g71
NtRp3964
(dp3965
g74
(dp3966
g82
I5
ssg83
g3960
sg76
(lp3967
g69
(g78
g71
NtRp3968
(dp3969
g74
(dp3970
g82
I4
ssg83
Nsg76
(lp3971
g69
(g85
g71
NtRp3972
(dp3973
g74
(dp3974
sg83
g3968
sg76
(lp3975
g69
(g90
g71
NtRp3976
(dp3977
g74
(dp3978
sg83
g3972
sg76
(lp3979
g69
(g70
g71
NtRp3980
(dp3981
g74
(dp3982
g82
I4
ssg83
g3976
sg76
(lp3983
g69
(g78
g71
NtRp3984
(dp3985
g74
(dp3986
g82
I3
ssg83
Nsg76
(lp3987
g69
(g85
g71
NtRp3988
(dp3989
g74
(dp3990
sg83
g3984
sg76
(lp3991
g69
(g90
g71
NtRp3992
(dp3993
g74
(dp3994
sg83
g3988
sg76
(lp3995
g69
(g70
g71
NtRp3996
(dp3997
g74
(dp3998
g82
I3
ssg83
g3992
sg76
(lp3999
cgluon.languages
lazyT_unpickle
p4000
(S't\x04\x00\x00\x00Home'
tRp4001
asbasbasbag69
(g85
g71
NtRp4002
(dp4003
g74
(dp4004
sg83
g3984
sg76
(lp4005
g69
(g90
g71
NtRp4006
(dp4007
g74
(dp4008
sg83
g4002
sg76
(lp4009
g69
(g70
g71
NtRp4010
(dp4011
g74
(dp4012
g82
I3
ssg83
g4006
sg76
(lp4013
g112
asbasbasbag69
(g85
g71
NtRp4014
(dp4015
g74
(dp4016
sg83
g3984
sg76
(lp4017
g69
(g90
g71
NtRp4018
(dp4019
g74
(dp4020
sg83
g4014
sg76
(lp4021
g69
(g70
g71
NtRp4022
(dp4023
g74
(dp4024
g82
I3
ssg83
g4018
sg76
(lp4025
S'/Book_Shelf/default/index'
p4026
asbasbasbag69
(g85
g71
NtRp4027
(dp4028
g74
(dp4029
sg83
g3984
sg76
(lp4030
g69
(g90
g71
NtRp4031
(dp4032
g74
(dp4033
sg83
g4027
sg76
(lp4034
g69
(g70
g71
NtRp4035
(dp4036
g74
(dp4037
g82
I3
ssg83
g4031
sg76
(lp4038
g69
(g78
g71
NtRp4039
(dp4040
g74
(dp4041
g82
I2
ssg83
Nsg76
(lp4042
sbasbasbasbasbasbasbasbag69
(g85
g71
NtRp4043
(dp4044
g74
(dp4045
sg83
g3968
sg76
(lp4046
g69
(g90
g71
NtRp4047
(dp4048
g74
(dp4049
sg83
g4043
sg76
(lp4050
g69
(g70
g71
NtRp4051
(dp4052
g74
(dp4053
g82
I4
ssg83
g4047
sg76
(lp4054
g69
(g78
g71
NtRp4055
(dp4056
g74
(dp4057
g82
I3
ssg83
Nsg76
(lp4058
g69
(g85
g71
NtRp4059
(dp4060
g74
(dp4061
sg83
g4055
sg76
(lp4062
g69
(g90
g71
NtRp4063
(dp4064
g74
(dp4065
sg83
g4059
sg76
(lp4066
g69
(g70
g71
NtRp4067
(dp4068
g74
(dp4069
g82
I3
ssg83
g4063
sg76
(lp4070
g4000
(S's\x0c\x00\x00\x00User Profile'
tRp4071
asbasbasbag69
(g85
g71
NtRp4072
(dp4073
g74
(dp4074
sg83
g4055
sg76
(lp4075
g69
(g90
g71
NtRp4076
(dp4077
g74
(dp4078
sg83
g4072
sg76
(lp4079
g69
(g70
g71
NtRp4080
(dp4081
g74
(dp4082
g82
I3
ssg83
g4076
sg76
(lp4083
g112
asbasbasbag69
(g85
g71
NtRp4084
(dp4085
g74
(dp4086
sg83
g4055
sg76
(lp4087
g69
(g90
g71
NtRp4088
(dp4089
g74
(dp4090
sg83
g4084
sg76
(lp4091
g69
(g70
g71
NtRp4092
(dp4093
g74
(dp4094
g82
I3
ssg83
g4088
sg76
(lp4095
S'None'
p4096
asbasbasbag69
(g85
g71
NtRp4097
(dp4098
g74
(dp4099
sg83
g4055
sg76
(lp4100
g69
(g90
g71
NtRp4101
(dp4102
g74
(dp4103
sg83
g4097
sg76
(lp4104
g69
(g70
g71
NtRp4105
(dp4106
g74
(dp4107
g82
I3
ssg83
g4101
sg76
(lp4108
g69
(g78
g71
NtRp4109
(dp4110
g74
(dp4111
g82
I2
ssg83
Nsg76
(lp4112
g69
(g85
g71
NtRp4113
(dp4114
g74
(dp4115
sg83
g4109
sg76
(lp4116
g69
(g90
g71
NtRp4117
(dp4118
g74
(dp4119
sg83
g4113
sg76
(lp4120
g69
(g70
g71
NtRp4121
(dp4122
g74
(dp4123
g82
I2
ssg83
g4117
sg76
(lp4124
g69
(g78
g71
NtRp4125
(dp4126
g74
(dp4127
g82
I1
ssg83
Nsg76
(lp4128
g69
(g85
g71
NtRp4129
(dp4130
g74
(dp4131
sg83
g4125
sg76
(lp4132
g69
(g90
g71
NtRp4133
(dp4134
g74
(dp4135
sg83
g4129
sg76
(lp4136
g69
(g70
g71
NtRp4137
(dp4138
g74
(dp4139
g82
I1
ssg83
g4133
sg76
(lp4140
g4000
(S's\x0c\x00\x00\x00User Profile'
tRp4141
asbasbasbag69
(g85
g71
NtRp4142
(dp4143
g74
(dp4144
sg83
g4125
sg76
(lp4145
g69
(g90
g71
NtRp4146
(dp4147
g74
(dp4148
sg83
g4142
sg76
(lp4149
g69
(g70
g71
NtRp4150
(dp4151
g74
(dp4152
g82
I1
ssg83
g4146
sg76
(lp4153
I00
asbasbasbag69
(g85
g71
NtRp4154
(dp4155
g74
(dp4156
sg83
g4125
sg76
(lp4157
g69
(g90
g71
NtRp4158
(dp4159
g74
(dp4160
sg83
g4154
sg76
(lp4161
g69
(g70
g71
NtRp4162
(dp4163
g74
(dp4164
g82
I1
ssg83
g4158
sg76
(lp4165
S'/Book_Shelf/default/user_profile'
p4166
asbasbasbasbasbasbasbag69
(g85
g71
NtRp4167
(dp4168
g74
(dp4169
sg83
g4109
sg76
(lp4170
g69
(g90
g71
NtRp4171
(dp4172
g74
(dp4173
sg83
g4167
sg76
(lp4174
g69
(g70
g71
NtRp4175
(dp4176
g74
(dp4177
g82
I2
ssg83
g4171
sg76
(lp4178
g69
(g78
g71
NtRp4179
(dp4180
g74
(dp4181
g82
I1
ssg83
Nsg76
(lp4182
g69
(g85
g71
NtRp4183
(dp4184
g74
(dp4185
sg83
g4179
sg76
(lp4186
g69
(g90
g71
NtRp4187
(dp4188
g74
(dp4189
sg83
g4183
sg76
(lp4190
g69
(g70
g71
NtRp4191
(dp4192
g74
(dp4193
g82
I1
ssg83
g4187
sg76
(lp4194
g4000
(S's\x13\x00\x00\x00Create User Profile'
tRp4195
asbasbasbag69
(g85
g71
NtRp4196
(dp4197
g74
(dp4198
sg83
g4179
sg76
(lp4199
g69
(g90
g71
NtRp4200
(dp4201
g74
(dp4202
sg83
g4196
sg76
(lp4203
g69
(g70
g71
NtRp4204
(dp4205
g74
(dp4206
g82
I1
ssg83
g4200
sg76
(lp4207
I00
asbasbasbag69
(g85
g71
NtRp4208
(dp4209
g74
(dp4210
sg83
g4179
sg76
(lp4211
g69
(g90
g71
NtRp4212
(dp4213
g74
(dp4214
sg83
g4208
sg76
(lp4215
g69
(g70
g71
NtRp4216
(dp4217
g74
(dp4218
g82
I1
ssg83
g4212
sg76
(lp4219
S'/Book_Shelf/default/create_user_profile'
p4220
asbasbasbasbasbasbasbag69
(g85
g71
NtRp4221
(dp4222
g74
(dp4223
sg83
g4109
sg76
(lp4224
g69
(g90
g71
NtRp4225
(dp4226
g74
(dp4227
sg83
g4221
sg76
(lp4228
g69
(g70
g71
NtRp4229
(dp4230
g74
(dp4231
g82
I2
ssg83
g4225
sg76
(lp4232
g69
(g78
g71
NtRp4233
(dp4234
g74
(dp4235
g82
I1
ssg83
Nsg76
(lp4236
g69
(g85
g71
NtRp4237
(dp4238
g74
(dp4239
sg83
g4233
sg76
(lp4240
g69
(g90
g71
NtRp4241
(dp4242
g74
(dp4243
sg83
g4237
sg76
(lp4244
g69
(g70
g71
NtRp4245
(dp4246
g74
(dp4247
g82
I1
ssg83
g4241
sg76
(lp4248
g4000
(S's\x13\x00\x00\x00Update User Profile'
tRp4249
asbasbasbag69
(g85
g71
NtRp4250
(dp4251
g74
(dp4252
sg83
g4233
sg76
(lp4253
g69
(g90
g71
NtRp4254
(dp4255
g74
(dp4256
sg83
g4250
sg76
(lp4257
g69
(g70
g71
NtRp4258
(dp4259
g74
(dp4260
g82
I1
ssg83
g4254
sg76
(lp4261
I00
asbasbasbag69
(g85
g71
NtRp4262
(dp4263
g74
(dp4264
sg83
g4233
sg76
(lp4265
g69
(g90
g71
NtRp4266
(dp4267
g74
(dp4268
sg83
g4262
sg76
(lp4269
g69
(g70
g71
NtRp4270
(dp4271
g74
(dp4272
g82
I1
ssg83
g4266
sg76
(lp4273
S'/Book_Shelf/default/update_user_profile'
p4274
asbasbasbasbasbasbasbasbasbasbasbasbasbasbasbag69
(g85
g71
NtRp4275
(dp4276
g74
(dp4277
sg83
g3968
sg76
(lp4278
g69
(g90
g71
NtRp4279
(dp4280
g74
(dp4281
sg83
g4275
sg76
(lp4282
g69
(g70
g71
NtRp4283
(dp4284
g74
(dp4285
g82
I4
ssg83
g4279
sg76
(lp4286
g69
(g78
g71
NtRp4287
(dp4288
g74
(dp4289
g82
I3
ssg83
Nsg76
(lp4290
g69
(g85
g71
NtRp4291
(dp4292
g74
(dp4293
sg83
g4287
sg76
(lp4294
g69
(g90
g71
NtRp4295
(dp4296
g74
(dp4297
sg83
g4291
sg76
(lp4298
g69
(g70
g71
NtRp4299
(dp4300
g74
(dp4301
g82
I3
ssg83
g4295
sg76
(lp4302
g4000
(S't\x04\x00\x00\x00Book'
tRp4303
asbasbasbag69
(g85
g71
NtRp4304
(dp4305
g74
(dp4306
sg83
g4287
sg76
(lp4307
g69
(g90
g71
NtRp4308
(dp4309
g74
(dp4310
sg83
g4304
sg76
(lp4311
g69
(g70
g71
NtRp4312
(dp4313
g74
(dp4314
g82
I3
ssg83
g4308
sg76
(lp4315
g112
asbasbasbag69
(g85
g71
NtRp4316
(dp4317
g74
(dp4318
sg83
g4287
sg76
(lp4319
g69
(g90
g71
NtRp4320
(dp4321
g74
(dp4322
sg83
g4316
sg76
(lp4323
g69
(g70
g71
NtRp4324
(dp4325
g74
(dp4326
g82
I3
ssg83
g4320
sg76
(lp4327
S'None'
p4328
asbasbasbag69
(g85
g71
NtRp4329
(dp4330
g74
(dp4331
sg83
g4287
sg76
(lp4332
g69
(g90
g71
NtRp4333
(dp4334
g74
(dp4335
sg83
g4329
sg76
(lp4336
g69
(g70
g71
NtRp4337
(dp4338
g74
(dp4339
g82
I3
ssg83
g4333
sg76
(lp4340
g69
(g78
g71
NtRp4341
(dp4342
g74
(dp4343
g82
I2
ssg83
Nsg76
(lp4344
g69
(g85
g71
NtRp4345
(dp4346
g74
(dp4347
sg83
g4341
sg76
(lp4348
g69
(g90
g71
NtRp4349
(dp4350
g74
(dp4351
sg83
g4345
sg76
(lp4352
g69
(g70
g71
NtRp4353
(dp4354
g74
(dp4355
g82
I2
ssg83
g4349
sg76
(lp4356
g69
(g78
g71
NtRp4357
(dp4358
g74
(dp4359
g82
I1
ssg83
Nsg76
(lp4360
g69
(g85
g71
NtRp4361
(dp4362
g74
(dp4363
sg83
g4357
sg76
(lp4364
g69
(g90
g71
NtRp4365
(dp4366
g74
(dp4367
sg83
g4361
sg76
(lp4368
g69
(g70
g71
NtRp4369
(dp4370
g74
(dp4371
g82
I1
ssg83
g4365
sg76
(lp4372
g4000
(S's\x0c\x00\x00\x00Book Profile'
tRp4373
asbasbasbag69
(g85
g71
NtRp4374
(dp4375
g74
(dp4376
sg83
g4357
sg76
(lp4377
g69
(g90
g71
NtRp4378
(dp4379
g74
(dp4380
sg83
g4374
sg76
(lp4381
g69
(g70
g71
NtRp4382
(dp4383
g74
(dp4384
g82
I1
ssg83
g4378
sg76
(lp4385
I00
asbasbasbag69
(g85
g71
NtRp4386
(dp4387
g74
(dp4388
sg83
g4357
sg76
(lp4389
g69
(g90
g71
NtRp4390
(dp4391
g74
(dp4392
sg83
g4386
sg76
(lp4393
g69
(g70
g71
NtRp4394
(dp4395
g74
(dp4396
g82
I1
ssg83
g4390
sg76
(lp4397
S'/Book_Shelf/default/book_profile'
p4398
asbasbasbasbasbasbasbag69
(g85
g71
NtRp4399
(dp4400
g74
(dp4401
sg83
g4341
sg76
(lp4402
g69
(g90
g71
NtRp4403
(dp4404
g74
(dp4405
sg83
g4399
sg76
(lp4406
g69
(g70
g71
NtRp4407
(dp4408
g74
(dp4409
g82
I2
ssg83
g4403
sg76
(lp4410
g69
(g78
g71
NtRp4411
(dp4412
g74
(dp4413
g82
I1
ssg83
Nsg76
(lp4414
g69
(g85
g71
NtRp4415
(dp4416
g74
(dp4417
sg83
g4411
sg76
(lp4418
g69
(g90
g71
NtRp4419
(dp4420
g74
(dp4421
sg83
g4415
sg76
(lp4422
g69
(g70
g71
NtRp4423
(dp4424
g74
(dp4425
g82
I1
ssg83
g4419
sg76
(lp4426
g4000
(S's\x13\x00\x00\x00Create Book Profile'
tRp4427
asbasbasbag69
(g85
g71
NtRp4428
(dp4429
g74
(dp4430
sg83
g4411
sg76
(lp4431
g69
(g90
g71
NtRp4432
(dp4433
g74
(dp4434
sg83
g4428
sg76
(lp4435
g69
(g70
g71
NtRp4436
(dp4437
g74
(dp4438
g82
I1
ssg83
g4432
sg76
(lp4439
I00
asbasbasbag69
(g85
g71
NtRp4440
(dp4441
g74
(dp4442
sg83
g4411
sg76
(lp4443
g69
(g90
g71
NtRp4444
(dp4445
g74
(dp4446
sg83
g4440
sg76
(lp4447
g69
(g70
g71
NtRp4448
(dp4449
g74
(dp4450
g82
I1
ssg83
g4444
sg76
(lp4451
S'/Book_Shelf/default/create_book_profile'
p4452
asbasbasbasbasbasbasbag69
(g85
g71
NtRp4453
(dp4454
g74
(dp4455
sg83
g4341
sg76
(lp4456
g69
(g90
g71
NtRp4457
(dp4458
g74
(dp4459
sg83
g4453
sg76
(lp4460
g69
(g70
g71
NtRp4461
(dp4462
g74
(dp4463
g82
I2
ssg83
g4457
sg76
(lp4464
g69
(g78
g71
NtRp4465
(dp4466
g74
(dp4467
g82
I1
ssg83
Nsg76
(lp4468
g69
(g85
g71
NtRp4469
(dp4470
g74
(dp4471
sg83
g4465
sg76
(lp4472
g69
(g90
g71
NtRp4473
(dp4474
g74
(dp4475
sg83
g4469
sg76
(lp4476
g69
(g70
g71
NtRp4477
(dp4478
g74
(dp4479
g82
I1
ssg83
g4473
sg76
(lp4480
g4000
(S's\x13\x00\x00\x00Update Book Profile'
tRp4481
asbasbasbag69
(g85
g71
NtRp4482
(dp4483
g74
(dp4484
sg83
g4465
sg76
(lp4485
g69
(g90
g71
NtRp4486
(dp4487
g74
(dp4488
sg83
g4482
sg76
(lp4489
g69
(g70
g71
NtRp4490
(dp4491
g74
(dp4492
g82
I1
ssg83
g4486
sg76
(lp4493
I00
asbasbasbag69
(g85
g71
NtRp4494
(dp4495
g74
(dp4496
sg83
g4465
sg76
(lp4497
g69
(g90
g71
NtRp4498
(dp4499
g74
(dp4500
sg83
g4494
sg76
(lp4501
g69
(g70
g71
NtRp4502
(dp4503
g74
(dp4504
g82
I1
ssg83
g4498
sg76
(lp4505
S'/Book_Shelf/default/update_book_profile'
p4506
asbasbasbasbasbasbasbasbasbasbasbasbasbasbasbag69
(g85
g71
NtRp4507
(dp4508
g74
(dp4509
sg83
g3968
sg76
(lp4510
g69
(g90
g71
NtRp4511
(dp4512
g74
(dp4513
sg83
g4507
sg76
(lp4514
g69
(g70
g71
NtRp4515
(dp4516
g74
(dp4517
g82
I4
ssg83
g4511
sg76
(lp4518
g69
(g78
g71
NtRp4519
(dp4520
g74
(dp4521
g82
I3
ssg83
Nsg76
(lp4522
g69
(g85
g71
NtRp4523
(dp4524
g74
(dp4525
sg83
g4519
sg76
(lp4526
g69
(g90
g71
NtRp4527
(dp4528
g74
(dp4529
sg83
g4523
sg76
(lp4530
g69
(g70
g71
NtRp4531
(dp4532
g74
(dp4533
g82
I3
ssg83
g4527
sg76
(lp4534
g4000
(S's\n\x00\x00\x00Book Shelf'
tRp4535
asbasbasbag69
(g85
g71
NtRp4536
(dp4537
g74
(dp4538
sg83
g4519
sg76
(lp4539
g69
(g90
g71
NtRp4540
(dp4541
g74
(dp4542
sg83
g4536
sg76
(lp4543
g69
(g70
g71
NtRp4544
(dp4545
g74
(dp4546
g82
I3
ssg83
g4540
sg76
(lp4547
g112
asbasbasbag69
(g85
g71
NtRp4548
(dp4549
g74
(dp4550
sg83
g4519
sg76
(lp4551
g69
(g90
g71
NtRp4552
(dp4553
g74
(dp4554
sg83
g4548
sg76
(lp4555
g69
(g70
g71
NtRp4556
(dp4557
g74
(dp4558
g82
I3
ssg83
g4552
sg76
(lp4559
S'None'
p4560
asbasbasbag69
(g85
g71
NtRp4561
(dp4562
g74
(dp4563
sg83
g4519
sg76
(lp4564
g69
(g90
g71
NtRp4565
(dp4566
g74
(dp4567
sg83
g4561
sg76
(lp4568
g69
(g70
g71
NtRp4569
(dp4570
g74
(dp4571
g82
I3
ssg83
g4565
sg76
(lp4572
g69
(g78
g71
NtRp4573
(dp4574
g74
(dp4575
g82
I2
ssg83
Nsg76
(lp4576
g69
(g85
g71
NtRp4577
(dp4578
g74
(dp4579
sg83
g4573
sg76
(lp4580
g69
(g90
g71
NtRp4581
(dp4582
g74
(dp4583
sg83
g4577
sg76
(lp4584
g69
(g70
g71
NtRp4585
(dp4586
g74
(dp4587
g82
I2
ssg83
g4581
sg76
(lp4588
g69
(g78
g71
NtRp4589
(dp4590
g74
(dp4591
g82
I1
ssg83
Nsg76
(lp4592
g69
(g85
g71
NtRp4593
(dp4594
g74
(dp4595
sg83
g4589
sg76
(lp4596
g69
(g90
g71
NtRp4597
(dp4598
g74
(dp4599
sg83
g4593
sg76
(lp4600
g69
(g70
g71
NtRp4601
(dp4602
g74
(dp4603
g82
I1
ssg83
g4597
sg76
(lp4604
g4000
(S's\n\x00\x00\x00Book Shelf'
tRp4605
asbasbasbag69
(g85
g71
NtRp4606
(dp4607
g74
(dp4608
sg83
g4589
sg76
(lp4609
g69
(g90
g71
NtRp4610
(dp4611
g74
(dp4612
sg83
g4606
sg76
(lp4613
g69
(g70
g71
NtRp4614
(dp4615
g74
(dp4616
g82
I1
ssg83
g4610
sg76
(lp4617
I00
asbasbasbag69
(g85
g71
NtRp4618
(dp4619
g74
(dp4620
sg83
g4589
sg76
(lp4621
g69
(g90
g71
NtRp4622
(dp4623
g74
(dp4624
sg83
g4618
sg76
(lp4625
g69
(g70
g71
NtRp4626
(dp4627
g74
(dp4628
g82
I1
ssg83
g4622
sg76
(lp4629
S'/Book_Shelf/default/book_shelf'
p4630
asbasbasbasbasbasbasbag69
(g85
g71
NtRp4631
(dp4632
g74
(dp4633
sg83
g4573
sg76
(lp4634
g69
(g90
g71
NtRp4635
(dp4636
g74
(dp4637
sg83
g4631
sg76
(lp4638
g69
(g70
g71
NtRp4639
(dp4640
g74
(dp4641
g82
I2
ssg83
g4635
sg76
(lp4642
g69
(g78
g71
NtRp4643
(dp4644
g74
(dp4645
g82
I1
ssg83
Nsg76
(lp4646
g69
(g85
g71
NtRp4647
(dp4648
g74
(dp4649
sg83
g4643
sg76
(lp4650
g69
(g90
g71
NtRp4651
(dp4652
g74
(dp4653
sg83
g4647
sg76
(lp4654
g69
(g70
g71
NtRp4655
(dp4656
g74
(dp4657
g82
I1
ssg83
g4651
sg76
(lp4658
g4000
(S's\x11\x00\x00\x00Create Book Shelf'
tRp4659
asbasbasbag69
(g85
g71
NtRp4660
(dp4661
g74
(dp4662
sg83
g4643
sg76
(lp4663
g69
(g90
g71
NtRp4664
(dp4665
g74
(dp4666
sg83
g4660
sg76
(lp4667
g69
(g70
g71
NtRp4668
(dp4669
g74
(dp4670
g82
I1
ssg83
g4664
sg76
(lp4671
I00
asbasbasbag69
(g85
g71
NtRp4672
(dp4673
g74
(dp4674
sg83
g4643
sg76
(lp4675
g69
(g90
g71
NtRp4676
(dp4677
g74
(dp4678
sg83
g4672
sg76
(lp4679
g69
(g70
g71
NtRp4680
(dp4681
g74
(dp4682
g82
I1
ssg83
g4676
sg76
(lp4683
S'/Book_Shelf/default/create_book_shelf'
p4684
asbasbasbasbasbasbasbag69
(g85
g71
NtRp4685
(dp4686
g74
(dp4687
sg83
g4573
sg76
(lp4688
g69
(g90
g71
NtRp4689
(dp4690
g74
(dp4691
sg83
g4685
sg76
(lp4692
g69
(g70
g71
NtRp4693
(dp4694
g74
(dp4695
g82
I2
ssg83
g4689
sg76
(lp4696
g69
(g78
g71
NtRp4697
(dp4698
g74
(dp4699
g82
I1
ssg83
Nsg76
(lp4700
g69
(g85
g71
NtRp4701
(dp4702
g74
(dp4703
sg83
g4697
sg76
(lp4704
g69
(g90
g71
NtRp4705
(dp4706
g74
(dp4707
sg83
g4701
sg76
(lp4708
g69
(g70
g71
NtRp4709
(dp4710
g74
(dp4711
g82
I1
ssg83
g4705
sg76
(lp4712
g4000
(S's\x11\x00\x00\x00Update Book Shelf'
tRp4713
asbasbasbag69
(g85
g71
NtRp4714
(dp4715
g74
(dp4716
sg83
g4697
sg76
(lp4717
g69
(g90
g71
NtRp4718
(dp4719
g74
(dp4720
sg83
g4714
sg76
(lp4721
g69
(g70
g71
NtRp4722
(dp4723
g74
(dp4724
g82
I1
ssg83
g4718
sg76
(lp4725
I00
asbasbasbag69
(g85
g71
NtRp4726
(dp4727
g74
(dp4728
sg83
g4697
sg76
(lp4729
g69
(g90
g71
NtRp4730
(dp4731
g74
(dp4732
sg83
g4726
sg76
(lp4733
g69
(g70
g71
NtRp4734
(dp4735
g74
(dp4736
g82
I1
ssg83
g4730
sg76
(lp4737
S'/Book_Shelf/default/update_book_shelf'
p4738
asbasbasbasbasbasbasbasbasbasbasbasbasbasbasbag69
(g85
g71
NtRp4739
(dp4740
g74
(dp4741
sg83
g3968
sg76
(lp4742
g69
(g90
g71
NtRp4743
(dp4744
g74
(dp4745
sg83
g4739
sg76
(lp4746
g69
(g70
g71
NtRp4747
(dp4748
g74
(dp4749
g82
I4
ssg83
g4743
sg76
(lp4750
g69
(g78
g71
NtRp4751
(dp4752
g74
(dp4753
g82
I3
ssg83
Nsg76
(lp4754
g69
(g85
g71
NtRp4755
(dp4756
g74
(dp4757
sg83
g4751
sg76
(lp4758
g69
(g90
g71
NtRp4759
(dp4760
g74
(dp4761
sg83
g4755
sg76
(lp4762
g69
(g70
g71
NtRp4763
(dp4764
g74
(dp4765
g82
I3
ssg83
g4759
sg76
(lp4766
g69
(cgluon.html
SPAN
p4767
g71
NtRp4768
(dp4769
g74
(dp4770
g94
S'color:yellow'
p4771
ssg83
Nsg76
(lp4772
g3946
asbasbasbasbag69
(g85
g71
NtRp4773
(dp4774
g74
(dp4775
sg83
g4751
sg76
(lp4776
g69
(g90
g71
NtRp4777
(dp4778
g74
(dp4779
sg83
g4773
sg76
(lp4780
g69
(g70
g71
NtRp4781
(dp4782
g74
(dp4783
g82
I3
ssg83
g4777
sg76
(lp4784
g112
asbasbasbag69
(g85
g71
NtRp4785
(dp4786
g74
(dp4787
sg83
g4751
sg76
(lp4788
g69
(g90
g71
NtRp4789
(dp4790
g74
(dp4791
sg83
g4785
sg76
(lp4792
g69
(g70
g71
NtRp4793
(dp4794
g74
(dp4795
g82
I3
ssg83
g4789
sg76
(lp4796
S'None'
p4797
asbasbasbag69
(g85
g71
NtRp4798
(dp4799
g74
(dp4800
sg83
g4751
sg76
(lp4801
g69
(g90
g71
NtRp4802
(dp4803
g74
(dp4804
sg83
g4798
sg76
(lp4805
g69
(g70
g71
NtRp4806
(dp4807
g74
(dp4808
g82
I3
ssg83
g4802
sg76
(lp4809
g69
(g78
g71
NtRp4810
(dp4811
g74
(dp4812
g82
I2
ssg83
Nsg76
(lp4813
g69
(g85
g71
NtRp4814
(dp4815
g74
(dp4816
sg83
g4810
sg76
(lp4817
g69
(g90
g71
NtRp4818
(dp4819
g74
(dp4820
sg83
g4814
sg76
(lp4821
g69
(g70
g71
NtRp4822
(dp4823
g74
(dp4824
g82
I2
ssg83
g4818
sg76
(lp4825
g69
(g78
g71
NtRp4826
(dp4827
g74
(dp4828
g82
I1
ssg83
Nsg76
(lp4829
g69
(g85
g71
NtRp4830
(dp4831
g74
(dp4832
sg83
g4826
sg76
(lp4833
g69
(g90
g71
NtRp4834
(dp4835
g74
(dp4836
sg83
g4830
sg76
(lp4837
g69
(g70
g71
NtRp4838
(dp4839
g74
(dp4840
g82
I1
ssg83
g4834
sg76
(lp4841
g4000
(S's\x08\x00\x00\x00My Sites'
tRp4842
asbasbasbag69
(g85
g71
NtRp4843
(dp4844
g74
(dp4845
sg83
g4826
sg76
(lp4846
g69
(g90
g71
NtRp4847
(dp4848
g74
(dp4849
sg83
g4843
sg76
(lp4850
g69
(g70
g71
NtRp4851
(dp4852
g74
(dp4853
g82
I1
ssg83
g4847
sg76
(lp4854
I00
asbasbasbag69
(g85
g71
NtRp4855
(dp4856
g74
(dp4857
sg83
g4826
sg76
(lp4858
g69
(g90
g71
NtRp4859
(dp4860
g74
(dp4861
sg83
g4855
sg76
(lp4862
g69
(g70
g71
NtRp4863
(dp4864
g74
(dp4865
g82
I1
ssg83
g4859
sg76
(lp4866
S'/admin/default/site'
p4867
asbasbasbasbasbasbasbag69
(g85
g71
NtRp4868
(dp4869
g74
(dp4870
sg83
g4810
sg76
(lp4871
g69
(g90
g71
NtRp4872
(dp4873
g74
(dp4874
sg83
g4868
sg76
(lp4875
g69
(g70
g71
NtRp4876
(dp4877
g74
(dp4878
g82
I2
ssg83
g4872
sg76
(lp4879
g69
(g78
g71
NtRp4880
(dp4881
g74
(dp4882
g82
I1
ssg83
Nsg76
(lp4883
g69
(g85
g71
NtRp4884
(dp4885
g74
(dp4886
sg83
g4880
sg76
(lp4887
g69
(g90
g71
NtRp4888
(dp4889
g74
(dp4890
sg83
g4884
sg76
(lp4891
g69
(g70
g71
NtRp4892
(dp4893
g74
(dp4894
g82
I1
ssg83
g4888
sg76
(lp4895
g4000
(S's\x08\x00\x00\x00This App'
tRp4896
asbasbasbag69
(g85
g71
NtRp4897
(dp4898
g74
(dp4899
sg83
g4880
sg76
(lp4900
g69
(g90
g71
NtRp4901
(dp4902
g74
(dp4903
sg83
g4897
sg76
(lp4904
g69
(g70
g71
NtRp4905
(dp4906
g74
(dp4907
g82
I1
ssg83
g4901
sg76
(lp4908
I00
asbasbasbag69
(g85
g71
NtRp4909
(dp4910
g74
(dp4911
sg83
g4880
sg76
(lp4912
g69
(g90
g71
NtRp4913
(dp4914
g74
(dp4915
sg83
g4909
sg76
(lp4916
g69
(g70
g71
NtRp4917
(dp4918
g74
(dp4919
g82
I1
ssg83
g4913
sg76
(lp4920
S'/admin/default/design/Book_Shelf'
p4921
asbasbasbag69
(g85
g71
NtRp4922
(dp4923
g74
(dp4924
sg83
g4880
sg76
(lp4925
g69
(g90
g71
NtRp4926
(dp4927
g74
(dp4928
sg83
g4922
sg76
(lp4929
g69
(g70
g71
NtRp4930
(dp4931
g74
(dp4932
g82
I1
ssg83
g4926
sg76
(lp4933
(lp4934
(g4000
(S't\n\x00\x00\x00Controller'
tRp4935
I00
S'/admin/default/edit/Book_Shelf/controllers/default.py'
tp4936
a(g4000
(S't\x04\x00\x00\x00View'
tRp4937
I00
S'/admin/default/edit/Book_Shelf/views/default/create_book_shelf.html'
tp4938
a(g4000
(S't\x06\x00\x00\x00Layout'
tRp4939
I00
S'/admin/default/edit/Book_Shelf/views/layout.html'
tp4940
a(g4000
(S't\n\x00\x00\x00Stylesheet'
tRp4941
I00
S'/admin/default/edit/Book_Shelf/static/css/web2py.css'
tp4942
a(g4000
(S's\x08\x00\x00\x00DB Model'
tRp4943
I00
S'/admin/default/edit/Book_Shelf/models/db.py'
tp4944
a(g4000
(S's\n\x00\x00\x00Menu Model'
tRp4945
I00
S'/admin/default/edit/Book_Shelf/models/menu.py'
tp4946
a(g4000
(S't\x08\x00\x00\x00Database'
tRp4947
I00
S'/Book_Shelf/appadmin/index'
tp4948
a(g4000
(S't\x06\x00\x00\x00Errors'
tRp4949
I00
S'/admin/default/errors/Book_Shelf'
tp4950
a(g4000
(S't\x05\x00\x00\x00About'
tRp4951
I00
S'/admin/default/about/Book_Shelf'
tp4952
aasbasbasbasbasbasbasbag69
(g85
g71
NtRp4953
(dp4954
g74
(dp4955
sg83
g4810
sg76
(lp4956
g69
(g90
g71
NtRp4957
(dp4958
g74
(dp4959
sg83
g4953
sg76
(lp4960
g69
(g70
g71
NtRp4961
(dp4962
g74
(dp4963
g82
I2
ssg83
g4957
sg76
(lp4964
g69
(g78
g71
NtRp4965
(dp4966
g74
(dp4967
g82
I1
ssg83
Nsg76
(lp4968
g69
(g85
g71
NtRp4969
(dp4970
g74
(dp4971
sg83
g4965
sg76
(lp4972
g69
(g90
g71
NtRp4973
(dp4974
g74
(dp4975
sg83
g4969
sg76
(lp4976
g69
(g70
g71
NtRp4977
(dp4978
g74
(dp4979
g82
I1
ssg83
g4973
sg76
(lp4980
S'web2py.com'
p4981
asbasbasbag69
(g85
g71
NtRp4982
(dp4983
g74
(dp4984
sg83
g4965
sg76
(lp4985
g69
(g90
g71
NtRp4986
(dp4987
g74
(dp4988
sg83
g4982
sg76
(lp4989
g69
(g70
g71
NtRp4990
(dp4991
g74
(dp4992
g82
I1
ssg83
g4986
sg76
(lp4993
I00
asbasbasbag69
(g85
g71
NtRp4994
(dp4995
g74
(dp4996
sg83
g4965
sg76
(lp4997
g69
(g90
g71
NtRp4998
(dp4999
g74
(dp5000
sg83
g4994
sg76
(lp5001
g69
(g70
g71
NtRp5002
(dp5003
g74
(dp5004
g82
I1
ssg83
g4998
sg76
(lp5005
S'http://www.web2py.com'
p5006
asbasbasbag69
(g85
g71
NtRp5007
(dp5008
g74
(dp5009
sg83
g4965
sg76
(lp5010
g69
(g90
g71
NtRp5011
(dp5012
g74
(dp5013
sg83
g5007
sg76
(lp5014
g69
(g70
g71
NtRp5015
(dp5016
g74
(dp5017
g82
I1
ssg83
g5011
sg76
(lp5018
(lp5019
(g4000
(S't\x08\x00\x00\x00Download'
tRp5020
I00
S'http://www.web2py.com/examples/default/download'
p5021
tp5022
a(g4000
(S't\x07\x00\x00\x00Support'
tRp5023
I00
S'http://www.web2py.com/examples/default/support'
p5024
tp5025
a(g4000
(S't\x04\x00\x00\x00Demo'
tRp5026
I00
S'http://web2py.com/demo_admin'
p5027
tp5028
a(g4000
(S's\x0e\x00\x00\x00Quick Examples'
tRp5029
I00
S'http://web2py.com/examples/default/examples'
p5030
tp5031
a(g4000
(S't\x03\x00\x00\x00FAQ'
tRp5032
I00
S'http://web2py.com/AlterEgo'
p5033
tp5034
a(g4000
(S't\x06\x00\x00\x00Videos'
tRp5035
I00
S'http://www.web2py.com/examples/default/videos/'
p5036
tp5037
a(g4000
(S's\x11\x00\x00\x00Free Applications'
tRp5038
I00
S'http://web2py.com/appliances'
p5039
tp5040
a(g4000
(S't\x07\x00\x00\x00Plugins'
tRp5041
I00
S'http://web2py.com/plugins'
p5042
tp5043
a(g4000
(S't\x07\x00\x00\x00Layouts'
tRp5044
I00
S'http://web2py.com/layouts'
p5045
tp5046
a(g4000
(S't\x07\x00\x00\x00Recipes'
tRp5047
I00
S'http://web2pyslices.com/'
p5048
tp5049
a(g4000
(S't\x08\x00\x00\x00Semantic'
tRp5050
I00
S'http://web2py.com/semantic'
p5051
tp5052
aasbasbasbasbasbasbasbag69
(g85
g71
NtRp5053
(dp5054
g74
(dp5055
sg83
g4810
sg76
(lp5056
g69
(g90
g71
NtRp5057
(dp5058
g74
(dp5059
sg83
g5053
sg76
(lp5060
g69
(g70
g71
NtRp5061
(dp5062
g74
(dp5063
g82
I2
ssg83
g5057
sg76
(lp5064
g69
(g78
g71
NtRp5065
(dp5066
g74
(dp5067
g82
I1
ssg83
Nsg76
(lp5068
g69
(g85
g71
NtRp5069
(dp5070
g74
(dp5071
sg83
g5065
sg76
(lp5072
g69
(g90
g71
NtRp5073
(dp5074
g74
(dp5075
sg83
g5069
sg76
(lp5076
g69
(g70
g71
NtRp5077
(dp5078
g74
(dp5079
g82
I1
ssg83
g5073
sg76
(lp5080
g4000
(S't\r\x00\x00\x00Documentation'
tRp5081
asbasbasbag69
(g85
g71
NtRp5082
(dp5083
g74
(dp5084
sg83
g5065
sg76
(lp5085
g69
(g90
g71
NtRp5086
(dp5087
g74
(dp5088
sg83
g5082
sg76
(lp5089
g69
(g70
g71
NtRp5090
(dp5091
g74
(dp5092
g82
I1
ssg83
g5086
sg76
(lp5093
I00
asbasbasbag69
(g85
g71
NtRp5094
(dp5095
g74
(dp5096
sg83
g5065
sg76
(lp5097
g69
(g90
g71
NtRp5098
(dp5099
g74
(dp5100
sg83
g5094
sg76
(lp5101
g69
(g70
g71
NtRp5102
(dp5103
g74
(dp5104
g82
I1
ssg83
g5098
sg76
(lp5105
S'http://www.web2py.com/book'
p5106
asbasbasbag69
(g85
g71
NtRp5107
(dp5108
g74
(dp5109
sg83
g5065
sg76
(lp5110
g69
(g90
g71
NtRp5111
(dp5112
g74
(dp5113
sg83
g5107
sg76
(lp5114
g69
(g70
g71
NtRp5115
(dp5116
g74
(dp5117
g82
I1
ssg83
g5111
sg76
(lp5118
(lp5119
(g4000
(S't\x07\x00\x00\x00Preface'
tRp5120
I00
S'http://www.web2py.com/book/default/chapter/00'
p5121
tp5122
a(g4000
(S't\x0c\x00\x00\x00Introduction'
tRp5123
I00
S'http://www.web2py.com/book/default/chapter/01'
p5124
tp5125
a(g4000
(S't\x06\x00\x00\x00Python'
tRp5126
I00
S'http://www.web2py.com/book/default/chapter/02'
p5127
tp5128
a(g4000
(S't\x08\x00\x00\x00Overview'
tRp5129
I00
S'http://www.web2py.com/book/default/chapter/03'
p5130
tp5131
a(g4000
(S's\x08\x00\x00\x00The Core'
tRp5132
I00
S'http://www.web2py.com/book/default/chapter/04'
p5133
tp5134
a(g4000
(S's\t\x00\x00\x00The Views'
tRp5135
I00
S'http://www.web2py.com/book/default/chapter/05'
p5136
tp5137
a(g4000
(S't\x08\x00\x00\x00Database'
tRp5138
I00
S'http://www.web2py.com/book/default/chapter/06'
p5139
tp5140
a(g4000
(S's\x14\x00\x00\x00Forms and Validators'
tRp5141
I00
S'http://www.web2py.com/book/default/chapter/07'
p5142
tp5143
a(g4000
(S's\r\x00\x00\x00Email and SMS'
tRp5144
I00
S'http://www.web2py.com/book/default/chapter/08'
p5145
tp5146
a(g4000
(S's\x0e\x00\x00\x00Access Control'
tRp5147
I00
S'http://www.web2py.com/book/default/chapter/09'
p5148
tp5149
a(g4000
(S't\x08\x00\x00\x00Services'
tRp5150
I00
S'http://www.web2py.com/book/default/chapter/10'
p5151
tp5152
a(g4000
(S's\x0c\x00\x00\x00Ajax Recipes'
tRp5153
I00
S'http://www.web2py.com/book/default/chapter/11'
p5154
tp5155
a(g4000
(S's\x16\x00\x00\x00Components and Plugins'
tRp5156
I00
S'http://www.web2py.com/book/default/chapter/12'
p5157
tp5158
a(g4000
(S's\x12\x00\x00\x00Deployment Recipes'
tRp5159
I00
S'http://www.web2py.com/book/default/chapter/13'
p5160
tp5161
a(g4000
(S's\r\x00\x00\x00Other Recipes'
tRp5162
I00
S'http://www.web2py.com/book/default/chapter/14'
p5163
tp5164
a(g4000
(S's\r\x00\x00\x00Buy this book'
tRp5165
I00
S'http://stores.lulu.com/web2py'
p5166
tp5167
aasbasbasbasbasbasbasbag69
(g85
g71
NtRp5168
(dp5169
g74
(dp5170
sg83
g4810
sg76
(lp5171
g69
(g90
g71
NtRp5172
(dp5173
g74
(dp5174
sg83
g5168
sg76
(lp5175
g69
(g70
g71
NtRp5176
(dp5177
g74
(dp5178
g82
I2
ssg83
g5172
sg76
(lp5179
g69
(g78
g71
NtRp5180
(dp5181
g74
(dp5182
g82
I1
ssg83
Nsg76
(lp5183
g69
(g85
g71
NtRp5184
(dp5185
g74
(dp5186
sg83
g5180
sg76
(lp5187
g69
(g90
g71
NtRp5188
(dp5189
g74
(dp5190
sg83
g5184
sg76
(lp5191
g69
(g70
g71
NtRp5192
(dp5193
g74
(dp5194
g82
I1
ssg83
g5188
sg76
(lp5195
g4000
(S't\t\x00\x00\x00Community'
tRp5196
asbasbasbag69
(g85
g71
NtRp5197
(dp5198
g74
(dp5199
sg83
g5180
sg76
(lp5200
g69
(g90
g71
NtRp5201
(dp5202
g74
(dp5203
sg83
g5197
sg76
(lp5204
g69
(g70
g71
NtRp5205
(dp5206
g74
(dp5207
g82
I1
ssg83
g5201
sg76
(lp5208
I00
asbasbasbag69
(g85
g71
NtRp5209
(dp5210
g74
(dp5211
sg83
g5180
sg76
(lp5212
g69
(g90
g71
NtRp5213
(dp5214
g74
(dp5215
sg83
g5209
sg76
(lp5216
g69
(g70
g71
NtRp5217
(dp5218
g74
(dp5219
g82
I1
ssg83
g5213
sg76
(lp5220
Nasbasbasbag69
(g85
g71
NtRp5221
(dp5222
g74
(dp5223
sg83
g5180
sg76
(lp5224
g69
(g90
g71
NtRp5225
(dp5226
g74
(dp5227
sg83
g5221
sg76
(lp5228
g69
(g70
g71
NtRp5229
(dp5230
g74
(dp5231
g82
I1
ssg83
g5225
sg76
(lp5232
(lp5233
(g4000
(S't\x06\x00\x00\x00Groups'
tRp5234
I00
S'http://www.web2py.com/examples/default/usergroups'
p5235
tp5236
a(g4000
(S't\x07\x00\x00\x00Twitter'
tRp5237
I00
S'http://twitter.com/web2py'
p5238
tp5239
a(g4000
(S's\t\x00\x00\x00Live Chat'
tRp5240
I00
S'http://webchat.freenode.net/?channels=web2py'
p5241
tp5242
aasbasbasbasbasbasbasbag69
(g85
g71
NtRp5243
(dp5244
g74
(dp5245
sg83
g4810
sg76
(lp5246
g69
(g90
g71
NtRp5247
(dp5248
g74
(dp5249
sg83
g5243
sg76
(lp5250
g69
(g70
g71
NtRp5251
(dp5252
g74
(dp5253
g82
I2
ssg83
g5247
sg76
(lp5254
g69
(g78
g71
NtRp5255
(dp5256
g74
(dp5257
g82
I1
ssg83
Nsg76
(lp5258
g69
(g85
g71
NtRp5259
(dp5260
g74
(dp5261
sg83
g5255
sg76
(lp5262
g69
(g90
g71
NtRp5263
(dp5264
g74
(dp5265
sg83
g5259
sg76
(lp5266
g69
(g70
g71
NtRp5267
(dp5268
g74
(dp5269
g82
I1
ssg83
g5263
sg76
(lp5270
g4000
(S't\x07\x00\x00\x00Plugins'
tRp5271
asbasbasbag69
(g85
g71
NtRp5272
(dp5273
g74
(dp5274
sg83
g5255
sg76
(lp5275
g69
(g90
g71
NtRp5276
(dp5277
g74
(dp5278
sg83
g5272
sg76
(lp5279
g69
(g70
g71
NtRp5280
(dp5281
g74
(dp5282
g82
I1
ssg83
g5276
sg76
(lp5283
I00
asbasbasbag69
(g85
g71
NtRp5284
(dp5285
g74
(dp5286
sg83
g5255
sg76
(lp5287
g69
(g90
g71
NtRp5288
(dp5289
g74
(dp5290
sg83
g5284
sg76
(lp5291
g69
(g70
g71
NtRp5292
(dp5293
g74
(dp5294
g82
I1
ssg83
g5288
sg76
(lp5295
Nasbasbasbag69
(g85
g71
NtRp5296
(dp5297
g74
(dp5298
sg83
g5255
sg76
(lp5299
g69
(g90
g71
NtRp5300
(dp5301
g74
(dp5302
sg83
g5296
sg76
(lp5303
g69
(g70
g71
NtRp5304
(dp5305
g74
(dp5306
g82
I1
ssg83
g5300
sg76
(lp5307
(lp5308
(S'plugin_wiki'
p5309
I00
S'http://web2py.com/examples/default/download'
p5310
tp5311
a(g4000
(S's\r\x00\x00\x00Other Plugins'
tRp5312
I00
g5042
tp5313
a(g4000
(S's\x0e\x00\x00\x00Layout Plugins'
tRp5314
I00
g5045
tp5315
aasbasbasbasbasbasbasbasbasbasbasbasbasbasbasbasbasbasbasbag69
(g85
g71
NtRp5316
(dp5317
g74
(dp5318
sg83
g3444
sg76
(lp5319
g69
(g90
g71
NtRp5320
(dp5321
g74
(dp5322
g94
g95
ssg83
g5316
sg76
(lp5323
S'meta'
p5324
asbag69
(g90
g71
NtRp5325
(dp5326
g74
(dp5327
g101
g102
ssg83
g5316
sg76
(lp5328
S':'
asbag69
(g90
g71
NtRp5329
(dp5330
g74
(dp5331
sg83
g5316
sg76
(lp5332
g69
(g70
g71
NtRp5333
(dp5334
g74
(dp5335
g82
I5
ssg83
g5329
sg76
(lp5336
g69
(g78
g71
NtRp5337
(dp5338
g74
(dp5339
g82
I4
ssg83
Nsg76
(lp5340
g69
(g85
g71
NtRp5341
(dp5342
g74
(dp5343
sg83
g5337
sg76
(lp5344
g69
(g90
g71
NtRp5345
(dp5346
g74
(dp5347
g94
g95
ssg83
g5341
sg76
(lp5348
S'author'
p5349
asbag69
(g90
g71
NtRp5350
(dp5351
g74
(dp5352
g101
g102
ssg83
g5341
sg76
(lp5353
S':'
asbag69
(g90
g71
NtRp5354
(dp5355
g74
(dp5356
sg83
g5341
sg76
(lp5357
g69
(g70
g71
NtRp5358
(dp5359
g74
(dp5360
g82
I4
ssg83
g5354
sg76
(lp5361
S'Your Name <you@example.com>'
p5362
asbasbasbag69
(g85
g71
NtRp5363
(dp5364
g74
(dp5365
sg83
g5337
sg76
(lp5366
g69
(g90
g71
NtRp5367
(dp5368
g74
(dp5369
g94
g95
ssg83
g5363
sg76
(lp5370
S'copyright'
p5371
asbag69
(g90
g71
NtRp5372
(dp5373
g74
(dp5374
g101
g102
ssg83
g5363
sg76
(lp5375
S':'
asbag69
(g90
g71
NtRp5376
(dp5377
g74
(dp5378
sg83
g5363
sg76
(lp5379
g69
(g70
g71
NtRp5380
(dp5381
g74
(dp5382
g82
I4
ssg83
g5376
sg76
(lp5383
S'Copyright 2011'
p5384
asbasbasbag69
(g85
g71
NtRp5385
(dp5386
g74
(dp5387
sg83
g5337
sg76
(lp5388
g69
(g90
g71
NtRp5389
(dp5390
g74
(dp5391
g94
g95
ssg83
g5385
sg76
(lp5392
S'description'
p5393
asbag69
(g90
g71
NtRp5394
(dp5395
g74
(dp5396
g101
g102
ssg83
g5385
sg76
(lp5397
S':'
asbag69
(g90
g71
NtRp5398
(dp5399
g74
(dp5400
sg83
g5385
sg76
(lp5401
g69
(g70
g71
NtRp5402
(dp5403
g74
(dp5404
g82
I4
ssg83
g5398
sg76
(lp5405
S'a cool new app'
p5406
asbasbasbag69
(g85
g71
NtRp5407
(dp5408
g74
(dp5409
sg83
g5337
sg76
(lp5410
g69
(g90
g71
NtRp5411
(dp5412
g74
(dp5413
g94
g95
ssg83
g5407
sg76
(lp5414
S'generator'
p5415
asbag69
(g90
g71
NtRp5416
(dp5417
g74
(dp5418
g101
g102
ssg83
g5407
sg76
(lp5419
S':'
asbag69
(g90
g71
NtRp5420
(dp5421
g74
(dp5422
sg83
g5407
sg76
(lp5423
g69
(g70
g71
NtRp5424
(dp5425
g74
(dp5426
g82
I4
ssg83
g5420
sg76
(lp5427
S'Web2py Web Framework'
p5428
asbasbasbag69
(g85
g71
NtRp5429
(dp5430
g74
(dp5431
sg83
g5337
sg76
(lp5432
g69
(g90
g71
NtRp5433
(dp5434
g74
(dp5435
g94
g95
ssg83
g5429
sg76
(lp5436
S'keywords'
p5437
asbag69
(g90
g71
NtRp5438
(dp5439
g74
(dp5440
g101
g102
ssg83
g5429
sg76
(lp5441
S':'
asbag69
(g90
g71
NtRp5442
(dp5443
g74
(dp5444
sg83
g5429
sg76
(lp5445
g69
(g70
g71
NtRp5446
(dp5447
g74
(dp5448
g82
I4
ssg83
g5442
sg76
(lp5449
S'web2py, python, framework'
p5450
asbasbasbasbasbasbasbag69
(g85
g71
NtRp5451
(dp5452
g74
(dp5453
sg83
g3444
sg76
(lp5454
g69
(g90
g71
NtRp5455
(dp5456
g74
(dp5457
g94
g95
ssg83
g5451
sg76
(lp5458
S'postprocessing'
p5459
asbag69
(g90
g71
NtRp5460
(dp5461
g74
(dp5462
g101
g102
ssg83
g5451
sg76
(lp5463
S':'
asbag69
(g90
g71
NtRp5464
(dp5465
g74
(dp5466
sg83
g5451
sg76
(lp5467
g69
(g70
g71
NtRp5468
(dp5469
g74
(dp5470
g82
I5
ssg83
g5464
sg76
(lp5471
g69
(g78
g71
NtRp5472
(dp5473
g74
(dp5474
g82
I4
ssg83
Nsg76
(lp5475
sbasbasbasbag69
(g85
g71
NtRp5476
(dp5477
g74
(dp5478
sg83
g3444
sg76
(lp5479
g69
(g90
g71
NtRp5480
(dp5481
g74
(dp5482
g94
g95
ssg83
g5476
sg76
(lp5483
S'session_file'
p5484
asbag69
(g90
g71
NtRp5485
(dp5486
g74
(dp5487
g101
g102
ssg83
g5476
sg76
(lp5488
S':'
asbag69
(g90
g71
NtRp5489
(dp5490
g74
(dp5491
sg83
g5476
sg76
(lp5492
g69
(g70
g71
NtRp5493
(dp5494
g74
(dp5495
g82
I5
ssg83
g5489
sg76
(lp5496
S"<open file '/Users/ianaboneva/Downloads/web2py/applications/Book_Shelf/sessions/127.0.0.1-abc01c71-8844-4aa9-8d94-40c83b0e7587', mode 'rb+' at 0x103206810>"
p5497
asbasbasbag69
(g85
g71
NtRp5498
(dp5499
g74
(dp5500
sg83
g3444
sg76
(lp5501
g69
(g90
g71
NtRp5502
(dp5503
g74
(dp5504
g94
g95
ssg83
g5498
sg76
(lp5505
S'session_filename'
p5506
asbag69
(g90
g71
NtRp5507
(dp5508
g74
(dp5509
g101
g102
ssg83
g5498
sg76
(lp5510
S':'
asbag69
(g90
g71
NtRp5511
(dp5512
g74
(dp5513
sg83
g5498
sg76
(lp5514
g69
(g70
g71
NtRp5515
(dp5516
g74
(dp5517
g82
I5
ssg83
g5511
sg76
(lp5518
S'/Users/ianaboneva/Downloads/web2py/applications/Book_Shelf/sessions/127.0.0.1-abc01c71-8844-4aa9-8d94-40c83b0e7587'
p5519
asbasbasbag69
(g85
g71
NtRp5520
(dp5521
g74
(dp5522
sg83
g3444
sg76
(lp5523
g69
(g90
g71
NtRp5524
(dp5525
g74
(dp5526
g94
g95
ssg83
g5520
sg76
(lp5527
S'session_id'
p5528
asbag69
(g90
g71
NtRp5529
(dp5530
g74
(dp5531
g101
g102
ssg83
g5520
sg76
(lp5532
S':'
asbag69
(g90
g71
NtRp5533
(dp5534
g74
(dp5535
sg83
g5520
sg76
(lp5536
g69
(g70
g71
NtRp5537
(dp5538
g74
(dp5539
g82
I5
ssg83
g5533
sg76
(lp5540
S'127.0.0.1-abc01c71-8844-4aa9-8d94-40c83b0e7587'
p5541
asbasbasbag69
(g85
g71
NtRp5542
(dp5543
g74
(dp5544
sg83
g3444
sg76
(lp5545
g69
(g90
g71
NtRp5546
(dp5547
g74
(dp5548
g94
g95
ssg83
g5542
sg76
(lp5549
S'session_id_name'
p5550
asbag69
(g90
g71
NtRp5551
(dp5552
g74
(dp5553
g101
g102
ssg83
g5542
sg76
(lp5554
S':'
asbag69
(g90
g71
NtRp5555
(dp5556
g74
(dp5557
sg83
g5542
sg76
(lp5558
g69
(g70
g71
NtRp5559
(dp5560
g74
(dp5561
g82
I5
ssg83
g5555
sg76
(lp5562
g3501
asbasbasbag69
(g85
g71
NtRp5563
(dp5564
g74
(dp5565
sg83
g3444
sg76
(lp5566
g69
(g90
g71
NtRp5567
(dp5568
g74
(dp5569
g94
g95
ssg83
g5563
sg76
(lp5570
S'session_locked'
p5571
asbag69
(g90
g71
NtRp5572
(dp5573
g74
(dp5574
g101
g102
ssg83
g5563
sg76
(lp5575
S':'
asbag69
(g90
g71
NtRp5576
(dp5577
g74
(dp5578
sg83
g5563
sg76
(lp5579
g69
(g70
g71
NtRp5580
(dp5581
g74
(dp5582
g82
I5
ssg83
g5576
sg76
(lp5583
g1690
asbasbasbag69
(g85
g71
NtRp5584
(dp5585
g74
(dp5586
sg83
g3444
sg76
(lp5587
g69
(g90
g71
NtRp5588
(dp5589
g74
(dp5590
g94
g95
ssg83
g5584
sg76
(lp5591
S'session_new'
p5592
asbag69
(g90
g71
NtRp5593
(dp5594
g74
(dp5595
g101
g102
ssg83
g5584
sg76
(lp5596
S':'
asbag69
(g90
g71
NtRp5597
(dp5598
g74
(dp5599
sg83
g5584
sg76
(lp5600
g69
(g70
g71
NtRp5601
(dp5602
g74
(dp5603
g82
I5
ssg83
g5597
sg76
(lp5604
g112
asbasbasbag69
(g85
g71
NtRp5605
(dp5606
g74
(dp5607
sg83
g3444
sg76
(lp5608
g69
(g90
g71
NtRp5609
(dp5610
g74
(dp5611
g94
g95
ssg83
g5605
sg76
(lp5612
S'status'
p5613
asbag69
(g90
g71
NtRp5614
(dp5615
g74
(dp5616
g101
g102
ssg83
g5605
sg76
(lp5617
S':'
asbag69
(g90
g71
NtRp5618
(dp5619
g74
(dp5620
sg83
g5605
sg76
(lp5621
g69
(g70
g71
NtRp5622
(dp5623
g74
(dp5624
g82
I5
ssg83
g5618
sg76
(lp5625
S'200'
p5626
asbasbasbag69
(g85
g71
NtRp5627
(dp5628
g74
(dp5629
sg83
g3444
sg76
(lp5630
g69
(g90
g71
NtRp5631
(dp5632
g74
(dp5633
g94
g95
ssg83
g5627
sg76
(lp5634
S'subtitle'
p5635
asbag69
(g90
g71
NtRp5636
(dp5637
g74
(dp5638
g101
g102
ssg83
g5627
sg76
(lp5639
S':'
asbag69
(g90
g71
NtRp5640
(dp5641
g74
(dp5642
sg83
g5627
sg76
(lp5643
g69
(g70
g71
NtRp5644
(dp5645
g74
(dp5646
g82
I5
ssg83
g5640
sg76
(lp5647
g4000
(S's\r\x00\x00\x00customize me!'
tRp5648
asbasbasbag69
(g85
g71
NtRp5649
(dp5650
g74
(dp5651
sg83
g3444
sg76
(lp5652
g69
(g90
g71
NtRp5653
(dp5654
g74
(dp5655
g94
g95
ssg83
g5649
sg76
(lp5656
S'title'
p5657
asbag69
(g90
g71
NtRp5658
(dp5659
g74
(dp5660
g101
g102
ssg83
g5649
sg76
(lp5661
S':'
asbag69
(g90
g71
NtRp5662
(dp5663
g74
(dp5664
sg83
g5649
sg76
(lp5665
g69
(g70
g71
NtRp5666
(dp5667
g74
(dp5668
g82
I5
ssg83
g5662
sg76
(lp5669
S'Book Shelf'
p5670
asbasbasbag69
(g85
g71
NtRp5671
(dp5672
g74
(dp5673
sg83
g3444
sg76
(lp5674
g69
(g90
g71
NtRp5675
(dp5676
g74
(dp5677
g94
g95
ssg83
g5671
sg76
(lp5678
g2354
asbag69
(g90
g71
NtRp5679
(dp5680
g74
(dp5681
g101
g102
ssg83
g5671
sg76
(lp5682
S':'
asbag69
(g90
g71
NtRp5683
(dp5684
g74
(dp5685
sg83
g5671
sg76
(lp5686
g69
(g70
g71
NtRp5687
(dp5688
g74
(dp5689
g82
I5
ssg83
g5683
sg76
(lp5690
g2367
asbasbasbag69
(g85
g71
NtRp5691
(dp5692
g74
(dp5693
sg83
g3444
sg76
(lp5694
g69
(g90
g71
NtRp5695
(dp5696
g74
(dp5697
g94
g95
ssg83
g5691
sg76
(lp5698
S'view'
p5699
asbag69
(g90
g71
NtRp5700
(dp5701
g74
(dp5702
g101
g102
ssg83
g5691
sg76
(lp5703
S':'
asbag69
(g90
g71
NtRp5704
(dp5705
g74
(dp5706
sg83
g5691
sg76
(lp5707
g69
(g70
g71
NtRp5708
(dp5709
g74
(dp5710
g82
I5
ssg83
g5704
sg76
(lp5711
S'default/create_book_shelf.html'
p5712
asbasbasbasbasbsS'locals'
p5713
(dp5714
g4
S"'/Users/ianaboneva/Downloads/web2py/applications/Book_Shelf/controllers/default.py'"
p5715
sg6
S"'# -*- coding: utf-8 -*-\\n# this file is released ...sponse._vars=response._caller(create_book_shelf)\\n'"
p5716
sssS'traceback'
p5717
S'Traceback (most recent call last):\n  File "/Users/ianaboneva/Downloads/web2py/gluon/restricted.py", line 204, in restricted\n    ccode = compile2(code,layer)\n  File "/Users/ianaboneva/Downloads/web2py/gluon/restricted.py", line 189, in compile2\n    return compile(code.rstrip().replace(\'\\r\\n\',\'\\n\')+\'\\n\', layer, \'exec\')\n  File "/Users/ianaboneva/Downloads/web2py/applications/Book_Shelf/controllers/default.py", line 73\n    return locals()\n                  ^\nIndentationError: unindent does not match any outer indentation level\n'
p5718
s.