(dp1
S'output'
p2
S"<type 'exceptions.IndentationError'> unindent does not match any outer indentation level (default.py, line 15)"
p3
sS'layer'
p4
S'/Users/ianaboneva/Dropbox/DePaul/CSC 438 - Web Applications/web2py/applications/Book_Shelf_copy/controllers/default.py'
p5
sS'code'
p6
S'# -*- coding: utf-8 -*-\n# this file is released under public domain and you can use without limitations\n\n#########################################################################\n## This is a samples controller\n## - index is the default action of any application\n## - user is required for authentication and authorization\n## - download is for downloading files uploaded in the db (does streaming)\n## - call exposes all registered services (none by default)\n#########################################################################\n\ndef index():\n\tshelves = db(db.Book_Shelf.created_by==auth.user.id).select()\n    \n    response.flash = "Welcome to Book Shelf!"\n    return dict(message=T(\'Hello Readers!\'))\n\n@auth.requires_login()\ndef create_user_profile():\n    form = SQLFORM(db.User_Profile)\n    if form.process().accepted:\n        session.flash = "Form Accepted"\n        redirect(URL(\'user_profile\'))\n    else:\n        response.flash= "This is completely wrong you weiner..TRY AGAIN!"\n    return locals()\n\n@auth.requires_login() \ndef update_user_profile():\n    record = db.User_Profile(request.args(0)) or redirect (URL(\'index\'))\n    if (auth.user.id!=record.created_by):\n        session.flash = \'access denied\'\n        redirect(URL(\'index\'))\n    form = SQLFORM(db.User_Profile, record)\n    if form.process().accepted:\n        session.flash = "Form Accepted"\n        redirect(URL(\'user_profile\'))\n    else:\n        response.flash= "This is completely wrong you weiner..TRY AGAIN!"\n    return locals()\n      \n@auth.requires_login() \ndef user_profile():\n    profiles = db(db.User_Profile.created_by==auth.user.id).select()\n    return locals()\n\n@auth.requires_login() \ndef create_book_profile():\n    form = SQLFORM(db.Book_Profile)\n    if form.process().accepted:\n        session.flash = "Form Accepted"\n        redirect(URL(\'book_profile\'))\n    else:\n        response.flash= "This is completely wrong you weiner..TRY AGAIN!"\n    return locals()\n  \n@auth.requires_login() \ndef update_book_profile():\n    record = db.Book_Profile(request.args(0)) or redirect (URL(\'index\'))\n    form = SQLFORM(db.Book_Profile, record)\n    if form.process().accepted:\n        session.flash = "Form Accepted"\n        redirect(URL(\'book_profile\'))\n    else:\n        response.flash= "This is completely wrong you weiner..TRY AGAIN!"\n    return locals()\n      \ndef book_profile():\n    book = db.Book_Profile(request.args(0)) or redirect (URL(\'index\'))\n    return locals()\n\n@auth.requires_login() \ndef create_book_shelf():\n    form = SQLFORM(db.Book_Shelf)\n    if form.process().accepted:\n        session.flash = "Form Accepted"\n    else:\n        response.flash = "WRONG!"\n    return locals()\n\n@auth.requires_login() \ndef update_book_shelf():\n    return locals()\n    \n@auth.requires_login()      \ndef book_shelf():\n    shelves = db(db.Book_Shelf.created_by==auth.user.id).select()\n    return locals()\n \n@auth.requires_login()    \ndef comments():\n    return locals()\n \n@auth.requires_login()    \ndef reviews():\n    return locals()\n\n\ndef user():\n    """\n    exposes:\n    http://..../[app]/default/user/login\n    http://..../[app]/default/user/logout\n    http://..../[app]/default/user/register\n    http://..../[app]/default/user/profile\n    http://..../[app]/default/user/retrieve_password\n    http://..../[app]/default/user/change_password\n    use @auth.requires_login()\n        @auth.requires_membership(\'group name\')\n        @auth.requires_permission(\'read\',\'table name\',record_id)\n    to decorate functions that need access control\n    """\n    return dict(form=auth())\n\ndef download():\n    """\n    allows downloading of uploaded files\n    http://..../[app]/default/download/[filename]\n    """\n    return response.download(request,db)\n\n\ndef call():\n    """\n    exposes services. for example:\n    http://..../[app]/default/call/jsonrpc\n    decorate with @services.jsonrpc the functions to expose\n    supports xml, json, xmlrpc, jsonrpc, amfrpc, rss, csv\n    """\n    return service()\n\n\n@auth.requires_signature()\ndef data():\n    """\n    http://..../[app]/default/data/tables\n    http://..../[app]/default/data/create/[table]\n    http://..../[app]/default/data/read/[table]/[id]\n    http://..../[app]/default/data/update/[table]/[id]\n    http://..../[app]/default/data/delete/[table]/[id]\n    http://..../[app]/default/data/select/[table]\n    http://..../[app]/default/data/search/[table]\n    but URLs must be signed, i.e. linked with\n      A(\'table\',_href=URL(\'data/tables\',user_signature=True))\n    or with the signed load operator\n      LOAD(\'default\',\'data.load\',args=\'tables\',ajax=True,user_signature=True)\n    """\n    return dict(form=crud())\n\nresponse._vars=response._caller(index)\n'
p7
sS'snapshot'
p8
(dp9
S'exception'
p10
(dp11
S'__getslice__'
p12
S"<method-wrapper '__getslice__' of exceptions.IndentationError object>"
p13
sS'text'
p14
S'\'    response.flash = "Welcome to Book Shelf!"\\n\''
p15
sS'__str__'
p16
S"<method-wrapper '__str__' of exceptions.IndentationError object>"
p17
sS'__reduce__'
p18
S'<built-in method __reduce__ of exceptions.IndentationError object>'
p19
sS'__dict__'
p20
S'{}'
p21
sS'__sizeof__'
p22
S'<built-in method __sizeof__ of exceptions.IndentationError object>'
p23
sS'__init__'
p24
S"<method-wrapper '__init__' of exceptions.IndentationError object>"
p25
sS'__setattr__'
p26
S"<method-wrapper '__setattr__' of exceptions.IndentationError object>"
p27
sS'__reduce_ex__'
p28
S'<built-in method __reduce_ex__ of exceptions.IndentationError object>'
p29
sS'__new__'
p30
S'<built-in method __new__ of type object>'
p31
sS'__format__'
p32
S'<built-in method __format__ of exceptions.IndentationError object>'
p33
sS'__class__'
p34
S"<type 'exceptions.IndentationError'>"
p35
sS'filename'
p36
S"'/Users/ianaboneva/Dropbox/DePaul/CSC 438 - Web A...plications/Book_Shelf_copy/controllers/default.py'"
p37
sS'lineno'
p38
S'15'
p39
sS'msg'
p40
S"'unindent does not match any outer indentation level'"
p41
sS'__doc__'
p42
S"'Improper indentation.'"
p43
sS'__getitem__'
p44
S"<method-wrapper '__getitem__' of exceptions.IndentationError object>"
p45
sS'__setstate__'
p46
S'<built-in method __setstate__ of exceptions.IndentationError object>'
p47
sS'__getattribute__'
p48
S"<method-wrapper '__getattribute__' of exceptions.IndentationError object>"
p49
sS'print_file_and_line'
p50
S'None'
p51
sS'args'
p52
S'(\'unindent does not match any outer indentation level\', (\'/Users/ianaboneva/Dropbox/DePaul/CSC 438 - Web A...plications/Book_Shelf_copy/controllers/default.py\', 15, 46, \'    response.flash = "Welcome to Book Shelf!"\\n\'))'
p53
sS'__subclasshook__'
p54
S'<built-in method __subclasshook__ of type object>'
p55
sS'offset'
p56
S'46'
p57
sS'__unicode__'
p58
S'<built-in method __unicode__ of exceptions.IndentationError object>'
p59
sS'__delattr__'
p60
S"<method-wrapper '__delattr__' of exceptions.IndentationError object>"
p61
sS'__repr__'
p62
S"<method-wrapper '__repr__' of exceptions.IndentationError object>"
p63
sS'__hash__'
p64
S"<method-wrapper '__hash__' of exceptions.IndentationError object>"
p65
ssS'evalue'
p66
S'unindent does not match any outer indentation level (default.py, line 15)'
p67
sS'request'
p68
ccopy_reg
_reconstructor
p69
(cgluon.html
BEAUTIFY
p70
c__builtin__
object
p71
NtRp72
(dp73
S'attributes'
p74
(dp75
sS'components'
p76
(lp77
g69
(cgluon.html
TABLE
p78
g71
NtRp79
(dp80
g74
(dp81
S'level'
p82
I5
ssS'parent'
p83
Nsg76
(lp84
g69
(cgluon.html
TR
p85
g71
NtRp86
(dp87
g74
(dp88
sg83
g79
sg76
(lp89
g69
(cgluon.html
TD
p90
g71
NtRp91
(dp92
g74
(dp93
S'_style'
p94
S'font-weight:bold;vertical-align:top'
p95
ssg83
g86
sg76
(lp96
S'ajax'
p97
asbag69
(g90
g71
NtRp98
(dp99
g74
(dp100
S'_valign'
p101
S'top'
p102
ssg83
g86
sg76
(lp103
S':'
asbag69
(g90
g71
NtRp104
(dp105
g74
(dp106
sg83
g86
sg76
(lp107
g69
(g70
g71
NtRp108
(dp109
g74
(dp110
g82
I5
ssg83
g104
sg76
(lp111
S'False'
p112
asbasbasbag69
(g85
g71
NtRp113
(dp114
g74
(dp115
sg83
g79
sg76
(lp116
g69
(g90
g71
NtRp117
(dp118
g74
(dp119
g94
g95
ssg83
g113
sg76
(lp120
S'application'
p121
asbag69
(g90
g71
NtRp122
(dp123
g74
(dp124
g101
g102
ssg83
g113
sg76
(lp125
S':'
asbag69
(g90
g71
NtRp126
(dp127
g74
(dp128
sg83
g113
sg76
(lp129
g69
(g70
g71
NtRp130
(dp131
g74
(dp132
g82
I5
ssg83
g126
sg76
(lp133
S'Book_Shelf_copy'
p134
asbasbasbag69
(g85
g71
NtRp135
(dp136
g74
(dp137
sg83
g79
sg76
(lp138
g69
(g90
g71
NtRp139
(dp140
g74
(dp141
g94
g95
ssg83
g135
sg76
(lp142
g52
asbag69
(g90
g71
NtRp143
(dp144
g74
(dp145
g101
g102
ssg83
g135
sg76
(lp146
S':'
asbag69
(g90
g71
NtRp147
(dp148
g74
(dp149
sg83
g135
sg76
(lp150
g69
(g70
g71
NtRp151
(dp152
g74
(dp153
g82
I5
ssg83
g147
sg76
(lp154
g69
(g78
g71
NtRp155
(dp156
g74
(dp157
g82
I4
ssg83
Nsg76
(lp158
sbasbasbasbag69
(g85
g71
NtRp159
(dp160
g74
(dp161
sg83
g79
sg76
(lp162
g69
(g90
g71
NtRp163
(dp164
g74
(dp165
g94
g95
ssg83
g159
sg76
(lp166
S'body'
p167
asbag69
(g90
g71
NtRp168
(dp169
g74
(dp170
g101
g102
ssg83
g159
sg76
(lp171
S':'
asbag69
(g90
g71
NtRp172
(dp173
g74
(dp174
sg83
g159
sg76
(lp175
g69
(g70
g71
NtRp176
(dp177
g74
(dp178
g82
I5
ssg83
g172
sg76
(lp179
S'<cStringIO.StringO object at 0x10564ca08>'
p180
asbasbasbag69
(g85
g71
NtRp181
(dp182
g74
(dp183
sg83
g79
sg76
(lp184
g69
(g90
g71
NtRp185
(dp186
g74
(dp187
g94
g95
ssg83
g181
sg76
(lp188
S'client'
p189
asbag69
(g90
g71
NtRp190
(dp191
g74
(dp192
g101
g102
ssg83
g181
sg76
(lp193
S':'
asbag69
(g90
g71
NtRp194
(dp195
g74
(dp196
sg83
g181
sg76
(lp197
g69
(g70
g71
NtRp198
(dp199
g74
(dp200
g82
I5
ssg83
g194
sg76
(lp201
S'127.0.0.1'
p202
asbasbasbag69
(g85
g71
NtRp203
(dp204
g74
(dp205
sg83
g79
sg76
(lp206
g69
(g90
g71
NtRp207
(dp208
g74
(dp209
g94
g95
ssg83
g203
sg76
(lp210
S'controller'
p211
asbag69
(g90
g71
NtRp212
(dp213
g74
(dp214
g101
g102
ssg83
g203
sg76
(lp215
S':'
asbag69
(g90
g71
NtRp216
(dp217
g74
(dp218
sg83
g203
sg76
(lp219
g69
(g70
g71
NtRp220
(dp221
g74
(dp222
g82
I5
ssg83
g216
sg76
(lp223
S'default'
p224
asbasbasbag69
(g85
g71
NtRp225
(dp226
g74
(dp227
sg83
g79
sg76
(lp228
g69
(g90
g71
NtRp229
(dp230
g74
(dp231
g94
g95
ssg83
g225
sg76
(lp232
S'cookies'
p233
asbag69
(g90
g71
NtRp234
(dp235
g74
(dp236
g101
g102
ssg83
g225
sg76
(lp237
S':'
asbag69
(g90
g71
NtRp238
(dp239
g74
(dp240
sg83
g225
sg76
(lp241
g69
(g70
g71
NtRp242
(dp243
g74
(dp244
g82
I5
ssg83
g238
sg76
(lp245
g69
(g78
g71
NtRp246
(dp247
g74
(dp248
g82
I4
ssg83
Nsg76
(lp249
g69
(g85
g71
NtRp250
(dp251
g74
(dp252
sg83
g246
sg76
(lp253
g69
(g90
g71
NtRp254
(dp255
g74
(dp256
g94
g95
ssg83
g250
sg76
(lp257
S'session_id_admin'
p258
asbag69
(g90
g71
NtRp259
(dp260
g74
(dp261
g101
g102
ssg83
g250
sg76
(lp262
S':'
asbag69
(g90
g71
NtRp263
(dp264
g74
(dp265
sg83
g250
sg76
(lp266
g69
(g70
g71
NtRp267
(dp268
g74
(dp269
g82
I4
ssg83
g263
sg76
(lp270
g69
(g78
g71
NtRp271
(dp272
g74
(dp273
g82
I3
ssg83
Nsg76
(lp274
g69
(g85
g71
NtRp275
(dp276
g74
(dp277
sg83
g271
sg76
(lp278
g69
(g90
g71
NtRp279
(dp280
g74
(dp281
g94
g95
ssg83
g275
sg76
(lp282
S'comment'
p283
asbag69
(g90
g71
NtRp284
(dp285
g74
(dp286
g101
g102
ssg83
g275
sg76
(lp287
S':'
asbag69
(g90
g71
NtRp288
(dp289
g74
(dp290
sg83
g275
sg76
(lp291
g69
(g70
g71
NtRp292
(dp293
g74
(dp294
g82
I3
ssg83
g288
sg76
(lp295
S''
asbasbasbag69
(g85
g71
NtRp296
(dp297
g74
(dp298
sg83
g271
sg76
(lp299
g69
(g90
g71
NtRp300
(dp301
g74
(dp302
g94
g95
ssg83
g296
sg76
(lp303
S'domain'
p304
asbag69
(g90
g71
NtRp305
(dp306
g74
(dp307
g101
g102
ssg83
g296
sg76
(lp308
S':'
asbag69
(g90
g71
NtRp309
(dp310
g74
(dp311
sg83
g296
sg76
(lp312
g69
(g70
g71
NtRp313
(dp314
g74
(dp315
g82
I3
ssg83
g309
sg76
(lp316
S''
asbasbasbag69
(g85
g71
NtRp317
(dp318
g74
(dp319
sg83
g271
sg76
(lp320
g69
(g90
g71
NtRp321
(dp322
g74
(dp323
g94
g95
ssg83
g317
sg76
(lp324
S'expires'
p325
asbag69
(g90
g71
NtRp326
(dp327
g74
(dp328
g101
g102
ssg83
g317
sg76
(lp329
S':'
asbag69
(g90
g71
NtRp330
(dp331
g74
(dp332
sg83
g317
sg76
(lp333
g69
(g70
g71
NtRp334
(dp335
g74
(dp336
g82
I3
ssg83
g330
sg76
(lp337
S''
asbasbasbag69
(g85
g71
NtRp338
(dp339
g74
(dp340
sg83
g271
sg76
(lp341
g69
(g90
g71
NtRp342
(dp343
g74
(dp344
g94
g95
ssg83
g338
sg76
(lp345
S'httponly'
p346
asbag69
(g90
g71
NtRp347
(dp348
g74
(dp349
g101
g102
ssg83
g338
sg76
(lp350
S':'
asbag69
(g90
g71
NtRp351
(dp352
g74
(dp353
sg83
g338
sg76
(lp354
g69
(g70
g71
NtRp355
(dp356
g74
(dp357
g82
I3
ssg83
g351
sg76
(lp358
S''
asbasbasbag69
(g85
g71
NtRp359
(dp360
g74
(dp361
sg83
g271
sg76
(lp362
g69
(g90
g71
NtRp363
(dp364
g74
(dp365
g94
g95
ssg83
g359
sg76
(lp366
S'max-age'
p367
asbag69
(g90
g71
NtRp368
(dp369
g74
(dp370
g101
g102
ssg83
g359
sg76
(lp371
S':'
asbag69
(g90
g71
NtRp372
(dp373
g74
(dp374
sg83
g359
sg76
(lp375
g69
(g70
g71
NtRp376
(dp377
g74
(dp378
g82
I3
ssg83
g372
sg76
(lp379
S''
asbasbasbag69
(g85
g71
NtRp380
(dp381
g74
(dp382
sg83
g271
sg76
(lp383
g69
(g90
g71
NtRp384
(dp385
g74
(dp386
g94
g95
ssg83
g380
sg76
(lp387
S'path'
p388
asbag69
(g90
g71
NtRp389
(dp390
g74
(dp391
g101
g102
ssg83
g380
sg76
(lp392
S':'
asbag69
(g90
g71
NtRp393
(dp394
g74
(dp395
sg83
g380
sg76
(lp396
g69
(g70
g71
NtRp397
(dp398
g74
(dp399
g82
I3
ssg83
g393
sg76
(lp400
S''
asbasbasbag69
(g85
g71
NtRp401
(dp402
g74
(dp403
sg83
g271
sg76
(lp404
g69
(g90
g71
NtRp405
(dp406
g74
(dp407
g94
g95
ssg83
g401
sg76
(lp408
S'secure'
p409
asbag69
(g90
g71
NtRp410
(dp411
g74
(dp412
g101
g102
ssg83
g401
sg76
(lp413
S':'
asbag69
(g90
g71
NtRp414
(dp415
g74
(dp416
sg83
g401
sg76
(lp417
g69
(g70
g71
NtRp418
(dp419
g74
(dp420
g82
I3
ssg83
g414
sg76
(lp421
S''
asbasbasbag69
(g85
g71
NtRp422
(dp423
g74
(dp424
sg83
g271
sg76
(lp425
g69
(g90
g71
NtRp426
(dp427
g74
(dp428
g94
g95
ssg83
g422
sg76
(lp429
S'version'
p430
asbag69
(g90
g71
NtRp431
(dp432
g74
(dp433
g101
g102
ssg83
g422
sg76
(lp434
S':'
asbag69
(g90
g71
NtRp435
(dp436
g74
(dp437
sg83
g422
sg76
(lp438
g69
(g70
g71
NtRp439
(dp440
g74
(dp441
g82
I3
ssg83
g435
sg76
(lp442
S''
asbasbasbasbasbasbasbag69
(g85
g71
NtRp443
(dp444
g74
(dp445
sg83
g246
sg76
(lp446
g69
(g90
g71
NtRp447
(dp448
g74
(dp449
g94
g95
ssg83
g443
sg76
(lp450
S'session_id_book_shelf_copy'
p451
asbag69
(g90
g71
NtRp452
(dp453
g74
(dp454
g101
g102
ssg83
g443
sg76
(lp455
S':'
asbag69
(g90
g71
NtRp456
(dp457
g74
(dp458
sg83
g443
sg76
(lp459
g69
(g70
g71
NtRp460
(dp461
g74
(dp462
g82
I4
ssg83
g456
sg76
(lp463
g69
(g78
g71
NtRp464
(dp465
g74
(dp466
g82
I3
ssg83
Nsg76
(lp467
g69
(g85
g71
NtRp468
(dp469
g74
(dp470
sg83
g464
sg76
(lp471
g69
(g90
g71
NtRp472
(dp473
g74
(dp474
g94
g95
ssg83
g468
sg76
(lp475
g283
asbag69
(g90
g71
NtRp476
(dp477
g74
(dp478
g101
g102
ssg83
g468
sg76
(lp479
S':'
asbag69
(g90
g71
NtRp480
(dp481
g74
(dp482
sg83
g468
sg76
(lp483
g69
(g70
g71
NtRp484
(dp485
g74
(dp486
g82
I3
ssg83
g480
sg76
(lp487
S''
asbasbasbag69
(g85
g71
NtRp488
(dp489
g74
(dp490
sg83
g464
sg76
(lp491
g69
(g90
g71
NtRp492
(dp493
g74
(dp494
g94
g95
ssg83
g488
sg76
(lp495
g304
asbag69
(g90
g71
NtRp496
(dp497
g74
(dp498
g101
g102
ssg83
g488
sg76
(lp499
S':'
asbag69
(g90
g71
NtRp500
(dp501
g74
(dp502
sg83
g488
sg76
(lp503
g69
(g70
g71
NtRp504
(dp505
g74
(dp506
g82
I3
ssg83
g500
sg76
(lp507
S''
asbasbasbag69
(g85
g71
NtRp508
(dp509
g74
(dp510
sg83
g464
sg76
(lp511
g69
(g90
g71
NtRp512
(dp513
g74
(dp514
g94
g95
ssg83
g508
sg76
(lp515
g325
asbag69
(g90
g71
NtRp516
(dp517
g74
(dp518
g101
g102
ssg83
g508
sg76
(lp519
S':'
asbag69
(g90
g71
NtRp520
(dp521
g74
(dp522
sg83
g508
sg76
(lp523
g69
(g70
g71
NtRp524
(dp525
g74
(dp526
g82
I3
ssg83
g520
sg76
(lp527
S''
asbasbasbag69
(g85
g71
NtRp528
(dp529
g74
(dp530
sg83
g464
sg76
(lp531
g69
(g90
g71
NtRp532
(dp533
g74
(dp534
g94
g95
ssg83
g528
sg76
(lp535
g346
asbag69
(g90
g71
NtRp536
(dp537
g74
(dp538
g101
g102
ssg83
g528
sg76
(lp539
S':'
asbag69
(g90
g71
NtRp540
(dp541
g74
(dp542
sg83
g528
sg76
(lp543
g69
(g70
g71
NtRp544
(dp545
g74
(dp546
g82
I3
ssg83
g540
sg76
(lp547
S''
asbasbasbag69
(g85
g71
NtRp548
(dp549
g74
(dp550
sg83
g464
sg76
(lp551
g69
(g90
g71
NtRp552
(dp553
g74
(dp554
g94
g95
ssg83
g548
sg76
(lp555
g367
asbag69
(g90
g71
NtRp556
(dp557
g74
(dp558
g101
g102
ssg83
g548
sg76
(lp559
S':'
asbag69
(g90
g71
NtRp560
(dp561
g74
(dp562
sg83
g548
sg76
(lp563
g69
(g70
g71
NtRp564
(dp565
g74
(dp566
g82
I3
ssg83
g560
sg76
(lp567
S''
asbasbasbag69
(g85
g71
NtRp568
(dp569
g74
(dp570
sg83
g464
sg76
(lp571
g69
(g90
g71
NtRp572
(dp573
g74
(dp574
g94
g95
ssg83
g568
sg76
(lp575
g388
asbag69
(g90
g71
NtRp576
(dp577
g74
(dp578
g101
g102
ssg83
g568
sg76
(lp579
S':'
asbag69
(g90
g71
NtRp580
(dp581
g74
(dp582
sg83
g568
sg76
(lp583
g69
(g70
g71
NtRp584
(dp585
g74
(dp586
g82
I3
ssg83
g580
sg76
(lp587
S''
asbasbasbag69
(g85
g71
NtRp588
(dp589
g74
(dp590
sg83
g464
sg76
(lp591
g69
(g90
g71
NtRp592
(dp593
g74
(dp594
g94
g95
ssg83
g588
sg76
(lp595
g409
asbag69
(g90
g71
NtRp596
(dp597
g74
(dp598
g101
g102
ssg83
g588
sg76
(lp599
S':'
asbag69
(g90
g71
NtRp600
(dp601
g74
(dp602
sg83
g588
sg76
(lp603
g69
(g70
g71
NtRp604
(dp605
g74
(dp606
g82
I3
ssg83
g600
sg76
(lp607
S''
asbasbasbag69
(g85
g71
NtRp608
(dp609
g74
(dp610
sg83
g464
sg76
(lp611
g69
(g90
g71
NtRp612
(dp613
g74
(dp614
g94
g95
ssg83
g608
sg76
(lp615
g430
asbag69
(g90
g71
NtRp616
(dp617
g74
(dp618
g101
g102
ssg83
g608
sg76
(lp619
S':'
asbag69
(g90
g71
NtRp620
(dp621
g74
(dp622
sg83
g608
sg76
(lp623
g69
(g70
g71
NtRp624
(dp625
g74
(dp626
g82
I3
ssg83
g620
sg76
(lp627
S''
asbasbasbasbasbasbasbag69
(g85
g71
NtRp628
(dp629
g74
(dp630
sg83
g246
sg76
(lp631
g69
(g90
g71
NtRp632
(dp633
g74
(dp634
g94
g95
ssg83
g628
sg76
(lp635
S'session_id_todolist2'
p636
asbag69
(g90
g71
NtRp637
(dp638
g74
(dp639
g101
g102
ssg83
g628
sg76
(lp640
S':'
asbag69
(g90
g71
NtRp641
(dp642
g74
(dp643
sg83
g628
sg76
(lp644
g69
(g70
g71
NtRp645
(dp646
g74
(dp647
g82
I4
ssg83
g641
sg76
(lp648
g69
(g78
g71
NtRp649
(dp650
g74
(dp651
g82
I3
ssg83
Nsg76
(lp652
g69
(g85
g71
NtRp653
(dp654
g74
(dp655
sg83
g649
sg76
(lp656
g69
(g90
g71
NtRp657
(dp658
g74
(dp659
g94
g95
ssg83
g653
sg76
(lp660
g283
asbag69
(g90
g71
NtRp661
(dp662
g74
(dp663
g101
g102
ssg83
g653
sg76
(lp664
S':'
asbag69
(g90
g71
NtRp665
(dp666
g74
(dp667
sg83
g653
sg76
(lp668
g69
(g70
g71
NtRp669
(dp670
g74
(dp671
g82
I3
ssg83
g665
sg76
(lp672
S''
asbasbasbag69
(g85
g71
NtRp673
(dp674
g74
(dp675
sg83
g649
sg76
(lp676
g69
(g90
g71
NtRp677
(dp678
g74
(dp679
g94
g95
ssg83
g673
sg76
(lp680
g304
asbag69
(g90
g71
NtRp681
(dp682
g74
(dp683
g101
g102
ssg83
g673
sg76
(lp684
S':'
asbag69
(g90
g71
NtRp685
(dp686
g74
(dp687
sg83
g673
sg76
(lp688
g69
(g70
g71
NtRp689
(dp690
g74
(dp691
g82
I3
ssg83
g685
sg76
(lp692
S''
asbasbasbag69
(g85
g71
NtRp693
(dp694
g74
(dp695
sg83
g649
sg76
(lp696
g69
(g90
g71
NtRp697
(dp698
g74
(dp699
g94
g95
ssg83
g693
sg76
(lp700
g325
asbag69
(g90
g71
NtRp701
(dp702
g74
(dp703
g101
g102
ssg83
g693
sg76
(lp704
S':'
asbag69
(g90
g71
NtRp705
(dp706
g74
(dp707
sg83
g693
sg76
(lp708
g69
(g70
g71
NtRp709
(dp710
g74
(dp711
g82
I3
ssg83
g705
sg76
(lp712
S''
asbasbasbag69
(g85
g71
NtRp713
(dp714
g74
(dp715
sg83
g649
sg76
(lp716
g69
(g90
g71
NtRp717
(dp718
g74
(dp719
g94
g95
ssg83
g713
sg76
(lp720
g346
asbag69
(g90
g71
NtRp721
(dp722
g74
(dp723
g101
g102
ssg83
g713
sg76
(lp724
S':'
asbag69
(g90
g71
NtRp725
(dp726
g74
(dp727
sg83
g713
sg76
(lp728
g69
(g70
g71
NtRp729
(dp730
g74
(dp731
g82
I3
ssg83
g725
sg76
(lp732
S''
asbasbasbag69
(g85
g71
NtRp733
(dp734
g74
(dp735
sg83
g649
sg76
(lp736
g69
(g90
g71
NtRp737
(dp738
g74
(dp739
g94
g95
ssg83
g733
sg76
(lp740
g367
asbag69
(g90
g71
NtRp741
(dp742
g74
(dp743
g101
g102
ssg83
g733
sg76
(lp744
S':'
asbag69
(g90
g71
NtRp745
(dp746
g74
(dp747
sg83
g733
sg76
(lp748
g69
(g70
g71
NtRp749
(dp750
g74
(dp751
g82
I3
ssg83
g745
sg76
(lp752
S''
asbasbasbag69
(g85
g71
NtRp753
(dp754
g74
(dp755
sg83
g649
sg76
(lp756
g69
(g90
g71
NtRp757
(dp758
g74
(dp759
g94
g95
ssg83
g753
sg76
(lp760
g388
asbag69
(g90
g71
NtRp761
(dp762
g74
(dp763
g101
g102
ssg83
g753
sg76
(lp764
S':'
asbag69
(g90
g71
NtRp765
(dp766
g74
(dp767
sg83
g753
sg76
(lp768
g69
(g70
g71
NtRp769
(dp770
g74
(dp771
g82
I3
ssg83
g765
sg76
(lp772
S''
asbasbasbag69
(g85
g71
NtRp773
(dp774
g74
(dp775
sg83
g649
sg76
(lp776
g69
(g90
g71
NtRp777
(dp778
g74
(dp779
g94
g95
ssg83
g773
sg76
(lp780
g409
asbag69
(g90
g71
NtRp781
(dp782
g74
(dp783
g101
g102
ssg83
g773
sg76
(lp784
S':'
asbag69
(g90
g71
NtRp785
(dp786
g74
(dp787
sg83
g773
sg76
(lp788
g69
(g70
g71
NtRp789
(dp790
g74
(dp791
g82
I3
ssg83
g785
sg76
(lp792
S''
asbasbasbag69
(g85
g71
NtRp793
(dp794
g74
(dp795
sg83
g649
sg76
(lp796
g69
(g90
g71
NtRp797
(dp798
g74
(dp799
g94
g95
ssg83
g793
sg76
(lp800
g430
asbag69
(g90
g71
NtRp801
(dp802
g74
(dp803
g101
g102
ssg83
g793
sg76
(lp804
S':'
asbag69
(g90
g71
NtRp805
(dp806
g74
(dp807
sg83
g793
sg76
(lp808
g69
(g70
g71
NtRp809
(dp810
g74
(dp811
g82
I3
ssg83
g805
sg76
(lp812
S''
asbasbasbasbasbasbasbag69
(g85
g71
NtRp813
(dp814
g74
(dp815
sg83
g246
sg76
(lp816
g69
(g90
g71
NtRp817
(dp818
g74
(dp819
g94
g95
ssg83
g813
sg76
(lp820
S'session_id_welcome'
p821
asbag69
(g90
g71
NtRp822
(dp823
g74
(dp824
g101
g102
ssg83
g813
sg76
(lp825
S':'
asbag69
(g90
g71
NtRp826
(dp827
g74
(dp828
sg83
g813
sg76
(lp829
g69
(g70
g71
NtRp830
(dp831
g74
(dp832
g82
I4
ssg83
g826
sg76
(lp833
g69
(g78
g71
NtRp834
(dp835
g74
(dp836
g82
I3
ssg83
Nsg76
(lp837
g69
(g85
g71
NtRp838
(dp839
g74
(dp840
sg83
g834
sg76
(lp841
g69
(g90
g71
NtRp842
(dp843
g74
(dp844
g94
g95
ssg83
g838
sg76
(lp845
g283
asbag69
(g90
g71
NtRp846
(dp847
g74
(dp848
g101
g102
ssg83
g838
sg76
(lp849
S':'
asbag69
(g90
g71
NtRp850
(dp851
g74
(dp852
sg83
g838
sg76
(lp853
g69
(g70
g71
NtRp854
(dp855
g74
(dp856
g82
I3
ssg83
g850
sg76
(lp857
S''
asbasbasbag69
(g85
g71
NtRp858
(dp859
g74
(dp860
sg83
g834
sg76
(lp861
g69
(g90
g71
NtRp862
(dp863
g74
(dp864
g94
g95
ssg83
g858
sg76
(lp865
g304
asbag69
(g90
g71
NtRp866
(dp867
g74
(dp868
g101
g102
ssg83
g858
sg76
(lp869
S':'
asbag69
(g90
g71
NtRp870
(dp871
g74
(dp872
sg83
g858
sg76
(lp873
g69
(g70
g71
NtRp874
(dp875
g74
(dp876
g82
I3
ssg83
g870
sg76
(lp877
S''
asbasbasbag69
(g85
g71
NtRp878
(dp879
g74
(dp880
sg83
g834
sg76
(lp881
g69
(g90
g71
NtRp882
(dp883
g74
(dp884
g94
g95
ssg83
g878
sg76
(lp885
g325
asbag69
(g90
g71
NtRp886
(dp887
g74
(dp888
g101
g102
ssg83
g878
sg76
(lp889
S':'
asbag69
(g90
g71
NtRp890
(dp891
g74
(dp892
sg83
g878
sg76
(lp893
g69
(g70
g71
NtRp894
(dp895
g74
(dp896
g82
I3
ssg83
g890
sg76
(lp897
S''
asbasbasbag69
(g85
g71
NtRp898
(dp899
g74
(dp900
sg83
g834
sg76
(lp901
g69
(g90
g71
NtRp902
(dp903
g74
(dp904
g94
g95
ssg83
g898
sg76
(lp905
g346
asbag69
(g90
g71
NtRp906
(dp907
g74
(dp908
g101
g102
ssg83
g898
sg76
(lp909
S':'
asbag69
(g90
g71
NtRp910
(dp911
g74
(dp912
sg83
g898
sg76
(lp913
g69
(g70
g71
NtRp914
(dp915
g74
(dp916
g82
I3
ssg83
g910
sg76
(lp917
S''
asbasbasbag69
(g85
g71
NtRp918
(dp919
g74
(dp920
sg83
g834
sg76
(lp921
g69
(g90
g71
NtRp922
(dp923
g74
(dp924
g94
g95
ssg83
g918
sg76
(lp925
g367
asbag69
(g90
g71
NtRp926
(dp927
g74
(dp928
g101
g102
ssg83
g918
sg76
(lp929
S':'
asbag69
(g90
g71
NtRp930
(dp931
g74
(dp932
sg83
g918
sg76
(lp933
g69
(g70
g71
NtRp934
(dp935
g74
(dp936
g82
I3
ssg83
g930
sg76
(lp937
S''
asbasbasbag69
(g85
g71
NtRp938
(dp939
g74
(dp940
sg83
g834
sg76
(lp941
g69
(g90
g71
NtRp942
(dp943
g74
(dp944
g94
g95
ssg83
g938
sg76
(lp945
g388
asbag69
(g90
g71
NtRp946
(dp947
g74
(dp948
g101
g102
ssg83
g938
sg76
(lp949
S':'
asbag69
(g90
g71
NtRp950
(dp951
g74
(dp952
sg83
g938
sg76
(lp953
g69
(g70
g71
NtRp954
(dp955
g74
(dp956
g82
I3
ssg83
g950
sg76
(lp957
S''
asbasbasbag69
(g85
g71
NtRp958
(dp959
g74
(dp960
sg83
g834
sg76
(lp961
g69
(g90
g71
NtRp962
(dp963
g74
(dp964
g94
g95
ssg83
g958
sg76
(lp965
g409
asbag69
(g90
g71
NtRp966
(dp967
g74
(dp968
g101
g102
ssg83
g958
sg76
(lp969
S':'
asbag69
(g90
g71
NtRp970
(dp971
g74
(dp972
sg83
g958
sg76
(lp973
g69
(g70
g71
NtRp974
(dp975
g74
(dp976
g82
I3
ssg83
g970
sg76
(lp977
S''
asbasbasbag69
(g85
g71
NtRp978
(dp979
g74
(dp980
sg83
g834
sg76
(lp981
g69
(g90
g71
NtRp982
(dp983
g74
(dp984
g94
g95
ssg83
g978
sg76
(lp985
g430
asbag69
(g90
g71
NtRp986
(dp987
g74
(dp988
g101
g102
ssg83
g978
sg76
(lp989
S':'
asbag69
(g90
g71
NtRp990
(dp991
g74
(dp992
sg83
g978
sg76
(lp993
g69
(g70
g71
NtRp994
(dp995
g74
(dp996
g82
I3
ssg83
g990
sg76
(lp997
S''
asbasbasbasbasbasbasbasbasbasbasbag69
(g85
g71
NtRp998
(dp999
g74
(dp1000
sg83
g79
sg76
(lp1001
g69
(g90
g71
NtRp1002
(dp1003
g74
(dp1004
g94
g95
ssg83
g998
sg76
(lp1005
S'env'
p1006
asbag69
(g90
g71
NtRp1007
(dp1008
g74
(dp1009
g101
g102
ssg83
g998
sg76
(lp1010
S':'
asbag69
(g90
g71
NtRp1011
(dp1012
g74
(dp1013
sg83
g998
sg76
(lp1014
g69
(g70
g71
NtRp1015
(dp1016
g74
(dp1017
g82
I5
ssg83
g1011
sg76
(lp1018
g69
(g78
g71
NtRp1019
(dp1020
g74
(dp1021
g82
I4
ssg83
Nsg76
(lp1022
g69
(g85
g71
NtRp1023
(dp1024
g74
(dp1025
sg83
g1019
sg76
(lp1026
g69
(g90
g71
NtRp1027
(dp1028
g74
(dp1029
g94
g95
ssg83
g1023
sg76
(lp1030
S'app_folders'
p1031
asbag69
(g90
g71
NtRp1032
(dp1033
g74
(dp1034
g101
g102
ssg83
g1023
sg76
(lp1035
S':'
asbag69
(g90
g71
NtRp1036
(dp1037
g74
(dp1038
sg83
g1023
sg76
(lp1039
g69
(g70
g71
NtRp1040
(dp1041
g74
(dp1042
g82
I4
ssg83
g1036
sg76
(lp1043
S"set(['/Users/ianaboneva/Dropbox/DePaul/CSC 438 - Web Applications/web2py/applications/ToDoList2/', '/Users/ianaboneva/Dropbox/DePaul/CSC 438 - Web Applications/web2py/applications/welcome/', '/Users/ianaboneva/Dropbox/DePaul/CSC 438 - Web Applications/web2py/applications/admin/', '/Users/ianaboneva/Dropbox/DePaul/CSC 438 - Web Applications/web2py/applications/Book_Shelf_copy/'])"
p1044
asbasbasbag69
(g85
g71
NtRp1045
(dp1046
g74
(dp1047
sg83
g1019
sg76
(lp1048
g69
(g90
g71
NtRp1049
(dp1050
g74
(dp1051
g94
g95
ssg83
g1045
sg76
(lp1052
S'applications_parent'
p1053
asbag69
(g90
g71
NtRp1054
(dp1055
g74
(dp1056
g101
g102
ssg83
g1045
sg76
(lp1057
S':'
asbag69
(g90
g71
NtRp1058
(dp1059
g74
(dp1060
sg83
g1045
sg76
(lp1061
g69
(g70
g71
NtRp1062
(dp1063
g74
(dp1064
g82
I4
ssg83
g1058
sg76
(lp1065
S'/Users/ianaboneva/Dropbox/DePaul/CSC 438 - Web Applications/web2py'
p1066
asbasbasbag69
(g85
g71
NtRp1067
(dp1068
g74
(dp1069
sg83
g1019
sg76
(lp1070
g69
(g90
g71
NtRp1071
(dp1072
g74
(dp1073
g94
g95
ssg83
g1067
sg76
(lp1074
S'cmd_args'
p1075
asbag69
(g90
g71
NtRp1076
(dp1077
g74
(dp1078
g101
g102
ssg83
g1067
sg76
(lp1079
S':'
asbag69
(g90
g71
NtRp1080
(dp1081
g74
(dp1082
sg83
g1067
sg76
(lp1083
g69
(g70
g71
NtRp1084
(dp1085
g74
(dp1086
g82
I4
ssg83
g1080
sg76
(lp1087
g69
(g78
g71
NtRp1088
(dp1089
g74
(dp1090
g82
I3
ssg83
Nsg76
(lp1091
sbasbasbasbag69
(g85
g71
NtRp1092
(dp1093
g74
(dp1094
sg83
g1019
sg76
(lp1095
g69
(g90
g71
NtRp1096
(dp1097
g74
(dp1098
g94
g95
ssg83
g1092
sg76
(lp1099
S'cmd_options'
p1100
asbag69
(g90
g71
NtRp1101
(dp1102
g74
(dp1103
g101
g102
ssg83
g1092
sg76
(lp1104
S':'
asbag69
(g90
g71
NtRp1105
(dp1106
g74
(dp1107
sg83
g1092
sg76
(lp1108
g69
(g70
g71
NtRp1109
(dp1110
g74
(dp1111
g82
I4
ssg83
g1105
sg76
(lp1112
S"<Values at 0x104fc1b00: {'verbose': False, 'ip': '127.0.0.1', 'shutdown_timeout': 5, 'taskbar': False, 'nocron': False, 'pid_filename': 'httpserver.pid', 'maxthreads': None, 'softcron': False, 'server_name': 'Iana-Bonevas-MacBook-Pro.local', 'bpython': False, 'nogui': False, 'port': 8000, 'extcron': False, 'debuglevel': 30, 'test': None, 'folder': '/Users/ianaboneva/Dropbox/DePaul/CSC 438 - Web Applications/web2py', 'config': '', 'import_models': False, 'winservice': '', 'shell': None, 'run': '', 'log_filename': 'httpserver.log', 'args': [''], 'socket_timeout': 5, 'ssl_ca_certificate': None, 'scheduler': None, 'profiler_filename': None, 'ssl_private_key': '', 'password': '<ask>', 'request_queue_size': 5, 'ssl_certificate': '', 'cronjob': False, 'numthreads': None, 'quiet': False, 'interfaces': None, 'minthreads': None, 'timeout': 10, 'plain': False, 'nobanner': False}>"
p1113
asbasbasbag69
(g85
g71
NtRp1114
(dp1115
g74
(dp1116
sg83
g1019
sg76
(lp1117
g69
(g90
g71
NtRp1118
(dp1119
g74
(dp1120
g94
g95
ssg83
g1114
sg76
(lp1121
S'db_sessions'
p1122
asbag69
(g90
g71
NtRp1123
(dp1124
g74
(dp1125
g101
g102
ssg83
g1114
sg76
(lp1126
S':'
asbag69
(g90
g71
NtRp1127
(dp1128
g74
(dp1129
sg83
g1114
sg76
(lp1130
g69
(g70
g71
NtRp1131
(dp1132
g74
(dp1133
g82
I4
ssg83
g1127
sg76
(lp1134
S'set([])'
p1135
asbasbasbag69
(g85
g71
NtRp1136
(dp1137
g74
(dp1138
sg83
g1019
sg76
(lp1139
g69
(g90
g71
NtRp1140
(dp1141
g74
(dp1142
g94
g95
ssg83
g1136
sg76
(lp1143
S'debugging'
p1144
asbag69
(g90
g71
NtRp1145
(dp1146
g74
(dp1147
g101
g102
ssg83
g1136
sg76
(lp1148
S':'
asbag69
(g90
g71
NtRp1149
(dp1150
g74
(dp1151
sg83
g1136
sg76
(lp1152
g69
(g70
g71
NtRp1153
(dp1154
g74
(dp1155
g82
I4
ssg83
g1149
sg76
(lp1156
g112
asbasbasbag69
(g85
g71
NtRp1157
(dp1158
g74
(dp1159
sg83
g1019
sg76
(lp1160
g69
(g90
g71
NtRp1161
(dp1162
g74
(dp1163
g94
g95
ssg83
g1157
sg76
(lp1164
S'gluon_parent'
p1165
asbag69
(g90
g71
NtRp1166
(dp1167
g74
(dp1168
g101
g102
ssg83
g1157
sg76
(lp1169
S':'
asbag69
(g90
g71
NtRp1170
(dp1171
g74
(dp1172
sg83
g1157
sg76
(lp1173
g69
(g70
g71
NtRp1174
(dp1175
g74
(dp1176
g82
I4
ssg83
g1170
sg76
(lp1177
S'/Users/ianaboneva/Dropbox/DePaul/CSC 438 - Web Applications/web2py'
p1178
asbasbasbag69
(g85
g71
NtRp1179
(dp1180
g74
(dp1181
sg83
g1019
sg76
(lp1182
g69
(g90
g71
NtRp1183
(dp1184
g74
(dp1185
g94
g95
ssg83
g1179
sg76
(lp1186
S'http_accept'
p1187
asbag69
(g90
g71
NtRp1188
(dp1189
g74
(dp1190
g101
g102
ssg83
g1179
sg76
(lp1191
S':'
asbag69
(g90
g71
NtRp1192
(dp1193
g74
(dp1194
sg83
g1179
sg76
(lp1195
g69
(g70
g71
NtRp1196
(dp1197
g74
(dp1198
g82
I4
ssg83
g1192
sg76
(lp1199
S'text/html,application/xhtml+xml,application/xml;q=0.9,*/*;q=0.8'
p1200
asbasbasbag69
(g85
g71
NtRp1201
(dp1202
g74
(dp1203
sg83
g1019
sg76
(lp1204
g69
(g90
g71
NtRp1205
(dp1206
g74
(dp1207
g94
g95
ssg83
g1201
sg76
(lp1208
S'http_accept_charset'
p1209
asbag69
(g90
g71
NtRp1210
(dp1211
g74
(dp1212
g101
g102
ssg83
g1201
sg76
(lp1213
S':'
asbag69
(g90
g71
NtRp1214
(dp1215
g74
(dp1216
sg83
g1201
sg76
(lp1217
g69
(g70
g71
NtRp1218
(dp1219
g74
(dp1220
g82
I4
ssg83
g1214
sg76
(lp1221
S'ISO-8859-1,utf-8;q=0.7,*;q=0.3'
p1222
asbasbasbag69
(g85
g71
NtRp1223
(dp1224
g74
(dp1225
sg83
g1019
sg76
(lp1226
g69
(g90
g71
NtRp1227
(dp1228
g74
(dp1229
g94
g95
ssg83
g1223
sg76
(lp1230
S'http_accept_encoding'
p1231
asbag69
(g90
g71
NtRp1232
(dp1233
g74
(dp1234
g101
g102
ssg83
g1223
sg76
(lp1235
S':'
asbag69
(g90
g71
NtRp1236
(dp1237
g74
(dp1238
sg83
g1223
sg76
(lp1239
g69
(g70
g71
NtRp1240
(dp1241
g74
(dp1242
g82
I4
ssg83
g1236
sg76
(lp1243
S'gzip,deflate,sdch'
p1244
asbasbasbag69
(g85
g71
NtRp1245
(dp1246
g74
(dp1247
sg83
g1019
sg76
(lp1248
g69
(g90
g71
NtRp1249
(dp1250
g74
(dp1251
g94
g95
ssg83
g1245
sg76
(lp1252
S'http_accept_language'
p1253
asbag69
(g90
g71
NtRp1254
(dp1255
g74
(dp1256
g101
g102
ssg83
g1245
sg76
(lp1257
S':'
asbag69
(g90
g71
NtRp1258
(dp1259
g74
(dp1260
sg83
g1245
sg76
(lp1261
g69
(g70
g71
NtRp1262
(dp1263
g74
(dp1264
g82
I4
ssg83
g1258
sg76
(lp1265
S'en-US,en;q=0.8'
p1266
asbasbasbag69
(g85
g71
NtRp1267
(dp1268
g74
(dp1269
sg83
g1019
sg76
(lp1270
g69
(g90
g71
NtRp1271
(dp1272
g74
(dp1273
g94
g95
ssg83
g1267
sg76
(lp1274
S'http_connection'
p1275
asbag69
(g90
g71
NtRp1276
(dp1277
g74
(dp1278
g101
g102
ssg83
g1267
sg76
(lp1279
S':'
asbag69
(g90
g71
NtRp1280
(dp1281
g74
(dp1282
sg83
g1267
sg76
(lp1283
g69
(g70
g71
NtRp1284
(dp1285
g74
(dp1286
g82
I4
ssg83
g1280
sg76
(lp1287
S'keep-alive'
p1288
asbasbasbag69
(g85
g71
NtRp1289
(dp1290
g74
(dp1291
sg83
g1019
sg76
(lp1292
g69
(g90
g71
NtRp1293
(dp1294
g74
(dp1295
g94
g95
ssg83
g1289
sg76
(lp1296
S'http_cookie'
p1297
asbag69
(g90
g71
NtRp1298
(dp1299
g74
(dp1300
g101
g102
ssg83
g1289
sg76
(lp1301
S':'
asbag69
(g90
g71
NtRp1302
(dp1303
g74
(dp1304
sg83
g1289
sg76
(lp1305
g69
(g70
g71
NtRp1306
(dp1307
g74
(dp1308
g82
I4
ssg83
g1302
sg76
(lp1309
S'session_id_welcome=127.0.0.1-bffe8a2c-7cac-4fda-8379-2a112ae00c58; session_id_admin=127.0.0.1-4c04cc91-8b55-4bcd-8835-a51019000e30; session_id_todolist2=127.0.0.1-477221c7-510b-4aa7-b5d2-77bae14bca92; session_id_book_shelf_copy=127.0.0.1-eeba29a1-713d-4626-a1ad-4627ea1d2e7a'
p1310
asbasbasbag69
(g85
g71
NtRp1311
(dp1312
g74
(dp1313
sg83
g1019
sg76
(lp1314
g69
(g90
g71
NtRp1315
(dp1316
g74
(dp1317
g94
g95
ssg83
g1311
sg76
(lp1318
S'http_host'
p1319
asbag69
(g90
g71
NtRp1320
(dp1321
g74
(dp1322
g101
g102
ssg83
g1311
sg76
(lp1323
S':'
asbag69
(g90
g71
NtRp1324
(dp1325
g74
(dp1326
sg83
g1311
sg76
(lp1327
g69
(g70
g71
NtRp1328
(dp1329
g74
(dp1330
g82
I4
ssg83
g1324
sg76
(lp1331
S'127.0.0.1:8000'
p1332
asbasbasbag69
(g85
g71
NtRp1333
(dp1334
g74
(dp1335
sg83
g1019
sg76
(lp1336
g69
(g90
g71
NtRp1337
(dp1338
g74
(dp1339
g94
g95
ssg83
g1333
sg76
(lp1340
S'http_referer'
p1341
asbag69
(g90
g71
NtRp1342
(dp1343
g74
(dp1344
g101
g102
ssg83
g1333
sg76
(lp1345
S':'
asbag69
(g90
g71
NtRp1346
(dp1347
g74
(dp1348
sg83
g1333
sg76
(lp1349
g69
(g70
g71
NtRp1350
(dp1351
g74
(dp1352
g82
I4
ssg83
g1346
sg76
(lp1353
S'http://127.0.0.1:8000/Book_Shelf_copy/default/book_profile/2'
p1354
asbasbasbag69
(g85
g71
NtRp1355
(dp1356
g74
(dp1357
sg83
g1019
sg76
(lp1358
g69
(g90
g71
NtRp1359
(dp1360
g74
(dp1361
g94
g95
ssg83
g1355
sg76
(lp1362
S'http_user_agent'
p1363
asbag69
(g90
g71
NtRp1364
(dp1365
g74
(dp1366
g101
g102
ssg83
g1355
sg76
(lp1367
S':'
asbag69
(g90
g71
NtRp1368
(dp1369
g74
(dp1370
sg83
g1355
sg76
(lp1371
g69
(g70
g71
NtRp1372
(dp1373
g74
(dp1374
g82
I4
ssg83
g1368
sg76
(lp1375
S'Mozilla/5.0 (Macintosh; Intel Mac OS X 10_7_4) AppleWebKit/536.5 (KHTML, like Gecko) Chrome/19.0.1084.53 Safari/536.5'
p1376
asbasbasbag69
(g85
g71
NtRp1377
(dp1378
g74
(dp1379
sg83
g1019
sg76
(lp1380
g69
(g90
g71
NtRp1381
(dp1382
g74
(dp1383
g94
g95
ssg83
g1377
sg76
(lp1384
S'is_jython'
p1385
asbag69
(g90
g71
NtRp1386
(dp1387
g74
(dp1388
g101
g102
ssg83
g1377
sg76
(lp1389
S':'
asbag69
(g90
g71
NtRp1390
(dp1391
g74
(dp1392
sg83
g1377
sg76
(lp1393
g69
(g70
g71
NtRp1394
(dp1395
g74
(dp1396
g82
I4
ssg83
g1390
sg76
(lp1397
g112
asbasbasbag69
(g85
g71
NtRp1398
(dp1399
g74
(dp1400
sg83
g1019
sg76
(lp1401
g69
(g90
g71
NtRp1402
(dp1403
g74
(dp1404
g94
g95
ssg83
g1398
sg76
(lp1405
S'is_pypy'
p1406
asbag69
(g90
g71
NtRp1407
(dp1408
g74
(dp1409
g101
g102
ssg83
g1398
sg76
(lp1410
S':'
asbag69
(g90
g71
NtRp1411
(dp1412
g74
(dp1413
sg83
g1398
sg76
(lp1414
g69
(g70
g71
NtRp1415
(dp1416
g74
(dp1417
g82
I4
ssg83
g1411
sg76
(lp1418
g112
asbasbasbag69
(g85
g71
NtRp1419
(dp1420
g74
(dp1421
sg83
g1019
sg76
(lp1422
g69
(g90
g71
NtRp1423
(dp1424
g74
(dp1425
g94
g95
ssg83
g1419
sg76
(lp1426
S'path_info'
p1427
asbag69
(g90
g71
NtRp1428
(dp1429
g74
(dp1430
g101
g102
ssg83
g1419
sg76
(lp1431
S':'
asbag69
(g90
g71
NtRp1432
(dp1433
g74
(dp1434
sg83
g1419
sg76
(lp1435
g69
(g70
g71
NtRp1436
(dp1437
g74
(dp1438
g82
I4
ssg83
g1432
sg76
(lp1439
S'/Book_Shelf_copy/default/index'
p1440
asbasbasbag69
(g85
g71
NtRp1441
(dp1442
g74
(dp1443
sg83
g1019
sg76
(lp1444
g69
(g90
g71
NtRp1445
(dp1446
g74
(dp1447
g94
g95
ssg83
g1441
sg76
(lp1448
S'query_string'
p1449
asbag69
(g90
g71
NtRp1450
(dp1451
g74
(dp1452
g101
g102
ssg83
g1441
sg76
(lp1453
S':'
asbag69
(g90
g71
NtRp1454
(dp1455
g74
(dp1456
sg83
g1441
sg76
(lp1457
g69
(g70
g71
NtRp1458
(dp1459
g74
(dp1460
g82
I4
ssg83
g1454
sg76
(lp1461
S''
asbasbasbag69
(g85
g71
NtRp1462
(dp1463
g74
(dp1464
sg83
g1019
sg76
(lp1465
g69
(g90
g71
NtRp1466
(dp1467
g74
(dp1468
g94
g95
ssg83
g1462
sg76
(lp1469
S'remote_addr'
p1470
asbag69
(g90
g71
NtRp1471
(dp1472
g74
(dp1473
g101
g102
ssg83
g1462
sg76
(lp1474
S':'
asbag69
(g90
g71
NtRp1475
(dp1476
g74
(dp1477
sg83
g1462
sg76
(lp1478
g69
(g70
g71
NtRp1479
(dp1480
g74
(dp1481
g82
I4
ssg83
g1475
sg76
(lp1482
g202
asbasbasbag69
(g85
g71
NtRp1483
(dp1484
g74
(dp1485
sg83
g1019
sg76
(lp1486
g69
(g90
g71
NtRp1487
(dp1488
g74
(dp1489
g94
g95
ssg83
g1483
sg76
(lp1490
S'remote_port'
p1491
asbag69
(g90
g71
NtRp1492
(dp1493
g74
(dp1494
g101
g102
ssg83
g1483
sg76
(lp1495
S':'
asbag69
(g90
g71
NtRp1496
(dp1497
g74
(dp1498
sg83
g1483
sg76
(lp1499
g69
(g70
g71
NtRp1500
(dp1501
g74
(dp1502
g82
I4
ssg83
g1496
sg76
(lp1503
S'53895'
p1504
asbasbasbag69
(g85
g71
NtRp1505
(dp1506
g74
(dp1507
sg83
g1019
sg76
(lp1508
g69
(g90
g71
NtRp1509
(dp1510
g74
(dp1511
g94
g95
ssg83
g1505
sg76
(lp1512
S'request_method'
p1513
asbag69
(g90
g71
NtRp1514
(dp1515
g74
(dp1516
g101
g102
ssg83
g1505
sg76
(lp1517
S':'
asbag69
(g90
g71
NtRp1518
(dp1519
g74
(dp1520
sg83
g1505
sg76
(lp1521
g69
(g70
g71
NtRp1522
(dp1523
g74
(dp1524
g82
I4
ssg83
g1518
sg76
(lp1525
S'GET'
p1526
asbasbasbag69
(g85
g71
NtRp1527
(dp1528
g74
(dp1529
sg83
g1019
sg76
(lp1530
g69
(g90
g71
NtRp1531
(dp1532
g74
(dp1533
g94
g95
ssg83
g1527
sg76
(lp1534
S'script_name'
p1535
asbag69
(g90
g71
NtRp1536
(dp1537
g74
(dp1538
g101
g102
ssg83
g1527
sg76
(lp1539
S':'
asbag69
(g90
g71
NtRp1540
(dp1541
g74
(dp1542
sg83
g1527
sg76
(lp1543
g69
(g70
g71
NtRp1544
(dp1545
g74
(dp1546
g82
I4
ssg83
g1540
sg76
(lp1547
S''
asbasbasbag69
(g85
g71
NtRp1548
(dp1549
g74
(dp1550
sg83
g1019
sg76
(lp1551
g69
(g90
g71
NtRp1552
(dp1553
g74
(dp1554
g94
g95
ssg83
g1548
sg76
(lp1555
S'server_name'
p1556
asbag69
(g90
g71
NtRp1557
(dp1558
g74
(dp1559
g101
g102
ssg83
g1548
sg76
(lp1560
S':'
asbag69
(g90
g71
NtRp1561
(dp1562
g74
(dp1563
sg83
g1548
sg76
(lp1564
g69
(g70
g71
NtRp1565
(dp1566
g74
(dp1567
g82
I4
ssg83
g1561
sg76
(lp1568
S'Iana-Bonevas-MacBook-Pro.local'
p1569
asbasbasbag69
(g85
g71
NtRp1570
(dp1571
g74
(dp1572
sg83
g1019
sg76
(lp1573
g69
(g90
g71
NtRp1574
(dp1575
g74
(dp1576
g94
g95
ssg83
g1570
sg76
(lp1577
S'server_port'
p1578
asbag69
(g90
g71
NtRp1579
(dp1580
g74
(dp1581
g101
g102
ssg83
g1570
sg76
(lp1582
S':'
asbag69
(g90
g71
NtRp1583
(dp1584
g74
(dp1585
sg83
g1570
sg76
(lp1586
g69
(g70
g71
NtRp1587
(dp1588
g74
(dp1589
g82
I4
ssg83
g1583
sg76
(lp1590
S'8000'
p1591
asbasbasbag69
(g85
g71
NtRp1592
(dp1593
g74
(dp1594
sg83
g1019
sg76
(lp1595
g69
(g90
g71
NtRp1596
(dp1597
g74
(dp1598
g94
g95
ssg83
g1592
sg76
(lp1599
S'server_protocol'
p1600
asbag69
(g90
g71
NtRp1601
(dp1602
g74
(dp1603
g101
g102
ssg83
g1592
sg76
(lp1604
S':'
asbag69
(g90
g71
NtRp1605
(dp1606
g74
(dp1607
sg83
g1592
sg76
(lp1608
g69
(g70
g71
NtRp1609
(dp1610
g74
(dp1611
g82
I4
ssg83
g1605
sg76
(lp1612
S'HTTP/1.1'
p1613
asbasbasbag69
(g85
g71
NtRp1614
(dp1615
g74
(dp1616
sg83
g1019
sg76
(lp1617
g69
(g90
g71
NtRp1618
(dp1619
g74
(dp1620
g94
g95
ssg83
g1614
sg76
(lp1621
S'server_software'
p1622
asbag69
(g90
g71
NtRp1623
(dp1624
g74
(dp1625
g101
g102
ssg83
g1614
sg76
(lp1626
S':'
asbag69
(g90
g71
NtRp1627
(dp1628
g74
(dp1629
sg83
g1614
sg76
(lp1630
g69
(g70
g71
NtRp1631
(dp1632
g74
(dp1633
g82
I4
ssg83
g1627
sg76
(lp1634
S'Rocket 1.2.4'
p1635
asbasbasbag69
(g85
g71
NtRp1636
(dp1637
g74
(dp1638
sg83
g1019
sg76
(lp1639
g69
(g90
g71
NtRp1640
(dp1641
g74
(dp1642
g94
g95
ssg83
g1636
sg76
(lp1643
S'web2py_crontype'
p1644
asbag69
(g90
g71
NtRp1645
(dp1646
g74
(dp1647
g101
g102
ssg83
g1636
sg76
(lp1648
S':'
asbag69
(g90
g71
NtRp1649
(dp1650
g74
(dp1651
sg83
g1636
sg76
(lp1652
g69
(g70
g71
NtRp1653
(dp1654
g74
(dp1655
g82
I4
ssg83
g1649
sg76
(lp1656
S'hard'
p1657
asbasbasbag69
(g85
g71
NtRp1658
(dp1659
g74
(dp1660
sg83
g1019
sg76
(lp1661
g69
(g90
g71
NtRp1662
(dp1663
g74
(dp1664
g94
g95
ssg83
g1658
sg76
(lp1665
S'web2py_path'
p1666
asbag69
(g90
g71
NtRp1667
(dp1668
g74
(dp1669
g101
g102
ssg83
g1658
sg76
(lp1670
S':'
asbag69
(g90
g71
NtRp1671
(dp1672
g74
(dp1673
sg83
g1658
sg76
(lp1674
g69
(g70
g71
NtRp1675
(dp1676
g74
(dp1677
g82
I4
ssg83
g1671
sg76
(lp1678
g1066
asbasbasbag69
(g85
g71
NtRp1679
(dp1680
g74
(dp1681
sg83
g1019
sg76
(lp1682
g69
(g90
g71
NtRp1683
(dp1684
g74
(dp1685
g94
g95
ssg83
g1679
sg76
(lp1686
S'web2py_version'
p1687
asbag69
(g90
g71
NtRp1688
(dp1689
g74
(dp1690
g101
g102
ssg83
g1679
sg76
(lp1691
S':'
asbag69
(g90
g71
NtRp1692
(dp1693
g74
(dp1694
sg83
g1679
sg76
(lp1695
g69
(g70
g71
NtRp1696
(dp1697
g74
(dp1698
g82
I4
ssg83
g1692
sg76
(lp1699
g69
(g78
g71
NtRp1700
(dp1701
g74
(dp1702
g82
I3
ssg83
Nsg76
(lp1703
g69
(g85
g71
NtRp1704
(dp1705
g74
(dp1706
sg83
g1700
sg76
(lp1707
g69
(g90
g71
NtRp1708
(dp1709
g74
(dp1710
sg83
g1704
sg76
(lp1711
g69
(g70
g71
NtRp1712
(dp1713
g74
(dp1714
g82
I3
ssg83
g1708
sg76
(lp1715
S'1'
asbasbasbag69
(g85
g71
NtRp1716
(dp1717
g74
(dp1718
sg83
g1700
sg76
(lp1719
g69
(g90
g71
NtRp1720
(dp1721
g74
(dp1722
sg83
g1716
sg76
(lp1723
g69
(g70
g71
NtRp1724
(dp1725
g74
(dp1726
g82
I3
ssg83
g1720
sg76
(lp1727
S'99'
p1728
asbasbasbag69
(g85
g71
NtRp1729
(dp1730
g74
(dp1731
sg83
g1700
sg76
(lp1732
g69
(g90
g71
NtRp1733
(dp1734
g74
(dp1735
sg83
g1729
sg76
(lp1736
g69
(g70
g71
NtRp1737
(dp1738
g74
(dp1739
g82
I3
ssg83
g1733
sg76
(lp1740
S'7'
asbasbasbag69
(g85
g71
NtRp1741
(dp1742
g74
(dp1743
sg83
g1700
sg76
(lp1744
g69
(g90
g71
NtRp1745
(dp1746
g74
(dp1747
sg83
g1741
sg76
(lp1748
g69
(g70
g71
NtRp1749
(dp1750
g74
(dp1751
g82
I3
ssg83
g1745
sg76
(lp1752
S'datetime.datetime(2012, 3, 4, 22, 12, 8)'
p1753
asbasbasbag69
(g85
g71
NtRp1754
(dp1755
g74
(dp1756
sg83
g1700
sg76
(lp1757
g69
(g90
g71
NtRp1758
(dp1759
g74
(dp1760
sg83
g1754
sg76
(lp1761
g69
(g70
g71
NtRp1762
(dp1763
g74
(dp1764
g82
I3
ssg83
g1758
sg76
(lp1765
S'stable'
p1766
asbasbasbasbasbasbasbag69
(g85
g71
NtRp1767
(dp1768
g74
(dp1769
sg83
g1019
sg76
(lp1770
g69
(g90
g71
NtRp1771
(dp1772
g74
(dp1773
g94
g95
ssg83
g1767
sg76
(lp1774
S'wsgi_errors'
p1775
asbag69
(g90
g71
NtRp1776
(dp1777
g74
(dp1778
g101
g102
ssg83
g1767
sg76
(lp1779
S':'
asbag69
(g90
g71
NtRp1780
(dp1781
g74
(dp1782
sg83
g1767
sg76
(lp1783
g69
(g70
g71
NtRp1784
(dp1785
g74
(dp1786
g82
I4
ssg83
g1780
sg76
(lp1787
S"<open file '<stderr>', mode 'w' at 0x104484270>"
p1788
asbasbasbag69
(g85
g71
NtRp1789
(dp1790
g74
(dp1791
sg83
g1019
sg76
(lp1792
g69
(g90
g71
NtRp1793
(dp1794
g74
(dp1795
g94
g95
ssg83
g1789
sg76
(lp1796
S'wsgi_file_wrapper'
p1797
asbag69
(g90
g71
NtRp1798
(dp1799
g74
(dp1800
g101
g102
ssg83
g1789
sg76
(lp1801
S':'
asbag69
(g90
g71
NtRp1802
(dp1803
g74
(dp1804
sg83
g1789
sg76
(lp1805
g69
(g70
g71
NtRp1806
(dp1807
g74
(dp1808
g82
I4
ssg83
g1802
sg76
(lp1809
S'<class wsgiref.util.FileWrapper at 0x104ebdf58>'
p1810
asbasbasbag69
(g85
g71
NtRp1811
(dp1812
g74
(dp1813
sg83
g1019
sg76
(lp1814
g69
(g90
g71
NtRp1815
(dp1816
g74
(dp1817
g94
g95
ssg83
g1811
sg76
(lp1818
S'wsgi_input'
p1819
asbag69
(g90
g71
NtRp1820
(dp1821
g74
(dp1822
g101
g102
ssg83
g1811
sg76
(lp1823
S':'
asbag69
(g90
g71
NtRp1824
(dp1825
g74
(dp1826
sg83
g1811
sg76
(lp1827
g69
(g70
g71
NtRp1828
(dp1829
g74
(dp1830
g82
I4
ssg83
g1824
sg76
(lp1831
S'<socket._fileobject object at 0x109f831d0>'
p1832
asbasbasbag69
(g85
g71
NtRp1833
(dp1834
g74
(dp1835
sg83
g1019
sg76
(lp1836
g69
(g90
g71
NtRp1837
(dp1838
g74
(dp1839
g94
g95
ssg83
g1833
sg76
(lp1840
S'wsgi_multiprocess'
p1841
asbag69
(g90
g71
NtRp1842
(dp1843
g74
(dp1844
g101
g102
ssg83
g1833
sg76
(lp1845
S':'
asbag69
(g90
g71
NtRp1846
(dp1847
g74
(dp1848
sg83
g1833
sg76
(lp1849
g69
(g70
g71
NtRp1850
(dp1851
g74
(dp1852
g82
I4
ssg83
g1846
sg76
(lp1853
g112
asbasbasbag69
(g85
g71
NtRp1854
(dp1855
g74
(dp1856
sg83
g1019
sg76
(lp1857
g69
(g90
g71
NtRp1858
(dp1859
g74
(dp1860
g94
g95
ssg83
g1854
sg76
(lp1861
S'wsgi_multithread'
p1862
asbag69
(g90
g71
NtRp1863
(dp1864
g74
(dp1865
g101
g102
ssg83
g1854
sg76
(lp1866
S':'
asbag69
(g90
g71
NtRp1867
(dp1868
g74
(dp1869
sg83
g1854
sg76
(lp1870
g69
(g70
g71
NtRp1871
(dp1872
g74
(dp1873
g82
I4
ssg83
g1867
sg76
(lp1874
S'True'
p1875
asbasbasbag69
(g85
g71
NtRp1876
(dp1877
g74
(dp1878
sg83
g1019
sg76
(lp1879
g69
(g90
g71
NtRp1880
(dp1881
g74
(dp1882
g94
g95
ssg83
g1876
sg76
(lp1883
S'wsgi_run_once'
p1884
asbag69
(g90
g71
NtRp1885
(dp1886
g74
(dp1887
g101
g102
ssg83
g1876
sg76
(lp1888
S':'
asbag69
(g90
g71
NtRp1889
(dp1890
g74
(dp1891
sg83
g1876
sg76
(lp1892
g69
(g70
g71
NtRp1893
(dp1894
g74
(dp1895
g82
I4
ssg83
g1889
sg76
(lp1896
g112
asbasbasbag69
(g85
g71
NtRp1897
(dp1898
g74
(dp1899
sg83
g1019
sg76
(lp1900
g69
(g90
g71
NtRp1901
(dp1902
g74
(dp1903
g94
g95
ssg83
g1897
sg76
(lp1904
S'wsgi_url_scheme'
p1905
asbag69
(g90
g71
NtRp1906
(dp1907
g74
(dp1908
g101
g102
ssg83
g1897
sg76
(lp1909
S':'
asbag69
(g90
g71
NtRp1910
(dp1911
g74
(dp1912
sg83
g1897
sg76
(lp1913
g69
(g70
g71
NtRp1914
(dp1915
g74
(dp1916
g82
I4
ssg83
g1910
sg76
(lp1917
S'http'
p1918
asbasbasbag69
(g85
g71
NtRp1919
(dp1920
g74
(dp1921
sg83
g1019
sg76
(lp1922
g69
(g90
g71
NtRp1923
(dp1924
g74
(dp1925
g94
g95
ssg83
g1919
sg76
(lp1926
S'wsgi_version'
p1927
asbag69
(g90
g71
NtRp1928
(dp1929
g74
(dp1930
g101
g102
ssg83
g1919
sg76
(lp1931
S':'
asbag69
(g90
g71
NtRp1932
(dp1933
g74
(dp1934
sg83
g1919
sg76
(lp1935
g69
(g70
g71
NtRp1936
(dp1937
g74
(dp1938
g82
I4
ssg83
g1932
sg76
(lp1939
g69
(g78
g71
NtRp1940
(dp1941
g74
(dp1942
g82
I3
ssg83
Nsg76
(lp1943
g69
(g85
g71
NtRp1944
(dp1945
g74
(dp1946
sg83
g1940
sg76
(lp1947
g69
(g90
g71
NtRp1948
(dp1949
g74
(dp1950
sg83
g1944
sg76
(lp1951
g69
(g70
g71
NtRp1952
(dp1953
g74
(dp1954
g82
I3
ssg83
g1948
sg76
(lp1955
S'1'
asbasbasbag69
(g85
g71
NtRp1956
(dp1957
g74
(dp1958
sg83
g1940
sg76
(lp1959
g69
(g90
g71
NtRp1960
(dp1961
g74
(dp1962
sg83
g1956
sg76
(lp1963
g69
(g70
g71
NtRp1964
(dp1965
g74
(dp1966
g82
I3
ssg83
g1960
sg76
(lp1967
S'0'
asbasbasbasbasbasbasbasbasbasbasbag69
(g85
g71
NtRp1968
(dp1969
g74
(dp1970
sg83
g79
sg76
(lp1971
g69
(g90
g71
NtRp1972
(dp1973
g74
(dp1974
g94
g95
ssg83
g1968
sg76
(lp1975
S'extension'
p1976
asbag69
(g90
g71
NtRp1977
(dp1978
g74
(dp1979
g101
g102
ssg83
g1968
sg76
(lp1980
S':'
asbag69
(g90
g71
NtRp1981
(dp1982
g74
(dp1983
sg83
g1968
sg76
(lp1984
g69
(g70
g71
NtRp1985
(dp1986
g74
(dp1987
g82
I5
ssg83
g1981
sg76
(lp1988
S'html'
p1989
asbasbasbag69
(g85
g71
NtRp1990
(dp1991
g74
(dp1992
sg83
g79
sg76
(lp1993
g69
(g90
g71
NtRp1994
(dp1995
g74
(dp1996
g94
g95
ssg83
g1990
sg76
(lp1997
S'folder'
p1998
asbag69
(g90
g71
NtRp1999
(dp2000
g74
(dp2001
g101
g102
ssg83
g1990
sg76
(lp2002
S':'
asbag69
(g90
g71
NtRp2003
(dp2004
g74
(dp2005
sg83
g1990
sg76
(lp2006
g69
(g70
g71
NtRp2007
(dp2008
g74
(dp2009
g82
I5
ssg83
g2003
sg76
(lp2010
S'/Users/ianaboneva/Dropbox/DePaul/CSC 438 - Web Applications/web2py/applications/Book_Shelf_copy/'
p2011
asbasbasbag69
(g85
g71
NtRp2012
(dp2013
g74
(dp2014
sg83
g79
sg76
(lp2015
g69
(g90
g71
NtRp2016
(dp2017
g74
(dp2018
g94
g95
ssg83
g2012
sg76
(lp2019
S'function'
p2020
asbag69
(g90
g71
NtRp2021
(dp2022
g74
(dp2023
g101
g102
ssg83
g2012
sg76
(lp2024
S':'
asbag69
(g90
g71
NtRp2025
(dp2026
g74
(dp2027
sg83
g2012
sg76
(lp2028
g69
(g70
g71
NtRp2029
(dp2030
g74
(dp2031
g82
I5
ssg83
g2025
sg76
(lp2032
S'index'
p2033
asbasbasbag69
(g85
g71
NtRp2034
(dp2035
g74
(dp2036
sg83
g79
sg76
(lp2037
g69
(g90
g71
NtRp2038
(dp2039
g74
(dp2040
g94
g95
ssg83
g2034
sg76
(lp2041
S'get_vars'
p2042
asbag69
(g90
g71
NtRp2043
(dp2044
g74
(dp2045
g101
g102
ssg83
g2034
sg76
(lp2046
S':'
asbag69
(g90
g71
NtRp2047
(dp2048
g74
(dp2049
sg83
g2034
sg76
(lp2050
g69
(g70
g71
NtRp2051
(dp2052
g74
(dp2053
g82
I5
ssg83
g2047
sg76
(lp2054
g69
(g78
g71
NtRp2055
(dp2056
g74
(dp2057
g82
I4
ssg83
Nsg76
(lp2058
sbasbasbasbag69
(g85
g71
NtRp2059
(dp2060
g74
(dp2061
sg83
g79
sg76
(lp2062
g69
(g90
g71
NtRp2063
(dp2064
g74
(dp2065
g94
g95
ssg83
g2059
sg76
(lp2066
S'global_settings'
p2067
asbag69
(g90
g71
NtRp2068
(dp2069
g74
(dp2070
g101
g102
ssg83
g2059
sg76
(lp2071
S':'
asbag69
(g90
g71
NtRp2072
(dp2073
g74
(dp2074
sg83
g2059
sg76
(lp2075
g69
(g70
g71
NtRp2076
(dp2077
g74
(dp2078
g82
I5
ssg83
g2072
sg76
(lp2079
g69
(g78
g71
NtRp2080
(dp2081
g74
(dp2082
g82
I4
ssg83
Nsg76
(lp2083
g69
(g85
g71
NtRp2084
(dp2085
g74
(dp2086
sg83
g2080
sg76
(lp2087
g69
(g90
g71
NtRp2088
(dp2089
g74
(dp2090
g94
g95
ssg83
g2084
sg76
(lp2091
g1031
asbag69
(g90
g71
NtRp2092
(dp2093
g74
(dp2094
g101
g102
ssg83
g2084
sg76
(lp2095
S':'
asbag69
(g90
g71
NtRp2096
(dp2097
g74
(dp2098
sg83
g2084
sg76
(lp2099
g69
(g70
g71
NtRp2100
(dp2101
g74
(dp2102
g82
I4
ssg83
g2096
sg76
(lp2103
S"set(['/Users/ianaboneva/Dropbox/DePaul/CSC 438 - Web Applications/web2py/applications/ToDoList2/', '/Users/ianaboneva/Dropbox/DePaul/CSC 438 - Web Applications/web2py/applications/welcome/', '/Users/ianaboneva/Dropbox/DePaul/CSC 438 - Web Applications/web2py/applications/admin/', '/Users/ianaboneva/Dropbox/DePaul/CSC 438 - Web Applications/web2py/applications/Book_Shelf_copy/'])"
p2104
asbasbasbag69
(g85
g71
NtRp2105
(dp2106
g74
(dp2107
sg83
g2080
sg76
(lp2108
g69
(g90
g71
NtRp2109
(dp2110
g74
(dp2111
g94
g95
ssg83
g2105
sg76
(lp2112
g1053
asbag69
(g90
g71
NtRp2113
(dp2114
g74
(dp2115
g101
g102
ssg83
g2105
sg76
(lp2116
S':'
asbag69
(g90
g71
NtRp2117
(dp2118
g74
(dp2119
sg83
g2105
sg76
(lp2120
g69
(g70
g71
NtRp2121
(dp2122
g74
(dp2123
g82
I4
ssg83
g2117
sg76
(lp2124
g1066
asbasbasbag69
(g85
g71
NtRp2125
(dp2126
g74
(dp2127
sg83
g2080
sg76
(lp2128
g69
(g90
g71
NtRp2129
(dp2130
g74
(dp2131
g94
g95
ssg83
g2125
sg76
(lp2132
g1075
asbag69
(g90
g71
NtRp2133
(dp2134
g74
(dp2135
g101
g102
ssg83
g2125
sg76
(lp2136
S':'
asbag69
(g90
g71
NtRp2137
(dp2138
g74
(dp2139
sg83
g2125
sg76
(lp2140
g69
(g70
g71
NtRp2141
(dp2142
g74
(dp2143
g82
I4
ssg83
g2137
sg76
(lp2144
g69
(g78
g71
NtRp2145
(dp2146
g74
(dp2147
g82
I3
ssg83
Nsg76
(lp2148
sbasbasbasbag69
(g85
g71
NtRp2149
(dp2150
g74
(dp2151
sg83
g2080
sg76
(lp2152
g69
(g90
g71
NtRp2153
(dp2154
g74
(dp2155
g94
g95
ssg83
g2149
sg76
(lp2156
g1100
asbag69
(g90
g71
NtRp2157
(dp2158
g74
(dp2159
g101
g102
ssg83
g2149
sg76
(lp2160
S':'
asbag69
(g90
g71
NtRp2161
(dp2162
g74
(dp2163
sg83
g2149
sg76
(lp2164
g69
(g70
g71
NtRp2165
(dp2166
g74
(dp2167
g82
I4
ssg83
g2161
sg76
(lp2168
S"<Values at 0x104fc1b00: {'verbose': False, 'ip': '127.0.0.1', 'shutdown_timeout': 5, 'taskbar': False, 'nocron': False, 'pid_filename': 'httpserver.pid', 'maxthreads': None, 'softcron': False, 'server_name': 'Iana-Bonevas-MacBook-Pro.local', 'bpython': False, 'nogui': False, 'port': 8000, 'extcron': False, 'debuglevel': 30, 'test': None, 'folder': '/Users/ianaboneva/Dropbox/DePaul/CSC 438 - Web Applications/web2py', 'config': '', 'import_models': False, 'winservice': '', 'shell': None, 'run': '', 'log_filename': 'httpserver.log', 'args': [''], 'socket_timeout': 5, 'ssl_ca_certificate': None, 'scheduler': None, 'profiler_filename': None, 'ssl_private_key': '', 'password': '<ask>', 'request_queue_size': 5, 'ssl_certificate': '', 'cronjob': False, 'numthreads': None, 'quiet': False, 'interfaces': None, 'minthreads': None, 'timeout': 10, 'plain': False, 'nobanner': False}>"
p2169
asbasbasbag69
(g85
g71
NtRp2170
(dp2171
g74
(dp2172
sg83
g2080
sg76
(lp2173
g69
(g90
g71
NtRp2174
(dp2175
g74
(dp2176
g94
g95
ssg83
g2170
sg76
(lp2177
g1122
asbag69
(g90
g71
NtRp2178
(dp2179
g74
(dp2180
g101
g102
ssg83
g2170
sg76
(lp2181
S':'
asbag69
(g90
g71
NtRp2182
(dp2183
g74
(dp2184
sg83
g2170
sg76
(lp2185
g69
(g70
g71
NtRp2186
(dp2187
g74
(dp2188
g82
I4
ssg83
g2182
sg76
(lp2189
S'set([])'
p2190
asbasbasbag69
(g85
g71
NtRp2191
(dp2192
g74
(dp2193
sg83
g2080
sg76
(lp2194
g69
(g90
g71
NtRp2195
(dp2196
g74
(dp2197
g94
g95
ssg83
g2191
sg76
(lp2198
g1144
asbag69
(g90
g71
NtRp2199
(dp2200
g74
(dp2201
g101
g102
ssg83
g2191
sg76
(lp2202
S':'
asbag69
(g90
g71
NtRp2203
(dp2204
g74
(dp2205
sg83
g2191
sg76
(lp2206
g69
(g70
g71
NtRp2207
(dp2208
g74
(dp2209
g82
I4
ssg83
g2203
sg76
(lp2210
g112
asbasbasbag69
(g85
g71
NtRp2211
(dp2212
g74
(dp2213
sg83
g2080
sg76
(lp2214
g69
(g90
g71
NtRp2215
(dp2216
g74
(dp2217
g94
g95
ssg83
g2211
sg76
(lp2218
g1165
asbag69
(g90
g71
NtRp2219
(dp2220
g74
(dp2221
g101
g102
ssg83
g2211
sg76
(lp2222
S':'
asbag69
(g90
g71
NtRp2223
(dp2224
g74
(dp2225
sg83
g2211
sg76
(lp2226
g69
(g70
g71
NtRp2227
(dp2228
g74
(dp2229
g82
I4
ssg83
g2223
sg76
(lp2230
g1178
asbasbasbag69
(g85
g71
NtRp2231
(dp2232
g74
(dp2233
sg83
g2080
sg76
(lp2234
g69
(g90
g71
NtRp2235
(dp2236
g74
(dp2237
g94
g95
ssg83
g2231
sg76
(lp2238
g1385
asbag69
(g90
g71
NtRp2239
(dp2240
g74
(dp2241
g101
g102
ssg83
g2231
sg76
(lp2242
S':'
asbag69
(g90
g71
NtRp2243
(dp2244
g74
(dp2245
sg83
g2231
sg76
(lp2246
g69
(g70
g71
NtRp2247
(dp2248
g74
(dp2249
g82
I4
ssg83
g2243
sg76
(lp2250
g112
asbasbasbag69
(g85
g71
NtRp2251
(dp2252
g74
(dp2253
sg83
g2080
sg76
(lp2254
g69
(g90
g71
NtRp2255
(dp2256
g74
(dp2257
g94
g95
ssg83
g2251
sg76
(lp2258
g1406
asbag69
(g90
g71
NtRp2259
(dp2260
g74
(dp2261
g101
g102
ssg83
g2251
sg76
(lp2262
S':'
asbag69
(g90
g71
NtRp2263
(dp2264
g74
(dp2265
sg83
g2251
sg76
(lp2266
g69
(g70
g71
NtRp2267
(dp2268
g74
(dp2269
g82
I4
ssg83
g2263
sg76
(lp2270
g112
asbasbasbag69
(g85
g71
NtRp2271
(dp2272
g74
(dp2273
sg83
g2080
sg76
(lp2274
g69
(g90
g71
NtRp2275
(dp2276
g74
(dp2277
g94
g95
ssg83
g2271
sg76
(lp2278
g1644
asbag69
(g90
g71
NtRp2279
(dp2280
g74
(dp2281
g101
g102
ssg83
g2271
sg76
(lp2282
S':'
asbag69
(g90
g71
NtRp2283
(dp2284
g74
(dp2285
sg83
g2271
sg76
(lp2286
g69
(g70
g71
NtRp2287
(dp2288
g74
(dp2289
g82
I4
ssg83
g2283
sg76
(lp2290
g1657
asbasbasbag69
(g85
g71
NtRp2291
(dp2292
g74
(dp2293
sg83
g2080
sg76
(lp2294
g69
(g90
g71
NtRp2295
(dp2296
g74
(dp2297
g94
g95
ssg83
g2291
sg76
(lp2298
g1687
asbag69
(g90
g71
NtRp2299
(dp2300
g74
(dp2301
g101
g102
ssg83
g2291
sg76
(lp2302
S':'
asbag69
(g90
g71
NtRp2303
(dp2304
g74
(dp2305
sg83
g2291
sg76
(lp2306
g69
(g70
g71
NtRp2307
(dp2308
g74
(dp2309
g82
I4
ssg83
g2303
sg76
(lp2310
g69
(g78
g71
NtRp2311
(dp2312
g74
(dp2313
g82
I3
ssg83
Nsg76
(lp2314
g69
(g85
g71
NtRp2315
(dp2316
g74
(dp2317
sg83
g2311
sg76
(lp2318
g69
(g90
g71
NtRp2319
(dp2320
g74
(dp2321
sg83
g2315
sg76
(lp2322
g69
(g70
g71
NtRp2323
(dp2324
g74
(dp2325
g82
I3
ssg83
g2319
sg76
(lp2326
S'1'
asbasbasbag69
(g85
g71
NtRp2327
(dp2328
g74
(dp2329
sg83
g2311
sg76
(lp2330
g69
(g90
g71
NtRp2331
(dp2332
g74
(dp2333
sg83
g2327
sg76
(lp2334
g69
(g70
g71
NtRp2335
(dp2336
g74
(dp2337
g82
I3
ssg83
g2331
sg76
(lp2338
S'99'
p2339
asbasbasbag69
(g85
g71
NtRp2340
(dp2341
g74
(dp2342
sg83
g2311
sg76
(lp2343
g69
(g90
g71
NtRp2344
(dp2345
g74
(dp2346
sg83
g2340
sg76
(lp2347
g69
(g70
g71
NtRp2348
(dp2349
g74
(dp2350
g82
I3
ssg83
g2344
sg76
(lp2351
S'7'
asbasbasbag69
(g85
g71
NtRp2352
(dp2353
g74
(dp2354
sg83
g2311
sg76
(lp2355
g69
(g90
g71
NtRp2356
(dp2357
g74
(dp2358
sg83
g2352
sg76
(lp2359
g69
(g70
g71
NtRp2360
(dp2361
g74
(dp2362
g82
I3
ssg83
g2356
sg76
(lp2363
S'datetime.datetime(2012, 3, 4, 22, 12, 8)'
p2364
asbasbasbag69
(g85
g71
NtRp2365
(dp2366
g74
(dp2367
sg83
g2311
sg76
(lp2368
g69
(g90
g71
NtRp2369
(dp2370
g74
(dp2371
sg83
g2365
sg76
(lp2372
g69
(g70
g71
NtRp2373
(dp2374
g74
(dp2375
g82
I3
ssg83
g2369
sg76
(lp2376
g1766
asbasbasbasbasbasbasbasbasbasbasbag69
(g85
g71
NtRp2377
(dp2378
g74
(dp2379
sg83
g79
sg76
(lp2380
g69
(g90
g71
NtRp2381
(dp2382
g74
(dp2383
g94
g95
ssg83
g2377
sg76
(lp2384
S'is_https'
p2385
asbag69
(g90
g71
NtRp2386
(dp2387
g74
(dp2388
g101
g102
ssg83
g2377
sg76
(lp2389
S':'
asbag69
(g90
g71
NtRp2390
(dp2391
g74
(dp2392
sg83
g2377
sg76
(lp2393
g69
(g70
g71
NtRp2394
(dp2395
g74
(dp2396
g82
I5
ssg83
g2390
sg76
(lp2397
g112
asbasbasbag69
(g85
g71
NtRp2398
(dp2399
g74
(dp2400
sg83
g79
sg76
(lp2401
g69
(g90
g71
NtRp2402
(dp2403
g74
(dp2404
g94
g95
ssg83
g2398
sg76
(lp2405
S'is_local'
p2406
asbag69
(g90
g71
NtRp2407
(dp2408
g74
(dp2409
g101
g102
ssg83
g2398
sg76
(lp2410
S':'
asbag69
(g90
g71
NtRp2411
(dp2412
g74
(dp2413
sg83
g2398
sg76
(lp2414
g69
(g70
g71
NtRp2415
(dp2416
g74
(dp2417
g82
I5
ssg83
g2411
sg76
(lp2418
g1875
asbasbasbag69
(g85
g71
NtRp2419
(dp2420
g74
(dp2421
sg83
g79
sg76
(lp2422
g69
(g90
g71
NtRp2423
(dp2424
g74
(dp2425
g94
g95
ssg83
g2419
sg76
(lp2426
S'is_restful'
p2427
asbag69
(g90
g71
NtRp2428
(dp2429
g74
(dp2430
g101
g102
ssg83
g2419
sg76
(lp2431
S':'
asbag69
(g90
g71
NtRp2432
(dp2433
g74
(dp2434
sg83
g2419
sg76
(lp2435
g69
(g70
g71
NtRp2436
(dp2437
g74
(dp2438
g82
I5
ssg83
g2432
sg76
(lp2439
g112
asbasbasbag69
(g85
g71
NtRp2440
(dp2441
g74
(dp2442
sg83
g79
sg76
(lp2443
g69
(g90
g71
NtRp2444
(dp2445
g74
(dp2446
g94
g95
ssg83
g2440
sg76
(lp2447
S'now'
p2448
asbag69
(g90
g71
NtRp2449
(dp2450
g74
(dp2451
g101
g102
ssg83
g2440
sg76
(lp2452
S':'
asbag69
(g90
g71
NtRp2453
(dp2454
g74
(dp2455
sg83
g2440
sg76
(lp2456
g69
(g70
g71
NtRp2457
(dp2458
g74
(dp2459
g82
I5
ssg83
g2453
sg76
(lp2460
S'datetime.datetime(2012, 6, 3, 17, 49, 26, 27785)'
p2461
asbasbasbag69
(g85
g71
NtRp2462
(dp2463
g74
(dp2464
sg83
g79
sg76
(lp2465
g69
(g90
g71
NtRp2466
(dp2467
g74
(dp2468
g94
g95
ssg83
g2462
sg76
(lp2469
S'post_vars'
p2470
asbag69
(g90
g71
NtRp2471
(dp2472
g74
(dp2473
g101
g102
ssg83
g2462
sg76
(lp2474
S':'
asbag69
(g90
g71
NtRp2475
(dp2476
g74
(dp2477
sg83
g2462
sg76
(lp2478
g69
(g70
g71
NtRp2479
(dp2480
g74
(dp2481
g82
I5
ssg83
g2475
sg76
(lp2482
g69
(g78
g71
NtRp2483
(dp2484
g74
(dp2485
g82
I4
ssg83
Nsg76
(lp2486
sbasbasbasbag69
(g85
g71
NtRp2487
(dp2488
g74
(dp2489
sg83
g79
sg76
(lp2490
g69
(g90
g71
NtRp2491
(dp2492
g74
(dp2493
g94
g95
ssg83
g2487
sg76
(lp2494
S'url'
p2495
asbag69
(g90
g71
NtRp2496
(dp2497
g74
(dp2498
g101
g102
ssg83
g2487
sg76
(lp2499
S':'
asbag69
(g90
g71
NtRp2500
(dp2501
g74
(dp2502
sg83
g2487
sg76
(lp2503
g69
(g70
g71
NtRp2504
(dp2505
g74
(dp2506
g82
I5
ssg83
g2500
sg76
(lp2507
S'/Book_Shelf_copy/default/index'
p2508
asbasbasbag69
(g85
g71
NtRp2509
(dp2510
g74
(dp2511
sg83
g79
sg76
(lp2512
g69
(g90
g71
NtRp2513
(dp2514
g74
(dp2515
g94
g95
ssg83
g2509
sg76
(lp2516
S'utcnow'
p2517
asbag69
(g90
g71
NtRp2518
(dp2519
g74
(dp2520
g101
g102
ssg83
g2509
sg76
(lp2521
S':'
asbag69
(g90
g71
NtRp2522
(dp2523
g74
(dp2524
sg83
g2509
sg76
(lp2525
g69
(g70
g71
NtRp2526
(dp2527
g74
(dp2528
g82
I5
ssg83
g2522
sg76
(lp2529
S'datetime.datetime(2012, 6, 3, 22, 49, 26, 27800)'
p2530
asbasbasbag69
(g85
g71
NtRp2531
(dp2532
g74
(dp2533
sg83
g79
sg76
(lp2534
g69
(g90
g71
NtRp2535
(dp2536
g74
(dp2537
g94
g95
ssg83
g2531
sg76
(lp2538
S'uuid'
p2539
asbag69
(g90
g71
NtRp2540
(dp2541
g74
(dp2542
g101
g102
ssg83
g2531
sg76
(lp2543
S':'
asbag69
(g90
g71
NtRp2544
(dp2545
g74
(dp2546
sg83
g2531
sg76
(lp2547
g69
(g70
g71
NtRp2548
(dp2549
g74
(dp2550
g82
I5
ssg83
g2544
sg76
(lp2551
S'Book_Shelf_copy/127.0.0.1.2012-06-03.17-49-26.dda85c03-da7b-484f-a101-0b4ca111a66f'
p2552
asbasbasbag69
(g85
g71
NtRp2553
(dp2554
g74
(dp2555
sg83
g79
sg76
(lp2556
g69
(g90
g71
NtRp2557
(dp2558
g74
(dp2559
g94
g95
ssg83
g2553
sg76
(lp2560
S'vars'
p2561
asbag69
(g90
g71
NtRp2562
(dp2563
g74
(dp2564
g101
g102
ssg83
g2553
sg76
(lp2565
S':'
asbag69
(g90
g71
NtRp2566
(dp2567
g74
(dp2568
sg83
g2553
sg76
(lp2569
g69
(g70
g71
NtRp2570
(dp2571
g74
(dp2572
g82
I5
ssg83
g2566
sg76
(lp2573
g69
(g78
g71
NtRp2574
(dp2575
g74
(dp2576
g82
I4
ssg83
Nsg76
(lp2577
sbasbasbasbag69
(g85
g71
NtRp2578
(dp2579
g74
(dp2580
sg83
g79
sg76
(lp2581
g69
(g90
g71
NtRp2582
(dp2583
g74
(dp2584
g94
g95
ssg83
g2578
sg76
(lp2585
S'wsgi'
p2586
asbag69
(g90
g71
NtRp2587
(dp2588
g74
(dp2589
g101
g102
ssg83
g2578
sg76
(lp2590
S':'
asbag69
(g90
g71
NtRp2591
(dp2592
g74
(dp2593
sg83
g2578
sg76
(lp2594
g69
(g70
g71
NtRp2595
(dp2596
g74
(dp2597
g82
I5
ssg83
g2591
sg76
(lp2598
g69
(g78
g71
NtRp2599
(dp2600
g74
(dp2601
g82
I4
ssg83
Nsg76
(lp2602
g69
(g85
g71
NtRp2603
(dp2604
g74
(dp2605
sg83
g2599
sg76
(lp2606
g69
(g90
g71
NtRp2607
(dp2608
g74
(dp2609
g94
g95
ssg83
g2603
sg76
(lp2610
S'environ'
p2611
asbag69
(g90
g71
NtRp2612
(dp2613
g74
(dp2614
g101
g102
ssg83
g2603
sg76
(lp2615
S':'
asbag69
(g90
g71
NtRp2616
(dp2617
g74
(dp2618
sg83
g2603
sg76
(lp2619
g69
(g70
g71
NtRp2620
(dp2621
g74
(dp2622
g82
I4
ssg83
g2616
sg76
(lp2623
g69
(g78
g71
NtRp2624
(dp2625
g74
(dp2626
g82
I3
ssg83
Nsg76
(lp2627
g69
(g85
g71
NtRp2628
(dp2629
g74
(dp2630
sg83
g2624
sg76
(lp2631
g69
(g90
g71
NtRp2632
(dp2633
g74
(dp2634
g94
g95
ssg83
g2628
sg76
(lp2635
S'HTTP_ACCEPT'
p2636
asbag69
(g90
g71
NtRp2637
(dp2638
g74
(dp2639
g101
g102
ssg83
g2628
sg76
(lp2640
S':'
asbag69
(g90
g71
NtRp2641
(dp2642
g74
(dp2643
sg83
g2628
sg76
(lp2644
g69
(g70
g71
NtRp2645
(dp2646
g74
(dp2647
g82
I3
ssg83
g2641
sg76
(lp2648
g1200
asbasbasbag69
(g85
g71
NtRp2649
(dp2650
g74
(dp2651
sg83
g2624
sg76
(lp2652
g69
(g90
g71
NtRp2653
(dp2654
g74
(dp2655
g94
g95
ssg83
g2649
sg76
(lp2656
S'HTTP_ACCEPT_CHARSET'
p2657
asbag69
(g90
g71
NtRp2658
(dp2659
g74
(dp2660
g101
g102
ssg83
g2649
sg76
(lp2661
S':'
asbag69
(g90
g71
NtRp2662
(dp2663
g74
(dp2664
sg83
g2649
sg76
(lp2665
g69
(g70
g71
NtRp2666
(dp2667
g74
(dp2668
g82
I3
ssg83
g2662
sg76
(lp2669
g1222
asbasbasbag69
(g85
g71
NtRp2670
(dp2671
g74
(dp2672
sg83
g2624
sg76
(lp2673
g69
(g90
g71
NtRp2674
(dp2675
g74
(dp2676
g94
g95
ssg83
g2670
sg76
(lp2677
S'HTTP_ACCEPT_ENCODING'
p2678
asbag69
(g90
g71
NtRp2679
(dp2680
g74
(dp2681
g101
g102
ssg83
g2670
sg76
(lp2682
S':'
asbag69
(g90
g71
NtRp2683
(dp2684
g74
(dp2685
sg83
g2670
sg76
(lp2686
g69
(g70
g71
NtRp2687
(dp2688
g74
(dp2689
g82
I3
ssg83
g2683
sg76
(lp2690
g1244
asbasbasbag69
(g85
g71
NtRp2691
(dp2692
g74
(dp2693
sg83
g2624
sg76
(lp2694
g69
(g90
g71
NtRp2695
(dp2696
g74
(dp2697
g94
g95
ssg83
g2691
sg76
(lp2698
S'HTTP_ACCEPT_LANGUAGE'
p2699
asbag69
(g90
g71
NtRp2700
(dp2701
g74
(dp2702
g101
g102
ssg83
g2691
sg76
(lp2703
S':'
asbag69
(g90
g71
NtRp2704
(dp2705
g74
(dp2706
sg83
g2691
sg76
(lp2707
g69
(g70
g71
NtRp2708
(dp2709
g74
(dp2710
g82
I3
ssg83
g2704
sg76
(lp2711
g1266
asbasbasbag69
(g85
g71
NtRp2712
(dp2713
g74
(dp2714
sg83
g2624
sg76
(lp2715
g69
(g90
g71
NtRp2716
(dp2717
g74
(dp2718
g94
g95
ssg83
g2712
sg76
(lp2719
S'HTTP_CONNECTION'
p2720
asbag69
(g90
g71
NtRp2721
(dp2722
g74
(dp2723
g101
g102
ssg83
g2712
sg76
(lp2724
S':'
asbag69
(g90
g71
NtRp2725
(dp2726
g74
(dp2727
sg83
g2712
sg76
(lp2728
g69
(g70
g71
NtRp2729
(dp2730
g74
(dp2731
g82
I3
ssg83
g2725
sg76
(lp2732
g1288
asbasbasbag69
(g85
g71
NtRp2733
(dp2734
g74
(dp2735
sg83
g2624
sg76
(lp2736
g69
(g90
g71
NtRp2737
(dp2738
g74
(dp2739
g94
g95
ssg83
g2733
sg76
(lp2740
S'HTTP_COOKIE'
p2741
asbag69
(g90
g71
NtRp2742
(dp2743
g74
(dp2744
g101
g102
ssg83
g2733
sg76
(lp2745
S':'
asbag69
(g90
g71
NtRp2746
(dp2747
g74
(dp2748
sg83
g2733
sg76
(lp2749
g69
(g70
g71
NtRp2750
(dp2751
g74
(dp2752
g82
I3
ssg83
g2746
sg76
(lp2753
g1310
asbasbasbag69
(g85
g71
NtRp2754
(dp2755
g74
(dp2756
sg83
g2624
sg76
(lp2757
g69
(g90
g71
NtRp2758
(dp2759
g74
(dp2760
g94
g95
ssg83
g2754
sg76
(lp2761
S'HTTP_HOST'
p2762
asbag69
(g90
g71
NtRp2763
(dp2764
g74
(dp2765
g101
g102
ssg83
g2754
sg76
(lp2766
S':'
asbag69
(g90
g71
NtRp2767
(dp2768
g74
(dp2769
sg83
g2754
sg76
(lp2770
g69
(g70
g71
NtRp2771
(dp2772
g74
(dp2773
g82
I3
ssg83
g2767
sg76
(lp2774
g1332
asbasbasbag69
(g85
g71
NtRp2775
(dp2776
g74
(dp2777
sg83
g2624
sg76
(lp2778
g69
(g90
g71
NtRp2779
(dp2780
g74
(dp2781
g94
g95
ssg83
g2775
sg76
(lp2782
S'HTTP_REFERER'
p2783
asbag69
(g90
g71
NtRp2784
(dp2785
g74
(dp2786
g101
g102
ssg83
g2775
sg76
(lp2787
S':'
asbag69
(g90
g71
NtRp2788
(dp2789
g74
(dp2790
sg83
g2775
sg76
(lp2791
g69
(g70
g71
NtRp2792
(dp2793
g74
(dp2794
g82
I3
ssg83
g2788
sg76
(lp2795
g1354
asbasbasbag69
(g85
g71
NtRp2796
(dp2797
g74
(dp2798
sg83
g2624
sg76
(lp2799
g69
(g90
g71
NtRp2800
(dp2801
g74
(dp2802
g94
g95
ssg83
g2796
sg76
(lp2803
S'HTTP_USER_AGENT'
p2804
asbag69
(g90
g71
NtRp2805
(dp2806
g74
(dp2807
g101
g102
ssg83
g2796
sg76
(lp2808
S':'
asbag69
(g90
g71
NtRp2809
(dp2810
g74
(dp2811
sg83
g2796
sg76
(lp2812
g69
(g70
g71
NtRp2813
(dp2814
g74
(dp2815
g82
I3
ssg83
g2809
sg76
(lp2816
g1376
asbasbasbag69
(g85
g71
NtRp2817
(dp2818
g74
(dp2819
sg83
g2624
sg76
(lp2820
g69
(g90
g71
NtRp2821
(dp2822
g74
(dp2823
g94
g95
ssg83
g2817
sg76
(lp2824
S'PATH_INFO'
p2825
asbag69
(g90
g71
NtRp2826
(dp2827
g74
(dp2828
g101
g102
ssg83
g2817
sg76
(lp2829
S':'
asbag69
(g90
g71
NtRp2830
(dp2831
g74
(dp2832
sg83
g2817
sg76
(lp2833
g69
(g70
g71
NtRp2834
(dp2835
g74
(dp2836
g82
I3
ssg83
g2830
sg76
(lp2837
g1440
asbasbasbag69
(g85
g71
NtRp2838
(dp2839
g74
(dp2840
sg83
g2624
sg76
(lp2841
g69
(g90
g71
NtRp2842
(dp2843
g74
(dp2844
g94
g95
ssg83
g2838
sg76
(lp2845
S'QUERY_STRING'
p2846
asbag69
(g90
g71
NtRp2847
(dp2848
g74
(dp2849
g101
g102
ssg83
g2838
sg76
(lp2850
S':'
asbag69
(g90
g71
NtRp2851
(dp2852
g74
(dp2853
sg83
g2838
sg76
(lp2854
g69
(g70
g71
NtRp2855
(dp2856
g74
(dp2857
g82
I3
ssg83
g2851
sg76
(lp2858
S''
asbasbasbag69
(g85
g71
NtRp2859
(dp2860
g74
(dp2861
sg83
g2624
sg76
(lp2862
g69
(g90
g71
NtRp2863
(dp2864
g74
(dp2865
g94
g95
ssg83
g2859
sg76
(lp2866
S'REMOTE_ADDR'
p2867
asbag69
(g90
g71
NtRp2868
(dp2869
g74
(dp2870
g101
g102
ssg83
g2859
sg76
(lp2871
S':'
asbag69
(g90
g71
NtRp2872
(dp2873
g74
(dp2874
sg83
g2859
sg76
(lp2875
g69
(g70
g71
NtRp2876
(dp2877
g74
(dp2878
g82
I3
ssg83
g2872
sg76
(lp2879
g202
asbasbasbag69
(g85
g71
NtRp2880
(dp2881
g74
(dp2882
sg83
g2624
sg76
(lp2883
g69
(g90
g71
NtRp2884
(dp2885
g74
(dp2886
g94
g95
ssg83
g2880
sg76
(lp2887
S'REMOTE_PORT'
p2888
asbag69
(g90
g71
NtRp2889
(dp2890
g74
(dp2891
g101
g102
ssg83
g2880
sg76
(lp2892
S':'
asbag69
(g90
g71
NtRp2893
(dp2894
g74
(dp2895
sg83
g2880
sg76
(lp2896
g69
(g70
g71
NtRp2897
(dp2898
g74
(dp2899
g82
I3
ssg83
g2893
sg76
(lp2900
g1504
asbasbasbag69
(g85
g71
NtRp2901
(dp2902
g74
(dp2903
sg83
g2624
sg76
(lp2904
g69
(g90
g71
NtRp2905
(dp2906
g74
(dp2907
g94
g95
ssg83
g2901
sg76
(lp2908
S'REQUEST_METHOD'
p2909
asbag69
(g90
g71
NtRp2910
(dp2911
g74
(dp2912
g101
g102
ssg83
g2901
sg76
(lp2913
S':'
asbag69
(g90
g71
NtRp2914
(dp2915
g74
(dp2916
sg83
g2901
sg76
(lp2917
g69
(g70
g71
NtRp2918
(dp2919
g74
(dp2920
g82
I3
ssg83
g2914
sg76
(lp2921
g1526
asbasbasbag69
(g85
g71
NtRp2922
(dp2923
g74
(dp2924
sg83
g2624
sg76
(lp2925
g69
(g90
g71
NtRp2926
(dp2927
g74
(dp2928
g94
g95
ssg83
g2922
sg76
(lp2929
S'SCRIPT_NAME'
p2930
asbag69
(g90
g71
NtRp2931
(dp2932
g74
(dp2933
g101
g102
ssg83
g2922
sg76
(lp2934
S':'
asbag69
(g90
g71
NtRp2935
(dp2936
g74
(dp2937
sg83
g2922
sg76
(lp2938
g69
(g70
g71
NtRp2939
(dp2940
g74
(dp2941
g82
I3
ssg83
g2935
sg76
(lp2942
S''
asbasbasbag69
(g85
g71
NtRp2943
(dp2944
g74
(dp2945
sg83
g2624
sg76
(lp2946
g69
(g90
g71
NtRp2947
(dp2948
g74
(dp2949
g94
g95
ssg83
g2943
sg76
(lp2950
S'SERVER_NAME'
p2951
asbag69
(g90
g71
NtRp2952
(dp2953
g74
(dp2954
g101
g102
ssg83
g2943
sg76
(lp2955
S':'
asbag69
(g90
g71
NtRp2956
(dp2957
g74
(dp2958
sg83
g2943
sg76
(lp2959
g69
(g70
g71
NtRp2960
(dp2961
g74
(dp2962
g82
I3
ssg83
g2956
sg76
(lp2963
g1569
asbasbasbag69
(g85
g71
NtRp2964
(dp2965
g74
(dp2966
sg83
g2624
sg76
(lp2967
g69
(g90
g71
NtRp2968
(dp2969
g74
(dp2970
g94
g95
ssg83
g2964
sg76
(lp2971
S'SERVER_PORT'
p2972
asbag69
(g90
g71
NtRp2973
(dp2974
g74
(dp2975
g101
g102
ssg83
g2964
sg76
(lp2976
S':'
asbag69
(g90
g71
NtRp2977
(dp2978
g74
(dp2979
sg83
g2964
sg76
(lp2980
g69
(g70
g71
NtRp2981
(dp2982
g74
(dp2983
g82
I3
ssg83
g2977
sg76
(lp2984
g1591
asbasbasbag69
(g85
g71
NtRp2985
(dp2986
g74
(dp2987
sg83
g2624
sg76
(lp2988
g69
(g90
g71
NtRp2989
(dp2990
g74
(dp2991
g94
g95
ssg83
g2985
sg76
(lp2992
S'SERVER_PROTOCOL'
p2993
asbag69
(g90
g71
NtRp2994
(dp2995
g74
(dp2996
g101
g102
ssg83
g2985
sg76
(lp2997
S':'
asbag69
(g90
g71
NtRp2998
(dp2999
g74
(dp3000
sg83
g2985
sg76
(lp3001
g69
(g70
g71
NtRp3002
(dp3003
g74
(dp3004
g82
I3
ssg83
g2998
sg76
(lp3005
g1613
asbasbasbag69
(g85
g71
NtRp3006
(dp3007
g74
(dp3008
sg83
g2624
sg76
(lp3009
g69
(g90
g71
NtRp3010
(dp3011
g74
(dp3012
g94
g95
ssg83
g3006
sg76
(lp3013
S'SERVER_SOFTWARE'
p3014
asbag69
(g90
g71
NtRp3015
(dp3016
g74
(dp3017
g101
g102
ssg83
g3006
sg76
(lp3018
S':'
asbag69
(g90
g71
NtRp3019
(dp3020
g74
(dp3021
sg83
g3006
sg76
(lp3022
g69
(g70
g71
NtRp3023
(dp3024
g74
(dp3025
g82
I3
ssg83
g3019
sg76
(lp3026
g1635
asbasbasbag69
(g85
g71
NtRp3027
(dp3028
g74
(dp3029
sg83
g2624
sg76
(lp3030
g69
(g90
g71
NtRp3031
(dp3032
g74
(dp3033
g94
g95
ssg83
g3027
sg76
(lp3034
S'wsgi.errors'
p3035
asbag69
(g90
g71
NtRp3036
(dp3037
g74
(dp3038
g101
g102
ssg83
g3027
sg76
(lp3039
S':'
asbag69
(g90
g71
NtRp3040
(dp3041
g74
(dp3042
sg83
g3027
sg76
(lp3043
g69
(g70
g71
NtRp3044
(dp3045
g74
(dp3046
g82
I3
ssg83
g3040
sg76
(lp3047
S"<open file '<stderr>', mode 'w' at 0x104484270>"
p3048
asbasbasbag69
(g85
g71
NtRp3049
(dp3050
g74
(dp3051
sg83
g2624
sg76
(lp3052
g69
(g90
g71
NtRp3053
(dp3054
g74
(dp3055
g94
g95
ssg83
g3049
sg76
(lp3056
S'wsgi.file_wrapper'
p3057
asbag69
(g90
g71
NtRp3058
(dp3059
g74
(dp3060
g101
g102
ssg83
g3049
sg76
(lp3061
S':'
asbag69
(g90
g71
NtRp3062
(dp3063
g74
(dp3064
sg83
g3049
sg76
(lp3065
g69
(g70
g71
NtRp3066
(dp3067
g74
(dp3068
g82
I3
ssg83
g3062
sg76
(lp3069
S'<class wsgiref.util.FileWrapper at 0x104ebdf58>'
p3070
asbasbasbag69
(g85
g71
NtRp3071
(dp3072
g74
(dp3073
sg83
g2624
sg76
(lp3074
g69
(g90
g71
NtRp3075
(dp3076
g74
(dp3077
g94
g95
ssg83
g3071
sg76
(lp3078
S'wsgi.input'
p3079
asbag69
(g90
g71
NtRp3080
(dp3081
g74
(dp3082
g101
g102
ssg83
g3071
sg76
(lp3083
S':'
asbag69
(g90
g71
NtRp3084
(dp3085
g74
(dp3086
sg83
g3071
sg76
(lp3087
g69
(g70
g71
NtRp3088
(dp3089
g74
(dp3090
g82
I3
ssg83
g3084
sg76
(lp3091
S'<cStringIO.StringO object at 0x10564ca08>'
p3092
asbasbasbag69
(g85
g71
NtRp3093
(dp3094
g74
(dp3095
sg83
g2624
sg76
(lp3096
g69
(g90
g71
NtRp3097
(dp3098
g74
(dp3099
g94
g95
ssg83
g3093
sg76
(lp3100
S'wsgi.multiprocess'
p3101
asbag69
(g90
g71
NtRp3102
(dp3103
g74
(dp3104
g101
g102
ssg83
g3093
sg76
(lp3105
S':'
asbag69
(g90
g71
NtRp3106
(dp3107
g74
(dp3108
sg83
g3093
sg76
(lp3109
g69
(g70
g71
NtRp3110
(dp3111
g74
(dp3112
g82
I3
ssg83
g3106
sg76
(lp3113
g112
asbasbasbag69
(g85
g71
NtRp3114
(dp3115
g74
(dp3116
sg83
g2624
sg76
(lp3117
g69
(g90
g71
NtRp3118
(dp3119
g74
(dp3120
g94
g95
ssg83
g3114
sg76
(lp3121
S'wsgi.multithread'
p3122
asbag69
(g90
g71
NtRp3123
(dp3124
g74
(dp3125
g101
g102
ssg83
g3114
sg76
(lp3126
S':'
asbag69
(g90
g71
NtRp3127
(dp3128
g74
(dp3129
sg83
g3114
sg76
(lp3130
g69
(g70
g71
NtRp3131
(dp3132
g74
(dp3133
g82
I3
ssg83
g3127
sg76
(lp3134
g1875
asbasbasbag69
(g85
g71
NtRp3135
(dp3136
g74
(dp3137
sg83
g2624
sg76
(lp3138
g69
(g90
g71
NtRp3139
(dp3140
g74
(dp3141
g94
g95
ssg83
g3135
sg76
(lp3142
S'wsgi.run_once'
p3143
asbag69
(g90
g71
NtRp3144
(dp3145
g74
(dp3146
g101
g102
ssg83
g3135
sg76
(lp3147
S':'
asbag69
(g90
g71
NtRp3148
(dp3149
g74
(dp3150
sg83
g3135
sg76
(lp3151
g69
(g70
g71
NtRp3152
(dp3153
g74
(dp3154
g82
I3
ssg83
g3148
sg76
(lp3155
g112
asbasbasbag69
(g85
g71
NtRp3156
(dp3157
g74
(dp3158
sg83
g2624
sg76
(lp3159
g69
(g90
g71
NtRp3160
(dp3161
g74
(dp3162
g94
g95
ssg83
g3156
sg76
(lp3163
S'wsgi.url_scheme'
p3164
asbag69
(g90
g71
NtRp3165
(dp3166
g74
(dp3167
g101
g102
ssg83
g3156
sg76
(lp3168
S':'
asbag69
(g90
g71
NtRp3169
(dp3170
g74
(dp3171
sg83
g3156
sg76
(lp3172
g69
(g70
g71
NtRp3173
(dp3174
g74
(dp3175
g82
I3
ssg83
g3169
sg76
(lp3176
g1918
asbasbasbag69
(g85
g71
NtRp3177
(dp3178
g74
(dp3179
sg83
g2624
sg76
(lp3180
g69
(g90
g71
NtRp3181
(dp3182
g74
(dp3183
g94
g95
ssg83
g3177
sg76
(lp3184
S'wsgi.version'
p3185
asbag69
(g90
g71
NtRp3186
(dp3187
g74
(dp3188
g101
g102
ssg83
g3177
sg76
(lp3189
S':'
asbag69
(g90
g71
NtRp3190
(dp3191
g74
(dp3192
sg83
g3177
sg76
(lp3193
g69
(g70
g71
NtRp3194
(dp3195
g74
(dp3196
g82
I3
ssg83
g3190
sg76
(lp3197
S'1'
asbasbasbasbasbasbasbasbasbasbasbasbasbsS'frames'
p3198
(lp3199
(dp3200
S'file'
p3201
S'/Users/ianaboneva/Dropbox/DePaul/CSC 438 - Web Applications/web2py/gluon/restricted.py'
p3202
sS'dump'
p3203
(dp3204
S'code'
p3205
S"'# -*- coding: utf-8 -*-\\n# this file is released ...=crud())\\n\\nresponse._vars=response._caller(index)\\n'"
p3206
sS'layer'
p3207
S"'/Users/ianaboneva/Dropbox/DePaul/CSC 438 - Web A...plications/Book_Shelf_copy/controllers/default.py'"
p3208
sS'global compile2'
p3209
S'<function compile2>'
p3210
sS'ccode'
p3211
S'undefined'
p3212
ssS'lnum'
p3213
I204
sS'lines'
p3214
(dp3215
I199
S"    environment['__name__'] = '__restricted__'"
p3216
sI200
S'    try:'
p3217
sI201
S'        if type(code) == types.CodeType:'
p3218
sI202
S'            ccode = code'
p3219
sI203
S'        else:'
p3220
sI204
S'            ccode = compile2(code,layer)'
p3221
sI205
S'        exec ccode in environment'
p3222
sI206
S'    except HTTP:'
p3223
sI207
S'        raise'
p3224
sI208
S'    except RestrictedError:'
p3225
ssS'call'
p3226
S"(code='# -*- coding: utf-8 -*-\\n# this file is released ...=crud())\\n\\nresponse._vars=response._caller(index)\\n', environment={'A': <class 'gluon.html.A'>, 'Auth': <class 'gluon.tools.Auth'>, 'B': <class 'gluon.html.B'>, 'BEAUTIFY': <class 'gluon.html.BEAUTIFY'>, 'BODY': <class 'gluon.html.BODY'>, 'BR': <class 'gluon.html.BR'>, 'BUTTON': <class 'gluon.html.BUTTON'>, 'CAT': <class 'gluon.html.CAT'>, 'CENTER': <class 'gluon.html.CENTER'>, 'CLEANUP': <class 'gluon.validators.CLEANUP'>, ...}, layer='/Users/ianaboneva/Dropbox/DePaul/CSC 438 - Web A...plications/Book_Shelf_copy/controllers/default.py')"
p3227
sS'func'
p3228
S'restricted'
p3229
sa(dp3230
g3201
S'/Users/ianaboneva/Dropbox/DePaul/CSC 438 - Web Applications/web2py/gluon/restricted.py'
p3231
sg3203
(dp3232
S'builtincompile'
p3233
S'<built-in function compile>'
p3234
sS'code'
p3235
S"'# -*- coding: utf-8 -*-\\n# this file is released ...=crud())\\n\\nresponse._vars=response._caller(index)\\n'"
p3236
sS'code.rstrip'
p3237
S'<built-in method rstrip of str object>'
p3238
sS').replace'
p3239
g3212
sS'layer'
p3240
S"'/Users/ianaboneva/Dropbox/DePaul/CSC 438 - Web A...plications/Book_Shelf_copy/controllers/default.py'"
p3241
ssg3213
I189
sg3214
(dp3242
I192
S'    """'
p3243
sI193
S'    runs code in environment and returns the output. if an exception occurs'
p3244
sI184
S''
sI185
S'def compile2(code,layer):'
p3245
sI186
S'    """'
p3246
sI187
S"    The +'\\n' is necessary else compile fails when code ends in a comment."
p3247
sI188
S'    """'
p3248
sI189
S"    return compile(code.rstrip().replace('\\r\\n','\\n')+'\\n', layer, 'exec')"
p3249
sI190
S''
sI191
S"def restricted(code, environment=None, layer='Unknown'):"
p3250
ssg3226
S"(code='# -*- coding: utf-8 -*-\\n# this file is released ...=crud())\\n\\nresponse._vars=response._caller(index)\\n', layer='/Users/ianaboneva/Dropbox/DePaul/CSC 438 - Web A...plications/Book_Shelf_copy/controllers/default.py')"
p3251
sg3228
S'compile2'
p3252
sasS'pyver'
p3253
S'Python 2.7.1: /usr/bin/python'
p3254
sS'session'
p3255
g69
(g70
g71
NtRp3256
(dp3257
g74
(dp3258
sg76
(lp3259
g69
(g78
g71
NtRp3260
(dp3261
g74
(dp3262
g82
I5
ssg83
Nsg76
(lp3263
g69
(g85
g71
NtRp3264
(dp3265
g74
(dp3266
sg83
g3260
sg76
(lp3267
g69
(g90
g71
NtRp3268
(dp3269
g74
(dp3270
g94
g95
ssg83
g3264
sg76
(lp3271
S'auth'
p3272
asbag69
(g90
g71
NtRp3273
(dp3274
g74
(dp3275
g101
g102
ssg83
g3264
sg76
(lp3276
S':'
asbag69
(g90
g71
NtRp3277
(dp3278
g74
(dp3279
sg83
g3264
sg76
(lp3280
g69
(g70
g71
NtRp3281
(dp3282
g74
(dp3283
g82
I5
ssg83
g3277
sg76
(lp3284
g69
(g78
g71
NtRp3285
(dp3286
g74
(dp3287
g82
I4
ssg83
Nsg76
(lp3288
g69
(g85
g71
NtRp3289
(dp3290
g74
(dp3291
sg83
g3285
sg76
(lp3292
g69
(g90
g71
NtRp3293
(dp3294
g74
(dp3295
g94
g95
ssg83
g3289
sg76
(lp3296
S'expiration'
p3297
asbag69
(g90
g71
NtRp3298
(dp3299
g74
(dp3300
g101
g102
ssg83
g3289
sg76
(lp3301
S':'
asbag69
(g90
g71
NtRp3302
(dp3303
g74
(dp3304
sg83
g3289
sg76
(lp3305
g69
(g70
g71
NtRp3306
(dp3307
g74
(dp3308
g82
I4
ssg83
g3302
sg76
(lp3309
S'3600'
p3310
asbasbasbag69
(g85
g71
NtRp3311
(dp3312
g74
(dp3313
sg83
g3285
sg76
(lp3314
g69
(g90
g71
NtRp3315
(dp3316
g74
(dp3317
g94
g95
ssg83
g3311
sg76
(lp3318
S'hmac_key'
p3319
asbag69
(g90
g71
NtRp3320
(dp3321
g74
(dp3322
g101
g102
ssg83
g3311
sg76
(lp3323
S':'
asbag69
(g90
g71
NtRp3324
(dp3325
g74
(dp3326
sg83
g3311
sg76
(lp3327
g69
(g70
g71
NtRp3328
(dp3329
g74
(dp3330
g82
I4
ssg83
g3324
sg76
(lp3331
S'6d65ccff-e9f9-4a04-a10d-f39c9767a83a'
p3332
asbasbasbag69
(g85
g71
NtRp3333
(dp3334
g74
(dp3335
sg83
g3285
sg76
(lp3336
g69
(g90
g71
NtRp3337
(dp3338
g74
(dp3339
g94
g95
ssg83
g3333
sg76
(lp3340
S'last_visit'
p3341
asbag69
(g90
g71
NtRp3342
(dp3343
g74
(dp3344
g101
g102
ssg83
g3333
sg76
(lp3345
S':'
asbag69
(g90
g71
NtRp3346
(dp3347
g74
(dp3348
sg83
g3333
sg76
(lp3349
g69
(g70
g71
NtRp3350
(dp3351
g74
(dp3352
g82
I4
ssg83
g3346
sg76
(lp3353
S'datetime.datetime(2012, 6, 3, 17, 45, 46, 615021)'
p3354
asbasbasbag69
(g85
g71
NtRp3355
(dp3356
g74
(dp3357
sg83
g3285
sg76
(lp3358
g69
(g90
g71
NtRp3359
(dp3360
g74
(dp3361
g94
g95
ssg83
g3355
sg76
(lp3362
S'remember'
p3363
asbag69
(g90
g71
NtRp3364
(dp3365
g74
(dp3366
g101
g102
ssg83
g3355
sg76
(lp3367
S':'
asbag69
(g90
g71
NtRp3368
(dp3369
g74
(dp3370
sg83
g3355
sg76
(lp3371
g69
(g70
g71
NtRp3372
(dp3373
g74
(dp3374
g82
I4
ssg83
g3368
sg76
(lp3375
g112
asbasbasbag69
(g85
g71
NtRp3376
(dp3377
g74
(dp3378
sg83
g3285
sg76
(lp3379
g69
(g90
g71
NtRp3380
(dp3381
g74
(dp3382
g94
g95
ssg83
g3376
sg76
(lp3383
S'user'
p3384
asbag69
(g90
g71
NtRp3385
(dp3386
g74
(dp3387
g101
g102
ssg83
g3376
sg76
(lp3388
S':'
asbag69
(g90
g71
NtRp3389
(dp3390
g74
(dp3391
sg83
g3376
sg76
(lp3392
g69
(g70
g71
NtRp3393
(dp3394
g74
(dp3395
g82
I4
ssg83
g3389
sg76
(lp3396
g69
(g78
g71
NtRp3397
(dp3398
g74
(dp3399
g82
I3
ssg83
Nsg76
(lp3400
g69
(g85
g71
NtRp3401
(dp3402
g74
(dp3403
sg83
g3397
sg76
(lp3404
g69
(g90
g71
NtRp3405
(dp3406
g74
(dp3407
g94
g95
ssg83
g3401
sg76
(lp3408
S'email'
p3409
asbag69
(g90
g71
NtRp3410
(dp3411
g74
(dp3412
g101
g102
ssg83
g3401
sg76
(lp3413
S':'
asbag69
(g90
g71
NtRp3414
(dp3415
g74
(dp3416
sg83
g3401
sg76
(lp3417
g69
(g70
g71
NtRp3418
(dp3419
g74
(dp3420
g82
I3
ssg83
g3414
sg76
(lp3421
S'haha@haha.com'
p3422
asbasbasbag69
(g85
g71
NtRp3423
(dp3424
g74
(dp3425
sg83
g3397
sg76
(lp3426
g69
(g90
g71
NtRp3427
(dp3428
g74
(dp3429
g94
g95
ssg83
g3423
sg76
(lp3430
S'first_name'
p3431
asbag69
(g90
g71
NtRp3432
(dp3433
g74
(dp3434
g101
g102
ssg83
g3423
sg76
(lp3435
S':'
asbag69
(g90
g71
NtRp3436
(dp3437
g74
(dp3438
sg83
g3423
sg76
(lp3439
g69
(g70
g71
NtRp3440
(dp3441
g74
(dp3442
g82
I3
ssg83
g3436
sg76
(lp3443
S'Iana'
p3444
asbasbasbag69
(g85
g71
NtRp3445
(dp3446
g74
(dp3447
sg83
g3397
sg76
(lp3448
g69
(g90
g71
NtRp3449
(dp3450
g74
(dp3451
g94
g95
ssg83
g3445
sg76
(lp3452
S'id'
p3453
asbag69
(g90
g71
NtRp3454
(dp3455
g74
(dp3456
g101
g102
ssg83
g3445
sg76
(lp3457
S':'
asbag69
(g90
g71
NtRp3458
(dp3459
g74
(dp3460
sg83
g3445
sg76
(lp3461
g69
(g70
g71
NtRp3462
(dp3463
g74
(dp3464
g82
I3
ssg83
g3458
sg76
(lp3465
S'2'
asbasbasbag69
(g85
g71
NtRp3466
(dp3467
g74
(dp3468
sg83
g3397
sg76
(lp3469
g69
(g90
g71
NtRp3470
(dp3471
g74
(dp3472
g94
g95
ssg83
g3466
sg76
(lp3473
S'last_name'
p3474
asbag69
(g90
g71
NtRp3475
(dp3476
g74
(dp3477
g101
g102
ssg83
g3466
sg76
(lp3478
S':'
asbag69
(g90
g71
NtRp3479
(dp3480
g74
(dp3481
sg83
g3466
sg76
(lp3482
g69
(g70
g71
NtRp3483
(dp3484
g74
(dp3485
g82
I3
ssg83
g3479
sg76
(lp3486
S'Boneva'
p3487
asbasbasbag69
(g85
g71
NtRp3488
(dp3489
g74
(dp3490
sg83
g3397
sg76
(lp3491
g69
(g90
g71
NtRp3492
(dp3493
g74
(dp3494
g94
g95
ssg83
g3488
sg76
(lp3495
S'password'
p3496
asbag69
(g90
g71
NtRp3497
(dp3498
g74
(dp3499
g101
g102
ssg83
g3488
sg76
(lp3500
S':'
asbag69
(g90
g71
NtRp3501
(dp3502
g74
(dp3503
sg83
g3488
sg76
(lp3504
g69
(g70
g71
NtRp3505
(dp3506
g74
(dp3507
g82
I3
ssg83
g3501
sg76
(lp3508
S'be570e8e7b9bbc17c5aecccf653fd3d3'
p3509
asbasbasbag69
(g85
g71
NtRp3510
(dp3511
g74
(dp3512
sg83
g3397
sg76
(lp3513
g69
(g90
g71
NtRp3514
(dp3515
g74
(dp3516
g94
g95
ssg83
g3510
sg76
(lp3517
S'registration_id'
p3518
asbag69
(g90
g71
NtRp3519
(dp3520
g74
(dp3521
g101
g102
ssg83
g3510
sg76
(lp3522
S':'
asbag69
(g90
g71
NtRp3523
(dp3524
g74
(dp3525
sg83
g3510
sg76
(lp3526
g69
(g70
g71
NtRp3527
(dp3528
g74
(dp3529
g82
I3
ssg83
g3523
sg76
(lp3530
S''
asbasbasbag69
(g85
g71
NtRp3531
(dp3532
g74
(dp3533
sg83
g3397
sg76
(lp3534
g69
(g90
g71
NtRp3535
(dp3536
g74
(dp3537
g94
g95
ssg83
g3531
sg76
(lp3538
S'registration_key'
p3539
asbag69
(g90
g71
NtRp3540
(dp3541
g74
(dp3542
g101
g102
ssg83
g3531
sg76
(lp3543
S':'
asbag69
(g90
g71
NtRp3544
(dp3545
g74
(dp3546
sg83
g3531
sg76
(lp3547
g69
(g70
g71
NtRp3548
(dp3549
g74
(dp3550
g82
I3
ssg83
g3544
sg76
(lp3551
S''
asbasbasbag69
(g85
g71
NtRp3552
(dp3553
g74
(dp3554
sg83
g3397
sg76
(lp3555
g69
(g90
g71
NtRp3556
(dp3557
g74
(dp3558
g94
g95
ssg83
g3552
sg76
(lp3559
S'reset_password_key'
p3560
asbag69
(g90
g71
NtRp3561
(dp3562
g74
(dp3563
g101
g102
ssg83
g3552
sg76
(lp3564
S':'
asbag69
(g90
g71
NtRp3565
(dp3566
g74
(dp3567
sg83
g3552
sg76
(lp3568
g69
(g70
g71
NtRp3569
(dp3570
g74
(dp3571
g82
I3
ssg83
g3565
sg76
(lp3572
S''
asbasbasbasbasbasbasbag69
(g85
g71
NtRp3573
(dp3574
g74
(dp3575
sg83
g3285
sg76
(lp3576
g69
(g90
g71
NtRp3577
(dp3578
g74
(dp3579
g94
g95
ssg83
g3573
sg76
(lp3580
S'user_groups'
p3581
asbag69
(g90
g71
NtRp3582
(dp3583
g74
(dp3584
g101
g102
ssg83
g3573
sg76
(lp3585
S':'
asbag69
(g90
g71
NtRp3586
(dp3587
g74
(dp3588
sg83
g3573
sg76
(lp3589
g69
(g70
g71
NtRp3590
(dp3591
g74
(dp3592
g82
I4
ssg83
g3586
sg76
(lp3593
g69
(g78
g71
NtRp3594
(dp3595
g74
(dp3596
g82
I3
ssg83
Nsg76
(lp3597
g69
(g85
g71
NtRp3598
(dp3599
g74
(dp3600
sg83
g3594
sg76
(lp3601
g69
(g90
g71
NtRp3602
(dp3603
g74
(dp3604
g94
g95
ssg83
g3598
sg76
(lp3605
S'2'
asbag69
(g90
g71
NtRp3606
(dp3607
g74
(dp3608
g101
g102
ssg83
g3598
sg76
(lp3609
S':'
asbag69
(g90
g71
NtRp3610
(dp3611
g74
(dp3612
sg83
g3598
sg76
(lp3613
g69
(g70
g71
NtRp3614
(dp3615
g74
(dp3616
g82
I3
ssg83
g3610
sg76
(lp3617
S'user_2'
p3618
asbasbasbasbasbasbasbasbasbasbasbag69
(g85
g71
NtRp3619
(dp3620
g74
(dp3621
sg83
g3260
sg76
(lp3622
g69
(g90
g71
NtRp3623
(dp3624
g74
(dp3625
g94
g95
ssg83
g3619
sg76
(lp3626
S'last_query'
p3627
asbag69
(g90
g71
NtRp3628
(dp3629
g74
(dp3630
g101
g102
ssg83
g3619
sg76
(lp3631
S':'
asbag69
(g90
g71
NtRp3632
(dp3633
g74
(dp3634
sg83
g3619
sg76
(lp3635
g69
(g70
g71
NtRp3636
(dp3637
g74
(dp3638
g82
I5
ssg83
g3632
sg76
(lp3639
S'db.Book_Profile.id>0'
p3640
asbasbasbasbasbsS'etype'
p3641
S"<type 'exceptions.IndentationError'>"
p3642
sS'date'
p3643
S'Sun Jun  3 17:49:26 2012'
p3644
sS'response'
p3645
g69
(g70
g71
NtRp3646
(dp3647
g74
(dp3648
sg76
(lp3649
g69
(g78
g71
NtRp3650
(dp3651
g74
(dp3652
g82
I5
ssg83
Nsg76
(lp3653
g69
(g85
g71
NtRp3654
(dp3655
g74
(dp3656
sg83
g3650
sg76
(lp3657
g69
(g90
g71
NtRp3658
(dp3659
g74
(dp3660
g94
g95
ssg83
g3654
sg76
(lp3661
g167
asbag69
(g90
g71
NtRp3662
(dp3663
g74
(dp3664
g101
g102
ssg83
g3654
sg76
(lp3665
S':'
asbag69
(g90
g71
NtRp3666
(dp3667
g74
(dp3668
sg83
g3654
sg76
(lp3669
g69
(g70
g71
NtRp3670
(dp3671
g74
(dp3672
g82
I5
ssg83
g3666
sg76
(lp3673
S'<cStringIO.StringO object at 0x10561dce0>'
p3674
asbasbasbag69
(g85
g71
NtRp3675
(dp3676
g74
(dp3677
sg83
g3650
sg76
(lp3678
g69
(g90
g71
NtRp3679
(dp3680
g74
(dp3681
g94
g95
ssg83
g3675
sg76
(lp3682
g233
asbag69
(g90
g71
NtRp3683
(dp3684
g74
(dp3685
g101
g102
ssg83
g3675
sg76
(lp3686
S':'
asbag69
(g90
g71
NtRp3687
(dp3688
g74
(dp3689
sg83
g3675
sg76
(lp3690
g69
(g70
g71
NtRp3691
(dp3692
g74
(dp3693
g82
I5
ssg83
g3687
sg76
(lp3694
g69
(g78
g71
NtRp3695
(dp3696
g74
(dp3697
g82
I4
ssg83
Nsg76
(lp3698
g69
(g85
g71
NtRp3699
(dp3700
g74
(dp3701
sg83
g3695
sg76
(lp3702
g69
(g90
g71
NtRp3703
(dp3704
g74
(dp3705
g94
g95
ssg83
g3699
sg76
(lp3706
S'session_id_book_shelf_copy'
p3707
asbag69
(g90
g71
NtRp3708
(dp3709
g74
(dp3710
g101
g102
ssg83
g3699
sg76
(lp3711
S':'
asbag69
(g90
g71
NtRp3712
(dp3713
g74
(dp3714
sg83
g3699
sg76
(lp3715
g69
(g70
g71
NtRp3716
(dp3717
g74
(dp3718
g82
I4
ssg83
g3712
sg76
(lp3719
g69
(g78
g71
NtRp3720
(dp3721
g74
(dp3722
g82
I3
ssg83
Nsg76
(lp3723
g69
(g85
g71
NtRp3724
(dp3725
g74
(dp3726
sg83
g3720
sg76
(lp3727
g69
(g90
g71
NtRp3728
(dp3729
g74
(dp3730
g94
g95
ssg83
g3724
sg76
(lp3731
g283
asbag69
(g90
g71
NtRp3732
(dp3733
g74
(dp3734
g101
g102
ssg83
g3724
sg76
(lp3735
S':'
asbag69
(g90
g71
NtRp3736
(dp3737
g74
(dp3738
sg83
g3724
sg76
(lp3739
g69
(g70
g71
NtRp3740
(dp3741
g74
(dp3742
g82
I3
ssg83
g3736
sg76
(lp3743
S''
asbasbasbag69
(g85
g71
NtRp3744
(dp3745
g74
(dp3746
sg83
g3720
sg76
(lp3747
g69
(g90
g71
NtRp3748
(dp3749
g74
(dp3750
g94
g95
ssg83
g3744
sg76
(lp3751
g304
asbag69
(g90
g71
NtRp3752
(dp3753
g74
(dp3754
g101
g102
ssg83
g3744
sg76
(lp3755
S':'
asbag69
(g90
g71
NtRp3756
(dp3757
g74
(dp3758
sg83
g3744
sg76
(lp3759
g69
(g70
g71
NtRp3760
(dp3761
g74
(dp3762
g82
I3
ssg83
g3756
sg76
(lp3763
S''
asbasbasbag69
(g85
g71
NtRp3764
(dp3765
g74
(dp3766
sg83
g3720
sg76
(lp3767
g69
(g90
g71
NtRp3768
(dp3769
g74
(dp3770
g94
g95
ssg83
g3764
sg76
(lp3771
g325
asbag69
(g90
g71
NtRp3772
(dp3773
g74
(dp3774
g101
g102
ssg83
g3764
sg76
(lp3775
S':'
asbag69
(g90
g71
NtRp3776
(dp3777
g74
(dp3778
sg83
g3764
sg76
(lp3779
g69
(g70
g71
NtRp3780
(dp3781
g74
(dp3782
g82
I3
ssg83
g3776
sg76
(lp3783
S''
asbasbasbag69
(g85
g71
NtRp3784
(dp3785
g74
(dp3786
sg83
g3720
sg76
(lp3787
g69
(g90
g71
NtRp3788
(dp3789
g74
(dp3790
g94
g95
ssg83
g3784
sg76
(lp3791
g346
asbag69
(g90
g71
NtRp3792
(dp3793
g74
(dp3794
g101
g102
ssg83
g3784
sg76
(lp3795
S':'
asbag69
(g90
g71
NtRp3796
(dp3797
g74
(dp3798
sg83
g3784
sg76
(lp3799
g69
(g70
g71
NtRp3800
(dp3801
g74
(dp3802
g82
I3
ssg83
g3796
sg76
(lp3803
S''
asbasbasbag69
(g85
g71
NtRp3804
(dp3805
g74
(dp3806
sg83
g3720
sg76
(lp3807
g69
(g90
g71
NtRp3808
(dp3809
g74
(dp3810
g94
g95
ssg83
g3804
sg76
(lp3811
g367
asbag69
(g90
g71
NtRp3812
(dp3813
g74
(dp3814
g101
g102
ssg83
g3804
sg76
(lp3815
S':'
asbag69
(g90
g71
NtRp3816
(dp3817
g74
(dp3818
sg83
g3804
sg76
(lp3819
g69
(g70
g71
NtRp3820
(dp3821
g74
(dp3822
g82
I3
ssg83
g3816
sg76
(lp3823
S''
asbasbasbag69
(g85
g71
NtRp3824
(dp3825
g74
(dp3826
sg83
g3720
sg76
(lp3827
g69
(g90
g71
NtRp3828
(dp3829
g74
(dp3830
g94
g95
ssg83
g3824
sg76
(lp3831
g388
asbag69
(g90
g71
NtRp3832
(dp3833
g74
(dp3834
g101
g102
ssg83
g3824
sg76
(lp3835
S':'
asbag69
(g90
g71
NtRp3836
(dp3837
g74
(dp3838
sg83
g3824
sg76
(lp3839
g69
(g70
g71
NtRp3840
(dp3841
g74
(dp3842
g82
I3
ssg83
g3836
sg76
(lp3843
S'/'
asbasbasbag69
(g85
g71
NtRp3844
(dp3845
g74
(dp3846
sg83
g3720
sg76
(lp3847
g69
(g90
g71
NtRp3848
(dp3849
g74
(dp3850
g94
g95
ssg83
g3844
sg76
(lp3851
g409
asbag69
(g90
g71
NtRp3852
(dp3853
g74
(dp3854
g101
g102
ssg83
g3844
sg76
(lp3855
S':'
asbag69
(g90
g71
NtRp3856
(dp3857
g74
(dp3858
sg83
g3844
sg76
(lp3859
g69
(g70
g71
NtRp3860
(dp3861
g74
(dp3862
g82
I3
ssg83
g3856
sg76
(lp3863
S''
asbasbasbag69
(g85
g71
NtRp3864
(dp3865
g74
(dp3866
sg83
g3720
sg76
(lp3867
g69
(g90
g71
NtRp3868
(dp3869
g74
(dp3870
g94
g95
ssg83
g3864
sg76
(lp3871
g430
asbag69
(g90
g71
NtRp3872
(dp3873
g74
(dp3874
g101
g102
ssg83
g3864
sg76
(lp3875
S':'
asbag69
(g90
g71
NtRp3876
(dp3877
g74
(dp3878
sg83
g3864
sg76
(lp3879
g69
(g70
g71
NtRp3880
(dp3881
g74
(dp3882
g82
I3
ssg83
g3876
sg76
(lp3883
S''
asbasbasbasbasbasbasbasbasbasbasbag69
(g85
g71
NtRp3884
(dp3885
g74
(dp3886
sg83
g3650
sg76
(lp3887
g69
(g90
g71
NtRp3888
(dp3889
g74
(dp3890
g94
g95
ssg83
g3884
sg76
(lp3891
S'delimiters'
p3892
asbag69
(g90
g71
NtRp3893
(dp3894
g74
(dp3895
g101
g102
ssg83
g3884
sg76
(lp3896
S':'
asbag69
(g90
g71
NtRp3897
(dp3898
g74
(dp3899
sg83
g3884
sg76
(lp3900
g69
(g70
g71
NtRp3901
(dp3902
g74
(dp3903
g82
I5
ssg83
g3897
sg76
(lp3904
g69
(g78
g71
NtRp3905
(dp3906
g74
(dp3907
g82
I4
ssg83
Nsg76
(lp3908
g69
(g85
g71
NtRp3909
(dp3910
g74
(dp3911
sg83
g3905
sg76
(lp3912
g69
(g90
g71
NtRp3913
(dp3914
g74
(dp3915
sg83
g3909
sg76
(lp3916
g69
(g70
g71
NtRp3917
(dp3918
g74
(dp3919
g82
I4
ssg83
g3913
sg76
(lp3920
S'{{'
p3921
asbasbasbag69
(g85
g71
NtRp3922
(dp3923
g74
(dp3924
sg83
g3905
sg76
(lp3925
g69
(g90
g71
NtRp3926
(dp3927
g74
(dp3928
sg83
g3922
sg76
(lp3929
g69
(g70
g71
NtRp3930
(dp3931
g74
(dp3932
g82
I4
ssg83
g3926
sg76
(lp3933
S'}}'
p3934
asbasbasbasbasbasbasbag69
(g85
g71
NtRp3935
(dp3936
g74
(dp3937
sg83
g3650
sg76
(lp3938
g69
(g90
g71
NtRp3939
(dp3940
g74
(dp3941
g94
g95
ssg83
g3935
sg76
(lp3942
S'files'
p3943
asbag69
(g90
g71
NtRp3944
(dp3945
g74
(dp3946
g101
g102
ssg83
g3935
sg76
(lp3947
S':'
asbag69
(g90
g71
NtRp3948
(dp3949
g74
(dp3950
sg83
g3935
sg76
(lp3951
g69
(g70
g71
NtRp3952
(dp3953
g74
(dp3954
g82
I5
ssg83
g3948
sg76
(lp3955
g69
(g78
g71
NtRp3956
(dp3957
g74
(dp3958
g82
I4
ssg83
Nsg76
(lp3959
sbasbasbasbag69
(g85
g71
NtRp3960
(dp3961
g74
(dp3962
sg83
g3650
sg76
(lp3963
g69
(g90
g71
NtRp3964
(dp3965
g74
(dp3966
g94
g95
ssg83
g3960
sg76
(lp3967
S'flash'
p3968
asbag69
(g90
g71
NtRp3969
(dp3970
g74
(dp3971
g101
g102
ssg83
g3960
sg76
(lp3972
S':'
asbag69
(g90
g71
NtRp3973
(dp3974
g74
(dp3975
sg83
g3960
sg76
(lp3976
g69
(g70
g71
NtRp3977
(dp3978
g74
(dp3979
g82
I5
ssg83
g3973
sg76
(lp3980
S''
asbasbasbag69
(g85
g71
NtRp3981
(dp3982
g74
(dp3983
sg83
g3650
sg76
(lp3984
g69
(g90
g71
NtRp3985
(dp3986
g74
(dp3987
g94
g95
ssg83
g3981
sg76
(lp3988
S'generic_patterns'
p3989
asbag69
(g90
g71
NtRp3990
(dp3991
g74
(dp3992
g101
g102
ssg83
g3981
sg76
(lp3993
S':'
asbag69
(g90
g71
NtRp3994
(dp3995
g74
(dp3996
sg83
g3981
sg76
(lp3997
g69
(g70
g71
NtRp3998
(dp3999
g74
(dp4000
g82
I5
ssg83
g3994
sg76
(lp4001
g69
(g78
g71
NtRp4002
(dp4003
g74
(dp4004
g82
I4
ssg83
Nsg76
(lp4005
g69
(g85
g71
NtRp4006
(dp4007
g74
(dp4008
sg83
g4002
sg76
(lp4009
g69
(g90
g71
NtRp4010
(dp4011
g74
(dp4012
sg83
g4006
sg76
(lp4013
g69
(g70
g71
NtRp4014
(dp4015
g74
(dp4016
g82
I4
ssg83
g4010
sg76
(lp4017
S'*'
asbasbasbasbasbasbasbag69
(g85
g71
NtRp4018
(dp4019
g74
(dp4020
sg83
g3650
sg76
(lp4021
g69
(g90
g71
NtRp4022
(dp4023
g74
(dp4024
g94
g95
ssg83
g4018
sg76
(lp4025
S'headers'
p4026
asbag69
(g90
g71
NtRp4027
(dp4028
g74
(dp4029
g101
g102
ssg83
g4018
sg76
(lp4030
S':'
asbag69
(g90
g71
NtRp4031
(dp4032
g74
(dp4033
sg83
g4018
sg76
(lp4034
g69
(g70
g71
NtRp4035
(dp4036
g74
(dp4037
g82
I5
ssg83
g4031
sg76
(lp4038
g69
(g78
g71
NtRp4039
(dp4040
g74
(dp4041
g82
I4
ssg83
Nsg76
(lp4042
g69
(g85
g71
NtRp4043
(dp4044
g74
(dp4045
sg83
g4039
sg76
(lp4046
g69
(g90
g71
NtRp4047
(dp4048
g74
(dp4049
g94
g95
ssg83
g4043
sg76
(lp4050
S'Cache-Control'
p4051
asbag69
(g90
g71
NtRp4052
(dp4053
g74
(dp4054
g101
g102
ssg83
g4043
sg76
(lp4055
S':'
asbag69
(g90
g71
NtRp4056
(dp4057
g74
(dp4058
sg83
g4043
sg76
(lp4059
g69
(g70
g71
NtRp4060
(dp4061
g74
(dp4062
g82
I4
ssg83
g4056
sg76
(lp4063
S'no-store, no-cache, must-revalidate, post-check=0, pre-check=0'
p4064
asbasbasbag69
(g85
g71
NtRp4065
(dp4066
g74
(dp4067
sg83
g4039
sg76
(lp4068
g69
(g90
g71
NtRp4069
(dp4070
g74
(dp4071
g94
g95
ssg83
g4065
sg76
(lp4072
S'Content-Type'
p4073
asbag69
(g90
g71
NtRp4074
(dp4075
g74
(dp4076
g101
g102
ssg83
g4065
sg76
(lp4077
S':'
asbag69
(g90
g71
NtRp4078
(dp4079
g74
(dp4080
sg83
g4065
sg76
(lp4081
g69
(g70
g71
NtRp4082
(dp4083
g74
(dp4084
g82
I4
ssg83
g4078
sg76
(lp4085
S'text/html; charset=utf-8'
p4086
asbasbasbag69
(g85
g71
NtRp4087
(dp4088
g74
(dp4089
sg83
g4039
sg76
(lp4090
g69
(g90
g71
NtRp4091
(dp4092
g74
(dp4093
g94
g95
ssg83
g4087
sg76
(lp4094
S'Expires'
p4095
asbag69
(g90
g71
NtRp4096
(dp4097
g74
(dp4098
g101
g102
ssg83
g4087
sg76
(lp4099
S':'
asbag69
(g90
g71
NtRp4100
(dp4101
g74
(dp4102
sg83
g4087
sg76
(lp4103
g69
(g70
g71
NtRp4104
(dp4105
g74
(dp4106
g82
I4
ssg83
g4100
sg76
(lp4107
S'Sun, 03 Jun 2012 22:49:26 GMT'
p4108
asbasbasbag69
(g85
g71
NtRp4109
(dp4110
g74
(dp4111
sg83
g4039
sg76
(lp4112
g69
(g90
g71
NtRp4113
(dp4114
g74
(dp4115
g94
g95
ssg83
g4109
sg76
(lp4116
S'Pragma'
p4117
asbag69
(g90
g71
NtRp4118
(dp4119
g74
(dp4120
g101
g102
ssg83
g4109
sg76
(lp4121
S':'
asbag69
(g90
g71
NtRp4122
(dp4123
g74
(dp4124
sg83
g4109
sg76
(lp4125
g69
(g70
g71
NtRp4126
(dp4127
g74
(dp4128
g82
I4
ssg83
g4122
sg76
(lp4129
S'no-cache'
p4130
asbasbasbag69
(g85
g71
NtRp4131
(dp4132
g74
(dp4133
sg83
g4039
sg76
(lp4134
g69
(g90
g71
NtRp4135
(dp4136
g74
(dp4137
g94
g95
ssg83
g4131
sg76
(lp4138
S'X-Powered-By'
p4139
asbag69
(g90
g71
NtRp4140
(dp4141
g74
(dp4142
g101
g102
ssg83
g4131
sg76
(lp4143
S':'
asbag69
(g90
g71
NtRp4144
(dp4145
g74
(dp4146
sg83
g4131
sg76
(lp4147
g69
(g70
g71
NtRp4148
(dp4149
g74
(dp4150
g82
I4
ssg83
g4144
sg76
(lp4151
S'web2py'
p4152
asbasbasbasbasbasbasbag69
(g85
g71
NtRp4153
(dp4154
g74
(dp4155
sg83
g3650
sg76
(lp4156
g69
(g90
g71
NtRp4157
(dp4158
g74
(dp4159
g94
g95
ssg83
g4153
sg76
(lp4160
S'menu'
p4161
asbag69
(g90
g71
NtRp4162
(dp4163
g74
(dp4164
g101
g102
ssg83
g4153
sg76
(lp4165
S':'
asbag69
(g90
g71
NtRp4166
(dp4167
g74
(dp4168
sg83
g4153
sg76
(lp4169
g69
(g70
g71
NtRp4170
(dp4171
g74
(dp4172
g82
I5
ssg83
g4166
sg76
(lp4173
g69
(g78
g71
NtRp4174
(dp4175
g74
(dp4176
g82
I4
ssg83
Nsg76
(lp4177
g69
(g85
g71
NtRp4178
(dp4179
g74
(dp4180
sg83
g4174
sg76
(lp4181
g69
(g90
g71
NtRp4182
(dp4183
g74
(dp4184
sg83
g4178
sg76
(lp4185
g69
(g70
g71
NtRp4186
(dp4187
g74
(dp4188
g82
I4
ssg83
g4182
sg76
(lp4189
g69
(g78
g71
NtRp4190
(dp4191
g74
(dp4192
g82
I3
ssg83
Nsg76
(lp4193
g69
(g85
g71
NtRp4194
(dp4195
g74
(dp4196
sg83
g4190
sg76
(lp4197
g69
(g90
g71
NtRp4198
(dp4199
g74
(dp4200
sg83
g4194
sg76
(lp4201
g69
(g70
g71
NtRp4202
(dp4203
g74
(dp4204
g82
I3
ssg83
g4198
sg76
(lp4205
cgluon.languages
lazyT_unpickle
p4206
(S't\x04\x00\x00\x00Home'
tRp4207
asbasbasbag69
(g85
g71
NtRp4208
(dp4209
g74
(dp4210
sg83
g4190
sg76
(lp4211
g69
(g90
g71
NtRp4212
(dp4213
g74
(dp4214
sg83
g4208
sg76
(lp4215
g69
(g70
g71
NtRp4216
(dp4217
g74
(dp4218
g82
I3
ssg83
g4212
sg76
(lp4219
g112
asbasbasbag69
(g85
g71
NtRp4220
(dp4221
g74
(dp4222
sg83
g4190
sg76
(lp4223
g69
(g90
g71
NtRp4224
(dp4225
g74
(dp4226
sg83
g4220
sg76
(lp4227
g69
(g70
g71
NtRp4228
(dp4229
g74
(dp4230
g82
I3
ssg83
g4224
sg76
(lp4231
S'/Book_Shelf_copy/default/index'
p4232
asbasbasbag69
(g85
g71
NtRp4233
(dp4234
g74
(dp4235
sg83
g4190
sg76
(lp4236
g69
(g90
g71
NtRp4237
(dp4238
g74
(dp4239
sg83
g4233
sg76
(lp4240
g69
(g70
g71
NtRp4241
(dp4242
g74
(dp4243
g82
I3
ssg83
g4237
sg76
(lp4244
g69
(g78
g71
NtRp4245
(dp4246
g74
(dp4247
g82
I2
ssg83
Nsg76
(lp4248
sbasbasbasbasbasbasbasbag69
(g85
g71
NtRp4249
(dp4250
g74
(dp4251
sg83
g4174
sg76
(lp4252
g69
(g90
g71
NtRp4253
(dp4254
g74
(dp4255
sg83
g4249
sg76
(lp4256
g69
(g70
g71
NtRp4257
(dp4258
g74
(dp4259
g82
I4
ssg83
g4253
sg76
(lp4260
g69
(g78
g71
NtRp4261
(dp4262
g74
(dp4263
g82
I3
ssg83
Nsg76
(lp4264
g69
(g85
g71
NtRp4265
(dp4266
g74
(dp4267
sg83
g4261
sg76
(lp4268
g69
(g90
g71
NtRp4269
(dp4270
g74
(dp4271
sg83
g4265
sg76
(lp4272
g69
(g70
g71
NtRp4273
(dp4274
g74
(dp4275
g82
I3
ssg83
g4269
sg76
(lp4276
g4206
(S's\x0c\x00\x00\x00User Profile'
tRp4277
asbasbasbag69
(g85
g71
NtRp4278
(dp4279
g74
(dp4280
sg83
g4261
sg76
(lp4281
g69
(g90
g71
NtRp4282
(dp4283
g74
(dp4284
sg83
g4278
sg76
(lp4285
g69
(g70
g71
NtRp4286
(dp4287
g74
(dp4288
g82
I3
ssg83
g4282
sg76
(lp4289
g112
asbasbasbag69
(g85
g71
NtRp4290
(dp4291
g74
(dp4292
sg83
g4261
sg76
(lp4293
g69
(g90
g71
NtRp4294
(dp4295
g74
(dp4296
sg83
g4290
sg76
(lp4297
g69
(g70
g71
NtRp4298
(dp4299
g74
(dp4300
g82
I3
ssg83
g4294
sg76
(lp4301
S'None'
p4302
asbasbasbag69
(g85
g71
NtRp4303
(dp4304
g74
(dp4305
sg83
g4261
sg76
(lp4306
g69
(g90
g71
NtRp4307
(dp4308
g74
(dp4309
sg83
g4303
sg76
(lp4310
g69
(g70
g71
NtRp4311
(dp4312
g74
(dp4313
g82
I3
ssg83
g4307
sg76
(lp4314
g69
(g78
g71
NtRp4315
(dp4316
g74
(dp4317
g82
I2
ssg83
Nsg76
(lp4318
g69
(g85
g71
NtRp4319
(dp4320
g74
(dp4321
sg83
g4315
sg76
(lp4322
g69
(g90
g71
NtRp4323
(dp4324
g74
(dp4325
sg83
g4319
sg76
(lp4326
g69
(g70
g71
NtRp4327
(dp4328
g74
(dp4329
g82
I2
ssg83
g4323
sg76
(lp4330
g69
(g78
g71
NtRp4331
(dp4332
g74
(dp4333
g82
I1
ssg83
Nsg76
(lp4334
g69
(g85
g71
NtRp4335
(dp4336
g74
(dp4337
sg83
g4331
sg76
(lp4338
g69
(g90
g71
NtRp4339
(dp4340
g74
(dp4341
sg83
g4335
sg76
(lp4342
g69
(g70
g71
NtRp4343
(dp4344
g74
(dp4345
g82
I1
ssg83
g4339
sg76
(lp4346
g4206
(S's\x0c\x00\x00\x00User Profile'
tRp4347
asbasbasbag69
(g85
g71
NtRp4348
(dp4349
g74
(dp4350
sg83
g4331
sg76
(lp4351
g69
(g90
g71
NtRp4352
(dp4353
g74
(dp4354
sg83
g4348
sg76
(lp4355
g69
(g70
g71
NtRp4356
(dp4357
g74
(dp4358
g82
I1
ssg83
g4352
sg76
(lp4359
I00
asbasbasbag69
(g85
g71
NtRp4360
(dp4361
g74
(dp4362
sg83
g4331
sg76
(lp4363
g69
(g90
g71
NtRp4364
(dp4365
g74
(dp4366
sg83
g4360
sg76
(lp4367
g69
(g70
g71
NtRp4368
(dp4369
g74
(dp4370
g82
I1
ssg83
g4364
sg76
(lp4371
S'/Book_Shelf_copy/default/user_profile'
p4372
asbasbasbasbasbasbasbag69
(g85
g71
NtRp4373
(dp4374
g74
(dp4375
sg83
g4315
sg76
(lp4376
g69
(g90
g71
NtRp4377
(dp4378
g74
(dp4379
sg83
g4373
sg76
(lp4380
g69
(g70
g71
NtRp4381
(dp4382
g74
(dp4383
g82
I2
ssg83
g4377
sg76
(lp4384
g69
(g78
g71
NtRp4385
(dp4386
g74
(dp4387
g82
I1
ssg83
Nsg76
(lp4388
g69
(g85
g71
NtRp4389
(dp4390
g74
(dp4391
sg83
g4385
sg76
(lp4392
g69
(g90
g71
NtRp4393
(dp4394
g74
(dp4395
sg83
g4389
sg76
(lp4396
g69
(g70
g71
NtRp4397
(dp4398
g74
(dp4399
g82
I1
ssg83
g4393
sg76
(lp4400
g4206
(S's\x13\x00\x00\x00Create User Profile'
tRp4401
asbasbasbag69
(g85
g71
NtRp4402
(dp4403
g74
(dp4404
sg83
g4385
sg76
(lp4405
g69
(g90
g71
NtRp4406
(dp4407
g74
(dp4408
sg83
g4402
sg76
(lp4409
g69
(g70
g71
NtRp4410
(dp4411
g74
(dp4412
g82
I1
ssg83
g4406
sg76
(lp4413
I00
asbasbasbag69
(g85
g71
NtRp4414
(dp4415
g74
(dp4416
sg83
g4385
sg76
(lp4417
g69
(g90
g71
NtRp4418
(dp4419
g74
(dp4420
sg83
g4414
sg76
(lp4421
g69
(g70
g71
NtRp4422
(dp4423
g74
(dp4424
g82
I1
ssg83
g4418
sg76
(lp4425
S'/Book_Shelf_copy/default/create_user_profile'
p4426
asbasbasbasbasbasbasbag69
(g85
g71
NtRp4427
(dp4428
g74
(dp4429
sg83
g4315
sg76
(lp4430
g69
(g90
g71
NtRp4431
(dp4432
g74
(dp4433
sg83
g4427
sg76
(lp4434
g69
(g70
g71
NtRp4435
(dp4436
g74
(dp4437
g82
I2
ssg83
g4431
sg76
(lp4438
g69
(g78
g71
NtRp4439
(dp4440
g74
(dp4441
g82
I1
ssg83
Nsg76
(lp4442
g69
(g85
g71
NtRp4443
(dp4444
g74
(dp4445
sg83
g4439
sg76
(lp4446
g69
(g90
g71
NtRp4447
(dp4448
g74
(dp4449
sg83
g4443
sg76
(lp4450
g69
(g70
g71
NtRp4451
(dp4452
g74
(dp4453
g82
I1
ssg83
g4447
sg76
(lp4454
g4206
(S's\x13\x00\x00\x00Update User Profile'
tRp4455
asbasbasbag69
(g85
g71
NtRp4456
(dp4457
g74
(dp4458
sg83
g4439
sg76
(lp4459
g69
(g90
g71
NtRp4460
(dp4461
g74
(dp4462
sg83
g4456
sg76
(lp4463
g69
(g70
g71
NtRp4464
(dp4465
g74
(dp4466
g82
I1
ssg83
g4460
sg76
(lp4467
I00
asbasbasbag69
(g85
g71
NtRp4468
(dp4469
g74
(dp4470
sg83
g4439
sg76
(lp4471
g69
(g90
g71
NtRp4472
(dp4473
g74
(dp4474
sg83
g4468
sg76
(lp4475
g69
(g70
g71
NtRp4476
(dp4477
g74
(dp4478
g82
I1
ssg83
g4472
sg76
(lp4479
S'/Book_Shelf_copy/default/update_user_profile'
p4480
asbasbasbasbasbasbasbasbasbasbasbasbasbasbasbag69
(g85
g71
NtRp4481
(dp4482
g74
(dp4483
sg83
g4174
sg76
(lp4484
g69
(g90
g71
NtRp4485
(dp4486
g74
(dp4487
sg83
g4481
sg76
(lp4488
g69
(g70
g71
NtRp4489
(dp4490
g74
(dp4491
g82
I4
ssg83
g4485
sg76
(lp4492
g69
(g78
g71
NtRp4493
(dp4494
g74
(dp4495
g82
I3
ssg83
Nsg76
(lp4496
g69
(g85
g71
NtRp4497
(dp4498
g74
(dp4499
sg83
g4493
sg76
(lp4500
g69
(g90
g71
NtRp4501
(dp4502
g74
(dp4503
sg83
g4497
sg76
(lp4504
g69
(g70
g71
NtRp4505
(dp4506
g74
(dp4507
g82
I3
ssg83
g4501
sg76
(lp4508
g4206
(S't\x04\x00\x00\x00Book'
tRp4509
asbasbasbag69
(g85
g71
NtRp4510
(dp4511
g74
(dp4512
sg83
g4493
sg76
(lp4513
g69
(g90
g71
NtRp4514
(dp4515
g74
(dp4516
sg83
g4510
sg76
(lp4517
g69
(g70
g71
NtRp4518
(dp4519
g74
(dp4520
g82
I3
ssg83
g4514
sg76
(lp4521
g112
asbasbasbag69
(g85
g71
NtRp4522
(dp4523
g74
(dp4524
sg83
g4493
sg76
(lp4525
g69
(g90
g71
NtRp4526
(dp4527
g74
(dp4528
sg83
g4522
sg76
(lp4529
g69
(g70
g71
NtRp4530
(dp4531
g74
(dp4532
g82
I3
ssg83
g4526
sg76
(lp4533
S'None'
p4534
asbasbasbag69
(g85
g71
NtRp4535
(dp4536
g74
(dp4537
sg83
g4493
sg76
(lp4538
g69
(g90
g71
NtRp4539
(dp4540
g74
(dp4541
sg83
g4535
sg76
(lp4542
g69
(g70
g71
NtRp4543
(dp4544
g74
(dp4545
g82
I3
ssg83
g4539
sg76
(lp4546
g69
(g78
g71
NtRp4547
(dp4548
g74
(dp4549
g82
I2
ssg83
Nsg76
(lp4550
g69
(g85
g71
NtRp4551
(dp4552
g74
(dp4553
sg83
g4547
sg76
(lp4554
g69
(g90
g71
NtRp4555
(dp4556
g74
(dp4557
sg83
g4551
sg76
(lp4558
g69
(g70
g71
NtRp4559
(dp4560
g74
(dp4561
g82
I2
ssg83
g4555
sg76
(lp4562
g69
(g78
g71
NtRp4563
(dp4564
g74
(dp4565
g82
I1
ssg83
Nsg76
(lp4566
g69
(g85
g71
NtRp4567
(dp4568
g74
(dp4569
sg83
g4563
sg76
(lp4570
g69
(g90
g71
NtRp4571
(dp4572
g74
(dp4573
sg83
g4567
sg76
(lp4574
g69
(g70
g71
NtRp4575
(dp4576
g74
(dp4577
g82
I1
ssg83
g4571
sg76
(lp4578
g4206
(S's\x0c\x00\x00\x00Book Profile'
tRp4579
asbasbasbag69
(g85
g71
NtRp4580
(dp4581
g74
(dp4582
sg83
g4563
sg76
(lp4583
g69
(g90
g71
NtRp4584
(dp4585
g74
(dp4586
sg83
g4580
sg76
(lp4587
g69
(g70
g71
NtRp4588
(dp4589
g74
(dp4590
g82
I1
ssg83
g4584
sg76
(lp4591
I00
asbasbasbag69
(g85
g71
NtRp4592
(dp4593
g74
(dp4594
sg83
g4563
sg76
(lp4595
g69
(g90
g71
NtRp4596
(dp4597
g74
(dp4598
sg83
g4592
sg76
(lp4599
g69
(g70
g71
NtRp4600
(dp4601
g74
(dp4602
g82
I1
ssg83
g4596
sg76
(lp4603
S'/Book_Shelf_copy/default/book_profile'
p4604
asbasbasbasbasbasbasbag69
(g85
g71
NtRp4605
(dp4606
g74
(dp4607
sg83
g4547
sg76
(lp4608
g69
(g90
g71
NtRp4609
(dp4610
g74
(dp4611
sg83
g4605
sg76
(lp4612
g69
(g70
g71
NtRp4613
(dp4614
g74
(dp4615
g82
I2
ssg83
g4609
sg76
(lp4616
g69
(g78
g71
NtRp4617
(dp4618
g74
(dp4619
g82
I1
ssg83
Nsg76
(lp4620
g69
(g85
g71
NtRp4621
(dp4622
g74
(dp4623
sg83
g4617
sg76
(lp4624
g69
(g90
g71
NtRp4625
(dp4626
g74
(dp4627
sg83
g4621
sg76
(lp4628
g69
(g70
g71
NtRp4629
(dp4630
g74
(dp4631
g82
I1
ssg83
g4625
sg76
(lp4632
g4206
(S's\x13\x00\x00\x00Create Book Profile'
tRp4633
asbasbasbag69
(g85
g71
NtRp4634
(dp4635
g74
(dp4636
sg83
g4617
sg76
(lp4637
g69
(g90
g71
NtRp4638
(dp4639
g74
(dp4640
sg83
g4634
sg76
(lp4641
g69
(g70
g71
NtRp4642
(dp4643
g74
(dp4644
g82
I1
ssg83
g4638
sg76
(lp4645
I00
asbasbasbag69
(g85
g71
NtRp4646
(dp4647
g74
(dp4648
sg83
g4617
sg76
(lp4649
g69
(g90
g71
NtRp4650
(dp4651
g74
(dp4652
sg83
g4646
sg76
(lp4653
g69
(g70
g71
NtRp4654
(dp4655
g74
(dp4656
g82
I1
ssg83
g4650
sg76
(lp4657
S'/Book_Shelf_copy/default/create_book_profile'
p4658
asbasbasbasbasbasbasbag69
(g85
g71
NtRp4659
(dp4660
g74
(dp4661
sg83
g4547
sg76
(lp4662
g69
(g90
g71
NtRp4663
(dp4664
g74
(dp4665
sg83
g4659
sg76
(lp4666
g69
(g70
g71
NtRp4667
(dp4668
g74
(dp4669
g82
I2
ssg83
g4663
sg76
(lp4670
g69
(g78
g71
NtRp4671
(dp4672
g74
(dp4673
g82
I1
ssg83
Nsg76
(lp4674
g69
(g85
g71
NtRp4675
(dp4676
g74
(dp4677
sg83
g4671
sg76
(lp4678
g69
(g90
g71
NtRp4679
(dp4680
g74
(dp4681
sg83
g4675
sg76
(lp4682
g69
(g70
g71
NtRp4683
(dp4684
g74
(dp4685
g82
I1
ssg83
g4679
sg76
(lp4686
g4206
(S's\x13\x00\x00\x00Update Book Profile'
tRp4687
asbasbasbag69
(g85
g71
NtRp4688
(dp4689
g74
(dp4690
sg83
g4671
sg76
(lp4691
g69
(g90
g71
NtRp4692
(dp4693
g74
(dp4694
sg83
g4688
sg76
(lp4695
g69
(g70
g71
NtRp4696
(dp4697
g74
(dp4698
g82
I1
ssg83
g4692
sg76
(lp4699
I00
asbasbasbag69
(g85
g71
NtRp4700
(dp4701
g74
(dp4702
sg83
g4671
sg76
(lp4703
g69
(g90
g71
NtRp4704
(dp4705
g74
(dp4706
sg83
g4700
sg76
(lp4707
g69
(g70
g71
NtRp4708
(dp4709
g74
(dp4710
g82
I1
ssg83
g4704
sg76
(lp4711
S'/Book_Shelf_copy/default/update_book_profile'
p4712
asbasbasbasbasbasbasbasbasbasbasbasbasbasbasbag69
(g85
g71
NtRp4713
(dp4714
g74
(dp4715
sg83
g4174
sg76
(lp4716
g69
(g90
g71
NtRp4717
(dp4718
g74
(dp4719
sg83
g4713
sg76
(lp4720
g69
(g70
g71
NtRp4721
(dp4722
g74
(dp4723
g82
I4
ssg83
g4717
sg76
(lp4724
g69
(g78
g71
NtRp4725
(dp4726
g74
(dp4727
g82
I3
ssg83
Nsg76
(lp4728
g69
(g85
g71
NtRp4729
(dp4730
g74
(dp4731
sg83
g4725
sg76
(lp4732
g69
(g90
g71
NtRp4733
(dp4734
g74
(dp4735
sg83
g4729
sg76
(lp4736
g69
(g70
g71
NtRp4737
(dp4738
g74
(dp4739
g82
I3
ssg83
g4733
sg76
(lp4740
g4206
(S's\n\x00\x00\x00Book Shelf'
tRp4741
asbasbasbag69
(g85
g71
NtRp4742
(dp4743
g74
(dp4744
sg83
g4725
sg76
(lp4745
g69
(g90
g71
NtRp4746
(dp4747
g74
(dp4748
sg83
g4742
sg76
(lp4749
g69
(g70
g71
NtRp4750
(dp4751
g74
(dp4752
g82
I3
ssg83
g4746
sg76
(lp4753
g112
asbasbasbag69
(g85
g71
NtRp4754
(dp4755
g74
(dp4756
sg83
g4725
sg76
(lp4757
g69
(g90
g71
NtRp4758
(dp4759
g74
(dp4760
sg83
g4754
sg76
(lp4761
g69
(g70
g71
NtRp4762
(dp4763
g74
(dp4764
g82
I3
ssg83
g4758
sg76
(lp4765
S'None'
p4766
asbasbasbag69
(g85
g71
NtRp4767
(dp4768
g74
(dp4769
sg83
g4725
sg76
(lp4770
g69
(g90
g71
NtRp4771
(dp4772
g74
(dp4773
sg83
g4767
sg76
(lp4774
g69
(g70
g71
NtRp4775
(dp4776
g74
(dp4777
g82
I3
ssg83
g4771
sg76
(lp4778
g69
(g78
g71
NtRp4779
(dp4780
g74
(dp4781
g82
I2
ssg83
Nsg76
(lp4782
g69
(g85
g71
NtRp4783
(dp4784
g74
(dp4785
sg83
g4779
sg76
(lp4786
g69
(g90
g71
NtRp4787
(dp4788
g74
(dp4789
sg83
g4783
sg76
(lp4790
g69
(g70
g71
NtRp4791
(dp4792
g74
(dp4793
g82
I2
ssg83
g4787
sg76
(lp4794
g69
(g78
g71
NtRp4795
(dp4796
g74
(dp4797
g82
I1
ssg83
Nsg76
(lp4798
g69
(g85
g71
NtRp4799
(dp4800
g74
(dp4801
sg83
g4795
sg76
(lp4802
g69
(g90
g71
NtRp4803
(dp4804
g74
(dp4805
sg83
g4799
sg76
(lp4806
g69
(g70
g71
NtRp4807
(dp4808
g74
(dp4809
g82
I1
ssg83
g4803
sg76
(lp4810
g4206
(S's\n\x00\x00\x00Book Shelf'
tRp4811
asbasbasbag69
(g85
g71
NtRp4812
(dp4813
g74
(dp4814
sg83
g4795
sg76
(lp4815
g69
(g90
g71
NtRp4816
(dp4817
g74
(dp4818
sg83
g4812
sg76
(lp4819
g69
(g70
g71
NtRp4820
(dp4821
g74
(dp4822
g82
I1
ssg83
g4816
sg76
(lp4823
I00
asbasbasbag69
(g85
g71
NtRp4824
(dp4825
g74
(dp4826
sg83
g4795
sg76
(lp4827
g69
(g90
g71
NtRp4828
(dp4829
g74
(dp4830
sg83
g4824
sg76
(lp4831
g69
(g70
g71
NtRp4832
(dp4833
g74
(dp4834
g82
I1
ssg83
g4828
sg76
(lp4835
S'/Book_Shelf_copy/default/book_shelf'
p4836
asbasbasbasbasbasbasbag69
(g85
g71
NtRp4837
(dp4838
g74
(dp4839
sg83
g4779
sg76
(lp4840
g69
(g90
g71
NtRp4841
(dp4842
g74
(dp4843
sg83
g4837
sg76
(lp4844
g69
(g70
g71
NtRp4845
(dp4846
g74
(dp4847
g82
I2
ssg83
g4841
sg76
(lp4848
g69
(g78
g71
NtRp4849
(dp4850
g74
(dp4851
g82
I1
ssg83
Nsg76
(lp4852
g69
(g85
g71
NtRp4853
(dp4854
g74
(dp4855
sg83
g4849
sg76
(lp4856
g69
(g90
g71
NtRp4857
(dp4858
g74
(dp4859
sg83
g4853
sg76
(lp4860
g69
(g70
g71
NtRp4861
(dp4862
g74
(dp4863
g82
I1
ssg83
g4857
sg76
(lp4864
g4206
(S's\x11\x00\x00\x00Create Book Shelf'
tRp4865
asbasbasbag69
(g85
g71
NtRp4866
(dp4867
g74
(dp4868
sg83
g4849
sg76
(lp4869
g69
(g90
g71
NtRp4870
(dp4871
g74
(dp4872
sg83
g4866
sg76
(lp4873
g69
(g70
g71
NtRp4874
(dp4875
g74
(dp4876
g82
I1
ssg83
g4870
sg76
(lp4877
I00
asbasbasbag69
(g85
g71
NtRp4878
(dp4879
g74
(dp4880
sg83
g4849
sg76
(lp4881
g69
(g90
g71
NtRp4882
(dp4883
g74
(dp4884
sg83
g4878
sg76
(lp4885
g69
(g70
g71
NtRp4886
(dp4887
g74
(dp4888
g82
I1
ssg83
g4882
sg76
(lp4889
S'/Book_Shelf_copy/default/create_book_shelf'
p4890
asbasbasbasbasbasbasbag69
(g85
g71
NtRp4891
(dp4892
g74
(dp4893
sg83
g4779
sg76
(lp4894
g69
(g90
g71
NtRp4895
(dp4896
g74
(dp4897
sg83
g4891
sg76
(lp4898
g69
(g70
g71
NtRp4899
(dp4900
g74
(dp4901
g82
I2
ssg83
g4895
sg76
(lp4902
g69
(g78
g71
NtRp4903
(dp4904
g74
(dp4905
g82
I1
ssg83
Nsg76
(lp4906
g69
(g85
g71
NtRp4907
(dp4908
g74
(dp4909
sg83
g4903
sg76
(lp4910
g69
(g90
g71
NtRp4911
(dp4912
g74
(dp4913
sg83
g4907
sg76
(lp4914
g69
(g70
g71
NtRp4915
(dp4916
g74
(dp4917
g82
I1
ssg83
g4911
sg76
(lp4918
g4206
(S's\x11\x00\x00\x00Update Book Shelf'
tRp4919
asbasbasbag69
(g85
g71
NtRp4920
(dp4921
g74
(dp4922
sg83
g4903
sg76
(lp4923
g69
(g90
g71
NtRp4924
(dp4925
g74
(dp4926
sg83
g4920
sg76
(lp4927
g69
(g70
g71
NtRp4928
(dp4929
g74
(dp4930
g82
I1
ssg83
g4924
sg76
(lp4931
I00
asbasbasbag69
(g85
g71
NtRp4932
(dp4933
g74
(dp4934
sg83
g4903
sg76
(lp4935
g69
(g90
g71
NtRp4936
(dp4937
g74
(dp4938
sg83
g4932
sg76
(lp4939
g69
(g70
g71
NtRp4940
(dp4941
g74
(dp4942
g82
I1
ssg83
g4936
sg76
(lp4943
S'/Book_Shelf_copy/default/update_book_shelf'
p4944
asbasbasbasbasbasbasbasbasbasbasbasbasbasbasbag69
(g85
g71
NtRp4945
(dp4946
g74
(dp4947
sg83
g4174
sg76
(lp4948
g69
(g90
g71
NtRp4949
(dp4950
g74
(dp4951
sg83
g4945
sg76
(lp4952
g69
(g70
g71
NtRp4953
(dp4954
g74
(dp4955
g82
I4
ssg83
g4949
sg76
(lp4956
g69
(g78
g71
NtRp4957
(dp4958
g74
(dp4959
g82
I3
ssg83
Nsg76
(lp4960
g69
(g85
g71
NtRp4961
(dp4962
g74
(dp4963
sg83
g4957
sg76
(lp4964
g69
(g90
g71
NtRp4965
(dp4966
g74
(dp4967
sg83
g4961
sg76
(lp4968
g69
(g70
g71
NtRp4969
(dp4970
g74
(dp4971
g82
I3
ssg83
g4965
sg76
(lp4972
g69
(cgluon.html
SPAN
p4973
g71
NtRp4974
(dp4975
g74
(dp4976
g94
S'color:yellow'
p4977
ssg83
Nsg76
(lp4978
g4152
asbasbasbasbag69
(g85
g71
NtRp4979
(dp4980
g74
(dp4981
sg83
g4957
sg76
(lp4982
g69
(g90
g71
NtRp4983
(dp4984
g74
(dp4985
sg83
g4979
sg76
(lp4986
g69
(g70
g71
NtRp4987
(dp4988
g74
(dp4989
g82
I3
ssg83
g4983
sg76
(lp4990
g112
asbasbasbag69
(g85
g71
NtRp4991
(dp4992
g74
(dp4993
sg83
g4957
sg76
(lp4994
g69
(g90
g71
NtRp4995
(dp4996
g74
(dp4997
sg83
g4991
sg76
(lp4998
g69
(g70
g71
NtRp4999
(dp5000
g74
(dp5001
g82
I3
ssg83
g4995
sg76
(lp5002
S'None'
p5003
asbasbasbag69
(g85
g71
NtRp5004
(dp5005
g74
(dp5006
sg83
g4957
sg76
(lp5007
g69
(g90
g71
NtRp5008
(dp5009
g74
(dp5010
sg83
g5004
sg76
(lp5011
g69
(g70
g71
NtRp5012
(dp5013
g74
(dp5014
g82
I3
ssg83
g5008
sg76
(lp5015
g69
(g78
g71
NtRp5016
(dp5017
g74
(dp5018
g82
I2
ssg83
Nsg76
(lp5019
g69
(g85
g71
NtRp5020
(dp5021
g74
(dp5022
sg83
g5016
sg76
(lp5023
g69
(g90
g71
NtRp5024
(dp5025
g74
(dp5026
sg83
g5020
sg76
(lp5027
g69
(g70
g71
NtRp5028
(dp5029
g74
(dp5030
g82
I2
ssg83
g5024
sg76
(lp5031
g69
(g78
g71
NtRp5032
(dp5033
g74
(dp5034
g82
I1
ssg83
Nsg76
(lp5035
g69
(g85
g71
NtRp5036
(dp5037
g74
(dp5038
sg83
g5032
sg76
(lp5039
g69
(g90
g71
NtRp5040
(dp5041
g74
(dp5042
sg83
g5036
sg76
(lp5043
g69
(g70
g71
NtRp5044
(dp5045
g74
(dp5046
g82
I1
ssg83
g5040
sg76
(lp5047
g4206
(S's\x08\x00\x00\x00My Sites'
tRp5048
asbasbasbag69
(g85
g71
NtRp5049
(dp5050
g74
(dp5051
sg83
g5032
sg76
(lp5052
g69
(g90
g71
NtRp5053
(dp5054
g74
(dp5055
sg83
g5049
sg76
(lp5056
g69
(g70
g71
NtRp5057
(dp5058
g74
(dp5059
g82
I1
ssg83
g5053
sg76
(lp5060
I00
asbasbasbag69
(g85
g71
NtRp5061
(dp5062
g74
(dp5063
sg83
g5032
sg76
(lp5064
g69
(g90
g71
NtRp5065
(dp5066
g74
(dp5067
sg83
g5061
sg76
(lp5068
g69
(g70
g71
NtRp5069
(dp5070
g74
(dp5071
g82
I1
ssg83
g5065
sg76
(lp5072
S'/admin/default/site'
p5073
asbasbasbasbasbasbasbag69
(g85
g71
NtRp5074
(dp5075
g74
(dp5076
sg83
g5016
sg76
(lp5077
g69
(g90
g71
NtRp5078
(dp5079
g74
(dp5080
sg83
g5074
sg76
(lp5081
g69
(g70
g71
NtRp5082
(dp5083
g74
(dp5084
g82
I2
ssg83
g5078
sg76
(lp5085
g69
(g78
g71
NtRp5086
(dp5087
g74
(dp5088
g82
I1
ssg83
Nsg76
(lp5089
g69
(g85
g71
NtRp5090
(dp5091
g74
(dp5092
sg83
g5086
sg76
(lp5093
g69
(g90
g71
NtRp5094
(dp5095
g74
(dp5096
sg83
g5090
sg76
(lp5097
g69
(g70
g71
NtRp5098
(dp5099
g74
(dp5100
g82
I1
ssg83
g5094
sg76
(lp5101
g4206
(S's\x08\x00\x00\x00This App'
tRp5102
asbasbasbag69
(g85
g71
NtRp5103
(dp5104
g74
(dp5105
sg83
g5086
sg76
(lp5106
g69
(g90
g71
NtRp5107
(dp5108
g74
(dp5109
sg83
g5103
sg76
(lp5110
g69
(g70
g71
NtRp5111
(dp5112
g74
(dp5113
g82
I1
ssg83
g5107
sg76
(lp5114
I00
asbasbasbag69
(g85
g71
NtRp5115
(dp5116
g74
(dp5117
sg83
g5086
sg76
(lp5118
g69
(g90
g71
NtRp5119
(dp5120
g74
(dp5121
sg83
g5115
sg76
(lp5122
g69
(g70
g71
NtRp5123
(dp5124
g74
(dp5125
g82
I1
ssg83
g5119
sg76
(lp5126
S'/admin/default/design/Book_Shelf_copy'
p5127
asbasbasbag69
(g85
g71
NtRp5128
(dp5129
g74
(dp5130
sg83
g5086
sg76
(lp5131
g69
(g90
g71
NtRp5132
(dp5133
g74
(dp5134
sg83
g5128
sg76
(lp5135
g69
(g70
g71
NtRp5136
(dp5137
g74
(dp5138
g82
I1
ssg83
g5132
sg76
(lp5139
(lp5140
(g4206
(S't\n\x00\x00\x00Controller'
tRp5141
I00
S'/admin/default/edit/Book_Shelf_copy/controllers/default.py'
tp5142
a(g4206
(S't\x04\x00\x00\x00View'
tRp5143
I00
S'/admin/default/edit/Book_Shelf_copy/views/default/index.html'
tp5144
a(g4206
(S't\x06\x00\x00\x00Layout'
tRp5145
I00
S'/admin/default/edit/Book_Shelf_copy/views/layout.html'
tp5146
a(g4206
(S't\n\x00\x00\x00Stylesheet'
tRp5147
I00
S'/admin/default/edit/Book_Shelf_copy/static/css/web2py.css'
tp5148
a(g4206
(S's\x08\x00\x00\x00DB Model'
tRp5149
I00
S'/admin/default/edit/Book_Shelf_copy/models/db.py'
tp5150
a(g4206
(S's\n\x00\x00\x00Menu Model'
tRp5151
I00
S'/admin/default/edit/Book_Shelf_copy/models/menu.py'
tp5152
a(g4206
(S't\x08\x00\x00\x00Database'
tRp5153
I00
S'/Book_Shelf_copy/appadmin/index'
tp5154
a(g4206
(S't\x06\x00\x00\x00Errors'
tRp5155
I00
S'/admin/default/errors/Book_Shelf_copy'
tp5156
a(g4206
(S't\x05\x00\x00\x00About'
tRp5157
I00
S'/admin/default/about/Book_Shelf_copy'
tp5158
aasbasbasbasbasbasbasbag69
(g85
g71
NtRp5159
(dp5160
g74
(dp5161
sg83
g5016
sg76
(lp5162
g69
(g90
g71
NtRp5163
(dp5164
g74
(dp5165
sg83
g5159
sg76
(lp5166
g69
(g70
g71
NtRp5167
(dp5168
g74
(dp5169
g82
I2
ssg83
g5163
sg76
(lp5170
g69
(g78
g71
NtRp5171
(dp5172
g74
(dp5173
g82
I1
ssg83
Nsg76
(lp5174
g69
(g85
g71
NtRp5175
(dp5176
g74
(dp5177
sg83
g5171
sg76
(lp5178
g69
(g90
g71
NtRp5179
(dp5180
g74
(dp5181
sg83
g5175
sg76
(lp5182
g69
(g70
g71
NtRp5183
(dp5184
g74
(dp5185
g82
I1
ssg83
g5179
sg76
(lp5186
S'web2py.com'
p5187
asbasbasbag69
(g85
g71
NtRp5188
(dp5189
g74
(dp5190
sg83
g5171
sg76
(lp5191
g69
(g90
g71
NtRp5192
(dp5193
g74
(dp5194
sg83
g5188
sg76
(lp5195
g69
(g70
g71
NtRp5196
(dp5197
g74
(dp5198
g82
I1
ssg83
g5192
sg76
(lp5199
I00
asbasbasbag69
(g85
g71
NtRp5200
(dp5201
g74
(dp5202
sg83
g5171
sg76
(lp5203
g69
(g90
g71
NtRp5204
(dp5205
g74
(dp5206
sg83
g5200
sg76
(lp5207
g69
(g70
g71
NtRp5208
(dp5209
g74
(dp5210
g82
I1
ssg83
g5204
sg76
(lp5211
S'http://www.web2py.com'
p5212
asbasbasbag69
(g85
g71
NtRp5213
(dp5214
g74
(dp5215
sg83
g5171
sg76
(lp5216
g69
(g90
g71
NtRp5217
(dp5218
g74
(dp5219
sg83
g5213
sg76
(lp5220
g69
(g70
g71
NtRp5221
(dp5222
g74
(dp5223
g82
I1
ssg83
g5217
sg76
(lp5224
(lp5225
(g4206
(S't\x08\x00\x00\x00Download'
tRp5226
I00
S'http://www.web2py.com/examples/default/download'
p5227
tp5228
a(g4206
(S't\x07\x00\x00\x00Support'
tRp5229
I00
S'http://www.web2py.com/examples/default/support'
p5230
tp5231
a(g4206
(S't\x04\x00\x00\x00Demo'
tRp5232
I00
S'http://web2py.com/demo_admin'
p5233
tp5234
a(g4206
(S's\x0e\x00\x00\x00Quick Examples'
tRp5235
I00
S'http://web2py.com/examples/default/examples'
p5236
tp5237
a(g4206
(S't\x03\x00\x00\x00FAQ'
tRp5238
I00
S'http://web2py.com/AlterEgo'
p5239
tp5240
a(g4206
(S't\x06\x00\x00\x00Videos'
tRp5241
I00
S'http://www.web2py.com/examples/default/videos/'
p5242
tp5243
a(g4206
(S's\x11\x00\x00\x00Free Applications'
tRp5244
I00
S'http://web2py.com/appliances'
p5245
tp5246
a(g4206
(S't\x07\x00\x00\x00Plugins'
tRp5247
I00
S'http://web2py.com/plugins'
p5248
tp5249
a(g4206
(S't\x07\x00\x00\x00Layouts'
tRp5250
I00
S'http://web2py.com/layouts'
p5251
tp5252
a(g4206
(S't\x07\x00\x00\x00Recipes'
tRp5253
I00
S'http://web2pyslices.com/'
p5254
tp5255
a(g4206
(S't\x08\x00\x00\x00Semantic'
tRp5256
I00
S'http://web2py.com/semantic'
p5257
tp5258
aasbasbasbasbasbasbasbag69
(g85
g71
NtRp5259
(dp5260
g74
(dp5261
sg83
g5016
sg76
(lp5262
g69
(g90
g71
NtRp5263
(dp5264
g74
(dp5265
sg83
g5259
sg76
(lp5266
g69
(g70
g71
NtRp5267
(dp5268
g74
(dp5269
g82
I2
ssg83
g5263
sg76
(lp5270
g69
(g78
g71
NtRp5271
(dp5272
g74
(dp5273
g82
I1
ssg83
Nsg76
(lp5274
g69
(g85
g71
NtRp5275
(dp5276
g74
(dp5277
sg83
g5271
sg76
(lp5278
g69
(g90
g71
NtRp5279
(dp5280
g74
(dp5281
sg83
g5275
sg76
(lp5282
g69
(g70
g71
NtRp5283
(dp5284
g74
(dp5285
g82
I1
ssg83
g5279
sg76
(lp5286
g4206
(S't\r\x00\x00\x00Documentation'
tRp5287
asbasbasbag69
(g85
g71
NtRp5288
(dp5289
g74
(dp5290
sg83
g5271
sg76
(lp5291
g69
(g90
g71
NtRp5292
(dp5293
g74
(dp5294
sg83
g5288
sg76
(lp5295
g69
(g70
g71
NtRp5296
(dp5297
g74
(dp5298
g82
I1
ssg83
g5292
sg76
(lp5299
I00
asbasbasbag69
(g85
g71
NtRp5300
(dp5301
g74
(dp5302
sg83
g5271
sg76
(lp5303
g69
(g90
g71
NtRp5304
(dp5305
g74
(dp5306
sg83
g5300
sg76
(lp5307
g69
(g70
g71
NtRp5308
(dp5309
g74
(dp5310
g82
I1
ssg83
g5304
sg76
(lp5311
S'http://www.web2py.com/book'
p5312
asbasbasbag69
(g85
g71
NtRp5313
(dp5314
g74
(dp5315
sg83
g5271
sg76
(lp5316
g69
(g90
g71
NtRp5317
(dp5318
g74
(dp5319
sg83
g5313
sg76
(lp5320
g69
(g70
g71
NtRp5321
(dp5322
g74
(dp5323
g82
I1
ssg83
g5317
sg76
(lp5324
(lp5325
(g4206
(S't\x07\x00\x00\x00Preface'
tRp5326
I00
S'http://www.web2py.com/book/default/chapter/00'
p5327
tp5328
a(g4206
(S't\x0c\x00\x00\x00Introduction'
tRp5329
I00
S'http://www.web2py.com/book/default/chapter/01'
p5330
tp5331
a(g4206
(S't\x06\x00\x00\x00Python'
tRp5332
I00
S'http://www.web2py.com/book/default/chapter/02'
p5333
tp5334
a(g4206
(S't\x08\x00\x00\x00Overview'
tRp5335
I00
S'http://www.web2py.com/book/default/chapter/03'
p5336
tp5337
a(g4206
(S's\x08\x00\x00\x00The Core'
tRp5338
I00
S'http://www.web2py.com/book/default/chapter/04'
p5339
tp5340
a(g4206
(S's\t\x00\x00\x00The Views'
tRp5341
I00
S'http://www.web2py.com/book/default/chapter/05'
p5342
tp5343
a(g4206
(S't\x08\x00\x00\x00Database'
tRp5344
I00
S'http://www.web2py.com/book/default/chapter/06'
p5345
tp5346
a(g4206
(S's\x14\x00\x00\x00Forms and Validators'
tRp5347
I00
S'http://www.web2py.com/book/default/chapter/07'
p5348
tp5349
a(g4206
(S's\r\x00\x00\x00Email and SMS'
tRp5350
I00
S'http://www.web2py.com/book/default/chapter/08'
p5351
tp5352
a(g4206
(S's\x0e\x00\x00\x00Access Control'
tRp5353
I00
S'http://www.web2py.com/book/default/chapter/09'
p5354
tp5355
a(g4206
(S't\x08\x00\x00\x00Services'
tRp5356
I00
S'http://www.web2py.com/book/default/chapter/10'
p5357
tp5358
a(g4206
(S's\x0c\x00\x00\x00Ajax Recipes'
tRp5359
I00
S'http://www.web2py.com/book/default/chapter/11'
p5360
tp5361
a(g4206
(S's\x16\x00\x00\x00Components and Plugins'
tRp5362
I00
S'http://www.web2py.com/book/default/chapter/12'
p5363
tp5364
a(g4206
(S's\x12\x00\x00\x00Deployment Recipes'
tRp5365
I00
S'http://www.web2py.com/book/default/chapter/13'
p5366
tp5367
a(g4206
(S's\r\x00\x00\x00Other Recipes'
tRp5368
I00
S'http://www.web2py.com/book/default/chapter/14'
p5369
tp5370
a(g4206
(S's\r\x00\x00\x00Buy this book'
tRp5371
I00
S'http://stores.lulu.com/web2py'
p5372
tp5373
aasbasbasbasbasbasbasbag69
(g85
g71
NtRp5374
(dp5375
g74
(dp5376
sg83
g5016
sg76
(lp5377
g69
(g90
g71
NtRp5378
(dp5379
g74
(dp5380
sg83
g5374
sg76
(lp5381
g69
(g70
g71
NtRp5382
(dp5383
g74
(dp5384
g82
I2
ssg83
g5378
sg76
(lp5385
g69
(g78
g71
NtRp5386
(dp5387
g74
(dp5388
g82
I1
ssg83
Nsg76
(lp5389
g69
(g85
g71
NtRp5390
(dp5391
g74
(dp5392
sg83
g5386
sg76
(lp5393
g69
(g90
g71
NtRp5394
(dp5395
g74
(dp5396
sg83
g5390
sg76
(lp5397
g69
(g70
g71
NtRp5398
(dp5399
g74
(dp5400
g82
I1
ssg83
g5394
sg76
(lp5401
g4206
(S't\t\x00\x00\x00Community'
tRp5402
asbasbasbag69
(g85
g71
NtRp5403
(dp5404
g74
(dp5405
sg83
g5386
sg76
(lp5406
g69
(g90
g71
NtRp5407
(dp5408
g74
(dp5409
sg83
g5403
sg76
(lp5410
g69
(g70
g71
NtRp5411
(dp5412
g74
(dp5413
g82
I1
ssg83
g5407
sg76
(lp5414
I00
asbasbasbag69
(g85
g71
NtRp5415
(dp5416
g74
(dp5417
sg83
g5386
sg76
(lp5418
g69
(g90
g71
NtRp5419
(dp5420
g74
(dp5421
sg83
g5415
sg76
(lp5422
g69
(g70
g71
NtRp5423
(dp5424
g74
(dp5425
g82
I1
ssg83
g5419
sg76
(lp5426
Nasbasbasbag69
(g85
g71
NtRp5427
(dp5428
g74
(dp5429
sg83
g5386
sg76
(lp5430
g69
(g90
g71
NtRp5431
(dp5432
g74
(dp5433
sg83
g5427
sg76
(lp5434
g69
(g70
g71
NtRp5435
(dp5436
g74
(dp5437
g82
I1
ssg83
g5431
sg76
(lp5438
(lp5439
(g4206
(S't\x06\x00\x00\x00Groups'
tRp5440
I00
S'http://www.web2py.com/examples/default/usergroups'
p5441
tp5442
a(g4206
(S't\x07\x00\x00\x00Twitter'
tRp5443
I00
S'http://twitter.com/web2py'
p5444
tp5445
a(g4206
(S's\t\x00\x00\x00Live Chat'
tRp5446
I00
S'http://webchat.freenode.net/?channels=web2py'
p5447
tp5448
aasbasbasbasbasbasbasbag69
(g85
g71
NtRp5449
(dp5450
g74
(dp5451
sg83
g5016
sg76
(lp5452
g69
(g90
g71
NtRp5453
(dp5454
g74
(dp5455
sg83
g5449
sg76
(lp5456
g69
(g70
g71
NtRp5457
(dp5458
g74
(dp5459
g82
I2
ssg83
g5453
sg76
(lp5460
g69
(g78
g71
NtRp5461
(dp5462
g74
(dp5463
g82
I1
ssg83
Nsg76
(lp5464
g69
(g85
g71
NtRp5465
(dp5466
g74
(dp5467
sg83
g5461
sg76
(lp5468
g69
(g90
g71
NtRp5469
(dp5470
g74
(dp5471
sg83
g5465
sg76
(lp5472
g69
(g70
g71
NtRp5473
(dp5474
g74
(dp5475
g82
I1
ssg83
g5469
sg76
(lp5476
g4206
(S't\x07\x00\x00\x00Plugins'
tRp5477
asbasbasbag69
(g85
g71
NtRp5478
(dp5479
g74
(dp5480
sg83
g5461
sg76
(lp5481
g69
(g90
g71
NtRp5482
(dp5483
g74
(dp5484
sg83
g5478
sg76
(lp5485
g69
(g70
g71
NtRp5486
(dp5487
g74
(dp5488
g82
I1
ssg83
g5482
sg76
(lp5489
I00
asbasbasbag69
(g85
g71
NtRp5490
(dp5491
g74
(dp5492
sg83
g5461
sg76
(lp5493
g69
(g90
g71
NtRp5494
(dp5495
g74
(dp5496
sg83
g5490
sg76
(lp5497
g69
(g70
g71
NtRp5498
(dp5499
g74
(dp5500
g82
I1
ssg83
g5494
sg76
(lp5501
Nasbasbasbag69
(g85
g71
NtRp5502
(dp5503
g74
(dp5504
sg83
g5461
sg76
(lp5505
g69
(g90
g71
NtRp5506
(dp5507
g74
(dp5508
sg83
g5502
sg76
(lp5509
g69
(g70
g71
NtRp5510
(dp5511
g74
(dp5512
g82
I1
ssg83
g5506
sg76
(lp5513
(lp5514
(S'plugin_wiki'
p5515
I00
S'http://web2py.com/examples/default/download'
p5516
tp5517
a(g4206
(S's\r\x00\x00\x00Other Plugins'
tRp5518
I00
g5248
tp5519
a(g4206
(S's\x0e\x00\x00\x00Layout Plugins'
tRp5520
I00
g5251
tp5521
aasbasbasbasbasbasbasbasbasbasbasbasbasbasbasbasbasbasbasbag69
(g85
g71
NtRp5522
(dp5523
g74
(dp5524
sg83
g3650
sg76
(lp5525
g69
(g90
g71
NtRp5526
(dp5527
g74
(dp5528
g94
g95
ssg83
g5522
sg76
(lp5529
S'meta'
p5530
asbag69
(g90
g71
NtRp5531
(dp5532
g74
(dp5533
g101
g102
ssg83
g5522
sg76
(lp5534
S':'
asbag69
(g90
g71
NtRp5535
(dp5536
g74
(dp5537
sg83
g5522
sg76
(lp5538
g69
(g70
g71
NtRp5539
(dp5540
g74
(dp5541
g82
I5
ssg83
g5535
sg76
(lp5542
g69
(g78
g71
NtRp5543
(dp5544
g74
(dp5545
g82
I4
ssg83
Nsg76
(lp5546
g69
(g85
g71
NtRp5547
(dp5548
g74
(dp5549
sg83
g5543
sg76
(lp5550
g69
(g90
g71
NtRp5551
(dp5552
g74
(dp5553
g94
g95
ssg83
g5547
sg76
(lp5554
S'author'
p5555
asbag69
(g90
g71
NtRp5556
(dp5557
g74
(dp5558
g101
g102
ssg83
g5547
sg76
(lp5559
S':'
asbag69
(g90
g71
NtRp5560
(dp5561
g74
(dp5562
sg83
g5547
sg76
(lp5563
g69
(g70
g71
NtRp5564
(dp5565
g74
(dp5566
g82
I4
ssg83
g5560
sg76
(lp5567
S'Your Name <you@example.com>'
p5568
asbasbasbag69
(g85
g71
NtRp5569
(dp5570
g74
(dp5571
sg83
g5543
sg76
(lp5572
g69
(g90
g71
NtRp5573
(dp5574
g74
(dp5575
g94
g95
ssg83
g5569
sg76
(lp5576
S'copyright'
p5577
asbag69
(g90
g71
NtRp5578
(dp5579
g74
(dp5580
g101
g102
ssg83
g5569
sg76
(lp5581
S':'
asbag69
(g90
g71
NtRp5582
(dp5583
g74
(dp5584
sg83
g5569
sg76
(lp5585
g69
(g70
g71
NtRp5586
(dp5587
g74
(dp5588
g82
I4
ssg83
g5582
sg76
(lp5589
S'Copyright 2011'
p5590
asbasbasbag69
(g85
g71
NtRp5591
(dp5592
g74
(dp5593
sg83
g5543
sg76
(lp5594
g69
(g90
g71
NtRp5595
(dp5596
g74
(dp5597
g94
g95
ssg83
g5591
sg76
(lp5598
S'description'
p5599
asbag69
(g90
g71
NtRp5600
(dp5601
g74
(dp5602
g101
g102
ssg83
g5591
sg76
(lp5603
S':'
asbag69
(g90
g71
NtRp5604
(dp5605
g74
(dp5606
sg83
g5591
sg76
(lp5607
g69
(g70
g71
NtRp5608
(dp5609
g74
(dp5610
g82
I4
ssg83
g5604
sg76
(lp5611
S'a cool new app'
p5612
asbasbasbag69
(g85
g71
NtRp5613
(dp5614
g74
(dp5615
sg83
g5543
sg76
(lp5616
g69
(g90
g71
NtRp5617
(dp5618
g74
(dp5619
g94
g95
ssg83
g5613
sg76
(lp5620
S'generator'
p5621
asbag69
(g90
g71
NtRp5622
(dp5623
g74
(dp5624
g101
g102
ssg83
g5613
sg76
(lp5625
S':'
asbag69
(g90
g71
NtRp5626
(dp5627
g74
(dp5628
sg83
g5613
sg76
(lp5629
g69
(g70
g71
NtRp5630
(dp5631
g74
(dp5632
g82
I4
ssg83
g5626
sg76
(lp5633
S'Web2py Web Framework'
p5634
asbasbasbag69
(g85
g71
NtRp5635
(dp5636
g74
(dp5637
sg83
g5543
sg76
(lp5638
g69
(g90
g71
NtRp5639
(dp5640
g74
(dp5641
g94
g95
ssg83
g5635
sg76
(lp5642
S'keywords'
p5643
asbag69
(g90
g71
NtRp5644
(dp5645
g74
(dp5646
g101
g102
ssg83
g5635
sg76
(lp5647
S':'
asbag69
(g90
g71
NtRp5648
(dp5649
g74
(dp5650
sg83
g5635
sg76
(lp5651
g69
(g70
g71
NtRp5652
(dp5653
g74
(dp5654
g82
I4
ssg83
g5648
sg76
(lp5655
S'web2py, python, framework'
p5656
asbasbasbasbasbasbasbag69
(g85
g71
NtRp5657
(dp5658
g74
(dp5659
sg83
g3650
sg76
(lp5660
g69
(g90
g71
NtRp5661
(dp5662
g74
(dp5663
g94
g95
ssg83
g5657
sg76
(lp5664
S'postprocessing'
p5665
asbag69
(g90
g71
NtRp5666
(dp5667
g74
(dp5668
g101
g102
ssg83
g5657
sg76
(lp5669
S':'
asbag69
(g90
g71
NtRp5670
(dp5671
g74
(dp5672
sg83
g5657
sg76
(lp5673
g69
(g70
g71
NtRp5674
(dp5675
g74
(dp5676
g82
I5
ssg83
g5670
sg76
(lp5677
g69
(g78
g71
NtRp5678
(dp5679
g74
(dp5680
g82
I4
ssg83
Nsg76
(lp5681
sbasbasbasbag69
(g85
g71
NtRp5682
(dp5683
g74
(dp5684
sg83
g3650
sg76
(lp5685
g69
(g90
g71
NtRp5686
(dp5687
g74
(dp5688
g94
g95
ssg83
g5682
sg76
(lp5689
S'session_file'
p5690
asbag69
(g90
g71
NtRp5691
(dp5692
g74
(dp5693
g101
g102
ssg83
g5682
sg76
(lp5694
S':'
asbag69
(g90
g71
NtRp5695
(dp5696
g74
(dp5697
sg83
g5682
sg76
(lp5698
g69
(g70
g71
NtRp5699
(dp5700
g74
(dp5701
g82
I5
ssg83
g5695
sg76
(lp5702
S"<open file '/Users/ianaboneva/Dropbox/DePaul/CSC 438 - Web Applications/web2py/applications/Book_Shelf_copy/sessions/127.0.0.1-eeba29a1-713d-4626-a1ad-4627ea1d2e7a', mode 'rb+' at 0x109f60930>"
p5703
asbasbasbag69
(g85
g71
NtRp5704
(dp5705
g74
(dp5706
sg83
g3650
sg76
(lp5707
g69
(g90
g71
NtRp5708
(dp5709
g74
(dp5710
g94
g95
ssg83
g5704
sg76
(lp5711
S'session_filename'
p5712
asbag69
(g90
g71
NtRp5713
(dp5714
g74
(dp5715
g101
g102
ssg83
g5704
sg76
(lp5716
S':'
asbag69
(g90
g71
NtRp5717
(dp5718
g74
(dp5719
sg83
g5704
sg76
(lp5720
g69
(g70
g71
NtRp5721
(dp5722
g74
(dp5723
g82
I5
ssg83
g5717
sg76
(lp5724
S'/Users/ianaboneva/Dropbox/DePaul/CSC 438 - Web Applications/web2py/applications/Book_Shelf_copy/sessions/127.0.0.1-eeba29a1-713d-4626-a1ad-4627ea1d2e7a'
p5725
asbasbasbag69
(g85
g71
NtRp5726
(dp5727
g74
(dp5728
sg83
g3650
sg76
(lp5729
g69
(g90
g71
NtRp5730
(dp5731
g74
(dp5732
g94
g95
ssg83
g5726
sg76
(lp5733
S'session_id'
p5734
asbag69
(g90
g71
NtRp5735
(dp5736
g74
(dp5737
g101
g102
ssg83
g5726
sg76
(lp5738
S':'
asbag69
(g90
g71
NtRp5739
(dp5740
g74
(dp5741
sg83
g5726
sg76
(lp5742
g69
(g70
g71
NtRp5743
(dp5744
g74
(dp5745
g82
I5
ssg83
g5739
sg76
(lp5746
S'127.0.0.1-eeba29a1-713d-4626-a1ad-4627ea1d2e7a'
p5747
asbasbasbag69
(g85
g71
NtRp5748
(dp5749
g74
(dp5750
sg83
g3650
sg76
(lp5751
g69
(g90
g71
NtRp5752
(dp5753
g74
(dp5754
g94
g95
ssg83
g5748
sg76
(lp5755
S'session_id_name'
p5756
asbag69
(g90
g71
NtRp5757
(dp5758
g74
(dp5759
g101
g102
ssg83
g5748
sg76
(lp5760
S':'
asbag69
(g90
g71
NtRp5761
(dp5762
g74
(dp5763
sg83
g5748
sg76
(lp5764
g69
(g70
g71
NtRp5765
(dp5766
g74
(dp5767
g82
I5
ssg83
g5761
sg76
(lp5768
g3707
asbasbasbag69
(g85
g71
NtRp5769
(dp5770
g74
(dp5771
sg83
g3650
sg76
(lp5772
g69
(g90
g71
NtRp5773
(dp5774
g74
(dp5775
g94
g95
ssg83
g5769
sg76
(lp5776
S'session_locked'
p5777
asbag69
(g90
g71
NtRp5778
(dp5779
g74
(dp5780
g101
g102
ssg83
g5769
sg76
(lp5781
S':'
asbag69
(g90
g71
NtRp5782
(dp5783
g74
(dp5784
sg83
g5769
sg76
(lp5785
g69
(g70
g71
NtRp5786
(dp5787
g74
(dp5788
g82
I5
ssg83
g5782
sg76
(lp5789
g1875
asbasbasbag69
(g85
g71
NtRp5790
(dp5791
g74
(dp5792
sg83
g3650
sg76
(lp5793
g69
(g90
g71
NtRp5794
(dp5795
g74
(dp5796
g94
g95
ssg83
g5790
sg76
(lp5797
S'session_new'
p5798
asbag69
(g90
g71
NtRp5799
(dp5800
g74
(dp5801
g101
g102
ssg83
g5790
sg76
(lp5802
S':'
asbag69
(g90
g71
NtRp5803
(dp5804
g74
(dp5805
sg83
g5790
sg76
(lp5806
g69
(g70
g71
NtRp5807
(dp5808
g74
(dp5809
g82
I5
ssg83
g5803
sg76
(lp5810
g112
asbasbasbag69
(g85
g71
NtRp5811
(dp5812
g74
(dp5813
sg83
g3650
sg76
(lp5814
g69
(g90
g71
NtRp5815
(dp5816
g74
(dp5817
g94
g95
ssg83
g5811
sg76
(lp5818
S'status'
p5819
asbag69
(g90
g71
NtRp5820
(dp5821
g74
(dp5822
g101
g102
ssg83
g5811
sg76
(lp5823
S':'
asbag69
(g90
g71
NtRp5824
(dp5825
g74
(dp5826
sg83
g5811
sg76
(lp5827
g69
(g70
g71
NtRp5828
(dp5829
g74
(dp5830
g82
I5
ssg83
g5824
sg76
(lp5831
S'200'
p5832
asbasbasbag69
(g85
g71
NtRp5833
(dp5834
g74
(dp5835
sg83
g3650
sg76
(lp5836
g69
(g90
g71
NtRp5837
(dp5838
g74
(dp5839
g94
g95
ssg83
g5833
sg76
(lp5840
S'subtitle'
p5841
asbag69
(g90
g71
NtRp5842
(dp5843
g74
(dp5844
g101
g102
ssg83
g5833
sg76
(lp5845
S':'
asbag69
(g90
g71
NtRp5846
(dp5847
g74
(dp5848
sg83
g5833
sg76
(lp5849
g69
(g70
g71
NtRp5850
(dp5851
g74
(dp5852
g82
I5
ssg83
g5846
sg76
(lp5853
g4206
(S's\r\x00\x00\x00customize me!'
tRp5854
asbasbasbag69
(g85
g71
NtRp5855
(dp5856
g74
(dp5857
sg83
g3650
sg76
(lp5858
g69
(g90
g71
NtRp5859
(dp5860
g74
(dp5861
g94
g95
ssg83
g5855
sg76
(lp5862
S'title'
p5863
asbag69
(g90
g71
NtRp5864
(dp5865
g74
(dp5866
g101
g102
ssg83
g5855
sg76
(lp5867
S':'
asbag69
(g90
g71
NtRp5868
(dp5869
g74
(dp5870
sg83
g5855
sg76
(lp5871
g69
(g70
g71
NtRp5872
(dp5873
g74
(dp5874
g82
I5
ssg83
g5868
sg76
(lp5875
S'Book Shelf Copy'
p5876
asbasbasbag69
(g85
g71
NtRp5877
(dp5878
g74
(dp5879
sg83
g3650
sg76
(lp5880
g69
(g90
g71
NtRp5881
(dp5882
g74
(dp5883
g94
g95
ssg83
g5877
sg76
(lp5884
g2539
asbag69
(g90
g71
NtRp5885
(dp5886
g74
(dp5887
g101
g102
ssg83
g5877
sg76
(lp5888
S':'
asbag69
(g90
g71
NtRp5889
(dp5890
g74
(dp5891
sg83
g5877
sg76
(lp5892
g69
(g70
g71
NtRp5893
(dp5894
g74
(dp5895
g82
I5
ssg83
g5889
sg76
(lp5896
g2552
asbasbasbag69
(g85
g71
NtRp5897
(dp5898
g74
(dp5899
sg83
g3650
sg76
(lp5900
g69
(g90
g71
NtRp5901
(dp5902
g74
(dp5903
g94
g95
ssg83
g5897
sg76
(lp5904
S'view'
p5905
asbag69
(g90
g71
NtRp5906
(dp5907
g74
(dp5908
g101
g102
ssg83
g5897
sg76
(lp5909
S':'
asbag69
(g90
g71
NtRp5910
(dp5911
g74
(dp5912
sg83
g5897
sg76
(lp5913
g69
(g70
g71
NtRp5914
(dp5915
g74
(dp5916
g82
I5
ssg83
g5910
sg76
(lp5917
S'default/index.html'
p5918
asbasbasbasbasbsS'locals'
p5919
(dp5920
g4
S"'/Users/ianaboneva/Dropbox/DePaul/CSC 438 - Web A...plications/Book_Shelf_copy/controllers/default.py'"
p5921
sg6
S"'# -*- coding: utf-8 -*-\\n# this file is released ...=crud())\\n\\nresponse._vars=response._caller(index)\\n'"
p5922
sssS'traceback'
p5923
S'Traceback (most recent call last):\n  File "/Users/ianaboneva/Dropbox/DePaul/CSC 438 - Web Applications/web2py/gluon/restricted.py", line 204, in restricted\n    ccode = compile2(code,layer)\n  File "/Users/ianaboneva/Dropbox/DePaul/CSC 438 - Web Applications/web2py/gluon/restricted.py", line 189, in compile2\n    return compile(code.rstrip().replace(\'\\r\\n\',\'\\n\')+\'\\n\', layer, \'exec\')\n  File "/Users/ianaboneva/Dropbox/DePaul/CSC 438 - Web Applications/web2py/applications/Book_Shelf_copy/controllers/default.py", line 15\n    response.flash = "Welcome to Book Shelf!"\n                                            ^\nIndentationError: unindent does not match any outer indentation level\n'
p5924
s.